ARM GAS  /var/folders/9k/zk1mgrrd7wg4__6zvxvr9w8m0000gn/T//ccWZw7sc.s 			page 1


   1              		.cpu cortex-m7
   2              		.arch armv7e-m
   3              		.fpu fpv5-d16
   4              		.eabi_attribute 28, 1
   5              		.eabi_attribute 20, 1
   6              		.eabi_attribute 21, 1
   7              		.eabi_attribute 23, 3
   8              		.eabi_attribute 24, 1
   9              		.eabi_attribute 25, 1
  10              		.eabi_attribute 26, 1
  11              		.eabi_attribute 30, 2
  12              		.eabi_attribute 34, 1
  13              		.eabi_attribute 18, 4
  14              		.file	"algorithms.cpp"
  15              		.text
  16              	.Ltext0:
  17              		.cfi_sections	.debug_frame
  18              		.section	.text._ZN6plaits2fm15RenderOperatorsILi1ELi0ELb1EEEvPNS0_8OperatorEPKfS5_PfiS5_S6_j,"axG"
  19              		.align	1
  20              		.p2align 2,,3
  21              		.weak	_ZN6plaits2fm15RenderOperatorsILi1ELi0ELb1EEEvPNS0_8OperatorEPKfS5_PfiS5_S6_j
  22              		.syntax unified
  23              		.thumb
  24              		.thumb_func
  26              	_ZN6plaits2fm15RenderOperatorsILi1ELi0ELb1EEEvPNS0_8OperatorEPKfS5_PfiS5_S6_j:
  27              	.LVL0:
  28              	.LFB1479:
  29              		.file 1 "mi/plaits/dsp/fm/operator.h"
   1:mi/plaits/dsp/fm/operator.h **** // Copyright 2021 Emilie Gillet.
   2:mi/plaits/dsp/fm/operator.h **** //
   3:mi/plaits/dsp/fm/operator.h **** // Author: Emilie Gillet (emilie.o.gillet@gmail.com)
   4:mi/plaits/dsp/fm/operator.h **** //
   5:mi/plaits/dsp/fm/operator.h **** // Permission is hereby granted, free of charge, to any person obtaining a copy
   6:mi/plaits/dsp/fm/operator.h **** // of this software and associated documentation files (the "Software"), to deal
   7:mi/plaits/dsp/fm/operator.h **** // in the Software without restriction, including without limitation the rights
   8:mi/plaits/dsp/fm/operator.h **** // to use, copy, modify, merge, publish, distribute, sublicense, and/or sell
   9:mi/plaits/dsp/fm/operator.h **** // copies of the Software, and to permit persons to whom the Software is
  10:mi/plaits/dsp/fm/operator.h **** // furnished to do so, subject to the following conditions:
  11:mi/plaits/dsp/fm/operator.h **** // 
  12:mi/plaits/dsp/fm/operator.h **** // The above copyright notice and this permission notice shall be included in
  13:mi/plaits/dsp/fm/operator.h **** // all copies or substantial portions of the Software.
  14:mi/plaits/dsp/fm/operator.h **** // 
  15:mi/plaits/dsp/fm/operator.h **** // THE SOFTWARE IS PROVIDED "AS IS", WITHOUT WARRANTY OF ANY KIND, EXPRESS OR
  16:mi/plaits/dsp/fm/operator.h **** // IMPLIED, INCLUDING BUT NOT LIMITED TO THE WARRANTIES OF MERCHANTABILITY,
  17:mi/plaits/dsp/fm/operator.h **** // FITNESS FOR A PARTICULAR PURPOSE AND NONINFRINGEMENT. IN NO EVENT SHALL THE
  18:mi/plaits/dsp/fm/operator.h **** // AUTHORS OR COPYRIGHT HOLDERS BE LIABLE FOR ANY CLAIM, DAMAGES OR OTHER
  19:mi/plaits/dsp/fm/operator.h **** // LIABILITY, WHETHER IN AN ACTION OF CONTRACT, TORT OR OTHERWISE, ARISING FROM,
  20:mi/plaits/dsp/fm/operator.h **** // OUT OF OR IN CONNECTION WITH THE SOFTWARE OR THE USE OR OTHER DEALINGS IN
  21:mi/plaits/dsp/fm/operator.h **** // THE SOFTWARE.
  22:mi/plaits/dsp/fm/operator.h **** // 
  23:mi/plaits/dsp/fm/operator.h **** // See http://creativecommons.org/licenses/MIT/ for more information.
  24:mi/plaits/dsp/fm/operator.h **** //
  25:mi/plaits/dsp/fm/operator.h **** // -----------------------------------------------------------------------------
  26:mi/plaits/dsp/fm/operator.h **** //
  27:mi/plaits/dsp/fm/operator.h **** // FM Operator.
  28:mi/plaits/dsp/fm/operator.h **** 
  29:mi/plaits/dsp/fm/operator.h **** #ifndef PLAITS_DSP_FM_OPERATOR_H_
ARM GAS  /var/folders/9k/zk1mgrrd7wg4__6zvxvr9w8m0000gn/T//ccWZw7sc.s 			page 2


  30:mi/plaits/dsp/fm/operator.h **** #define PLAITS_DSP_FM_OPERATOR_H_
  31:mi/plaits/dsp/fm/operator.h **** 
  32:mi/plaits/dsp/fm/operator.h **** #include <algorithm>
  33:mi/plaits/dsp/fm/operator.h **** 
  34:mi/plaits/dsp/fm/operator.h **** #include "plaits/dsp/oscillator/sine_oscillator.h"
  35:mi/plaits/dsp/fm/operator.h **** 
  36:mi/plaits/dsp/fm/operator.h **** #include "stmlib/dsp/dsp.h"
  37:mi/plaits/dsp/fm/operator.h **** 
  38:mi/plaits/dsp/fm/operator.h **** namespace plaits {
  39:mi/plaits/dsp/fm/operator.h **** 
  40:mi/plaits/dsp/fm/operator.h **** namespace fm {
  41:mi/plaits/dsp/fm/operator.h **** 
  42:mi/plaits/dsp/fm/operator.h **** struct Operator {
  43:mi/plaits/dsp/fm/operator.h ****   enum ModulationSource {
  44:mi/plaits/dsp/fm/operator.h ****     MODULATION_SOURCE_EXTERNAL = -2,
  45:mi/plaits/dsp/fm/operator.h ****     MODULATION_SOURCE_NONE = -1,
  46:mi/plaits/dsp/fm/operator.h ****     MODULATION_SOURCE_FEEDBACK = 0
  47:mi/plaits/dsp/fm/operator.h ****   };
  48:mi/plaits/dsp/fm/operator.h **** 
  49:mi/plaits/dsp/fm/operator.h ****   inline void Reset() {
  50:mi/plaits/dsp/fm/operator.h ****     phase = 0;
  51:mi/plaits/dsp/fm/operator.h ****     amplitude = 0.0f;
  52:mi/plaits/dsp/fm/operator.h ****   }
  53:mi/plaits/dsp/fm/operator.h ****   
  54:mi/plaits/dsp/fm/operator.h ****   uint32_t phase;
  55:mi/plaits/dsp/fm/operator.h ****   float amplitude;
  56:mi/plaits/dsp/fm/operator.h **** };
  57:mi/plaits/dsp/fm/operator.h **** 
  58:mi/plaits/dsp/fm/operator.h **** typedef void (*RenderFn)(
  59:mi/plaits/dsp/fm/operator.h ****     Operator* ops,
  60:mi/plaits/dsp/fm/operator.h ****     const float* f,
  61:mi/plaits/dsp/fm/operator.h ****     const float* a,
  62:mi/plaits/dsp/fm/operator.h ****     float* fb_state,
  63:mi/plaits/dsp/fm/operator.h ****     int fb_amount,
  64:mi/plaits/dsp/fm/operator.h ****     const float* modulation,
  65:mi/plaits/dsp/fm/operator.h ****     float* out,
  66:mi/plaits/dsp/fm/operator.h ****     size_t size);
  67:mi/plaits/dsp/fm/operator.h **** 
  68:mi/plaits/dsp/fm/operator.h **** template<int n, int modulation_source, bool additive>
  69:mi/plaits/dsp/fm/operator.h **** void RenderOperators(
  30              		.loc 1 69 6 view -0
  31              		.cfi_startproc
  32              		@ args = 16, pretend = 0, frame = 0
  33              		@ frame_needed = 0, uses_anonymous_args = 0
  34              	.LBB76:
  35              	.LBB77:
  36              	.LBB78:
  37              		.file 2 "/Library/DaisyToolchain/0.2.0/arm/arm-none-eabi/include/c++/10.3.1/bits/stl_algobase.h"
   1:/Library/DaisyToolchain/0.2.0/arm/arm-none-eabi/include/c++/10.3.1/bits/stl_algobase.h **** // Core algorithmic facilities -*- C++ -*-
   2:/Library/DaisyToolchain/0.2.0/arm/arm-none-eabi/include/c++/10.3.1/bits/stl_algobase.h **** 
   3:/Library/DaisyToolchain/0.2.0/arm/arm-none-eabi/include/c++/10.3.1/bits/stl_algobase.h **** // Copyright (C) 2001-2020 Free Software Foundation, Inc.
   4:/Library/DaisyToolchain/0.2.0/arm/arm-none-eabi/include/c++/10.3.1/bits/stl_algobase.h **** //
   5:/Library/DaisyToolchain/0.2.0/arm/arm-none-eabi/include/c++/10.3.1/bits/stl_algobase.h **** // This file is part of the GNU ISO C++ Library.  This library is free
   6:/Library/DaisyToolchain/0.2.0/arm/arm-none-eabi/include/c++/10.3.1/bits/stl_algobase.h **** // software; you can redistribute it and/or modify it under the
   7:/Library/DaisyToolchain/0.2.0/arm/arm-none-eabi/include/c++/10.3.1/bits/stl_algobase.h **** // terms of the GNU General Public License as published by the
   8:/Library/DaisyToolchain/0.2.0/arm/arm-none-eabi/include/c++/10.3.1/bits/stl_algobase.h **** // Free Software Foundation; either version 3, or (at your option)
   9:/Library/DaisyToolchain/0.2.0/arm/arm-none-eabi/include/c++/10.3.1/bits/stl_algobase.h **** // any later version.
ARM GAS  /var/folders/9k/zk1mgrrd7wg4__6zvxvr9w8m0000gn/T//ccWZw7sc.s 			page 3


  10:/Library/DaisyToolchain/0.2.0/arm/arm-none-eabi/include/c++/10.3.1/bits/stl_algobase.h **** 
  11:/Library/DaisyToolchain/0.2.0/arm/arm-none-eabi/include/c++/10.3.1/bits/stl_algobase.h **** // This library is distributed in the hope that it will be useful,
  12:/Library/DaisyToolchain/0.2.0/arm/arm-none-eabi/include/c++/10.3.1/bits/stl_algobase.h **** // but WITHOUT ANY WARRANTY; without even the implied warranty of
  13:/Library/DaisyToolchain/0.2.0/arm/arm-none-eabi/include/c++/10.3.1/bits/stl_algobase.h **** // MERCHANTABILITY or FITNESS FOR A PARTICULAR PURPOSE.  See the
  14:/Library/DaisyToolchain/0.2.0/arm/arm-none-eabi/include/c++/10.3.1/bits/stl_algobase.h **** // GNU General Public License for more details.
  15:/Library/DaisyToolchain/0.2.0/arm/arm-none-eabi/include/c++/10.3.1/bits/stl_algobase.h **** 
  16:/Library/DaisyToolchain/0.2.0/arm/arm-none-eabi/include/c++/10.3.1/bits/stl_algobase.h **** // Under Section 7 of GPL version 3, you are granted additional
  17:/Library/DaisyToolchain/0.2.0/arm/arm-none-eabi/include/c++/10.3.1/bits/stl_algobase.h **** // permissions described in the GCC Runtime Library Exception, version
  18:/Library/DaisyToolchain/0.2.0/arm/arm-none-eabi/include/c++/10.3.1/bits/stl_algobase.h **** // 3.1, as published by the Free Software Foundation.
  19:/Library/DaisyToolchain/0.2.0/arm/arm-none-eabi/include/c++/10.3.1/bits/stl_algobase.h **** 
  20:/Library/DaisyToolchain/0.2.0/arm/arm-none-eabi/include/c++/10.3.1/bits/stl_algobase.h **** // You should have received a copy of the GNU General Public License and
  21:/Library/DaisyToolchain/0.2.0/arm/arm-none-eabi/include/c++/10.3.1/bits/stl_algobase.h **** // a copy of the GCC Runtime Library Exception along with this program;
  22:/Library/DaisyToolchain/0.2.0/arm/arm-none-eabi/include/c++/10.3.1/bits/stl_algobase.h **** // see the files COPYING3 and COPYING.RUNTIME respectively.  If not, see
  23:/Library/DaisyToolchain/0.2.0/arm/arm-none-eabi/include/c++/10.3.1/bits/stl_algobase.h **** // <http://www.gnu.org/licenses/>.
  24:/Library/DaisyToolchain/0.2.0/arm/arm-none-eabi/include/c++/10.3.1/bits/stl_algobase.h **** 
  25:/Library/DaisyToolchain/0.2.0/arm/arm-none-eabi/include/c++/10.3.1/bits/stl_algobase.h **** /*
  26:/Library/DaisyToolchain/0.2.0/arm/arm-none-eabi/include/c++/10.3.1/bits/stl_algobase.h ****  *
  27:/Library/DaisyToolchain/0.2.0/arm/arm-none-eabi/include/c++/10.3.1/bits/stl_algobase.h ****  * Copyright (c) 1994
  28:/Library/DaisyToolchain/0.2.0/arm/arm-none-eabi/include/c++/10.3.1/bits/stl_algobase.h ****  * Hewlett-Packard Company
  29:/Library/DaisyToolchain/0.2.0/arm/arm-none-eabi/include/c++/10.3.1/bits/stl_algobase.h ****  *
  30:/Library/DaisyToolchain/0.2.0/arm/arm-none-eabi/include/c++/10.3.1/bits/stl_algobase.h ****  * Permission to use, copy, modify, distribute and sell this software
  31:/Library/DaisyToolchain/0.2.0/arm/arm-none-eabi/include/c++/10.3.1/bits/stl_algobase.h ****  * and its documentation for any purpose is hereby granted without fee,
  32:/Library/DaisyToolchain/0.2.0/arm/arm-none-eabi/include/c++/10.3.1/bits/stl_algobase.h ****  * provided that the above copyright notice appear in all copies and
  33:/Library/DaisyToolchain/0.2.0/arm/arm-none-eabi/include/c++/10.3.1/bits/stl_algobase.h ****  * that both that copyright notice and this permission notice appear
  34:/Library/DaisyToolchain/0.2.0/arm/arm-none-eabi/include/c++/10.3.1/bits/stl_algobase.h ****  * in supporting documentation.  Hewlett-Packard Company makes no
  35:/Library/DaisyToolchain/0.2.0/arm/arm-none-eabi/include/c++/10.3.1/bits/stl_algobase.h ****  * representations about the suitability of this software for any
  36:/Library/DaisyToolchain/0.2.0/arm/arm-none-eabi/include/c++/10.3.1/bits/stl_algobase.h ****  * purpose.  It is provided "as is" without express or implied warranty.
  37:/Library/DaisyToolchain/0.2.0/arm/arm-none-eabi/include/c++/10.3.1/bits/stl_algobase.h ****  *
  38:/Library/DaisyToolchain/0.2.0/arm/arm-none-eabi/include/c++/10.3.1/bits/stl_algobase.h ****  *
  39:/Library/DaisyToolchain/0.2.0/arm/arm-none-eabi/include/c++/10.3.1/bits/stl_algobase.h ****  * Copyright (c) 1996-1998
  40:/Library/DaisyToolchain/0.2.0/arm/arm-none-eabi/include/c++/10.3.1/bits/stl_algobase.h ****  * Silicon Graphics Computer Systems, Inc.
  41:/Library/DaisyToolchain/0.2.0/arm/arm-none-eabi/include/c++/10.3.1/bits/stl_algobase.h ****  *
  42:/Library/DaisyToolchain/0.2.0/arm/arm-none-eabi/include/c++/10.3.1/bits/stl_algobase.h ****  * Permission to use, copy, modify, distribute and sell this software
  43:/Library/DaisyToolchain/0.2.0/arm/arm-none-eabi/include/c++/10.3.1/bits/stl_algobase.h ****  * and its documentation for any purpose is hereby granted without fee,
  44:/Library/DaisyToolchain/0.2.0/arm/arm-none-eabi/include/c++/10.3.1/bits/stl_algobase.h ****  * provided that the above copyright notice appear in all copies and
  45:/Library/DaisyToolchain/0.2.0/arm/arm-none-eabi/include/c++/10.3.1/bits/stl_algobase.h ****  * that both that copyright notice and this permission notice appear
  46:/Library/DaisyToolchain/0.2.0/arm/arm-none-eabi/include/c++/10.3.1/bits/stl_algobase.h ****  * in supporting documentation.  Silicon Graphics makes no
  47:/Library/DaisyToolchain/0.2.0/arm/arm-none-eabi/include/c++/10.3.1/bits/stl_algobase.h ****  * representations about the suitability of this software for any
  48:/Library/DaisyToolchain/0.2.0/arm/arm-none-eabi/include/c++/10.3.1/bits/stl_algobase.h ****  * purpose.  It is provided "as is" without express or implied warranty.
  49:/Library/DaisyToolchain/0.2.0/arm/arm-none-eabi/include/c++/10.3.1/bits/stl_algobase.h ****  */
  50:/Library/DaisyToolchain/0.2.0/arm/arm-none-eabi/include/c++/10.3.1/bits/stl_algobase.h **** 
  51:/Library/DaisyToolchain/0.2.0/arm/arm-none-eabi/include/c++/10.3.1/bits/stl_algobase.h **** /** @file bits/stl_algobase.h
  52:/Library/DaisyToolchain/0.2.0/arm/arm-none-eabi/include/c++/10.3.1/bits/stl_algobase.h ****  *  This is an internal header file, included by other library headers.
  53:/Library/DaisyToolchain/0.2.0/arm/arm-none-eabi/include/c++/10.3.1/bits/stl_algobase.h ****  *  Do not attempt to use it directly. @headername{algorithm}
  54:/Library/DaisyToolchain/0.2.0/arm/arm-none-eabi/include/c++/10.3.1/bits/stl_algobase.h ****  */
  55:/Library/DaisyToolchain/0.2.0/arm/arm-none-eabi/include/c++/10.3.1/bits/stl_algobase.h **** 
  56:/Library/DaisyToolchain/0.2.0/arm/arm-none-eabi/include/c++/10.3.1/bits/stl_algobase.h **** #ifndef _STL_ALGOBASE_H
  57:/Library/DaisyToolchain/0.2.0/arm/arm-none-eabi/include/c++/10.3.1/bits/stl_algobase.h **** #define _STL_ALGOBASE_H 1
  58:/Library/DaisyToolchain/0.2.0/arm/arm-none-eabi/include/c++/10.3.1/bits/stl_algobase.h **** 
  59:/Library/DaisyToolchain/0.2.0/arm/arm-none-eabi/include/c++/10.3.1/bits/stl_algobase.h **** #include <bits/c++config.h>
  60:/Library/DaisyToolchain/0.2.0/arm/arm-none-eabi/include/c++/10.3.1/bits/stl_algobase.h **** #include <bits/functexcept.h>
  61:/Library/DaisyToolchain/0.2.0/arm/arm-none-eabi/include/c++/10.3.1/bits/stl_algobase.h **** #include <bits/cpp_type_traits.h>
  62:/Library/DaisyToolchain/0.2.0/arm/arm-none-eabi/include/c++/10.3.1/bits/stl_algobase.h **** #include <ext/type_traits.h>
  63:/Library/DaisyToolchain/0.2.0/arm/arm-none-eabi/include/c++/10.3.1/bits/stl_algobase.h **** #include <ext/numeric_traits.h>
  64:/Library/DaisyToolchain/0.2.0/arm/arm-none-eabi/include/c++/10.3.1/bits/stl_algobase.h **** #include <bits/stl_pair.h>
  65:/Library/DaisyToolchain/0.2.0/arm/arm-none-eabi/include/c++/10.3.1/bits/stl_algobase.h **** #include <bits/stl_iterator_base_types.h>
  66:/Library/DaisyToolchain/0.2.0/arm/arm-none-eabi/include/c++/10.3.1/bits/stl_algobase.h **** #include <bits/stl_iterator_base_funcs.h>
ARM GAS  /var/folders/9k/zk1mgrrd7wg4__6zvxvr9w8m0000gn/T//ccWZw7sc.s 			page 4


  67:/Library/DaisyToolchain/0.2.0/arm/arm-none-eabi/include/c++/10.3.1/bits/stl_algobase.h **** #include <bits/stl_iterator.h>
  68:/Library/DaisyToolchain/0.2.0/arm/arm-none-eabi/include/c++/10.3.1/bits/stl_algobase.h **** #include <bits/concept_check.h>
  69:/Library/DaisyToolchain/0.2.0/arm/arm-none-eabi/include/c++/10.3.1/bits/stl_algobase.h **** #include <debug/debug.h>
  70:/Library/DaisyToolchain/0.2.0/arm/arm-none-eabi/include/c++/10.3.1/bits/stl_algobase.h **** #include <bits/move.h> // For std::swap
  71:/Library/DaisyToolchain/0.2.0/arm/arm-none-eabi/include/c++/10.3.1/bits/stl_algobase.h **** #include <bits/predefined_ops.h>
  72:/Library/DaisyToolchain/0.2.0/arm/arm-none-eabi/include/c++/10.3.1/bits/stl_algobase.h **** #if __cplusplus >= 201103L
  73:/Library/DaisyToolchain/0.2.0/arm/arm-none-eabi/include/c++/10.3.1/bits/stl_algobase.h **** # include <type_traits>
  74:/Library/DaisyToolchain/0.2.0/arm/arm-none-eabi/include/c++/10.3.1/bits/stl_algobase.h **** #endif
  75:/Library/DaisyToolchain/0.2.0/arm/arm-none-eabi/include/c++/10.3.1/bits/stl_algobase.h **** #if __cplusplus > 201703L
  76:/Library/DaisyToolchain/0.2.0/arm/arm-none-eabi/include/c++/10.3.1/bits/stl_algobase.h **** # include <compare>
  77:/Library/DaisyToolchain/0.2.0/arm/arm-none-eabi/include/c++/10.3.1/bits/stl_algobase.h **** #endif
  78:/Library/DaisyToolchain/0.2.0/arm/arm-none-eabi/include/c++/10.3.1/bits/stl_algobase.h **** 
  79:/Library/DaisyToolchain/0.2.0/arm/arm-none-eabi/include/c++/10.3.1/bits/stl_algobase.h **** namespace std _GLIBCXX_VISIBILITY(default)
  80:/Library/DaisyToolchain/0.2.0/arm/arm-none-eabi/include/c++/10.3.1/bits/stl_algobase.h **** {
  81:/Library/DaisyToolchain/0.2.0/arm/arm-none-eabi/include/c++/10.3.1/bits/stl_algobase.h **** _GLIBCXX_BEGIN_NAMESPACE_VERSION
  82:/Library/DaisyToolchain/0.2.0/arm/arm-none-eabi/include/c++/10.3.1/bits/stl_algobase.h **** 
  83:/Library/DaisyToolchain/0.2.0/arm/arm-none-eabi/include/c++/10.3.1/bits/stl_algobase.h ****   /*
  84:/Library/DaisyToolchain/0.2.0/arm/arm-none-eabi/include/c++/10.3.1/bits/stl_algobase.h ****    * A constexpr wrapper for __builtin_memcmp.
  85:/Library/DaisyToolchain/0.2.0/arm/arm-none-eabi/include/c++/10.3.1/bits/stl_algobase.h ****    * @param __num The number of elements of type _Tp (not bytes).
  86:/Library/DaisyToolchain/0.2.0/arm/arm-none-eabi/include/c++/10.3.1/bits/stl_algobase.h ****    */
  87:/Library/DaisyToolchain/0.2.0/arm/arm-none-eabi/include/c++/10.3.1/bits/stl_algobase.h ****   template<typename _Tp, typename _Up>
  88:/Library/DaisyToolchain/0.2.0/arm/arm-none-eabi/include/c++/10.3.1/bits/stl_algobase.h ****     _GLIBCXX14_CONSTEXPR
  89:/Library/DaisyToolchain/0.2.0/arm/arm-none-eabi/include/c++/10.3.1/bits/stl_algobase.h ****     inline int
  90:/Library/DaisyToolchain/0.2.0/arm/arm-none-eabi/include/c++/10.3.1/bits/stl_algobase.h ****     __memcmp(const _Tp* __first1, const _Up* __first2, size_t __num)
  91:/Library/DaisyToolchain/0.2.0/arm/arm-none-eabi/include/c++/10.3.1/bits/stl_algobase.h ****     {
  92:/Library/DaisyToolchain/0.2.0/arm/arm-none-eabi/include/c++/10.3.1/bits/stl_algobase.h **** #if __cplusplus >= 201103L
  93:/Library/DaisyToolchain/0.2.0/arm/arm-none-eabi/include/c++/10.3.1/bits/stl_algobase.h ****       static_assert(sizeof(_Tp) == sizeof(_Up), "can be compared with memcmp");
  94:/Library/DaisyToolchain/0.2.0/arm/arm-none-eabi/include/c++/10.3.1/bits/stl_algobase.h **** #endif
  95:/Library/DaisyToolchain/0.2.0/arm/arm-none-eabi/include/c++/10.3.1/bits/stl_algobase.h **** #ifdef __cpp_lib_is_constant_evaluated
  96:/Library/DaisyToolchain/0.2.0/arm/arm-none-eabi/include/c++/10.3.1/bits/stl_algobase.h ****       if (std::is_constant_evaluated())
  97:/Library/DaisyToolchain/0.2.0/arm/arm-none-eabi/include/c++/10.3.1/bits/stl_algobase.h **** 	{
  98:/Library/DaisyToolchain/0.2.0/arm/arm-none-eabi/include/c++/10.3.1/bits/stl_algobase.h **** 	  for(; __num > 0; ++__first1, ++__first2, --__num)
  99:/Library/DaisyToolchain/0.2.0/arm/arm-none-eabi/include/c++/10.3.1/bits/stl_algobase.h **** 	    if (*__first1 != *__first2)
 100:/Library/DaisyToolchain/0.2.0/arm/arm-none-eabi/include/c++/10.3.1/bits/stl_algobase.h **** 	      return *__first1 < *__first2 ? -1 : 1;
 101:/Library/DaisyToolchain/0.2.0/arm/arm-none-eabi/include/c++/10.3.1/bits/stl_algobase.h **** 	  return 0;
 102:/Library/DaisyToolchain/0.2.0/arm/arm-none-eabi/include/c++/10.3.1/bits/stl_algobase.h **** 	}
 103:/Library/DaisyToolchain/0.2.0/arm/arm-none-eabi/include/c++/10.3.1/bits/stl_algobase.h ****       else
 104:/Library/DaisyToolchain/0.2.0/arm/arm-none-eabi/include/c++/10.3.1/bits/stl_algobase.h **** #endif
 105:/Library/DaisyToolchain/0.2.0/arm/arm-none-eabi/include/c++/10.3.1/bits/stl_algobase.h **** 	return __builtin_memcmp(__first1, __first2, sizeof(_Tp) * __num);
 106:/Library/DaisyToolchain/0.2.0/arm/arm-none-eabi/include/c++/10.3.1/bits/stl_algobase.h ****     }
 107:/Library/DaisyToolchain/0.2.0/arm/arm-none-eabi/include/c++/10.3.1/bits/stl_algobase.h **** 
 108:/Library/DaisyToolchain/0.2.0/arm/arm-none-eabi/include/c++/10.3.1/bits/stl_algobase.h **** #if __cplusplus < 201103L
 109:/Library/DaisyToolchain/0.2.0/arm/arm-none-eabi/include/c++/10.3.1/bits/stl_algobase.h ****   // See http://gcc.gnu.org/ml/libstdc++/2004-08/msg00167.html: in a
 110:/Library/DaisyToolchain/0.2.0/arm/arm-none-eabi/include/c++/10.3.1/bits/stl_algobase.h ****   // nutshell, we are partially implementing the resolution of DR 187,
 111:/Library/DaisyToolchain/0.2.0/arm/arm-none-eabi/include/c++/10.3.1/bits/stl_algobase.h ****   // when it's safe, i.e., the value_types are equal.
 112:/Library/DaisyToolchain/0.2.0/arm/arm-none-eabi/include/c++/10.3.1/bits/stl_algobase.h ****   template<bool _BoolType>
 113:/Library/DaisyToolchain/0.2.0/arm/arm-none-eabi/include/c++/10.3.1/bits/stl_algobase.h ****     struct __iter_swap
 114:/Library/DaisyToolchain/0.2.0/arm/arm-none-eabi/include/c++/10.3.1/bits/stl_algobase.h ****     {
 115:/Library/DaisyToolchain/0.2.0/arm/arm-none-eabi/include/c++/10.3.1/bits/stl_algobase.h ****       template<typename _ForwardIterator1, typename _ForwardIterator2>
 116:/Library/DaisyToolchain/0.2.0/arm/arm-none-eabi/include/c++/10.3.1/bits/stl_algobase.h **** 	static void
 117:/Library/DaisyToolchain/0.2.0/arm/arm-none-eabi/include/c++/10.3.1/bits/stl_algobase.h **** 	iter_swap(_ForwardIterator1 __a, _ForwardIterator2 __b)
 118:/Library/DaisyToolchain/0.2.0/arm/arm-none-eabi/include/c++/10.3.1/bits/stl_algobase.h **** 	{
 119:/Library/DaisyToolchain/0.2.0/arm/arm-none-eabi/include/c++/10.3.1/bits/stl_algobase.h **** 	  typedef typename iterator_traits<_ForwardIterator1>::value_type
 120:/Library/DaisyToolchain/0.2.0/arm/arm-none-eabi/include/c++/10.3.1/bits/stl_algobase.h **** 	    _ValueType1;
 121:/Library/DaisyToolchain/0.2.0/arm/arm-none-eabi/include/c++/10.3.1/bits/stl_algobase.h **** 	  _ValueType1 __tmp = *__a;
 122:/Library/DaisyToolchain/0.2.0/arm/arm-none-eabi/include/c++/10.3.1/bits/stl_algobase.h **** 	  *__a = *__b;
 123:/Library/DaisyToolchain/0.2.0/arm/arm-none-eabi/include/c++/10.3.1/bits/stl_algobase.h **** 	  *__b = __tmp;
ARM GAS  /var/folders/9k/zk1mgrrd7wg4__6zvxvr9w8m0000gn/T//ccWZw7sc.s 			page 5


 124:/Library/DaisyToolchain/0.2.0/arm/arm-none-eabi/include/c++/10.3.1/bits/stl_algobase.h **** 	}
 125:/Library/DaisyToolchain/0.2.0/arm/arm-none-eabi/include/c++/10.3.1/bits/stl_algobase.h ****     };
 126:/Library/DaisyToolchain/0.2.0/arm/arm-none-eabi/include/c++/10.3.1/bits/stl_algobase.h **** 
 127:/Library/DaisyToolchain/0.2.0/arm/arm-none-eabi/include/c++/10.3.1/bits/stl_algobase.h ****   template<>
 128:/Library/DaisyToolchain/0.2.0/arm/arm-none-eabi/include/c++/10.3.1/bits/stl_algobase.h ****     struct __iter_swap<true>
 129:/Library/DaisyToolchain/0.2.0/arm/arm-none-eabi/include/c++/10.3.1/bits/stl_algobase.h ****     {
 130:/Library/DaisyToolchain/0.2.0/arm/arm-none-eabi/include/c++/10.3.1/bits/stl_algobase.h ****       template<typename _ForwardIterator1, typename _ForwardIterator2>
 131:/Library/DaisyToolchain/0.2.0/arm/arm-none-eabi/include/c++/10.3.1/bits/stl_algobase.h **** 	static void
 132:/Library/DaisyToolchain/0.2.0/arm/arm-none-eabi/include/c++/10.3.1/bits/stl_algobase.h **** 	iter_swap(_ForwardIterator1 __a, _ForwardIterator2 __b)
 133:/Library/DaisyToolchain/0.2.0/arm/arm-none-eabi/include/c++/10.3.1/bits/stl_algobase.h **** 	{
 134:/Library/DaisyToolchain/0.2.0/arm/arm-none-eabi/include/c++/10.3.1/bits/stl_algobase.h **** 	  swap(*__a, *__b);
 135:/Library/DaisyToolchain/0.2.0/arm/arm-none-eabi/include/c++/10.3.1/bits/stl_algobase.h **** 	}
 136:/Library/DaisyToolchain/0.2.0/arm/arm-none-eabi/include/c++/10.3.1/bits/stl_algobase.h ****     };
 137:/Library/DaisyToolchain/0.2.0/arm/arm-none-eabi/include/c++/10.3.1/bits/stl_algobase.h **** #endif // C++03
 138:/Library/DaisyToolchain/0.2.0/arm/arm-none-eabi/include/c++/10.3.1/bits/stl_algobase.h **** 
 139:/Library/DaisyToolchain/0.2.0/arm/arm-none-eabi/include/c++/10.3.1/bits/stl_algobase.h ****   /**
 140:/Library/DaisyToolchain/0.2.0/arm/arm-none-eabi/include/c++/10.3.1/bits/stl_algobase.h ****    *  @brief Swaps the contents of two iterators.
 141:/Library/DaisyToolchain/0.2.0/arm/arm-none-eabi/include/c++/10.3.1/bits/stl_algobase.h ****    *  @ingroup mutating_algorithms
 142:/Library/DaisyToolchain/0.2.0/arm/arm-none-eabi/include/c++/10.3.1/bits/stl_algobase.h ****    *  @param  __a  An iterator.
 143:/Library/DaisyToolchain/0.2.0/arm/arm-none-eabi/include/c++/10.3.1/bits/stl_algobase.h ****    *  @param  __b  Another iterator.
 144:/Library/DaisyToolchain/0.2.0/arm/arm-none-eabi/include/c++/10.3.1/bits/stl_algobase.h ****    *  @return   Nothing.
 145:/Library/DaisyToolchain/0.2.0/arm/arm-none-eabi/include/c++/10.3.1/bits/stl_algobase.h ****    *
 146:/Library/DaisyToolchain/0.2.0/arm/arm-none-eabi/include/c++/10.3.1/bits/stl_algobase.h ****    *  This function swaps the values pointed to by two iterators, not the
 147:/Library/DaisyToolchain/0.2.0/arm/arm-none-eabi/include/c++/10.3.1/bits/stl_algobase.h ****    *  iterators themselves.
 148:/Library/DaisyToolchain/0.2.0/arm/arm-none-eabi/include/c++/10.3.1/bits/stl_algobase.h ****   */
 149:/Library/DaisyToolchain/0.2.0/arm/arm-none-eabi/include/c++/10.3.1/bits/stl_algobase.h ****   template<typename _ForwardIterator1, typename _ForwardIterator2>
 150:/Library/DaisyToolchain/0.2.0/arm/arm-none-eabi/include/c++/10.3.1/bits/stl_algobase.h ****     _GLIBCXX20_CONSTEXPR
 151:/Library/DaisyToolchain/0.2.0/arm/arm-none-eabi/include/c++/10.3.1/bits/stl_algobase.h ****     inline void
 152:/Library/DaisyToolchain/0.2.0/arm/arm-none-eabi/include/c++/10.3.1/bits/stl_algobase.h ****     iter_swap(_ForwardIterator1 __a, _ForwardIterator2 __b)
 153:/Library/DaisyToolchain/0.2.0/arm/arm-none-eabi/include/c++/10.3.1/bits/stl_algobase.h ****     {
 154:/Library/DaisyToolchain/0.2.0/arm/arm-none-eabi/include/c++/10.3.1/bits/stl_algobase.h ****       // concept requirements
 155:/Library/DaisyToolchain/0.2.0/arm/arm-none-eabi/include/c++/10.3.1/bits/stl_algobase.h ****       __glibcxx_function_requires(_Mutable_ForwardIteratorConcept<
 156:/Library/DaisyToolchain/0.2.0/arm/arm-none-eabi/include/c++/10.3.1/bits/stl_algobase.h **** 				  _ForwardIterator1>)
 157:/Library/DaisyToolchain/0.2.0/arm/arm-none-eabi/include/c++/10.3.1/bits/stl_algobase.h ****       __glibcxx_function_requires(_Mutable_ForwardIteratorConcept<
 158:/Library/DaisyToolchain/0.2.0/arm/arm-none-eabi/include/c++/10.3.1/bits/stl_algobase.h **** 				  _ForwardIterator2>)
 159:/Library/DaisyToolchain/0.2.0/arm/arm-none-eabi/include/c++/10.3.1/bits/stl_algobase.h **** 
 160:/Library/DaisyToolchain/0.2.0/arm/arm-none-eabi/include/c++/10.3.1/bits/stl_algobase.h **** #if __cplusplus < 201103L
 161:/Library/DaisyToolchain/0.2.0/arm/arm-none-eabi/include/c++/10.3.1/bits/stl_algobase.h ****       typedef typename iterator_traits<_ForwardIterator1>::value_type
 162:/Library/DaisyToolchain/0.2.0/arm/arm-none-eabi/include/c++/10.3.1/bits/stl_algobase.h **** 	_ValueType1;
 163:/Library/DaisyToolchain/0.2.0/arm/arm-none-eabi/include/c++/10.3.1/bits/stl_algobase.h ****       typedef typename iterator_traits<_ForwardIterator2>::value_type
 164:/Library/DaisyToolchain/0.2.0/arm/arm-none-eabi/include/c++/10.3.1/bits/stl_algobase.h **** 	_ValueType2;
 165:/Library/DaisyToolchain/0.2.0/arm/arm-none-eabi/include/c++/10.3.1/bits/stl_algobase.h **** 
 166:/Library/DaisyToolchain/0.2.0/arm/arm-none-eabi/include/c++/10.3.1/bits/stl_algobase.h ****       __glibcxx_function_requires(_ConvertibleConcept<_ValueType1,
 167:/Library/DaisyToolchain/0.2.0/arm/arm-none-eabi/include/c++/10.3.1/bits/stl_algobase.h **** 				  _ValueType2>)
 168:/Library/DaisyToolchain/0.2.0/arm/arm-none-eabi/include/c++/10.3.1/bits/stl_algobase.h ****       __glibcxx_function_requires(_ConvertibleConcept<_ValueType2,
 169:/Library/DaisyToolchain/0.2.0/arm/arm-none-eabi/include/c++/10.3.1/bits/stl_algobase.h **** 				  _ValueType1>)
 170:/Library/DaisyToolchain/0.2.0/arm/arm-none-eabi/include/c++/10.3.1/bits/stl_algobase.h **** 
 171:/Library/DaisyToolchain/0.2.0/arm/arm-none-eabi/include/c++/10.3.1/bits/stl_algobase.h ****       typedef typename iterator_traits<_ForwardIterator1>::reference
 172:/Library/DaisyToolchain/0.2.0/arm/arm-none-eabi/include/c++/10.3.1/bits/stl_algobase.h **** 	_ReferenceType1;
 173:/Library/DaisyToolchain/0.2.0/arm/arm-none-eabi/include/c++/10.3.1/bits/stl_algobase.h ****       typedef typename iterator_traits<_ForwardIterator2>::reference
 174:/Library/DaisyToolchain/0.2.0/arm/arm-none-eabi/include/c++/10.3.1/bits/stl_algobase.h **** 	_ReferenceType2;
 175:/Library/DaisyToolchain/0.2.0/arm/arm-none-eabi/include/c++/10.3.1/bits/stl_algobase.h ****       std::__iter_swap<__are_same<_ValueType1, _ValueType2>::__value
 176:/Library/DaisyToolchain/0.2.0/arm/arm-none-eabi/include/c++/10.3.1/bits/stl_algobase.h **** 	&& __are_same<_ValueType1&, _ReferenceType1>::__value
 177:/Library/DaisyToolchain/0.2.0/arm/arm-none-eabi/include/c++/10.3.1/bits/stl_algobase.h **** 	&& __are_same<_ValueType2&, _ReferenceType2>::__value>::
 178:/Library/DaisyToolchain/0.2.0/arm/arm-none-eabi/include/c++/10.3.1/bits/stl_algobase.h **** 	iter_swap(__a, __b);
 179:/Library/DaisyToolchain/0.2.0/arm/arm-none-eabi/include/c++/10.3.1/bits/stl_algobase.h **** #else
 180:/Library/DaisyToolchain/0.2.0/arm/arm-none-eabi/include/c++/10.3.1/bits/stl_algobase.h ****       // _GLIBCXX_RESOLVE_LIB_DEFECTS
ARM GAS  /var/folders/9k/zk1mgrrd7wg4__6zvxvr9w8m0000gn/T//ccWZw7sc.s 			page 6


 181:/Library/DaisyToolchain/0.2.0/arm/arm-none-eabi/include/c++/10.3.1/bits/stl_algobase.h ****       // 187. iter_swap underspecified
 182:/Library/DaisyToolchain/0.2.0/arm/arm-none-eabi/include/c++/10.3.1/bits/stl_algobase.h ****       swap(*__a, *__b);
 183:/Library/DaisyToolchain/0.2.0/arm/arm-none-eabi/include/c++/10.3.1/bits/stl_algobase.h **** #endif
 184:/Library/DaisyToolchain/0.2.0/arm/arm-none-eabi/include/c++/10.3.1/bits/stl_algobase.h ****     }
 185:/Library/DaisyToolchain/0.2.0/arm/arm-none-eabi/include/c++/10.3.1/bits/stl_algobase.h **** 
 186:/Library/DaisyToolchain/0.2.0/arm/arm-none-eabi/include/c++/10.3.1/bits/stl_algobase.h ****   /**
 187:/Library/DaisyToolchain/0.2.0/arm/arm-none-eabi/include/c++/10.3.1/bits/stl_algobase.h ****    *  @brief Swap the elements of two sequences.
 188:/Library/DaisyToolchain/0.2.0/arm/arm-none-eabi/include/c++/10.3.1/bits/stl_algobase.h ****    *  @ingroup mutating_algorithms
 189:/Library/DaisyToolchain/0.2.0/arm/arm-none-eabi/include/c++/10.3.1/bits/stl_algobase.h ****    *  @param  __first1  A forward iterator.
 190:/Library/DaisyToolchain/0.2.0/arm/arm-none-eabi/include/c++/10.3.1/bits/stl_algobase.h ****    *  @param  __last1   A forward iterator.
 191:/Library/DaisyToolchain/0.2.0/arm/arm-none-eabi/include/c++/10.3.1/bits/stl_algobase.h ****    *  @param  __first2  A forward iterator.
 192:/Library/DaisyToolchain/0.2.0/arm/arm-none-eabi/include/c++/10.3.1/bits/stl_algobase.h ****    *  @return   An iterator equal to @p first2+(last1-first1).
 193:/Library/DaisyToolchain/0.2.0/arm/arm-none-eabi/include/c++/10.3.1/bits/stl_algobase.h ****    *
 194:/Library/DaisyToolchain/0.2.0/arm/arm-none-eabi/include/c++/10.3.1/bits/stl_algobase.h ****    *  Swaps each element in the range @p [first1,last1) with the
 195:/Library/DaisyToolchain/0.2.0/arm/arm-none-eabi/include/c++/10.3.1/bits/stl_algobase.h ****    *  corresponding element in the range @p [first2,(last1-first1)).
 196:/Library/DaisyToolchain/0.2.0/arm/arm-none-eabi/include/c++/10.3.1/bits/stl_algobase.h ****    *  The ranges must not overlap.
 197:/Library/DaisyToolchain/0.2.0/arm/arm-none-eabi/include/c++/10.3.1/bits/stl_algobase.h ****   */
 198:/Library/DaisyToolchain/0.2.0/arm/arm-none-eabi/include/c++/10.3.1/bits/stl_algobase.h ****   template<typename _ForwardIterator1, typename _ForwardIterator2>
 199:/Library/DaisyToolchain/0.2.0/arm/arm-none-eabi/include/c++/10.3.1/bits/stl_algobase.h ****     _GLIBCXX20_CONSTEXPR
 200:/Library/DaisyToolchain/0.2.0/arm/arm-none-eabi/include/c++/10.3.1/bits/stl_algobase.h ****     _ForwardIterator2
 201:/Library/DaisyToolchain/0.2.0/arm/arm-none-eabi/include/c++/10.3.1/bits/stl_algobase.h ****     swap_ranges(_ForwardIterator1 __first1, _ForwardIterator1 __last1,
 202:/Library/DaisyToolchain/0.2.0/arm/arm-none-eabi/include/c++/10.3.1/bits/stl_algobase.h **** 		_ForwardIterator2 __first2)
 203:/Library/DaisyToolchain/0.2.0/arm/arm-none-eabi/include/c++/10.3.1/bits/stl_algobase.h ****     {
 204:/Library/DaisyToolchain/0.2.0/arm/arm-none-eabi/include/c++/10.3.1/bits/stl_algobase.h ****       // concept requirements
 205:/Library/DaisyToolchain/0.2.0/arm/arm-none-eabi/include/c++/10.3.1/bits/stl_algobase.h ****       __glibcxx_function_requires(_Mutable_ForwardIteratorConcept<
 206:/Library/DaisyToolchain/0.2.0/arm/arm-none-eabi/include/c++/10.3.1/bits/stl_algobase.h **** 				  _ForwardIterator1>)
 207:/Library/DaisyToolchain/0.2.0/arm/arm-none-eabi/include/c++/10.3.1/bits/stl_algobase.h ****       __glibcxx_function_requires(_Mutable_ForwardIteratorConcept<
 208:/Library/DaisyToolchain/0.2.0/arm/arm-none-eabi/include/c++/10.3.1/bits/stl_algobase.h **** 				  _ForwardIterator2>)
 209:/Library/DaisyToolchain/0.2.0/arm/arm-none-eabi/include/c++/10.3.1/bits/stl_algobase.h ****       __glibcxx_requires_valid_range(__first1, __last1);
 210:/Library/DaisyToolchain/0.2.0/arm/arm-none-eabi/include/c++/10.3.1/bits/stl_algobase.h **** 
 211:/Library/DaisyToolchain/0.2.0/arm/arm-none-eabi/include/c++/10.3.1/bits/stl_algobase.h ****       for (; __first1 != __last1; ++__first1, (void)++__first2)
 212:/Library/DaisyToolchain/0.2.0/arm/arm-none-eabi/include/c++/10.3.1/bits/stl_algobase.h **** 	std::iter_swap(__first1, __first2);
 213:/Library/DaisyToolchain/0.2.0/arm/arm-none-eabi/include/c++/10.3.1/bits/stl_algobase.h ****       return __first2;
 214:/Library/DaisyToolchain/0.2.0/arm/arm-none-eabi/include/c++/10.3.1/bits/stl_algobase.h ****     }
 215:/Library/DaisyToolchain/0.2.0/arm/arm-none-eabi/include/c++/10.3.1/bits/stl_algobase.h **** 
 216:/Library/DaisyToolchain/0.2.0/arm/arm-none-eabi/include/c++/10.3.1/bits/stl_algobase.h ****   /**
 217:/Library/DaisyToolchain/0.2.0/arm/arm-none-eabi/include/c++/10.3.1/bits/stl_algobase.h ****    *  @brief This does what you think it does.
 218:/Library/DaisyToolchain/0.2.0/arm/arm-none-eabi/include/c++/10.3.1/bits/stl_algobase.h ****    *  @ingroup sorting_algorithms
 219:/Library/DaisyToolchain/0.2.0/arm/arm-none-eabi/include/c++/10.3.1/bits/stl_algobase.h ****    *  @param  __a  A thing of arbitrary type.
 220:/Library/DaisyToolchain/0.2.0/arm/arm-none-eabi/include/c++/10.3.1/bits/stl_algobase.h ****    *  @param  __b  Another thing of arbitrary type.
 221:/Library/DaisyToolchain/0.2.0/arm/arm-none-eabi/include/c++/10.3.1/bits/stl_algobase.h ****    *  @return   The lesser of the parameters.
 222:/Library/DaisyToolchain/0.2.0/arm/arm-none-eabi/include/c++/10.3.1/bits/stl_algobase.h ****    *
 223:/Library/DaisyToolchain/0.2.0/arm/arm-none-eabi/include/c++/10.3.1/bits/stl_algobase.h ****    *  This is the simple classic generic implementation.  It will work on
 224:/Library/DaisyToolchain/0.2.0/arm/arm-none-eabi/include/c++/10.3.1/bits/stl_algobase.h ****    *  temporary expressions, since they are only evaluated once, unlike a
 225:/Library/DaisyToolchain/0.2.0/arm/arm-none-eabi/include/c++/10.3.1/bits/stl_algobase.h ****    *  preprocessor macro.
 226:/Library/DaisyToolchain/0.2.0/arm/arm-none-eabi/include/c++/10.3.1/bits/stl_algobase.h ****   */
 227:/Library/DaisyToolchain/0.2.0/arm/arm-none-eabi/include/c++/10.3.1/bits/stl_algobase.h ****   template<typename _Tp>
 228:/Library/DaisyToolchain/0.2.0/arm/arm-none-eabi/include/c++/10.3.1/bits/stl_algobase.h ****     _GLIBCXX14_CONSTEXPR
 229:/Library/DaisyToolchain/0.2.0/arm/arm-none-eabi/include/c++/10.3.1/bits/stl_algobase.h ****     inline const _Tp&
 230:/Library/DaisyToolchain/0.2.0/arm/arm-none-eabi/include/c++/10.3.1/bits/stl_algobase.h ****     min(const _Tp& __a, const _Tp& __b)
 231:/Library/DaisyToolchain/0.2.0/arm/arm-none-eabi/include/c++/10.3.1/bits/stl_algobase.h ****     {
 232:/Library/DaisyToolchain/0.2.0/arm/arm-none-eabi/include/c++/10.3.1/bits/stl_algobase.h ****       // concept requirements
 233:/Library/DaisyToolchain/0.2.0/arm/arm-none-eabi/include/c++/10.3.1/bits/stl_algobase.h ****       __glibcxx_function_requires(_LessThanComparableConcept<_Tp>)
 234:/Library/DaisyToolchain/0.2.0/arm/arm-none-eabi/include/c++/10.3.1/bits/stl_algobase.h ****       //return __b < __a ? __b : __a;
 235:/Library/DaisyToolchain/0.2.0/arm/arm-none-eabi/include/c++/10.3.1/bits/stl_algobase.h ****       if (__b < __a)
  38              		.loc 2 235 7 is_stmt 0 view .LVU1
  39 0000 B6EE007A 		vmov.f32	s14, #5.0e-1
ARM GAS  /var/folders/9k/zk1mgrrd7wg4__6zvxvr9w8m0000gn/T//ccWZw7sc.s 			page 7


  40              		.loc 2 235 15 view .LVU2
  41 0004 D1ED007A 		vldr.32	s15, [r1]
  42              	.LBE78:
  43              	.LBE77:
  44              	.LBE76:
  70:mi/plaits/dsp/fm/operator.h ****     Operator* ops,
  71:mi/plaits/dsp/fm/operator.h ****     const float* f,
  72:mi/plaits/dsp/fm/operator.h ****     const float* a,
  73:mi/plaits/dsp/fm/operator.h ****     float* fb_state,
  74:mi/plaits/dsp/fm/operator.h ****     int fb_amount,
  75:mi/plaits/dsp/fm/operator.h ****     const float* modulation,
  76:mi/plaits/dsp/fm/operator.h ****     float* out,
  77:mi/plaits/dsp/fm/operator.h ****     size_t size) {
  78:mi/plaits/dsp/fm/operator.h ****   float previous_0, previous_1;
  79:mi/plaits/dsp/fm/operator.h ****   
  80:mi/plaits/dsp/fm/operator.h ****   if (modulation_source >= Operator::MODULATION_SOURCE_FEEDBACK) {
  81:mi/plaits/dsp/fm/operator.h ****     previous_0 = fb_state[0];
  45              		.loc 1 81 16 view .LVU3
  46 0008 D3ED006A 		vldr.32	s13, [r3]
  47              	.LVL1:
  82:mi/plaits/dsp/fm/operator.h ****     previous_1 = fb_state[1];
  48              		.loc 1 82 16 view .LVU4
  49 000c 93ED016A 		vldr.32	s12, [r3, #4]
  50              	.LVL2:
  51              	.LBB91:
  52              	.LBB83:
  53              	.LBB79:
  54              		.loc 2 235 7 view .LVU5
  55 0010 F4EEC77A 		vcmpe.f32	s15, s14
  56              	.LBE79:
  57              	.LBE83:
  58              	.LBE91:
  69:mi/plaits/dsp/fm/operator.h ****     Operator* ops,
  59              		.loc 1 69 6 view .LVU6
  60 0014 2DE9F041 		push	{r4, r5, r6, r7, r8, lr}
  61              		.cfi_def_cfa_offset 24
  62              		.cfi_offset 4, -24
  63              		.cfi_offset 5, -20
  64              		.cfi_offset 6, -16
  65              		.cfi_offset 7, -12
  66              		.cfi_offset 8, -8
  67              		.cfi_offset 14, -4
  68              	.LBB92:
  69              	.LBB84:
  70              	.LBB80:
  71              		.loc 2 235 7 view .LVU7
  72 0018 F1EE10FA 		vmrs	APSR_nzcv, FPSCR
  73              	.LBE80:
  74              	.LBE84:
  75              	.LBE92:
  69:mi/plaits/dsp/fm/operator.h ****     Operator* ops,
  76              		.loc 1 69 6 view .LVU8
  77 001c 069D     		ldr	r5, [sp, #24]
  78 001e 089E     		ldr	r6, [sp, #32]
  79 0020 099C     		ldr	r4, [sp, #36]
  80              	.LVL3:
  81              	.LBB93:
ARM GAS  /var/folders/9k/zk1mgrrd7wg4__6zvxvr9w8m0000gn/T//ccWZw7sc.s 			page 8


  83:mi/plaits/dsp/fm/operator.h ****   }
  84:mi/plaits/dsp/fm/operator.h **** 
  85:mi/plaits/dsp/fm/operator.h ****   uint32_t frequency[n];
  86:mi/plaits/dsp/fm/operator.h ****   uint32_t phase[n];
  87:mi/plaits/dsp/fm/operator.h ****   float amplitude[n];
  88:mi/plaits/dsp/fm/operator.h ****   float amplitude_increment[n];
  89:mi/plaits/dsp/fm/operator.h **** 
  90:mi/plaits/dsp/fm/operator.h ****   const float scale = 1.0f / float(size);
  91:mi/plaits/dsp/fm/operator.h ****   for (int i = 0; i < n; ++i) {
  82              		.loc 1 91 21 is_stmt 1 view .LVU9
  83              	.LBB85:
  84              	.LBI77:
 230:/Library/DaisyToolchain/0.2.0/arm/arm-none-eabi/include/c++/10.3.1/bits/stl_algobase.h ****     {
  85              		.loc 2 230 5 view .LVU10
  86              	.LBB81:
  87              		.loc 2 235 7 is_stmt 0 view .LVU11
  88 0022 79DC     		bgt	.L9
  89              	.LBE81:
  90              	.LBE85:
  92:mi/plaits/dsp/fm/operator.h ****     frequency[i] = static_cast<uint32_t>(std::min(f[i], 0.5f) * 4294967296.0f);
  91              		.loc 1 92 63 view .LVU12
  92 0024 9FED3E7A 		vldr.32	s14, .L16
  93 0028 67EE877A 		vmul.f32	s15, s15, s14
  94              		.loc 1 92 20 view .LVU13
  95 002c FCEEE77A 		vcvt.u32.f32	s15, s15
  96 0030 17EE901A 		vmov	r1, s15	@ int
  97              	.LVL4:
  98              	.L2:
  99              	.LBB86:
 100              	.LBB87:
 101              		.loc 2 235 7 view .LVU14
 102 0034 B1EE007A 		vmov.f32	s14, #4.0e+0
 103              		.loc 2 235 15 view .LVU15
 104 0038 D2ED007A 		vldr.32	s15, [r2]
 105              	.LBE87:
 106              	.LBE86:
  93:mi/plaits/dsp/fm/operator.h ****     phase[i] = ops[i].phase;
  94:mi/plaits/dsp/fm/operator.h ****     amplitude[i] = ops[i].amplitude;
 107              		.loc 1 94 27 view .LVU16
 108 003c D0ED015A 		vldr.32	s11, [r0, #4]
  93:mi/plaits/dsp/fm/operator.h ****     phase[i] = ops[i].phase;
 109              		.loc 1 93 23 view .LVU17
 110 0040 0268     		ldr	r2, [r0]
 111              	.LVL5:
 112              	.LBB89:
 113              	.LBI86:
 230:/Library/DaisyToolchain/0.2.0/arm/arm-none-eabi/include/c++/10.3.1/bits/stl_algobase.h ****     {
 114              		.loc 2 230 5 is_stmt 1 view .LVU18
 115              	.LBB88:
 116              		.loc 2 235 7 is_stmt 0 view .LVU19
 117 0042 F4EE477A 		vcmp.f32	s15, s14
 118 0046 F1EE10FA 		vmrs	APSR_nzcv, FPSCR
 119 004a 77FE277A 		vselgt.f32	s15, s14, s15
 120              	.LVL6:
 121              		.loc 2 235 7 view .LVU20
 122              	.LBE88:
 123              	.LBE89:
ARM GAS  /var/folders/9k/zk1mgrrd7wg4__6zvxvr9w8m0000gn/T//ccWZw7sc.s 			page 9


  91:mi/plaits/dsp/fm/operator.h ****     frequency[i] = static_cast<uint32_t>(std::min(f[i], 0.5f) * 4294967296.0f);
 124              		.loc 1 91 3 is_stmt 1 view .LVU21
  91:mi/plaits/dsp/fm/operator.h ****     frequency[i] = static_cast<uint32_t>(std::min(f[i], 0.5f) * 4294967296.0f);
 125              		.loc 1 91 21 view .LVU22
 126              	.LBE93:
  95:mi/plaits/dsp/fm/operator.h ****     amplitude_increment[i] = (std::min(a[i], 4.0f) - amplitude[i]) * scale;
  96:mi/plaits/dsp/fm/operator.h ****   }
  97:mi/plaits/dsp/fm/operator.h ****   
  98:mi/plaits/dsp/fm/operator.h ****   const float fb_scale = fb_amount ? float(1 << fb_amount) / 512.0f : 0.0f;
 127              		.loc 1 98 36 is_stmt 0 view .LVU23
 128 004e 8DB1     		cbz	r5, .L10
 129              		.loc 1 98 46 discriminator 1 view .LVU24
 130 0050 4FF0010C 		mov	ip, #1
 131 0054 0CFA05F5 		lsl	r5, ip, r5
 132 0058 05EE105A 		vmov	s10, r5	@ int
 133              		.loc 1 98 36 discriminator 1 view .LVU25
 134 005c BAEEEB5A 		vcvt.f32.s32	s10, s10, #9
 135              	.LVL7:
  99:mi/plaits/dsp/fm/operator.h **** 
 100:mi/plaits/dsp/fm/operator.h ****   while (size--) {
 136              		.loc 1 100 3 is_stmt 1 discriminator 1 view .LVU26
 137              		.loc 1 100 3 is_stmt 0 discriminator 1 view .LVU27
 138 0060 64B9     		cbnz	r4, .L6
 139              	.LVL8:
 140              	.L8:
 141              	.LBB94:
 101:mi/plaits/dsp/fm/operator.h ****     float pm = 0.0f;
 102:mi/plaits/dsp/fm/operator.h ****     if (modulation_source >= Operator::MODULATION_SOURCE_FEEDBACK) {
 103:mi/plaits/dsp/fm/operator.h ****       pm = (previous_0 + previous_1) * fb_scale;
 104:mi/plaits/dsp/fm/operator.h ****     } else if (modulation_source == Operator::MODULATION_SOURCE_EXTERNAL) {
 105:mi/plaits/dsp/fm/operator.h ****       pm = *modulation++;
 106:mi/plaits/dsp/fm/operator.h ****     }
 107:mi/plaits/dsp/fm/operator.h ****     for (int i = 0; i < n; ++i) {
 108:mi/plaits/dsp/fm/operator.h ****       phase[i] += frequency[i];
 109:mi/plaits/dsp/fm/operator.h ****       pm = SinePM(phase[i], pm) * amplitude[i];
 110:mi/plaits/dsp/fm/operator.h ****       amplitude[i] += amplitude_increment[i];
 111:mi/plaits/dsp/fm/operator.h ****       if (i == modulation_source) {
 112:mi/plaits/dsp/fm/operator.h ****         previous_1 = previous_0;
 113:mi/plaits/dsp/fm/operator.h ****         previous_0 = pm;
 114:mi/plaits/dsp/fm/operator.h ****       }
 115:mi/plaits/dsp/fm/operator.h ****     }
 116:mi/plaits/dsp/fm/operator.h ****     if (additive) {
 117:mi/plaits/dsp/fm/operator.h ****       *out++ += pm;
 118:mi/plaits/dsp/fm/operator.h ****     } else {
 119:mi/plaits/dsp/fm/operator.h ****       *out++ = pm;
 120:mi/plaits/dsp/fm/operator.h ****     }
 121:mi/plaits/dsp/fm/operator.h ****   }
 122:mi/plaits/dsp/fm/operator.h ****   
 123:mi/plaits/dsp/fm/operator.h ****   for (int i = 0; i < n; ++i) {
 142              		.loc 1 123 21 is_stmt 1 view .LVU28
 124:mi/plaits/dsp/fm/operator.h ****     ops[i].phase = phase[i];
 143              		.loc 1 124 18 is_stmt 0 view .LVU29
 144 0062 0260     		str	r2, [r0]
 125:mi/plaits/dsp/fm/operator.h ****     ops[i].amplitude = amplitude[i];
 145              		.loc 1 125 22 view .LVU30
 146 0064 C0ED015A 		vstr.32	s11, [r0, #4]
 123:mi/plaits/dsp/fm/operator.h ****     ops[i].phase = phase[i];
ARM GAS  /var/folders/9k/zk1mgrrd7wg4__6zvxvr9w8m0000gn/T//ccWZw7sc.s 			page 10


 147              		.loc 1 123 3 is_stmt 1 view .LVU31
 148              	.LVL9:
 123:mi/plaits/dsp/fm/operator.h ****     ops[i].phase = phase[i];
 149              		.loc 1 123 21 view .LVU32
 150              	.LBE94:
 126:mi/plaits/dsp/fm/operator.h ****   }
 127:mi/plaits/dsp/fm/operator.h ****   
 128:mi/plaits/dsp/fm/operator.h ****   if (modulation_source >= Operator::MODULATION_SOURCE_FEEDBACK) {
 129:mi/plaits/dsp/fm/operator.h ****     fb_state[0] = previous_0;
 151              		.loc 1 129 17 is_stmt 0 view .LVU33
 152 0068 C3ED006A 		vstr.32	s13, [r3]
 130:mi/plaits/dsp/fm/operator.h ****     fb_state[1] = previous_1;
 153              		.loc 1 130 17 view .LVU34
 154 006c 83ED016A 		vstr.32	s12, [r3, #4]
 155              	.LVL10:
 131:mi/plaits/dsp/fm/operator.h ****   }
 132:mi/plaits/dsp/fm/operator.h **** };
 156              		.loc 1 132 1 view .LVU35
 157 0070 BDE8F081 		pop	{r4, r5, r6, r7, r8, pc}
 158              	.LVL11:
 159              	.L10:
  98:mi/plaits/dsp/fm/operator.h **** 
 160              		.loc 1 98 36 view .LVU36
 161 0074 9FED2B5A 		vldr.32	s10, .L16+4
 162              	.LVL12:
 100:mi/plaits/dsp/fm/operator.h ****     float pm = 0.0f;
 163              		.loc 1 100 3 is_stmt 1 view .LVU37
 100:mi/plaits/dsp/fm/operator.h ****     float pm = 0.0f;
 164              		.loc 1 100 3 is_stmt 0 view .LVU38
 165 0078 002C     		cmp	r4, #0
 166 007a F2D0     		beq	.L8
 167              	.LVL13:
 168              	.L6:
  90:mi/plaits/dsp/fm/operator.h ****   for (int i = 0; i < n; ++i) {
 169              		.loc 1 90 30 view .LVU39
 170 007c 07EE104A 		vmov	s14, r4	@ int
  90:mi/plaits/dsp/fm/operator.h ****   for (int i = 0; i < n; ++i) {
 171              		.loc 1 90 15 view .LVU40
 172 0080 F7EE004A 		vmov.f32	s9, #1.0e+0
 173              	.LBB95:
  95:mi/plaits/dsp/fm/operator.h ****   }
 174              		.loc 1 95 52 view .LVU41
 175 0084 77EEE57A 		vsub.f32	s15, s15, s11
 176              	.LVL14:
  95:mi/plaits/dsp/fm/operator.h ****   }
 177              		.loc 1 95 52 view .LVU42
 178              	.LBE95:
 100:mi/plaits/dsp/fm/operator.h ****     float pm = 0.0f;
 179              		.loc 1 100 3 view .LVU43
 180 0088 013C     		subs	r4, r4, #1
 181              	.LVL15:
  90:mi/plaits/dsp/fm/operator.h ****   for (int i = 0; i < n; ++i) {
 182              		.loc 1 90 30 view .LVU44
 183 008a B8EE477A 		vcvt.f32.u32	s14, s14
 184 008e 02EB010C 		add	ip, r2, r1
 100:mi/plaits/dsp/fm/operator.h ****     float pm = 0.0f;
 185              		.loc 1 100 3 view .LVU45
ARM GAS  /var/folders/9k/zk1mgrrd7wg4__6zvxvr9w8m0000gn/T//ccWZw7sc.s 			page 11


 186 0092 A646     		mov	lr, r4
 187 0094 DFF89C80 		ldr	r8, .L16+20
 188 0098 6746     		mov	r7, ip
  90:mi/plaits/dsp/fm/operator.h ****   for (int i = 0; i < n; ++i) {
 189              		.loc 1 90 15 view .LVU46
 190 009a 84EE874A 		vdiv.f32	s8, s9, s14
 191              	.LBB96:
  95:mi/plaits/dsp/fm/operator.h ****   }
 192              		.loc 1 95 68 view .LVU47
 193 009e 24EE274A 		vmul.f32	s8, s8, s15
 194              	.LVL16:
 195              	.L7:
  95:mi/plaits/dsp/fm/operator.h ****   }
 196              		.loc 1 95 68 view .LVU48
 197              	.LBE96:
 198              	.LBB97:
 199              	.LBB98:
 107:mi/plaits/dsp/fm/operator.h ****       phase[i] += frequency[i];
 200              		.loc 1 107 23 is_stmt 1 view .LVU49
 201              	.LBB99:
 202              	.LBI99:
 203              		.file 3 "mi/plaits/dsp/oscillator/sine_oscillator.h"
   1:mi/plaits/dsp/oscillator/sine_oscillator.h **** // Copyright 2016 Emilie Gillet.
   2:mi/plaits/dsp/oscillator/sine_oscillator.h **** //
   3:mi/plaits/dsp/oscillator/sine_oscillator.h **** // Author: Emilie Gillet (emilie.o.gillet@gmail.com)
   4:mi/plaits/dsp/oscillator/sine_oscillator.h **** //
   5:mi/plaits/dsp/oscillator/sine_oscillator.h **** // Permission is hereby granted, free of charge, to any person obtaining a copy
   6:mi/plaits/dsp/oscillator/sine_oscillator.h **** // of this software and associated documentation files (the "Software"), to deal
   7:mi/plaits/dsp/oscillator/sine_oscillator.h **** // in the Software without restriction, including without limitation the rights
   8:mi/plaits/dsp/oscillator/sine_oscillator.h **** // to use, copy, modify, merge, publish, distribute, sublicense, and/or sell
   9:mi/plaits/dsp/oscillator/sine_oscillator.h **** // copies of the Software, and to permit persons to whom the Software is
  10:mi/plaits/dsp/oscillator/sine_oscillator.h **** // furnished to do so, subject to the following conditions:
  11:mi/plaits/dsp/oscillator/sine_oscillator.h **** // 
  12:mi/plaits/dsp/oscillator/sine_oscillator.h **** // The above copyright notice and this permission notice shall be included in
  13:mi/plaits/dsp/oscillator/sine_oscillator.h **** // all copies or substantial portions of the Software.
  14:mi/plaits/dsp/oscillator/sine_oscillator.h **** // 
  15:mi/plaits/dsp/oscillator/sine_oscillator.h **** // THE SOFTWARE IS PROVIDED "AS IS", WITHOUT WARRANTY OF ANY KIND, EXPRESS OR
  16:mi/plaits/dsp/oscillator/sine_oscillator.h **** // IMPLIED, INCLUDING BUT NOT LIMITED TO THE WARRANTIES OF MERCHANTABILITY,
  17:mi/plaits/dsp/oscillator/sine_oscillator.h **** // FITNESS FOR A PARTICULAR PURPOSE AND NONINFRINGEMENT. IN NO EVENT SHALL THE
  18:mi/plaits/dsp/oscillator/sine_oscillator.h **** // AUTHORS OR COPYRIGHT HOLDERS BE LIABLE FOR ANY CLAIM, DAMAGES OR OTHER
  19:mi/plaits/dsp/oscillator/sine_oscillator.h **** // LIABILITY, WHETHER IN AN ACTION OF CONTRACT, TORT OR OTHERWISE, ARISING FROM,
  20:mi/plaits/dsp/oscillator/sine_oscillator.h **** // OUT OF OR IN CONNECTION WITH THE SOFTWARE OR THE USE OR OTHER DEALINGS IN
  21:mi/plaits/dsp/oscillator/sine_oscillator.h **** // THE SOFTWARE.
  22:mi/plaits/dsp/oscillator/sine_oscillator.h **** // 
  23:mi/plaits/dsp/oscillator/sine_oscillator.h **** // See http://creativecommons.org/licenses/MIT/ for more information.
  24:mi/plaits/dsp/oscillator/sine_oscillator.h **** //
  25:mi/plaits/dsp/oscillator/sine_oscillator.h **** // -----------------------------------------------------------------------------
  26:mi/plaits/dsp/oscillator/sine_oscillator.h **** //
  27:mi/plaits/dsp/oscillator/sine_oscillator.h **** // Simple sine oscillator (wavetable) + fast sine oscillator (magic circle).
  28:mi/plaits/dsp/oscillator/sine_oscillator.h **** //
  29:mi/plaits/dsp/oscillator/sine_oscillator.h **** // The fast implementation might glitch a bit under heavy modulations of the
  30:mi/plaits/dsp/oscillator/sine_oscillator.h **** // frequency.
  31:mi/plaits/dsp/oscillator/sine_oscillator.h **** 
  32:mi/plaits/dsp/oscillator/sine_oscillator.h **** #ifndef PLAITS_DSP_OSCILLATOR_SINE_OSCILLATOR_H_
  33:mi/plaits/dsp/oscillator/sine_oscillator.h **** #define PLAITS_DSP_OSCILLATOR_SINE_OSCILLATOR_H_
  34:mi/plaits/dsp/oscillator/sine_oscillator.h **** 
  35:mi/plaits/dsp/oscillator/sine_oscillator.h **** #include "stmlib/dsp/dsp.h"
ARM GAS  /var/folders/9k/zk1mgrrd7wg4__6zvxvr9w8m0000gn/T//ccWZw7sc.s 			page 12


  36:mi/plaits/dsp/oscillator/sine_oscillator.h **** #include "stmlib/dsp/parameter_interpolator.h"
  37:mi/plaits/dsp/oscillator/sine_oscillator.h **** #include "stmlib/dsp/rsqrt.h"
  38:mi/plaits/dsp/oscillator/sine_oscillator.h **** 
  39:mi/plaits/dsp/oscillator/sine_oscillator.h **** #include "plaits/resources.h"
  40:mi/plaits/dsp/oscillator/sine_oscillator.h **** 
  41:mi/plaits/dsp/oscillator/sine_oscillator.h **** namespace plaits {
  42:mi/plaits/dsp/oscillator/sine_oscillator.h ****   
  43:mi/plaits/dsp/oscillator/sine_oscillator.h **** const float kSineLUTSize = 512.0f;
  44:mi/plaits/dsp/oscillator/sine_oscillator.h **** const size_t kSineLUTQuadrature = 128;
  45:mi/plaits/dsp/oscillator/sine_oscillator.h **** const size_t kSineLUTBits = 9;
  46:mi/plaits/dsp/oscillator/sine_oscillator.h **** 
  47:mi/plaits/dsp/oscillator/sine_oscillator.h **** // Safe for phase >= 0.0f, will wrap.
  48:mi/plaits/dsp/oscillator/sine_oscillator.h **** inline float Sine(float phase) {
  49:mi/plaits/dsp/oscillator/sine_oscillator.h ****   return stmlib::InterpolateWrap(lut_sine, phase, kSineLUTSize);
  50:mi/plaits/dsp/oscillator/sine_oscillator.h **** }
  51:mi/plaits/dsp/oscillator/sine_oscillator.h **** 
  52:mi/plaits/dsp/oscillator/sine_oscillator.h **** // Potentially unsafe, if phase >= 1.25.
  53:mi/plaits/dsp/oscillator/sine_oscillator.h **** inline float SineNoWrap(float phase) {
  54:mi/plaits/dsp/oscillator/sine_oscillator.h ****   return stmlib::Interpolate(lut_sine, phase, kSineLUTSize);
  55:mi/plaits/dsp/oscillator/sine_oscillator.h **** }
  56:mi/plaits/dsp/oscillator/sine_oscillator.h **** 
  57:mi/plaits/dsp/oscillator/sine_oscillator.h **** // With positive of negative phase modulation up to an index of 32.
  58:mi/plaits/dsp/oscillator/sine_oscillator.h **** inline float SinePM(uint32_t phase, float pm) {
 204              		.loc 3 58 14 view .LVU50
 205              	.LBB100:
  59:mi/plaits/dsp/oscillator/sine_oscillator.h ****   const float max_uint32 = 4294967296.0f;
 206              		.loc 3 59 3 view .LVU51
  60:mi/plaits/dsp/oscillator/sine_oscillator.h ****   const int max_index = 32;
 207              		.loc 3 60 3 view .LVU52
  61:mi/plaits/dsp/oscillator/sine_oscillator.h ****   const float offset = float(max_index);
 208              		.loc 3 61 3 view .LVU53
  62:mi/plaits/dsp/oscillator/sine_oscillator.h ****   const float scale = max_uint32 / float(max_index * 2);
 209              		.loc 3 62 3 view .LVU54
  63:mi/plaits/dsp/oscillator/sine_oscillator.h **** 
  64:mi/plaits/dsp/oscillator/sine_oscillator.h ****   phase += static_cast<uint32_t>((pm + offset) * scale) * max_index * 2;
 210              		.loc 3 64 3 view .LVU55
 211              	.LBE100:
 212              	.LBE99:
 213              	.LBE98:
 103:mi/plaits/dsp/fm/operator.h ****     } else if (modulation_source == Operator::MODULATION_SOURCE_EXTERNAL) {
 214              		.loc 1 103 24 is_stmt 0 view .LVU56
 215 00a2 36EE266A 		vadd.f32	s12, s12, s13
 216              	.LVL17:
 217              	.LBB109:
 218              	.LBB105:
 219              	.LBB101:
 220              		.loc 3 64 38 view .LVU57
 221 00a6 9FED207A 		vldr.32	s14, .L16+8
 222              		.loc 3 64 48 view .LVU58
 223 00aa DFED207A 		vldr.32	s15, .L16+12
 224              	.LBE101:
 225              	.LBE105:
 226              	.LBE109:
 227              	.LBE97:
 100:mi/plaits/dsp/fm/operator.h ****     float pm = 0.0f;
 228              		.loc 1 100 3 view .LVU59
 229 00ae 0EF1FF3E 		add	lr, lr, #-1
ARM GAS  /var/folders/9k/zk1mgrrd7wg4__6zvxvr9w8m0000gn/T//ccWZw7sc.s 			page 13


 230              	.LVL18:
 231              	.LBB113:
 232              	.LBB110:
 233              	.LBB106:
 234              	.LBB102:
  65:mi/plaits/dsp/oscillator/sine_oscillator.h ****   
  66:mi/plaits/dsp/oscillator/sine_oscillator.h ****   uint32_t integral = phase >> (32 - kSineLUTBits);
  67:mi/plaits/dsp/oscillator/sine_oscillator.h ****   float fractional = static_cast<float>(phase << kSineLUTBits) / float(max_uint32);
 235              		.loc 3 67 9 view .LVU60
 236 00b2 DFED1F3A 		vldr.32	s7, .L16+16
  64:mi/plaits/dsp/oscillator/sine_oscillator.h ****   
 237              		.loc 3 64 38 view .LVU61
 238 00b6 A6EE057A 		vfma.f32	s14, s12, s10
 239              	.LBE102:
 240              	.LBE106:
 241              	.LBE110:
 117:mi/plaits/dsp/fm/operator.h ****     } else {
 242              		.loc 1 117 14 view .LVU62
 243 00ba F6EC014A 		vldmia.32	r6!, {s9}
 244              	.LVL19:
 117:mi/plaits/dsp/fm/operator.h ****     } else {
 245              		.loc 1 117 14 view .LVU63
 246 00be B0EE666A 		vmov.f32	s12, s13
 247              	.LBE113:
 100:mi/plaits/dsp/fm/operator.h ****     float pm = 0.0f;
 248              		.loc 1 100 3 view .LVU64
 249 00c2 BEF1FF3F 		cmp	lr, #-1
 250              	.LBB114:
 251              	.LBB111:
 252              	.LBB107:
 253              	.LBB103:
  64:mi/plaits/dsp/oscillator/sine_oscillator.h ****   
 254              		.loc 3 64 48 view .LVU65
 255 00c6 27EE277A 		vmul.f32	s14, s14, s15
  64:mi/plaits/dsp/oscillator/sine_oscillator.h ****   
 256              		.loc 3 64 12 view .LVU66
 257 00ca FCEEC77A 		vcvt.u32.f32	s15, s14
 258 00ce 17EE902A 		vmov	r2, s15	@ int
  64:mi/plaits/dsp/oscillator/sine_oscillator.h ****   
 259              		.loc 3 64 9 view .LVU67
 260 00d2 07EB8212 		add	r2, r7, r2, lsl #6
 261              	.LVL20:
  66:mi/plaits/dsp/oscillator/sine_oscillator.h ****   float fractional = static_cast<float>(phase << kSineLUTBits) / float(max_uint32);
 262              		.loc 3 66 3 is_stmt 1 view .LVU68
 263              	.LBE103:
 264              	.LBE107:
 265              	.LBE111:
 266              	.LBE114:
 100:mi/plaits/dsp/fm/operator.h ****     float pm = 0.0f;
 267              		.loc 1 100 3 is_stmt 0 view .LVU69
 268 00d6 0F44     		add	r7, r7, r1
 269              	.LVL21:
 270              	.LBB115:
 271              	.LBB112:
 272              	.LBB108:
 273              	.LBB104:
  66:mi/plaits/dsp/oscillator/sine_oscillator.h ****   float fractional = static_cast<float>(phase << kSineLUTBits) / float(max_uint32);
ARM GAS  /var/folders/9k/zk1mgrrd7wg4__6zvxvr9w8m0000gn/T//ccWZw7sc.s 			page 14


 274              		.loc 3 66 12 view .LVU70
 275 00d8 4FEAD255 		lsr	r5, r2, #23
 276              	.LVL22:
 277              		.loc 3 67 3 is_stmt 1 view .LVU71
  68:mi/plaits/dsp/oscillator/sine_oscillator.h ****   float a = lut_sine[integral];
 278              		.loc 3 68 3 view .LVU72
  67:mi/plaits/dsp/oscillator/sine_oscillator.h ****   float a = lut_sine[integral];
 279              		.loc 3 67 47 is_stmt 0 view .LVU73
 280 00dc 4FEA4222 		lsl	r2, r2, #9
 281              	.LVL23:
  67:mi/plaits/dsp/oscillator/sine_oscillator.h ****   float a = lut_sine[integral];
 282              		.loc 3 67 47 view .LVU74
 283 00e0 07EE902A 		vmov	s15, r2	@ int
 284              		.loc 3 68 9 view .LVU75
 285 00e4 08EB8502 		add	r2, r8, r5, lsl #2
  67:mi/plaits/dsp/oscillator/sine_oscillator.h ****   float a = lut_sine[integral];
 286              		.loc 3 67 22 view .LVU76
 287 00e8 F8EE677A 		vcvt.f32.u32	s15, s15
 288              		.loc 3 68 9 view .LVU77
 289 00ec D2ED006A 		vldr.32	s13, [r2]
 290              	.LVL24:
  69:mi/plaits/dsp/oscillator/sine_oscillator.h ****   float b = lut_sine[integral + 1];
  70:mi/plaits/dsp/oscillator/sine_oscillator.h ****   return a + (b - a) * fractional;
 291              		.loc 3 70 17 view .LVU78
 292 00f0 92ED017A 		vldr.32	s14, [r2, #4]
  67:mi/plaits/dsp/oscillator/sine_oscillator.h ****   float a = lut_sine[integral];
 293              		.loc 3 67 9 view .LVU79
 294 00f4 67EEA37A 		vmul.f32	s15, s15, s7
 295              	.LVL25:
  69:mi/plaits/dsp/oscillator/sine_oscillator.h ****   float b = lut_sine[integral + 1];
 296              		.loc 3 69 3 is_stmt 1 view .LVU80
 297              		.loc 3 70 3 view .LVU81
 298              		.loc 3 70 17 is_stmt 0 view .LVU82
 299 00f8 37EE667A 		vsub.f32	s14, s14, s13
 300              		.loc 3 70 24 view .LVU83
 301 00fc E7EE876A 		vfma.f32	s13, s15, s14
 302              	.LVL26:
 303              		.loc 3 70 24 view .LVU84
 304              	.LBE104:
 305              	.LBE108:
 109:mi/plaits/dsp/fm/operator.h ****       amplitude[i] += amplitude_increment[i];
 306              		.loc 1 109 10 view .LVU85
 307 0100 65EEA66A 		vmul.f32	s13, s11, s13
 308              	.LVL27:
 110:mi/plaits/dsp/fm/operator.h ****       if (i == modulation_source) {
 309              		.loc 1 110 20 view .LVU86
 310 0104 75EE845A 		vadd.f32	s11, s11, s8
 311              	.LVL28:
 107:mi/plaits/dsp/fm/operator.h ****       phase[i] += frequency[i];
 312              		.loc 1 107 5 is_stmt 1 view .LVU87
 107:mi/plaits/dsp/fm/operator.h ****       phase[i] += frequency[i];
 313              		.loc 1 107 23 view .LVU88
 107:mi/plaits/dsp/fm/operator.h ****       phase[i] += frequency[i];
 314              		.loc 1 107 23 is_stmt 0 view .LVU89
 315              	.LBE112:
 117:mi/plaits/dsp/fm/operator.h ****     } else {
 316              		.loc 1 117 14 view .LVU90
ARM GAS  /var/folders/9k/zk1mgrrd7wg4__6zvxvr9w8m0000gn/T//ccWZw7sc.s 			page 15


 317 0108 34EEA67A 		vadd.f32	s14, s9, s13
 318 010c 06ED017A 		vstr.32	s14, [r6, #-4]
 319              	.LVL29:
 117:mi/plaits/dsp/fm/operator.h ****     } else {
 320              		.loc 1 117 14 view .LVU91
 321              	.LBE115:
 100:mi/plaits/dsp/fm/operator.h ****     float pm = 0.0f;
 322              		.loc 1 100 3 is_stmt 1 view .LVU92
 100:mi/plaits/dsp/fm/operator.h ****     float pm = 0.0f;
 323              		.loc 1 100 3 is_stmt 0 view .LVU93
 324 0110 C7D1     		bne	.L7
 100:mi/plaits/dsp/fm/operator.h ****     float pm = 0.0f;
 325              		.loc 1 100 3 view .LVU94
 326 0112 01FB04C2 		mla	r2, r1, r4, ip
 327 0116 A4E7     		b	.L8
 328              	.LVL30:
 329              	.L9:
 330              	.LBB116:
 331              	.LBB90:
 332              	.LBB82:
 100:mi/plaits/dsp/fm/operator.h ****     float pm = 0.0f;
 333              		.loc 1 100 3 view .LVU95
 334 0118 4FF00041 		mov	r1, #-2147483648
 335              	.LVL31:
 100:mi/plaits/dsp/fm/operator.h ****     float pm = 0.0f;
 336              		.loc 1 100 3 view .LVU96
 337 011c 8AE7     		b	.L2
 338              	.L17:
 339 011e 00BF     		.align	2
 340              	.L16:
 341 0120 0000804F 		.word	1333788672
 342 0124 00000000 		.word	0
 343 0128 00000042 		.word	1107296256
 344 012c 0000804C 		.word	1283457024
 345 0130 0000802F 		.word	796917760
 346 0134 00000000 		.word	_ZN6plaits8lut_sineE
 347              	.LBE82:
 348              	.LBE90:
 349              	.LBE116:
 350              		.cfi_endproc
 351              	.LFE1479:
 353              		.section	.text._ZN6plaits2fm15RenderOperatorsILi3ELi2ELb1EEEvPNS0_8OperatorEPKfS5_PfiS5_S6_j,"axG"
 354              		.align	1
 355              		.p2align 2,,3
 356              		.weak	_ZN6plaits2fm15RenderOperatorsILi3ELi2ELb1EEEvPNS0_8OperatorEPKfS5_PfiS5_S6_j
 357              		.syntax unified
 358              		.thumb
 359              		.thumb_func
 361              	_ZN6plaits2fm15RenderOperatorsILi3ELi2ELb1EEEvPNS0_8OperatorEPKfS5_PfiS5_S6_j:
 362              	.LVL32:
 363              	.LFB1480:
  69:mi/plaits/dsp/fm/operator.h ****     Operator* ops,
 364              		.loc 1 69 6 is_stmt 1 view -0
 365              		.cfi_startproc
 366              		@ args = 16, pretend = 0, frame = 48
 367              		@ frame_needed = 0, uses_anonymous_args = 0
  69:mi/plaits/dsp/fm/operator.h ****     Operator* ops,
ARM GAS  /var/folders/9k/zk1mgrrd7wg4__6zvxvr9w8m0000gn/T//ccWZw7sc.s 			page 16


 368              		.loc 1 69 6 is_stmt 0 view .LVU98
 369 0000 2DE9F04F 		push	{r4, r5, r6, r7, r8, r9, r10, fp, lr}
 370              		.cfi_def_cfa_offset 36
 371              		.cfi_offset 4, -36
 372              		.cfi_offset 5, -32
 373              		.cfi_offset 6, -28
 374              		.cfi_offset 7, -24
 375              		.cfi_offset 8, -20
 376              		.cfi_offset 9, -16
 377              		.cfi_offset 10, -12
 378              		.cfi_offset 11, -8
 379              		.cfi_offset 14, -4
 380 0004 8DB0     		sub	sp, sp, #52
 381              		.cfi_def_cfa_offset 88
  90:mi/plaits/dsp/fm/operator.h ****   for (int i = 0; i < n; ++i) {
 382              		.loc 1 90 15 view .LVU99
 383 0006 F7EE006A 		vmov.f32	s13, #1.0e+0
  81:mi/plaits/dsp/fm/operator.h ****     previous_1 = fb_state[1];
 384              		.loc 1 81 16 view .LVU100
 385 000a D3ED004A 		vldr.32	s9, [r3]
 386              	.LVL33:
  81:mi/plaits/dsp/fm/operator.h ****     previous_1 = fb_state[1];
 387              		.loc 1 81 16 view .LVU101
 388 000e 8446     		mov	ip, r0
  90:mi/plaits/dsp/fm/operator.h ****   for (int i = 0; i < n; ++i) {
 389              		.loc 1 90 30 view .LVU102
 390 0010 DDED197A 		vldr.32	s15, [sp, #100]	@ int
 391 0014 00F1180A 		add	r10, r0, #24
  69:mi/plaits/dsp/fm/operator.h ****     Operator* ops,
 392              		.loc 1 69 6 view .LVU103
 393 0018 DDF858B0 		ldr	fp, [sp, #88]
  90:mi/plaits/dsp/fm/operator.h ****   for (int i = 0; i < n; ++i) {
 394              		.loc 1 90 15 view .LVU104
 395 001c 0DF11808 		add	r8, sp, #24
  90:mi/plaits/dsp/fm/operator.h ****   for (int i = 0; i < n; ++i) {
 396              		.loc 1 90 30 view .LVU105
 397 0020 F8EE677A 		vcvt.f32.u32	s15, s15
  82:mi/plaits/dsp/fm/operator.h ****   }
 398              		.loc 1 82 16 view .LVU106
 399 0024 93ED017A 		vldr.32	s14, [r3, #4]
 400              	.LVL34:
  69:mi/plaits/dsp/fm/operator.h ****     Operator* ops,
 401              		.loc 1 69 6 view .LVU107
 402 0028 189C     		ldr	r4, [sp, #96]
  90:mi/plaits/dsp/fm/operator.h ****   for (int i = 0; i < n; ++i) {
 403              		.loc 1 90 15 view .LVU108
 404 002a 03AF     		add	r7, sp, #12
 405 002c 6E46     		mov	r6, sp
 406 002e 0DF1240E 		add	lr, sp, #36
 407 0032 C6EEA75A 		vdiv.f32	s11, s13, s15
 408              	.LVL35:
 409              	.LBB127:
  91:mi/plaits/dsp/fm/operator.h ****     frequency[i] = static_cast<uint32_t>(std::min(f[i], 0.5f) * 4294967296.0f);
 410              		.loc 1 91 21 is_stmt 1 view .LVU109
 411              	.LBE127:
  90:mi/plaits/dsp/fm/operator.h ****   for (int i = 0; i < n; ++i) {
 412              		.loc 1 90 15 is_stmt 0 view .LVU110
ARM GAS  /var/folders/9k/zk1mgrrd7wg4__6zvxvr9w8m0000gn/T//ccWZw7sc.s 			page 17


 413 0036 9946     		mov	r9, r3
 414              	.LVL36:
 415              	.L22:
 416              	.LBB140:
 417              	.LBB128:
 418              	.LBI128:
 230:/Library/DaisyToolchain/0.2.0/arm/arm-none-eabi/include/c++/10.3.1/bits/stl_algobase.h ****     {
 419              		.loc 2 230 5 is_stmt 1 discriminator 2 view .LVU111
 420              	.LBB129:
 421              		.loc 2 235 15 is_stmt 0 discriminator 2 view .LVU112
 422 0038 F1EC017A 		vldmia.32	r1!, {s15}
 423              	.LVL37:
 424              		.loc 2 235 15 discriminator 2 view .LVU113
 425              	.LBE129:
 426              	.LBE128:
  92:mi/plaits/dsp/fm/operator.h ****     phase[i] = ops[i].phase;
 427              		.loc 1 92 63 discriminator 2 view .LVU114
 428 003c 9FED576A 		vldr.32	s12, .L35
 429              	.LBB132:
 430              	.LBB130:
 431              		.loc 2 235 7 discriminator 2 view .LVU115
 432 0040 F6EE006A 		vmov.f32	s13, #5.0e-1
 433 0044 F4EEE67A 		vcmpe.f32	s15, s13
 434 0048 F1EE10FA 		vmrs	APSR_nzcv, FPSCR
 435 004c 00F38880 		bgt	.L28
 436              	.LBE130:
 437              	.LBE132:
  92:mi/plaits/dsp/fm/operator.h ****     phase[i] = ops[i].phase;
 438              		.loc 1 92 63 view .LVU116
 439 0050 67EE867A 		vmul.f32	s15, s15, s12
  92:mi/plaits/dsp/fm/operator.h ****     phase[i] = ops[i].phase;
 440              		.loc 1 92 20 view .LVU117
 441 0054 FCEEE77A 		vcvt.u32.f32	s15, s15
 442 0058 17EE905A 		vmov	r5, s15	@ int
 443              	.L19:
 444              	.LVL38:
 445              	.LBB133:
 446              	.LBB134:
 447              		.loc 2 235 7 view .LVU118
 448 005c B1EE006A 		vmov.f32	s12, #4.0e+0
 449              		.loc 2 235 15 view .LVU119
 450 0060 F2EC017A 		vldmia.32	r2!, {s15}
 451              	.LBE134:
 452              	.LBE133:
  94:mi/plaits/dsp/fm/operator.h ****     amplitude_increment[i] = (std::min(a[i], 4.0f) - amplitude[i]) * scale;
 453              		.loc 1 94 27 view .LVU120
 454 0064 DCED016A 		vldr.32	s13, [ip, #4]
  91:mi/plaits/dsp/fm/operator.h ****     frequency[i] = static_cast<uint32_t>(std::min(f[i], 0.5f) * 4294967296.0f);
 455              		.loc 1 91 21 view .LVU121
 456 0068 0CF1080C 		add	ip, ip, #8
  93:mi/plaits/dsp/fm/operator.h ****     amplitude[i] = ops[i].amplitude;
 457              		.loc 1 93 14 view .LVU122
 458 006c 5CF8083C 		ldr	r3, [ip, #-8]
 459              	.LBB137:
 460              	.LBB135:
 461              		.loc 2 235 7 view .LVU123
 462 0070 F4EE467A 		vcmp.f32	s15, s12
ARM GAS  /var/folders/9k/zk1mgrrd7wg4__6zvxvr9w8m0000gn/T//ccWZw7sc.s 			page 18


 463              	.LBE135:
 464              	.LBE137:
  92:mi/plaits/dsp/fm/operator.h ****     phase[i] = ops[i].phase;
 465              		.loc 1 92 18 view .LVU124
 466 0074 46F8045B 		str	r5, [r6], #4
  93:mi/plaits/dsp/fm/operator.h ****     amplitude[i] = ops[i].amplitude;
 467              		.loc 1 93 14 view .LVU125
 468 0078 47F8043B 		str	r3, [r7], #4
  94:mi/plaits/dsp/fm/operator.h ****     amplitude_increment[i] = (std::min(a[i], 4.0f) - amplitude[i]) * scale;
 469              		.loc 1 94 18 view .LVU126
 470 007c E8EC016A 		vstmia.32	r8!, {s13}
 471              	.LVL39:
 472              	.LBB138:
 473              	.LBI133:
 230:/Library/DaisyToolchain/0.2.0/arm/arm-none-eabi/include/c++/10.3.1/bits/stl_algobase.h ****     {
 474              		.loc 2 230 5 is_stmt 1 view .LVU127
 475              	.LBB136:
 476              		.loc 2 235 7 is_stmt 0 view .LVU128
 477 0080 F1EE10FA 		vmrs	APSR_nzcv, FPSCR
 478 0084 76FE277A 		vselgt.f32	s15, s12, s15
 479              	.LVL40:
 480              		.loc 2 235 7 view .LVU129
 481              	.LBE136:
 482              	.LBE138:
  95:mi/plaits/dsp/fm/operator.h ****   }
 483              		.loc 1 95 52 view .LVU130
 484 0088 77EEE67A 		vsub.f32	s15, s15, s13
  91:mi/plaits/dsp/fm/operator.h ****     frequency[i] = static_cast<uint32_t>(std::min(f[i], 0.5f) * 4294967296.0f);
 485              		.loc 1 91 21 view .LVU131
 486 008c E245     		cmp	r10, ip
  95:mi/plaits/dsp/fm/operator.h ****   }
 487              		.loc 1 95 68 view .LVU132
 488 008e 67EEA57A 		vmul.f32	s15, s15, s11
  95:mi/plaits/dsp/fm/operator.h ****   }
 489              		.loc 1 95 28 view .LVU133
 490 0092 EEEC017A 		vstmia.32	lr!, {s15}
  91:mi/plaits/dsp/fm/operator.h ****     frequency[i] = static_cast<uint32_t>(std::min(f[i], 0.5f) * 4294967296.0f);
 491              		.loc 1 91 3 is_stmt 1 view .LVU134
  91:mi/plaits/dsp/fm/operator.h ****     frequency[i] = static_cast<uint32_t>(std::min(f[i], 0.5f) * 4294967296.0f);
 492              		.loc 1 91 21 view .LVU135
 493 0096 CFD1     		bne	.L22
 494              	.LBE140:
  98:mi/plaits/dsp/fm/operator.h **** 
 495              		.loc 1 98 36 is_stmt 0 view .LVU136
 496 0098 4B46     		mov	r3, r9
 497 009a BBF1000F 		cmp	fp, #0
 498 009e 79D0     		beq	.L29
 499              	.LVL41:
  98:mi/plaits/dsp/fm/operator.h **** 
 500              		.loc 1 98 46 discriminator 1 view .LVU137
 501 00a0 0122     		movs	r2, #1
 502 00a2 02FA0BF2 		lsl	r2, r2, fp
 503 00a6 04EE102A 		vmov	s8, r2	@ int
  98:mi/plaits/dsp/fm/operator.h **** 
 504              		.loc 1 98 36 discriminator 1 view .LVU138
 505 00aa BAEEEB4A 		vcvt.f32.s32	s8, s8, #9
 506              	.L23:
ARM GAS  /var/folders/9k/zk1mgrrd7wg4__6zvxvr9w8m0000gn/T//ccWZw7sc.s 			page 19


 507              	.LVL42:
 100:mi/plaits/dsp/fm/operator.h ****     float pm = 0.0f;
 508              		.loc 1 100 3 is_stmt 1 discriminator 4 view .LVU139
 509 00ae 199A     		ldr	r2, [sp, #100]
 510 00b0 02F1FF3E 		add	lr, r2, #-1
 511              	.LVL43:
 100:mi/plaits/dsp/fm/operator.h ****     float pm = 0.0f;
 512              		.loc 1 100 3 is_stmt 0 discriminator 4 view .LVU140
 513 00b4 002A     		cmp	r2, #0
 514 00b6 56D0     		beq	.L30
 515 00b8 DFF8F480 		ldr	r8, .L35+20
 516              	.LVL44:
 517              	.L27:
 518              	.LBB141:
 103:mi/plaits/dsp/fm/operator.h ****     } else if (modulation_source == Operator::MODULATION_SOURCE_EXTERNAL) {
 519              		.loc 1 103 24 view .LVU141
 520 00bc 77EE247A 		vadd.f32	s15, s14, s9
 103:mi/plaits/dsp/fm/operator.h ****     } else if (modulation_source == Operator::MODULATION_SOURCE_EXTERNAL) {
 521              		.loc 1 103 10 view .LVU142
 522 00c0 0DF12409 		add	r9, sp, #36
 523 00c4 06AF     		add	r7, sp, #24
 524 00c6 EC46     		mov	ip, sp
 525 00c8 03AE     		add	r6, sp, #12
 526 00ca 0325     		movs	r5, #3
 527 00cc 67EE847A 		vmul.f32	s15, s15, s8
 528              	.LVL45:
 529              	.LBB142:
 107:mi/plaits/dsp/fm/operator.h ****       phase[i] += frequency[i];
 530              		.loc 1 107 23 is_stmt 1 view .LVU143
 531              	.L26:
 107:mi/plaits/dsp/fm/operator.h ****       phase[i] += frequency[i];
 532              		.loc 1 107 5 view .LVU144
 533              	.LBB143:
 534              	.LBB144:
  64:mi/plaits/dsp/oscillator/sine_oscillator.h ****   
 535              		.loc 3 64 38 is_stmt 0 view .LVU145
 536 00d0 9FED337A 		vldr.32	s14, .L35+4
 537              	.LBE144:
 538              	.LBE143:
 111:mi/plaits/dsp/fm/operator.h ****         previous_1 = previous_0;
 539              		.loc 1 111 7 view .LVU146
 540 00d4 012D     		cmp	r5, #1
 541              	.LBB151:
 542              	.LBB145:
  64:mi/plaits/dsp/oscillator/sine_oscillator.h ****   
 543              		.loc 3 64 48 view .LVU147
 544 00d6 9FED335A 		vldr.32	s10, .L35+8
 545              	.LBE145:
 546              	.LBE151:
 107:mi/plaits/dsp/fm/operator.h ****       phase[i] += frequency[i];
 547              		.loc 1 107 23 view .LVU148
 548 00da 05F1FF35 		add	r5, r5, #-1
 549              	.LVL46:
 550              	.LBB152:
 551              	.LBB146:
  64:mi/plaits/dsp/oscillator/sine_oscillator.h ****   
 552              		.loc 3 64 38 view .LVU149
ARM GAS  /var/folders/9k/zk1mgrrd7wg4__6zvxvr9w8m0000gn/T//ccWZw7sc.s 			page 20


 553 00de 77EE877A 		vadd.f32	s15, s15, s14
 554              	.LVL47:
  64:mi/plaits/dsp/oscillator/sine_oscillator.h ****   
 555              		.loc 3 64 38 view .LVU150
 556              	.LBE146:
 557              	.LBE152:
 108:mi/plaits/dsp/fm/operator.h ****       pm = SinePM(phase[i], pm) * amplitude[i];
 558              		.loc 1 108 16 view .LVU151
 559 00e2 3268     		ldr	r2, [r6]
 108:mi/plaits/dsp/fm/operator.h ****       pm = SinePM(phase[i], pm) * amplitude[i];
 560              		.loc 1 108 28 view .LVU152
 561 00e4 5CF8041B 		ldr	r1, [ip], #4
 109:mi/plaits/dsp/fm/operator.h ****       amplitude[i] += amplitude_increment[i];
 562              		.loc 1 109 44 view .LVU153
 563 00e8 97ED006A 		vldr.32	s12, [r7]
 564              	.LBB153:
 565              	.LBB147:
  64:mi/plaits/dsp/oscillator/sine_oscillator.h ****   
 566              		.loc 3 64 48 view .LVU154
 567 00ec 67EE857A 		vmul.f32	s15, s15, s10
 568              	.LBE147:
 569              	.LBE153:
 108:mi/plaits/dsp/fm/operator.h ****       pm = SinePM(phase[i], pm) * amplitude[i];
 570              		.loc 1 108 16 view .LVU155
 571 00f0 0A44     		add	r2, r2, r1
 110:mi/plaits/dsp/fm/operator.h ****       if (i == modulation_source) {
 572              		.loc 1 110 42 view .LVU156
 573 00f2 F9EC016A 		vldmia.32	r9!, {s13}
 108:mi/plaits/dsp/fm/operator.h ****       pm = SinePM(phase[i], pm) * amplitude[i];
 574              		.loc 1 108 16 view .LVU157
 575 00f6 46F8042B 		str	r2, [r6], #4
 576              	.LVL48:
 577              	.LBB154:
 578              	.LBI143:
  58:mi/plaits/dsp/oscillator/sine_oscillator.h ****   const float max_uint32 = 4294967296.0f;
 579              		.loc 3 58 14 is_stmt 1 view .LVU158
 580              	.LBB148:
  59:mi/plaits/dsp/oscillator/sine_oscillator.h ****   const int max_index = 32;
 581              		.loc 3 59 3 view .LVU159
  60:mi/plaits/dsp/oscillator/sine_oscillator.h ****   const float offset = float(max_index);
 582              		.loc 3 60 3 view .LVU160
  61:mi/plaits/dsp/oscillator/sine_oscillator.h ****   const float scale = max_uint32 / float(max_index * 2);
 583              		.loc 3 61 3 view .LVU161
  62:mi/plaits/dsp/oscillator/sine_oscillator.h **** 
 584              		.loc 3 62 3 view .LVU162
  64:mi/plaits/dsp/oscillator/sine_oscillator.h ****   
 585              		.loc 3 64 3 view .LVU163
  64:mi/plaits/dsp/oscillator/sine_oscillator.h ****   
 586              		.loc 3 64 12 is_stmt 0 view .LVU164
 587 00fa FCEEE77A 		vcvt.u32.f32	s15, s15
  67:mi/plaits/dsp/oscillator/sine_oscillator.h ****   float a = lut_sine[integral];
 588              		.loc 3 67 9 view .LVU165
 589 00fe DFED2A5A 		vldr.32	s11, .L35+12
 590              	.LBE148:
 591              	.LBE154:
 110:mi/plaits/dsp/fm/operator.h ****       if (i == modulation_source) {
 592              		.loc 1 110 20 view .LVU166
ARM GAS  /var/folders/9k/zk1mgrrd7wg4__6zvxvr9w8m0000gn/T//ccWZw7sc.s 			page 21


 593 0102 76EE266A 		vadd.f32	s13, s12, s13
 594              	.LBB155:
 595              	.LBB149:
  64:mi/plaits/dsp/oscillator/sine_oscillator.h ****   
 596              		.loc 3 64 9 view .LVU167
 597 0106 17EE901A 		vmov	r1, s15	@ int
 598              	.LBE149:
 599              	.LBE155:
 110:mi/plaits/dsp/fm/operator.h ****       if (i == modulation_source) {
 600              		.loc 1 110 20 view .LVU168
 601 010a E7EC016A 		vstmia.32	r7!, {s13}
 602              	.LBB156:
 603              	.LBB150:
  64:mi/plaits/dsp/oscillator/sine_oscillator.h ****   
 604              		.loc 3 64 9 view .LVU169
 605 010e 02EB8112 		add	r2, r2, r1, lsl #6
 606              	.LVL49:
  66:mi/plaits/dsp/oscillator/sine_oscillator.h ****   float fractional = static_cast<float>(phase << kSineLUTBits) / float(max_uint32);
 607              		.loc 3 66 3 is_stmt 1 view .LVU170
  66:mi/plaits/dsp/oscillator/sine_oscillator.h ****   float fractional = static_cast<float>(phase << kSineLUTBits) / float(max_uint32);
 608              		.loc 3 66 12 is_stmt 0 view .LVU171
 609 0112 4FEAD251 		lsr	r1, r2, #23
 610              	.LVL50:
  67:mi/plaits/dsp/oscillator/sine_oscillator.h ****   float a = lut_sine[integral];
 611              		.loc 3 67 3 is_stmt 1 view .LVU172
  68:mi/plaits/dsp/oscillator/sine_oscillator.h ****   float b = lut_sine[integral + 1];
 612              		.loc 3 68 3 view .LVU173
  67:mi/plaits/dsp/oscillator/sine_oscillator.h ****   float a = lut_sine[integral];
 613              		.loc 3 67 47 is_stmt 0 view .LVU174
 614 0116 4FEA4222 		lsl	r2, r2, #9
 615              	.LVL51:
  67:mi/plaits/dsp/oscillator/sine_oscillator.h ****   float a = lut_sine[integral];
 616              		.loc 3 67 47 view .LVU175
 617 011a 07EE102A 		vmov	s14, r2	@ int
  68:mi/plaits/dsp/oscillator/sine_oscillator.h ****   float b = lut_sine[integral + 1];
 618              		.loc 3 68 9 view .LVU176
 619 011e 08EB8102 		add	r2, r8, r1, lsl #2
  67:mi/plaits/dsp/oscillator/sine_oscillator.h ****   float a = lut_sine[integral];
 620              		.loc 3 67 22 view .LVU177
 621 0122 B8EE477A 		vcvt.f32.u32	s14, s14
  68:mi/plaits/dsp/oscillator/sine_oscillator.h ****   float b = lut_sine[integral + 1];
 622              		.loc 3 68 9 view .LVU178
 623 0126 D2ED007A 		vldr.32	s15, [r2]
 624              	.LVL52:
  69:mi/plaits/dsp/oscillator/sine_oscillator.h ****   return a + (b - a) * fractional;
 625              		.loc 3 69 3 is_stmt 1 view .LVU179
 626              		.loc 3 70 3 view .LVU180
 627              		.loc 3 70 17 is_stmt 0 view .LVU181
 628 012a D2ED016A 		vldr.32	s13, [r2, #4]
  67:mi/plaits/dsp/oscillator/sine_oscillator.h ****   float a = lut_sine[integral];
 629              		.loc 3 67 9 view .LVU182
 630 012e 27EE257A 		vmul.f32	s14, s14, s11
 631              	.LVL53:
 632              		.loc 3 70 17 view .LVU183
 633 0132 76EEE76A 		vsub.f32	s13, s13, s15
 634              		.loc 3 70 24 view .LVU184
 635 0136 E7EE267A 		vfma.f32	s15, s14, s13
ARM GAS  /var/folders/9k/zk1mgrrd7wg4__6zvxvr9w8m0000gn/T//ccWZw7sc.s 			page 22


 636              	.LVL54:
 637              		.loc 3 70 24 view .LVU185
 638              	.LBE150:
 639              	.LBE156:
 109:mi/plaits/dsp/fm/operator.h ****       amplitude[i] += amplitude_increment[i];
 640              		.loc 1 109 10 view .LVU186
 641 013a 66EE277A 		vmul.f32	s15, s12, s15
 642              	.LVL55:
 107:mi/plaits/dsp/fm/operator.h ****       phase[i] += frequency[i];
 643              		.loc 1 107 23 is_stmt 1 view .LVU187
 111:mi/plaits/dsp/fm/operator.h ****         previous_1 = previous_0;
 644              		.loc 1 111 7 is_stmt 0 view .LVU188
 645 013e C7D1     		bne	.L26
 646              	.LVL56:
 111:mi/plaits/dsp/fm/operator.h ****         previous_1 = previous_0;
 647              		.loc 1 111 7 view .LVU189
 648              	.LBE142:
 117:mi/plaits/dsp/fm/operator.h ****     } else {
 649              		.loc 1 117 14 view .LVU190
 650 0140 F4EC016A 		vldmia.32	r4!, {s13}
 651              	.LVL57:
 117:mi/plaits/dsp/fm/operator.h ****     } else {
 652              		.loc 1 117 14 view .LVU191
 653              	.LBE141:
 100:mi/plaits/dsp/fm/operator.h ****     float pm = 0.0f;
 654              		.loc 1 100 3 view .LVU192
 655 0144 0EF1FF3E 		add	lr, lr, #-1
 656              	.LVL58:
 100:mi/plaits/dsp/fm/operator.h ****     float pm = 0.0f;
 657              		.loc 1 100 3 view .LVU193
 658 0148 B0EE647A 		vmov.f32	s14, s9
 659              	.LBB158:
 117:mi/plaits/dsp/fm/operator.h ****     } else {
 660              		.loc 1 117 14 view .LVU194
 661 014c 76EEA76A 		vadd.f32	s13, s13, s15
 662              	.LBE158:
 100:mi/plaits/dsp/fm/operator.h ****     float pm = 0.0f;
 663              		.loc 1 100 3 view .LVU195
 664 0150 BEF1FF3F 		cmp	lr, #-1
 665              	.LBB159:
 117:mi/plaits/dsp/fm/operator.h ****     } else {
 666              		.loc 1 117 14 view .LVU196
 667 0154 44ED016A 		vstr.32	s13, [r4, #-4]
 668              	.LVL59:
 117:mi/plaits/dsp/fm/operator.h ****     } else {
 669              		.loc 1 117 14 view .LVU197
 670              	.LBE159:
 100:mi/plaits/dsp/fm/operator.h ****     float pm = 0.0f;
 671              		.loc 1 100 3 is_stmt 1 view .LVU198
 100:mi/plaits/dsp/fm/operator.h ****     float pm = 0.0f;
 672              		.loc 1 100 3 is_stmt 0 view .LVU199
 673 0158 09D0     		beq	.L24
 674              	.LBB160:
 675              	.LBB157:
 109:mi/plaits/dsp/fm/operator.h ****       amplitude[i] += amplitude_increment[i];
 676              		.loc 1 109 10 view .LVU200
 677 015a F0EE674A 		vmov.f32	s9, s15
ARM GAS  /var/folders/9k/zk1mgrrd7wg4__6zvxvr9w8m0000gn/T//ccWZw7sc.s 			page 23


 678              	.LVL60:
 109:mi/plaits/dsp/fm/operator.h ****       amplitude[i] += amplitude_increment[i];
 679              		.loc 1 109 10 view .LVU201
 680 015e ADE7     		b	.L27
 681              	.LVL61:
 682              	.L28:
 109:mi/plaits/dsp/fm/operator.h ****       amplitude[i] += amplitude_increment[i];
 683              		.loc 1 109 10 view .LVU202
 684              	.LBE157:
 685              	.LBE160:
 686              	.LBB161:
 687              	.LBB139:
 688              	.LBB131:
 689 0160 4FF00045 		mov	r5, #-2147483648
 690 0164 7AE7     		b	.L19
 691              	.LVL62:
 692              	.L30:
 109:mi/plaits/dsp/fm/operator.h ****       amplitude[i] += amplitude_increment[i];
 693              		.loc 1 109 10 view .LVU203
 694              	.LBE131:
 695              	.LBE139:
 696              	.LBE161:
  81:mi/plaits/dsp/fm/operator.h ****     previous_1 = fb_state[1];
 697              		.loc 1 81 16 view .LVU204
 698 0166 F0EE647A 		vmov.f32	s15, s9
  82:mi/plaits/dsp/fm/operator.h ****   }
 699              		.loc 1 82 16 view .LVU205
 700 016a F0EE474A 		vmov.f32	s9, s14
 701              	.LVL63:
 702              	.L24:
 703              	.LBB162:
 125:mi/plaits/dsp/fm/operator.h ****   }
 704              		.loc 1 125 22 view .LVU206
 705 016e 069A     		ldr	r2, [sp, #24]	@ float
 124:mi/plaits/dsp/fm/operator.h ****     ops[i].amplitude = amplitude[i];
 706              		.loc 1 124 18 view .LVU207
 707 0170 0399     		ldr	r1, [sp, #12]
 125:mi/plaits/dsp/fm/operator.h ****   }
 708              		.loc 1 125 22 view .LVU208
 709 0172 4260     		str	r2, [r0, #4]	@ float
 123:mi/plaits/dsp/fm/operator.h ****     ops[i].phase = phase[i];
 710              		.loc 1 123 3 is_stmt 1 view .LVU209
 711              	.LVL64:
 123:mi/plaits/dsp/fm/operator.h ****     ops[i].phase = phase[i];
 712              		.loc 1 123 21 view .LVU210
 125:mi/plaits/dsp/fm/operator.h ****   }
 713              		.loc 1 125 22 is_stmt 0 view .LVU211
 714 0174 079A     		ldr	r2, [sp, #28]	@ float
 124:mi/plaits/dsp/fm/operator.h ****     ops[i].amplitude = amplitude[i];
 715              		.loc 1 124 18 view .LVU212
 716 0176 0160     		str	r1, [r0]
 125:mi/plaits/dsp/fm/operator.h ****   }
 717              		.loc 1 125 22 view .LVU213
 718 0178 C260     		str	r2, [r0, #12]	@ float
 123:mi/plaits/dsp/fm/operator.h ****     ops[i].phase = phase[i];
 719              		.loc 1 123 3 is_stmt 1 view .LVU214
 720              	.LVL65:
ARM GAS  /var/folders/9k/zk1mgrrd7wg4__6zvxvr9w8m0000gn/T//ccWZw7sc.s 			page 24


 123:mi/plaits/dsp/fm/operator.h ****     ops[i].phase = phase[i];
 721              		.loc 1 123 21 view .LVU215
 124:mi/plaits/dsp/fm/operator.h ****     ops[i].amplitude = amplitude[i];
 722              		.loc 1 124 18 is_stmt 0 view .LVU216
 723 017a 049C     		ldr	r4, [sp, #16]
 724              	.LVL66:
 124:mi/plaits/dsp/fm/operator.h ****     ops[i].amplitude = amplitude[i];
 725              		.loc 1 124 18 view .LVU217
 726 017c 0599     		ldr	r1, [sp, #20]
 125:mi/plaits/dsp/fm/operator.h ****   }
 727              		.loc 1 125 22 view .LVU218
 728 017e 089A     		ldr	r2, [sp, #32]	@ float
 124:mi/plaits/dsp/fm/operator.h ****     ops[i].amplitude = amplitude[i];
 729              		.loc 1 124 18 view .LVU219
 730 0180 8460     		str	r4, [r0, #8]
 731 0182 0161     		str	r1, [r0, #16]
 125:mi/plaits/dsp/fm/operator.h ****   }
 732              		.loc 1 125 22 view .LVU220
 733 0184 4261     		str	r2, [r0, #20]	@ float
 123:mi/plaits/dsp/fm/operator.h ****     ops[i].phase = phase[i];
 734              		.loc 1 123 3 is_stmt 1 view .LVU221
 735              	.LVL67:
 123:mi/plaits/dsp/fm/operator.h ****     ops[i].phase = phase[i];
 736              		.loc 1 123 21 view .LVU222
 737              	.LBE162:
 129:mi/plaits/dsp/fm/operator.h ****     fb_state[1] = previous_1;
 738              		.loc 1 129 17 is_stmt 0 view .LVU223
 739 0186 C3ED007A 		vstr.32	s15, [r3]
 130:mi/plaits/dsp/fm/operator.h ****   }
 740              		.loc 1 130 17 view .LVU224
 741 018a C3ED014A 		vstr.32	s9, [r3, #4]
 742              		.loc 1 132 1 view .LVU225
 743 018e 0DB0     		add	sp, sp, #52
 744              		.cfi_remember_state
 745              		.cfi_def_cfa_offset 36
 746              		@ sp needed
 747 0190 BDE8F08F 		pop	{r4, r5, r6, r7, r8, r9, r10, fp, pc}
 748              	.LVL68:
 749              	.L29:
 750              		.cfi_restore_state
  98:mi/plaits/dsp/fm/operator.h **** 
 751              		.loc 1 98 36 view .LVU226
 752 0194 9FED054A 		vldr.32	s8, .L35+16
 753 0198 89E7     		b	.L23
 754              	.L36:
 755 019a 00BF     		.align	2
 756              	.L35:
 757 019c 0000804F 		.word	1333788672
 758 01a0 00000042 		.word	1107296256
 759 01a4 0000804C 		.word	1283457024
 760 01a8 0000802F 		.word	796917760
 761 01ac 00000000 		.word	0
 762 01b0 00000000 		.word	_ZN6plaits8lut_sineE
 763              		.cfi_endproc
 764              	.LFE1480:
 766              		.section	.text._ZN6plaits2fm15RenderOperatorsILi2ELi1ELb1EEEvPNS0_8OperatorEPKfS5_PfiS5_S6_j,"axG"
 767              		.align	1
ARM GAS  /var/folders/9k/zk1mgrrd7wg4__6zvxvr9w8m0000gn/T//ccWZw7sc.s 			page 25


 768              		.p2align 2,,3
 769              		.weak	_ZN6plaits2fm15RenderOperatorsILi2ELi1ELb1EEEvPNS0_8OperatorEPKfS5_PfiS5_S6_j
 770              		.syntax unified
 771              		.thumb
 772              		.thumb_func
 774              	_ZN6plaits2fm15RenderOperatorsILi2ELi1ELb1EEEvPNS0_8OperatorEPKfS5_PfiS5_S6_j:
 775              	.LVL69:
 776              	.LFB1481:
  69:mi/plaits/dsp/fm/operator.h ****     Operator* ops,
 777              		.loc 1 69 6 is_stmt 1 view -0
 778              		.cfi_startproc
 779              		@ args = 16, pretend = 0, frame = 32
 780              		@ frame_needed = 0, uses_anonymous_args = 0
  69:mi/plaits/dsp/fm/operator.h ****     Operator* ops,
 781              		.loc 1 69 6 is_stmt 0 view .LVU228
 782 0000 2DE9F047 		push	{r4, r5, r6, r7, r8, r9, r10, lr}
 783              		.cfi_def_cfa_offset 32
 784              		.cfi_offset 4, -32
 785              		.cfi_offset 5, -28
 786              		.cfi_offset 6, -24
 787              		.cfi_offset 7, -20
 788              		.cfi_offset 8, -16
 789              		.cfi_offset 9, -12
 790              		.cfi_offset 10, -8
 791              		.cfi_offset 14, -4
 792              	.LBB173:
 793              	.LBB174:
 794              	.LBB175:
 795              		.loc 2 235 7 view .LVU229
 796 0004 F6EE007A 		vmov.f32	s15, #5.0e-1
 797              	.LBE175:
 798              	.LBE174:
 799              	.LBE173:
  69:mi/plaits/dsp/fm/operator.h ****     Operator* ops,
 800              		.loc 1 69 6 view .LVU230
 801 0008 88B0     		sub	sp, sp, #32
 802              		.cfi_def_cfa_offset 64
 803              	.LBB209:
 804              	.LBB185:
 805              	.LBB176:
 806              		.loc 2 235 15 view .LVU231
 807 000a D1ED006A 		vldr.32	s13, [r1]
 808              	.LBE176:
 809              	.LBE185:
 810              	.LBE209:
  90:mi/plaits/dsp/fm/operator.h ****   for (int i = 0; i < n; ++i) {
 811              		.loc 1 90 15 view .LVU232
 812 000e F7EE004A 		vmov.f32	s9, #1.0e+0
  69:mi/plaits/dsp/fm/operator.h ****     Operator* ops,
 813              		.loc 1 69 6 view .LVU233
 814 0012 139D     		ldr	r5, [sp, #76]
 815 0014 9A46     		mov	r10, r3
 816              	.LBB210:
 817              	.LBB186:
 818              	.LBB177:
 819              		.loc 2 235 7 view .LVU234
 820 0016 F4EEE76A 		vcmpe.f32	s13, s15
ARM GAS  /var/folders/9k/zk1mgrrd7wg4__6zvxvr9w8m0000gn/T//ccWZw7sc.s 			page 26


 821              	.LBE177:
 822              	.LBE186:
 823              	.LBE210:
  69:mi/plaits/dsp/fm/operator.h ****     Operator* ops,
 824              		.loc 1 69 6 view .LVU235
 825 001a 109E     		ldr	r6, [sp, #64]
  90:mi/plaits/dsp/fm/operator.h ****   for (int i = 0; i < n; ++i) {
 826              		.loc 1 90 30 view .LVU236
 827 001c 06EE105A 		vmov	s12, r5	@ int
  81:mi/plaits/dsp/fm/operator.h ****     previous_1 = fb_state[1];
 828              		.loc 1 81 16 view .LVU237
 829 0020 93ED005A 		vldr.32	s10, [r3]
 830              	.LVL70:
  82:mi/plaits/dsp/fm/operator.h ****   }
 831              		.loc 1 82 16 view .LVU238
 832 0024 93ED017A 		vldr.32	s14, [r3, #4]
 833              	.LVL71:
  90:mi/plaits/dsp/fm/operator.h ****   for (int i = 0; i < n; ++i) {
 834              		.loc 1 90 30 view .LVU239
 835 0028 B8EE466A 		vcvt.f32.u32	s12, s12
  69:mi/plaits/dsp/fm/operator.h ****     Operator* ops,
 836              		.loc 1 69 6 view .LVU240
 837 002c DDF84880 		ldr	r8, [sp, #72]
 838              	.LBB211:
 839              	.LBB187:
 840              	.LBB178:
 841              		.loc 2 235 7 view .LVU241
 842 0030 F1EE10FA 		vmrs	APSR_nzcv, FPSCR
 843              	.LBE178:
 844              	.LBE187:
 845              	.LBE211:
  90:mi/plaits/dsp/fm/operator.h ****   for (int i = 0; i < n; ++i) {
 846              		.loc 1 90 15 view .LVU242
 847 0034 C4EE865A 		vdiv.f32	s11, s9, s12
 848              	.LVL72:
 849              	.LBB212:
  91:mi/plaits/dsp/fm/operator.h ****     frequency[i] = static_cast<uint32_t>(std::min(f[i], 0.5f) * 4294967296.0f);
 850              		.loc 1 91 21 is_stmt 1 view .LVU243
 851              	.LBB188:
 852              	.LBI174:
 230:/Library/DaisyToolchain/0.2.0/arm/arm-none-eabi/include/c++/10.3.1/bits/stl_algobase.h ****     {
 853              		.loc 2 230 5 view .LVU244
 854              	.LBB179:
 855              		.loc 2 235 7 is_stmt 0 view .LVU245
 856 0038 00F3BE80 		bgt	.L48
 857              	.LBE179:
 858              	.LBE188:
  92:mi/plaits/dsp/fm/operator.h ****     phase[i] = ops[i].phase;
 859              		.loc 1 92 63 view .LVU246
 860 003c DFED617A 		vldr.32	s15, .L59
 861 0040 66EEA76A 		vmul.f32	s13, s13, s15
  92:mi/plaits/dsp/fm/operator.h ****     phase[i] = ops[i].phase;
 862              		.loc 1 92 20 view .LVU247
 863 0044 FCEEE67A 		vcvt.u32.f32	s15, s13
 864 0048 17EE904A 		vmov	r4, s15	@ int
 865              	.L38:
 866              	.LVL73:
ARM GAS  /var/folders/9k/zk1mgrrd7wg4__6zvxvr9w8m0000gn/T//ccWZw7sc.s 			page 27


 867              	.LBB189:
 868              	.LBB190:
 869              		.loc 2 235 7 view .LVU248
 870 004c F1EE004A 		vmov.f32	s9, #4.0e+0
 871              		.loc 2 235 15 view .LVU249
 872 0050 D2ED006A 		vldr.32	s13, [r2]
 873              	.LBE190:
 874              	.LBE189:
 875              	.LBB197:
 876              	.LBB180:
 877              		.loc 2 235 7 view .LVU250
 878 0054 B6EE004A 		vmov.f32	s8, #5.0e-1
 879              		.loc 2 235 15 view .LVU251
 880 0058 91ED016A 		vldr.32	s12, [r1, #4]
 881              	.LBE180:
 882              	.LBE197:
  94:mi/plaits/dsp/fm/operator.h ****     amplitude_increment[i] = (std::min(a[i], 4.0f) - amplitude[i]) * scale;
 883              		.loc 1 94 27 view .LVU252
 884 005c D0ED017A 		vldr.32	s15, [r0, #4]
 885              	.LBB198:
 886              	.LBB191:
 887              		.loc 2 235 7 view .LVU253
 888 0060 F4EE646A 		vcmp.f32	s13, s9
 889              	.LBE191:
 890              	.LBE198:
  93:mi/plaits/dsp/fm/operator.h ****     amplitude[i] = ops[i].amplitude;
 891              		.loc 1 93 14 view .LVU254
 892 0064 0168     		ldr	r1, [r0]
 893              	.LVL74:
  92:mi/plaits/dsp/fm/operator.h ****     phase[i] = ops[i].phase;
 894              		.loc 1 92 18 view .LVU255
 895 0066 0094     		str	r4, [sp]
  94:mi/plaits/dsp/fm/operator.h ****     amplitude_increment[i] = (std::min(a[i], 4.0f) - amplitude[i]) * scale;
 896              		.loc 1 94 18 view .LVU256
 897 0068 CDED047A 		vstr.32	s15, [sp, #16]
 898              	.LVL75:
 899              	.LBB199:
 900              	.LBI189:
 230:/Library/DaisyToolchain/0.2.0/arm/arm-none-eabi/include/c++/10.3.1/bits/stl_algobase.h ****     {
 901              		.loc 2 230 5 is_stmt 1 view .LVU257
 902              	.LBB192:
 903              		.loc 2 235 7 is_stmt 0 view .LVU258
 904 006c F1EE10FA 		vmrs	APSR_nzcv, FPSCR
 905              	.LBE192:
 906              	.LBE199:
  93:mi/plaits/dsp/fm/operator.h ****     amplitude[i] = ops[i].amplitude;
 907              		.loc 1 93 14 view .LVU259
 908 0070 0291     		str	r1, [sp, #8]
 909              	.LBB200:
 910              	.LBB181:
 911              		.loc 2 235 7 view .LVU260
 912 0072 B4EEC46A 		vcmpe.f32	s12, s8
 913              	.LBE181:
 914              	.LBE200:
 915              	.LBB201:
 916              	.LBB193:
 917 0076 74FEA66A 		vselgt.f32	s13, s9, s13
ARM GAS  /var/folders/9k/zk1mgrrd7wg4__6zvxvr9w8m0000gn/T//ccWZw7sc.s 			page 28


 918              	.LVL76:
 919              		.loc 2 235 7 view .LVU261
 920              	.LBE193:
 921              	.LBE201:
  95:mi/plaits/dsp/fm/operator.h ****   }
 922              		.loc 1 95 52 view .LVU262
 923 007a 76EEE76A 		vsub.f32	s13, s13, s15
 924              	.LBB202:
 925              	.LBB182:
 926              		.loc 2 235 7 view .LVU263
 927 007e F1EE10FA 		vmrs	APSR_nzcv, FPSCR
 928              	.LBE182:
 929              	.LBE202:
  95:mi/plaits/dsp/fm/operator.h ****   }
 930              		.loc 1 95 68 view .LVU264
 931 0082 66EEA56A 		vmul.f32	s13, s13, s11
  95:mi/plaits/dsp/fm/operator.h ****   }
 932              		.loc 1 95 28 view .LVU265
 933 0086 CDED066A 		vstr.32	s13, [sp, #24]
  91:mi/plaits/dsp/fm/operator.h ****     frequency[i] = static_cast<uint32_t>(std::min(f[i], 0.5f) * 4294967296.0f);
 934              		.loc 1 91 3 is_stmt 1 view .LVU266
 935              	.LVL77:
  91:mi/plaits/dsp/fm/operator.h ****     frequency[i] = static_cast<uint32_t>(std::min(f[i], 0.5f) * 4294967296.0f);
 936              		.loc 1 91 21 view .LVU267
 937              	.LBB203:
 230:/Library/DaisyToolchain/0.2.0/arm/arm-none-eabi/include/c++/10.3.1/bits/stl_algobase.h ****     {
 938              		.loc 2 230 5 view .LVU268
 939              	.LBB183:
 940              		.loc 2 235 7 is_stmt 0 view .LVU269
 941 008a 00F39880 		bgt	.L49
 942              	.LBE183:
 943              	.LBE203:
  92:mi/plaits/dsp/fm/operator.h ****     phase[i] = ops[i].phase;
 944              		.loc 1 92 63 view .LVU270
 945 008e DFED4D7A 		vldr.32	s15, .L59
 946 0092 26EE276A 		vmul.f32	s12, s12, s15
  92:mi/plaits/dsp/fm/operator.h ****     phase[i] = ops[i].phase;
 947              		.loc 1 92 20 view .LVU271
 948 0096 FCEEC67A 		vcvt.u32.f32	s15, s12
 949 009a 17EE901A 		vmov	r1, s15	@ int
 950              	.L41:
 951              	.LVL78:
 952              	.LBB204:
 953              	.LBB194:
 954              		.loc 2 235 7 view .LVU272
 955 009e B1EE006A 		vmov.f32	s12, #4.0e+0
 956              		.loc 2 235 15 view .LVU273
 957 00a2 D2ED017A 		vldr.32	s15, [r2, #4]
 958              	.LBE194:
 959              	.LBE204:
  94:mi/plaits/dsp/fm/operator.h ****     amplitude_increment[i] = (std::min(a[i], 4.0f) - amplitude[i]) * scale;
 960              		.loc 1 94 27 view .LVU274
 961 00a6 D0ED036A 		vldr.32	s13, [r0, #12]
  93:mi/plaits/dsp/fm/operator.h ****     amplitude[i] = ops[i].amplitude;
 962              		.loc 1 93 14 view .LVU275
 963 00aa 8268     		ldr	r2, [r0, #8]
 964              	.LVL79:
ARM GAS  /var/folders/9k/zk1mgrrd7wg4__6zvxvr9w8m0000gn/T//ccWZw7sc.s 			page 29


 965              	.LBB205:
 966              	.LBB195:
 967              		.loc 2 235 7 view .LVU276
 968 00ac F4EE467A 		vcmp.f32	s15, s12
 969              	.LBE195:
 970              	.LBE205:
  92:mi/plaits/dsp/fm/operator.h ****     phase[i] = ops[i].phase;
 971              		.loc 1 92 18 view .LVU277
 972 00b0 0191     		str	r1, [sp, #4]
  94:mi/plaits/dsp/fm/operator.h ****     amplitude_increment[i] = (std::min(a[i], 4.0f) - amplitude[i]) * scale;
 973              		.loc 1 94 18 view .LVU278
 974 00b2 CDED056A 		vstr.32	s13, [sp, #20]
 975              	.LVL80:
 976              	.LBB206:
 230:/Library/DaisyToolchain/0.2.0/arm/arm-none-eabi/include/c++/10.3.1/bits/stl_algobase.h ****     {
 977              		.loc 2 230 5 is_stmt 1 view .LVU279
 978              	.LBE206:
  93:mi/plaits/dsp/fm/operator.h ****     amplitude[i] = ops[i].amplitude;
 979              		.loc 1 93 14 is_stmt 0 view .LVU280
 980 00b6 0392     		str	r2, [sp, #12]
 981              	.LBB207:
 982              	.LBB196:
 983              		.loc 2 235 7 view .LVU281
 984 00b8 F1EE10FA 		vmrs	APSR_nzcv, FPSCR
 985 00bc 76FE277A 		vselgt.f32	s15, s12, s15
 986              	.LVL81:
 987              		.loc 2 235 7 view .LVU282
 988              	.LBE196:
 989              	.LBE207:
  95:mi/plaits/dsp/fm/operator.h ****   }
 990              		.loc 1 95 52 view .LVU283
 991 00c0 77EEE67A 		vsub.f32	s15, s15, s13
  95:mi/plaits/dsp/fm/operator.h ****   }
 992              		.loc 1 95 68 view .LVU284
 993 00c4 67EEA57A 		vmul.f32	s15, s15, s11
  95:mi/plaits/dsp/fm/operator.h ****   }
 994              		.loc 1 95 28 view .LVU285
 995 00c8 CDED077A 		vstr.32	s15, [sp, #28]
  91:mi/plaits/dsp/fm/operator.h ****     frequency[i] = static_cast<uint32_t>(std::min(f[i], 0.5f) * 4294967296.0f);
 996              		.loc 1 91 3 is_stmt 1 view .LVU286
 997              	.LVL82:
  91:mi/plaits/dsp/fm/operator.h ****     frequency[i] = static_cast<uint32_t>(std::min(f[i], 0.5f) * 4294967296.0f);
 998              		.loc 1 91 21 view .LVU287
 999              	.LBE212:
  98:mi/plaits/dsp/fm/operator.h **** 
 1000              		.loc 1 98 36 is_stmt 0 view .LVU288
 1001 00cc 002E     		cmp	r6, #0
 1002 00ce 70D0     		beq	.L50
  98:mi/plaits/dsp/fm/operator.h **** 
 1003              		.loc 1 98 46 discriminator 1 view .LVU289
 1004 00d0 0122     		movs	r2, #1
 1005 00d2 02FA06F3 		lsl	r3, r2, r6
 1006              	.LVL83:
  98:mi/plaits/dsp/fm/operator.h **** 
 1007              		.loc 1 98 46 discriminator 1 view .LVU290
 1008 00d6 04EE903A 		vmov	s9, r3	@ int
  98:mi/plaits/dsp/fm/operator.h **** 
ARM GAS  /var/folders/9k/zk1mgrrd7wg4__6zvxvr9w8m0000gn/T//ccWZw7sc.s 			page 30


 1009              		.loc 1 98 36 discriminator 1 view .LVU291
 1010 00da FAEEEB4A 		vcvt.f32.s32	s9, s9, #9
 1011              	.L44:
 1012              	.LVL84:
 100:mi/plaits/dsp/fm/operator.h ****     float pm = 0.0f;
 1013              		.loc 1 100 3 is_stmt 1 discriminator 4 view .LVU292
 1014 00de 6F1E     		subs	r7, r5, #1
 1015              	.LVL85:
 100:mi/plaits/dsp/fm/operator.h ****     float pm = 0.0f;
 1016              		.loc 1 100 3 is_stmt 0 discriminator 4 view .LVU293
 1017 00e0 002D     		cmp	r5, #0
 1018 00e2 53D0     		beq	.L56
 1019 00e4 384E     		ldr	r6, .L59+4
 1020              	.LVL86:
 1021              	.L45:
 1022              	.LBB213:
 103:mi/plaits/dsp/fm/operator.h ****     } else if (modulation_source == Operator::MODULATION_SOURCE_EXTERNAL) {
 1023              		.loc 1 103 24 view .LVU294
 1024 00e6 75EE077A 		vadd.f32	s15, s10, s14
 1025 00ea 0DF1080C 		add	ip, sp, #8
 1026 00ee 6D46     		mov	r5, sp
 1027 00f0 04A9     		add	r1, sp, #16
 1028 00f2 06AC     		add	r4, sp, #24
 103:mi/plaits/dsp/fm/operator.h ****     } else if (modulation_source == Operator::MODULATION_SOURCE_EXTERNAL) {
 1029              		.loc 1 103 10 view .LVU295
 1030 00f4 4FF0020E 		mov	lr, #2
 1031 00f8 67EEA47A 		vmul.f32	s15, s15, s9
 1032              	.LVL87:
 1033              	.LBB214:
 107:mi/plaits/dsp/fm/operator.h ****       phase[i] += frequency[i];
 1034              		.loc 1 107 23 is_stmt 1 view .LVU296
 1035              	.L46:
 1036              	.LBB215:
 1037              	.LBB216:
  64:mi/plaits/dsp/oscillator/sine_oscillator.h ****   
 1038              		.loc 3 64 38 is_stmt 0 view .LVU297
 1039 00fc DFED336A 		vldr.32	s13, .L59+8
 1040              	.LBE216:
 1041              	.LBE215:
 111:mi/plaits/dsp/fm/operator.h ****         previous_1 = previous_0;
 1042              		.loc 1 111 7 view .LVU298
 1043 0100 BEF1010F 		cmp	lr, #1
 1044              	.LBB223:
 1045              	.LBB217:
  64:mi/plaits/dsp/oscillator/sine_oscillator.h ****   
 1046              		.loc 3 64 48 view .LVU299
 1047 0104 9FED327A 		vldr.32	s14, .L59+12
 1048              	.LBE217:
 1049              	.LBE223:
 1050 0108 4FF0010E 		mov	lr, #1
 1051              	.LVL88:
 1052              	.LBB224:
 1053              	.LBB218:
  64:mi/plaits/dsp/oscillator/sine_oscillator.h ****   
 1054              		.loc 3 64 38 view .LVU300
 1055 010c 77EEA67A 		vadd.f32	s15, s15, s13
 1056              	.LVL89:
ARM GAS  /var/folders/9k/zk1mgrrd7wg4__6zvxvr9w8m0000gn/T//ccWZw7sc.s 			page 31


  64:mi/plaits/dsp/oscillator/sine_oscillator.h ****   
 1057              		.loc 3 64 38 view .LVU301
 1058              	.LBE218:
 1059              	.LBE224:
 108:mi/plaits/dsp/fm/operator.h ****       pm = SinePM(phase[i], pm) * amplitude[i];
 1060              		.loc 1 108 16 view .LVU302
 1061 0110 DCF80030 		ldr	r3, [ip]
 108:mi/plaits/dsp/fm/operator.h ****       pm = SinePM(phase[i], pm) * amplitude[i];
 1062              		.loc 1 108 28 view .LVU303
 1063 0114 55F8042B 		ldr	r2, [r5], #4
 109:mi/plaits/dsp/fm/operator.h ****       amplitude[i] += amplitude_increment[i];
 1064              		.loc 1 109 44 view .LVU304
 1065 0118 91ED006A 		vldr.32	s12, [r1]
 1066              	.LBB225:
 1067              	.LBB219:
  64:mi/plaits/dsp/oscillator/sine_oscillator.h ****   
 1068              		.loc 3 64 48 view .LVU305
 1069 011c 67EE877A 		vmul.f32	s15, s15, s14
 1070              	.LBE219:
 1071              	.LBE225:
 108:mi/plaits/dsp/fm/operator.h ****       pm = SinePM(phase[i], pm) * amplitude[i];
 1072              		.loc 1 108 16 view .LVU306
 1073 0120 1A44     		add	r2, r2, r3
 110:mi/plaits/dsp/fm/operator.h ****       if (i == modulation_source) {
 1074              		.loc 1 110 42 view .LVU307
 1075 0122 F4EC016A 		vldmia.32	r4!, {s13}
 108:mi/plaits/dsp/fm/operator.h ****       pm = SinePM(phase[i], pm) * amplitude[i];
 1076              		.loc 1 108 16 view .LVU308
 1077 0126 4CF8042B 		str	r2, [ip], #4
 1078              	.LVL90:
 1079              	.LBB226:
 1080              	.LBI215:
  58:mi/plaits/dsp/oscillator/sine_oscillator.h ****   const float max_uint32 = 4294967296.0f;
 1081              		.loc 3 58 14 is_stmt 1 view .LVU309
 1082              	.LBB220:
  59:mi/plaits/dsp/oscillator/sine_oscillator.h ****   const int max_index = 32;
 1083              		.loc 3 59 3 view .LVU310
  60:mi/plaits/dsp/oscillator/sine_oscillator.h ****   const float offset = float(max_index);
 1084              		.loc 3 60 3 view .LVU311
  61:mi/plaits/dsp/oscillator/sine_oscillator.h ****   const float scale = max_uint32 / float(max_index * 2);
 1085              		.loc 3 61 3 view .LVU312
  62:mi/plaits/dsp/oscillator/sine_oscillator.h **** 
 1086              		.loc 3 62 3 view .LVU313
  64:mi/plaits/dsp/oscillator/sine_oscillator.h ****   
 1087              		.loc 3 64 3 view .LVU314
  64:mi/plaits/dsp/oscillator/sine_oscillator.h ****   
 1088              		.loc 3 64 12 is_stmt 0 view .LVU315
 1089 012a FCEEE77A 		vcvt.u32.f32	s15, s15
  67:mi/plaits/dsp/oscillator/sine_oscillator.h ****   float a = lut_sine[integral];
 1090              		.loc 3 67 9 view .LVU316
 1091 012e DFED295A 		vldr.32	s11, .L59+16
 1092              	.LBE220:
 1093              	.LBE226:
 110:mi/plaits/dsp/fm/operator.h ****       if (i == modulation_source) {
 1094              		.loc 1 110 20 view .LVU317
 1095 0132 76EE266A 		vadd.f32	s13, s12, s13
 1096              	.LBB227:
ARM GAS  /var/folders/9k/zk1mgrrd7wg4__6zvxvr9w8m0000gn/T//ccWZw7sc.s 			page 32


 1097              	.LBB221:
  64:mi/plaits/dsp/oscillator/sine_oscillator.h ****   
 1098              		.loc 3 64 9 view .LVU318
 1099 0136 17EE903A 		vmov	r3, s15	@ int
 1100              	.LBE221:
 1101              	.LBE227:
 110:mi/plaits/dsp/fm/operator.h ****       if (i == modulation_source) {
 1102              		.loc 1 110 20 view .LVU319
 1103 013a E1EC016A 		vstmia.32	r1!, {s13}
 1104              	.LBB228:
 1105              	.LBB222:
  64:mi/plaits/dsp/oscillator/sine_oscillator.h ****   
 1106              		.loc 3 64 9 view .LVU320
 1107 013e 02EB8312 		add	r2, r2, r3, lsl #6
 1108              	.LVL91:
  66:mi/plaits/dsp/oscillator/sine_oscillator.h ****   float fractional = static_cast<float>(phase << kSineLUTBits) / float(max_uint32);
 1109              		.loc 3 66 3 is_stmt 1 view .LVU321
  67:mi/plaits/dsp/oscillator/sine_oscillator.h ****   float a = lut_sine[integral];
 1110              		.loc 3 67 47 is_stmt 0 view .LVU322
 1111 0142 4FEA4223 		lsl	r3, r2, #9
  66:mi/plaits/dsp/oscillator/sine_oscillator.h ****   float fractional = static_cast<float>(phase << kSineLUTBits) / float(max_uint32);
 1112              		.loc 3 66 12 view .LVU323
 1113 0146 4FEAD259 		lsr	r9, r2, #23
 1114              	.LVL92:
  67:mi/plaits/dsp/oscillator/sine_oscillator.h ****   float a = lut_sine[integral];
 1115              		.loc 3 67 3 is_stmt 1 view .LVU324
  68:mi/plaits/dsp/oscillator/sine_oscillator.h ****   float b = lut_sine[integral + 1];
 1116              		.loc 3 68 3 view .LVU325
  67:mi/plaits/dsp/oscillator/sine_oscillator.h ****   float a = lut_sine[integral];
 1117              		.loc 3 67 47 is_stmt 0 view .LVU326
 1118 014a 07EE103A 		vmov	s14, r3	@ int
  68:mi/plaits/dsp/oscillator/sine_oscillator.h ****   float b = lut_sine[integral + 1];
 1119              		.loc 3 68 9 view .LVU327
 1120 014e 06EB8902 		add	r2, r6, r9, lsl #2
 1121              	.LVL93:
  67:mi/plaits/dsp/oscillator/sine_oscillator.h ****   float a = lut_sine[integral];
 1122              		.loc 3 67 22 view .LVU328
 1123 0152 B8EE477A 		vcvt.f32.u32	s14, s14
  68:mi/plaits/dsp/oscillator/sine_oscillator.h ****   float b = lut_sine[integral + 1];
 1124              		.loc 3 68 9 view .LVU329
 1125 0156 D2ED007A 		vldr.32	s15, [r2]
 1126              	.LVL94:
  69:mi/plaits/dsp/oscillator/sine_oscillator.h ****   return a + (b - a) * fractional;
 1127              		.loc 3 69 3 is_stmt 1 view .LVU330
 1128              		.loc 3 70 3 view .LVU331
 1129              		.loc 3 70 17 is_stmt 0 view .LVU332
 1130 015a D2ED016A 		vldr.32	s13, [r2, #4]
  67:mi/plaits/dsp/oscillator/sine_oscillator.h ****   float a = lut_sine[integral];
 1131              		.loc 3 67 9 view .LVU333
 1132 015e 27EE257A 		vmul.f32	s14, s14, s11
 1133              	.LVL95:
 1134              		.loc 3 70 17 view .LVU334
 1135 0162 76EEE76A 		vsub.f32	s13, s13, s15
 1136              		.loc 3 70 24 view .LVU335
 1137 0166 E7EE267A 		vfma.f32	s15, s14, s13
 1138              	.LVL96:
 1139              		.loc 3 70 24 view .LVU336
ARM GAS  /var/folders/9k/zk1mgrrd7wg4__6zvxvr9w8m0000gn/T//ccWZw7sc.s 			page 33


 1140              	.LBE222:
 1141              	.LBE228:
 109:mi/plaits/dsp/fm/operator.h ****       amplitude[i] += amplitude_increment[i];
 1142              		.loc 1 109 10 view .LVU337
 1143 016a 66EE277A 		vmul.f32	s15, s12, s15
 1144              	.LVL97:
 111:mi/plaits/dsp/fm/operator.h ****         previous_1 = previous_0;
 1145              		.loc 1 111 7 view .LVU338
 1146 016e C5D1     		bne	.L46
 1147              	.LVL98:
 111:mi/plaits/dsp/fm/operator.h ****         previous_1 = previous_0;
 1148              		.loc 1 111 7 view .LVU339
 1149              	.LBE214:
 117:mi/plaits/dsp/fm/operator.h ****     } else {
 1150              		.loc 1 117 14 view .LVU340
 1151 0170 F8EC016A 		vldmia.32	r8!, {s13}
 1152              	.LVL99:
 117:mi/plaits/dsp/fm/operator.h ****     } else {
 1153              		.loc 1 117 14 view .LVU341
 1154              	.LBE213:
 100:mi/plaits/dsp/fm/operator.h ****     float pm = 0.0f;
 1155              		.loc 1 100 3 view .LVU342
 1156 0174 013F     		subs	r7, r7, #1
 1157              	.LVL100:
 100:mi/plaits/dsp/fm/operator.h ****     float pm = 0.0f;
 1158              		.loc 1 100 3 view .LVU343
 1159 0176 B0EE457A 		vmov.f32	s14, s10
 1160              	.LBB230:
 117:mi/plaits/dsp/fm/operator.h ****     } else {
 1161              		.loc 1 117 14 view .LVU344
 1162 017a 76EEA76A 		vadd.f32	s13, s13, s15
 1163              	.LBE230:
 100:mi/plaits/dsp/fm/operator.h ****     float pm = 0.0f;
 1164              		.loc 1 100 3 view .LVU345
 1165 017e 7B1C     		adds	r3, r7, #1
 1166              	.LBB231:
 117:mi/plaits/dsp/fm/operator.h ****     } else {
 1167              		.loc 1 117 14 view .LVU346
 1168 0180 48ED016A 		vstr.32	s13, [r8, #-4]
 1169              	.LVL101:
 117:mi/plaits/dsp/fm/operator.h ****     } else {
 1170              		.loc 1 117 14 view .LVU347
 1171              	.LBE231:
 100:mi/plaits/dsp/fm/operator.h ****     float pm = 0.0f;
 1172              		.loc 1 100 3 is_stmt 1 view .LVU348
 100:mi/plaits/dsp/fm/operator.h ****     float pm = 0.0f;
 1173              		.loc 1 100 3 is_stmt 0 view .LVU349
 1174 0184 06D0     		beq	.L47
 1175              	.LBB232:
 1176              	.LBB229:
 109:mi/plaits/dsp/fm/operator.h ****       amplitude[i] += amplitude_increment[i];
 1177              		.loc 1 109 10 view .LVU350
 1178 0186 B0EE675A 		vmov.f32	s10, s15
 1179              	.LVL102:
 109:mi/plaits/dsp/fm/operator.h ****       amplitude[i] += amplitude_increment[i];
 1180              		.loc 1 109 10 view .LVU351
 1181 018a ACE7     		b	.L45
ARM GAS  /var/folders/9k/zk1mgrrd7wg4__6zvxvr9w8m0000gn/T//ccWZw7sc.s 			page 34


 1182              	.LVL103:
 1183              	.L56:
 109:mi/plaits/dsp/fm/operator.h ****       amplitude[i] += amplitude_increment[i];
 1184              		.loc 1 109 10 view .LVU352
 1185              	.LBE229:
 1186              	.LBE232:
  81:mi/plaits/dsp/fm/operator.h ****     previous_1 = fb_state[1];
 1187              		.loc 1 81 16 view .LVU353
 1188 018c F0EE457A 		vmov.f32	s15, s10
  82:mi/plaits/dsp/fm/operator.h ****   }
 1189              		.loc 1 82 16 view .LVU354
 1190 0190 B0EE475A 		vmov.f32	s10, s14
 1191              	.LVL104:
 1192              	.L47:
 1193              	.LBB233:
 123:mi/plaits/dsp/fm/operator.h ****     ops[i].phase = phase[i];
 1194              		.loc 1 123 21 is_stmt 1 view .LVU355
 125:mi/plaits/dsp/fm/operator.h ****   }
 1195              		.loc 1 125 22 is_stmt 0 view .LVU356
 1196 0194 049A     		ldr	r2, [sp, #16]	@ float
 124:mi/plaits/dsp/fm/operator.h ****     ops[i].amplitude = amplitude[i];
 1197              		.loc 1 124 18 view .LVU357
 1198 0196 029C     		ldr	r4, [sp, #8]
 125:mi/plaits/dsp/fm/operator.h ****   }
 1199              		.loc 1 125 22 view .LVU358
 1200 0198 4260     		str	r2, [r0, #4]	@ float
 123:mi/plaits/dsp/fm/operator.h ****     ops[i].phase = phase[i];
 1201              		.loc 1 123 3 is_stmt 1 view .LVU359
 1202              	.LVL105:
 123:mi/plaits/dsp/fm/operator.h ****     ops[i].phase = phase[i];
 1203              		.loc 1 123 21 view .LVU360
 124:mi/plaits/dsp/fm/operator.h ****     ops[i].amplitude = amplitude[i];
 1204              		.loc 1 124 18 is_stmt 0 view .LVU361
 1205 019a 0399     		ldr	r1, [sp, #12]
 125:mi/plaits/dsp/fm/operator.h ****   }
 1206              		.loc 1 125 22 view .LVU362
 1207 019c 059A     		ldr	r2, [sp, #20]	@ float
 124:mi/plaits/dsp/fm/operator.h ****     ops[i].amplitude = amplitude[i];
 1208              		.loc 1 124 18 view .LVU363
 1209 019e 0460     		str	r4, [r0]
 1210 01a0 8160     		str	r1, [r0, #8]
 125:mi/plaits/dsp/fm/operator.h ****   }
 1211              		.loc 1 125 22 view .LVU364
 1212 01a2 C260     		str	r2, [r0, #12]	@ float
 123:mi/plaits/dsp/fm/operator.h ****     ops[i].phase = phase[i];
 1213              		.loc 1 123 3 is_stmt 1 view .LVU365
 1214              	.LVL106:
 123:mi/plaits/dsp/fm/operator.h ****     ops[i].phase = phase[i];
 1215              		.loc 1 123 21 view .LVU366
 1216              	.LBE233:
 129:mi/plaits/dsp/fm/operator.h ****     fb_state[1] = previous_1;
 1217              		.loc 1 129 17 is_stmt 0 view .LVU367
 1218 01a4 CAED007A 		vstr.32	s15, [r10]
 130:mi/plaits/dsp/fm/operator.h ****   }
 1219              		.loc 1 130 17 view .LVU368
 1220 01a8 8AED015A 		vstr.32	s10, [r10, #4]
 1221              		.loc 1 132 1 view .LVU369
ARM GAS  /var/folders/9k/zk1mgrrd7wg4__6zvxvr9w8m0000gn/T//ccWZw7sc.s 			page 35


 1222 01ac 08B0     		add	sp, sp, #32
 1223              		.cfi_remember_state
 1224              		.cfi_def_cfa_offset 32
 1225              		@ sp needed
 1226 01ae BDE8F087 		pop	{r4, r5, r6, r7, r8, r9, r10, pc}
 1227              	.LVL107:
 1228              	.L50:
 1229              		.cfi_restore_state
  98:mi/plaits/dsp/fm/operator.h **** 
 1230              		.loc 1 98 36 view .LVU370
 1231 01b2 DFED094A 		vldr.32	s9, .L59+20
 1232 01b6 92E7     		b	.L44
 1233              	.LVL108:
 1234              	.L48:
 1235              	.LBB234:
 1236              	.LBB208:
 1237              	.LBB184:
 1238              		.loc 2 235 7 view .LVU371
 1239 01b8 4FF00044 		mov	r4, #-2147483648
 1240 01bc 46E7     		b	.L38
 1241              	.LVL109:
 1242              	.L49:
 1243              		.loc 2 235 7 view .LVU372
 1244 01be 4FF00041 		mov	r1, #-2147483648
 1245 01c2 6CE7     		b	.L41
 1246              	.L60:
 1247              		.align	2
 1248              	.L59:
 1249 01c4 0000804F 		.word	1333788672
 1250 01c8 00000000 		.word	_ZN6plaits8lut_sineE
 1251 01cc 00000042 		.word	1107296256
 1252 01d0 0000804C 		.word	1283457024
 1253 01d4 0000802F 		.word	796917760
 1254 01d8 00000000 		.word	0
 1255              	.LBE184:
 1256              	.LBE208:
 1257              	.LBE234:
 1258              		.cfi_endproc
 1259              	.LFE1481:
 1261              		.section	.text._ZN6plaits2fm15RenderOperatorsILi1ELin1ELb0EEEvPNS0_8OperatorEPKfS5_PfiS5_S6_j,"axG
 1262              		.align	1
 1263              		.p2align 2,,3
 1264              		.weak	_ZN6plaits2fm15RenderOperatorsILi1ELin1ELb0EEEvPNS0_8OperatorEPKfS5_PfiS5_S6_j
 1265              		.syntax unified
 1266              		.thumb
 1267              		.thumb_func
 1269              	_ZN6plaits2fm15RenderOperatorsILi1ELin1ELb0EEEvPNS0_8OperatorEPKfS5_PfiS5_S6_j:
 1270              	.LVL110:
 1271              	.LFB1476:
  69:mi/plaits/dsp/fm/operator.h ****     Operator* ops,
 1272              		.loc 1 69 6 is_stmt 1 view -0
 1273              		.cfi_startproc
 1274              		@ args = 16, pretend = 0, frame = 0
 1275              		@ frame_needed = 0, uses_anonymous_args = 0
 1276              	.LBB245:
 1277              	.LBB246:
 1278              	.LBB247:
ARM GAS  /var/folders/9k/zk1mgrrd7wg4__6zvxvr9w8m0000gn/T//ccWZw7sc.s 			page 36


 1279              		.loc 2 235 7 is_stmt 0 view .LVU374
 1280 0000 B6EE007A 		vmov.f32	s14, #5.0e-1
 1281              		.loc 2 235 15 view .LVU375
 1282 0004 D1ED007A 		vldr.32	s15, [r1]
 1283              	.LBE247:
 1284              	.LBE246:
 1285              	.LBE245:
  69:mi/plaits/dsp/fm/operator.h ****     Operator* ops,
 1286              		.loc 1 69 6 view .LVU376
 1287 0008 70B5     		push	{r4, r5, r6, lr}
 1288              		.cfi_def_cfa_offset 16
 1289              		.cfi_offset 4, -16
 1290              		.cfi_offset 5, -12
 1291              		.cfi_offset 6, -8
 1292              		.cfi_offset 14, -4
 1293              	.LBB258:
 1294              	.LBB251:
 1295              	.LBB248:
 1296              		.loc 2 235 7 view .LVU377
 1297 000a F4EEC77A 		vcmpe.f32	s15, s14
 1298              	.LBE248:
 1299              	.LBE251:
 1300              	.LBE258:
  69:mi/plaits/dsp/fm/operator.h ****     Operator* ops,
 1301              		.loc 1 69 6 view .LVU378
 1302 000e 0799     		ldr	r1, [sp, #28]
 1303              	.LVL111:
 1304              	.LBB259:
  91:mi/plaits/dsp/fm/operator.h ****     frequency[i] = static_cast<uint32_t>(std::min(f[i], 0.5f) * 4294967296.0f);
 1305              		.loc 1 91 21 is_stmt 1 view .LVU379
 1306              	.LBB252:
 1307              	.LBI246:
 230:/Library/DaisyToolchain/0.2.0/arm/arm-none-eabi/include/c++/10.3.1/bits/stl_algobase.h ****     {
 1308              		.loc 2 230 5 view .LVU380
 1309              	.LBB249:
 1310              		.loc 2 235 7 is_stmt 0 view .LVU381
 1311 0010 F1EE10FA 		vmrs	APSR_nzcv, FPSCR
 1312 0014 19DC     		bgt	.L67
 1313              	.LBE249:
 1314              	.LBE252:
  92:mi/plaits/dsp/fm/operator.h ****     phase[i] = ops[i].phase;
 1315              		.loc 1 92 63 view .LVU382
 1316 0016 9FED2B7A 		vldr.32	s14, .L75
 1317 001a 67EE877A 		vmul.f32	s15, s15, s14
  92:mi/plaits/dsp/fm/operator.h ****     phase[i] = ops[i].phase;
 1318              		.loc 1 92 20 view .LVU383
 1319 001e FCEEE77A 		vcvt.u32.f32	s15, s15
 1320 0022 17EE903A 		vmov	r3, s15	@ int
 1321              	.LVL112:
 1322              	.L62:
 1323              	.LBB253:
 1324              	.LBB254:
 1325              		.loc 2 235 7 view .LVU384
 1326 0026 F1EE006A 		vmov.f32	s13, #4.0e+0
 1327              		.loc 2 235 15 view .LVU385
 1328 002a D2ED007A 		vldr.32	s15, [r2]
 1329              	.LBE254:
ARM GAS  /var/folders/9k/zk1mgrrd7wg4__6zvxvr9w8m0000gn/T//ccWZw7sc.s 			page 37


 1330              	.LBE253:
  94:mi/plaits/dsp/fm/operator.h ****     amplitude_increment[i] = (std::min(a[i], 4.0f) - amplitude[i]) * scale;
 1331              		.loc 1 94 27 view .LVU386
 1332 002e 90ED017A 		vldr.32	s14, [r0, #4]
  93:mi/plaits/dsp/fm/operator.h ****     amplitude[i] = ops[i].amplitude;
 1333              		.loc 1 93 23 view .LVU387
 1334 0032 0268     		ldr	r2, [r0]
 1335              	.LVL113:
 1336              	.LBB256:
 1337              	.LBI253:
 230:/Library/DaisyToolchain/0.2.0/arm/arm-none-eabi/include/c++/10.3.1/bits/stl_algobase.h ****     {
 1338              		.loc 2 230 5 is_stmt 1 view .LVU388
 1339              	.LBB255:
 1340              		.loc 2 235 7 is_stmt 0 view .LVU389
 1341 0034 F4EE667A 		vcmp.f32	s15, s13
 1342 0038 F1EE10FA 		vmrs	APSR_nzcv, FPSCR
 1343 003c 76FEA77A 		vselgt.f32	s15, s13, s15
 1344              	.LVL114:
 1345              		.loc 2 235 7 view .LVU390
 1346              	.LBE255:
 1347              	.LBE256:
  91:mi/plaits/dsp/fm/operator.h ****     frequency[i] = static_cast<uint32_t>(std::min(f[i], 0.5f) * 4294967296.0f);
 1348              		.loc 1 91 3 is_stmt 1 view .LVU391
  91:mi/plaits/dsp/fm/operator.h ****     frequency[i] = static_cast<uint32_t>(std::min(f[i], 0.5f) * 4294967296.0f);
 1349              		.loc 1 91 21 view .LVU392
  91:mi/plaits/dsp/fm/operator.h ****     frequency[i] = static_cast<uint32_t>(std::min(f[i], 0.5f) * 4294967296.0f);
 1350              		.loc 1 91 21 is_stmt 0 view .LVU393
 1351              	.LBE259:
 100:mi/plaits/dsp/fm/operator.h ****     float pm = 0.0f;
 1352              		.loc 1 100 3 is_stmt 1 view .LVU394
 100:mi/plaits/dsp/fm/operator.h ****     float pm = 0.0f;
 1353              		.loc 1 100 3 is_stmt 0 view .LVU395
 1354 0040 31B9     		cbnz	r1, .L74
 1355              	.LVL115:
 1356              	.LBB260:
 123:mi/plaits/dsp/fm/operator.h ****     ops[i].phase = phase[i];
 1357              		.loc 1 123 21 is_stmt 1 view .LVU396
 124:mi/plaits/dsp/fm/operator.h ****     ops[i].amplitude = amplitude[i];
 1358              		.loc 1 124 18 is_stmt 0 view .LVU397
 1359 0042 0260     		str	r2, [r0]
 125:mi/plaits/dsp/fm/operator.h ****   }
 1360              		.loc 1 125 22 view .LVU398
 1361 0044 80ED017A 		vstr.32	s14, [r0, #4]
 123:mi/plaits/dsp/fm/operator.h ****     ops[i].phase = phase[i];
 1362              		.loc 1 123 3 is_stmt 1 view .LVU399
 1363              	.LVL116:
 123:mi/plaits/dsp/fm/operator.h ****     ops[i].phase = phase[i];
 1364              		.loc 1 123 21 view .LVU400
 123:mi/plaits/dsp/fm/operator.h ****     ops[i].phase = phase[i];
 1365              		.loc 1 123 21 is_stmt 0 view .LVU401
 1366              	.LBE260:
 1367              		.loc 1 132 1 view .LVU402
 1368 0048 70BD     		pop	{r4, r5, r6, pc}
 1369              	.LVL117:
 1370              	.L67:
 1371              	.LBB261:
 1372              	.LBB257:
ARM GAS  /var/folders/9k/zk1mgrrd7wg4__6zvxvr9w8m0000gn/T//ccWZw7sc.s 			page 38


 1373              	.LBB250:
 1374              		.loc 1 132 1 view .LVU403
 1375 004a 4FF00043 		mov	r3, #-2147483648
 1376              	.LVL118:
 1377              		.loc 1 132 1 view .LVU404
 1378 004e EAE7     		b	.L62
 1379              	.LVL119:
 1380              	.L74:
 1381              		.loc 1 132 1 view .LVU405
 1382              	.LBE250:
 1383              	.LBE257:
 1384              	.LBE261:
  90:mi/plaits/dsp/fm/operator.h ****   for (int i = 0; i < n; ++i) {
 1385              		.loc 1 90 30 view .LVU406
 1386 0050 06EE901A 		vmov	s13, r1	@ int
  90:mi/plaits/dsp/fm/operator.h ****   for (int i = 0; i < n; ++i) {
 1387              		.loc 1 90 15 view .LVU407
 1388 0054 F7EE005A 		vmov.f32	s11, #1.0e+0
 1389              	.LBB262:
  95:mi/plaits/dsp/fm/operator.h ****   }
 1390              		.loc 1 95 52 view .LVU408
 1391 0058 77EEC77A 		vsub.f32	s15, s15, s14
 1392              	.LVL120:
  95:mi/plaits/dsp/fm/operator.h ****   }
 1393              		.loc 1 95 52 view .LVU409
 1394              	.LBE262:
 100:mi/plaits/dsp/fm/operator.h ****     float pm = 0.0f;
 1395              		.loc 1 100 3 view .LVU410
 1396 005c 0139     		subs	r1, r1, #1
 1397              	.LVL121:
  90:mi/plaits/dsp/fm/operator.h ****   for (int i = 0; i < n; ++i) {
 1398              		.loc 1 90 30 view .LVU411
 1399 005e B8EE666A 		vcvt.f32.u32	s12, s13
 1400 0062 1A44     		add	r2, r2, r3
 1401              	.LVL122:
 100:mi/plaits/dsp/fm/operator.h ****     float pm = 0.0f;
 1402              		.loc 1 100 3 view .LVU412
 1403 0064 0C46     		mov	r4, r1
 1404 0066 184D     		ldr	r5, .L75+4
 1405 0068 9646     		mov	lr, r2
  90:mi/plaits/dsp/fm/operator.h ****   for (int i = 0; i < n; ++i) {
 1406              		.loc 1 90 15 view .LVU413
 1407 006a C5EE866A 		vdiv.f32	s13, s11, s12
 1408              	.LBB263:
  95:mi/plaits/dsp/fm/operator.h ****   }
 1409              		.loc 1 95 68 view .LVU414
 1410 006e 66EEA77A 		vmul.f32	s15, s13, s15
 1411              	.LVL123:
 1412              	.L66:
  95:mi/plaits/dsp/fm/operator.h ****   }
 1413              		.loc 1 95 68 view .LVU415
 1414              	.LBE263:
 1415              	.LBB264:
 1416              	.LBB265:
 107:mi/plaits/dsp/fm/operator.h ****       phase[i] += frequency[i];
 1417              		.loc 1 107 23 is_stmt 1 view .LVU416
 1418              	.LBB266:
ARM GAS  /var/folders/9k/zk1mgrrd7wg4__6zvxvr9w8m0000gn/T//ccWZw7sc.s 			page 39


 1419              	.LBI266:
  58:mi/plaits/dsp/oscillator/sine_oscillator.h ****   const float max_uint32 = 4294967296.0f;
 1420              		.loc 3 58 14 view .LVU417
 1421              	.LBB267:
  59:mi/plaits/dsp/oscillator/sine_oscillator.h ****   const int max_index = 32;
 1422              		.loc 3 59 3 view .LVU418
  60:mi/plaits/dsp/oscillator/sine_oscillator.h ****   const float offset = float(max_index);
 1423              		.loc 3 60 3 view .LVU419
  61:mi/plaits/dsp/oscillator/sine_oscillator.h ****   const float scale = max_uint32 / float(max_index * 2);
 1424              		.loc 3 61 3 view .LVU420
  62:mi/plaits/dsp/oscillator/sine_oscillator.h **** 
 1425              		.loc 3 62 3 view .LVU421
  64:mi/plaits/dsp/oscillator/sine_oscillator.h ****   
 1426              		.loc 3 64 3 view .LVU422
  66:mi/plaits/dsp/oscillator/sine_oscillator.h ****   float fractional = static_cast<float>(phase << kSineLUTBits) / float(max_uint32);
 1427              		.loc 3 66 3 view .LVU423
  67:mi/plaits/dsp/oscillator/sine_oscillator.h ****   float a = lut_sine[integral];
 1428              		.loc 3 67 22 is_stmt 0 view .LVU424
 1429 0072 4FEA4E26 		lsl	r6, lr, #9
  67:mi/plaits/dsp/oscillator/sine_oscillator.h ****   float a = lut_sine[integral];
 1430              		.loc 3 67 9 view .LVU425
 1431 0076 DFED156A 		vldr.32	s13, .L75+8
  66:mi/plaits/dsp/oscillator/sine_oscillator.h ****   float fractional = static_cast<float>(phase << kSineLUTBits) / float(max_uint32);
 1432              		.loc 3 66 12 view .LVU426
 1433 007a 4FEADE5C 		lsr	ip, lr, #23
 1434              	.LVL124:
  67:mi/plaits/dsp/oscillator/sine_oscillator.h ****   float a = lut_sine[integral];
 1435              		.loc 3 67 3 is_stmt 1 view .LVU427
  68:mi/plaits/dsp/oscillator/sine_oscillator.h ****   float b = lut_sine[integral + 1];
 1436              		.loc 3 68 3 view .LVU428
 1437              	.LBE267:
 1438              	.LBE266:
 1439              	.LBE265:
 1440              	.LBE264:
 100:mi/plaits/dsp/fm/operator.h ****     float pm = 0.0f;
 1441              		.loc 1 100 3 is_stmt 0 view .LVU429
 1442 007e 013C     		subs	r4, r4, #1
 1443              	.LVL125:
 1444              	.LBB277:
 1445              	.LBB274:
 1446              	.LBB271:
 1447              	.LBB268:
  67:mi/plaits/dsp/oscillator/sine_oscillator.h ****   float a = lut_sine[integral];
 1448              		.loc 3 67 22 view .LVU430
 1449 0080 06EE106A 		vmov	s12, r6	@ int
 1450              	.LBE268:
 1451              	.LBE271:
 1452              	.LBE274:
 1453              	.LBE277:
 100:mi/plaits/dsp/fm/operator.h ****     float pm = 0.0f;
 1454              		.loc 1 100 3 view .LVU431
 1455 0084 9E44     		add	lr, lr, r3
 1456              	.LVL126:
 1457              	.LBB278:
 1458              	.LBB275:
 1459              	.LBB272:
 1460              	.LBB269:
ARM GAS  /var/folders/9k/zk1mgrrd7wg4__6zvxvr9w8m0000gn/T//ccWZw7sc.s 			page 40


  68:mi/plaits/dsp/oscillator/sine_oscillator.h ****   float b = lut_sine[integral + 1];
 1461              		.loc 3 68 9 view .LVU432
 1462 0086 05EB8C06 		add	r6, r5, ip, lsl #2
  67:mi/plaits/dsp/oscillator/sine_oscillator.h ****   float a = lut_sine[integral];
 1463              		.loc 3 67 22 view .LVU433
 1464 008a B8EE466A 		vcvt.f32.u32	s12, s12
 1465              		.loc 3 70 17 view .LVU434
 1466 008e D6ED015A 		vldr.32	s11, [r6, #4]
  67:mi/plaits/dsp/oscillator/sine_oscillator.h ****   float a = lut_sine[integral];
 1467              		.loc 3 67 9 view .LVU435
 1468 0092 26EE266A 		vmul.f32	s12, s12, s13
 1469              	.LVL127:
  68:mi/plaits/dsp/oscillator/sine_oscillator.h ****   float b = lut_sine[integral + 1];
 1470              		.loc 3 68 9 view .LVU436
 1471 0096 D6ED006A 		vldr.32	s13, [r6]
 1472              	.LVL128:
  69:mi/plaits/dsp/oscillator/sine_oscillator.h ****   return a + (b - a) * fractional;
 1473              		.loc 3 69 3 is_stmt 1 view .LVU437
 1474              		.loc 3 70 3 view .LVU438
 1475              	.LBE269:
 1476              	.LBE272:
 1477              	.LBE275:
 119:mi/plaits/dsp/fm/operator.h ****     }
 1478              		.loc 1 119 14 is_stmt 0 view .LVU439
 1479 009a 069E     		ldr	r6, [sp, #24]
 1480              	.LBB276:
 1481              	.LBB273:
 1482              	.LBB270:
 1483              		.loc 3 70 17 view .LVU440
 1484 009c 75EEE65A 		vsub.f32	s11, s11, s13
 1485              		.loc 3 70 24 view .LVU441
 1486 00a0 E6EE256A 		vfma.f32	s13, s12, s11
 1487              	.LVL129:
 1488              		.loc 3 70 24 view .LVU442
 1489              	.LBE270:
 1490              	.LBE273:
 109:mi/plaits/dsp/fm/operator.h ****       amplitude[i] += amplitude_increment[i];
 1491              		.loc 1 109 10 view .LVU443
 1492 00a4 67EE266A 		vmul.f32	s13, s14, s13
 1493              	.LVL130:
 110:mi/plaits/dsp/fm/operator.h ****       if (i == modulation_source) {
 1494              		.loc 1 110 20 view .LVU444
 1495 00a8 37EE277A 		vadd.f32	s14, s14, s15
 1496              	.LVL131:
 107:mi/plaits/dsp/fm/operator.h ****       phase[i] += frequency[i];
 1497              		.loc 1 107 5 is_stmt 1 view .LVU445
 107:mi/plaits/dsp/fm/operator.h ****       phase[i] += frequency[i];
 1498              		.loc 1 107 23 view .LVU446
 107:mi/plaits/dsp/fm/operator.h ****       phase[i] += frequency[i];
 1499              		.loc 1 107 23 is_stmt 0 view .LVU447
 1500              	.LBE276:
 119:mi/plaits/dsp/fm/operator.h ****     }
 1501              		.loc 1 119 14 view .LVU448
 1502 00ac E6EC016A 		vstmia.32	r6!, {s13}
 1503              	.LVL132:
 119:mi/plaits/dsp/fm/operator.h ****     }
 1504              		.loc 1 119 14 view .LVU449
ARM GAS  /var/folders/9k/zk1mgrrd7wg4__6zvxvr9w8m0000gn/T//ccWZw7sc.s 			page 41


 1505 00b0 0696     		str	r6, [sp, #24]
 1506              	.LVL133:
 119:mi/plaits/dsp/fm/operator.h ****     }
 1507              		.loc 1 119 14 view .LVU450
 1508              	.LBE278:
 100:mi/plaits/dsp/fm/operator.h ****     float pm = 0.0f;
 1509              		.loc 1 100 3 is_stmt 1 view .LVU451
 100:mi/plaits/dsp/fm/operator.h ****     float pm = 0.0f;
 1510              		.loc 1 100 3 is_stmt 0 view .LVU452
 1511 00b2 661C     		adds	r6, r4, #1
 1512              	.LVL134:
 100:mi/plaits/dsp/fm/operator.h ****     float pm = 0.0f;
 1513              		.loc 1 100 3 view .LVU453
 1514 00b4 DDD1     		bne	.L66
 1515 00b6 01FB0322 		mla	r2, r1, r3, r2
 1516              	.LVL135:
 1517              	.LBB279:
 123:mi/plaits/dsp/fm/operator.h ****     ops[i].phase = phase[i];
 1518              		.loc 1 123 21 is_stmt 1 view .LVU454
 125:mi/plaits/dsp/fm/operator.h ****   }
 1519              		.loc 1 125 22 is_stmt 0 view .LVU455
 1520 00ba 80ED017A 		vstr.32	s14, [r0, #4]
 123:mi/plaits/dsp/fm/operator.h ****     ops[i].phase = phase[i];
 1521              		.loc 1 123 3 is_stmt 1 view .LVU456
 1522              	.LVL136:
 123:mi/plaits/dsp/fm/operator.h ****     ops[i].phase = phase[i];
 1523              		.loc 1 123 21 view .LVU457
 124:mi/plaits/dsp/fm/operator.h ****     ops[i].amplitude = amplitude[i];
 1524              		.loc 1 124 18 is_stmt 0 view .LVU458
 1525 00be 0260     		str	r2, [r0]
 1526              	.LBE279:
 1527              		.loc 1 132 1 view .LVU459
 1528 00c0 70BD     		pop	{r4, r5, r6, pc}
 1529              	.LVL137:
 1530              	.L76:
 1531              		.loc 1 132 1 view .LVU460
 1532 00c2 00BF     		.align	2
 1533              	.L75:
 1534 00c4 0000804F 		.word	1333788672
 1535 00c8 00000000 		.word	_ZN6plaits8lut_sineE
 1536 00cc 0000802F 		.word	796917760
 1537              		.cfi_endproc
 1538              	.LFE1476:
 1540              		.section	.text._ZN6plaits2fm15RenderOperatorsILi1ELin1ELb1EEEvPNS0_8OperatorEPKfS5_PfiS5_S6_j,"axG
 1541              		.align	1
 1542              		.p2align 2,,3
 1543              		.weak	_ZN6plaits2fm15RenderOperatorsILi1ELin1ELb1EEEvPNS0_8OperatorEPKfS5_PfiS5_S6_j
 1544              		.syntax unified
 1545              		.thumb
 1546              		.thumb_func
 1548              	_ZN6plaits2fm15RenderOperatorsILi1ELin1ELb1EEEvPNS0_8OperatorEPKfS5_PfiS5_S6_j:
 1549              	.LVL138:
 1550              	.LFB1477:
  69:mi/plaits/dsp/fm/operator.h ****     Operator* ops,
 1551              		.loc 1 69 6 is_stmt 1 view -0
 1552              		.cfi_startproc
 1553              		@ args = 16, pretend = 0, frame = 0
ARM GAS  /var/folders/9k/zk1mgrrd7wg4__6zvxvr9w8m0000gn/T//ccWZw7sc.s 			page 42


 1554              		@ frame_needed = 0, uses_anonymous_args = 0
 1555              	.LBB290:
 1556              	.LBB291:
 1557              	.LBB292:
 1558              		.loc 2 235 7 is_stmt 0 view .LVU462
 1559 0000 B6EE007A 		vmov.f32	s14, #5.0e-1
 1560              		.loc 2 235 15 view .LVU463
 1561 0004 D1ED007A 		vldr.32	s15, [r1]
 1562              	.LBE292:
 1563              	.LBE291:
 1564              	.LBE290:
  69:mi/plaits/dsp/fm/operator.h ****     Operator* ops,
 1565              		.loc 1 69 6 view .LVU464
 1566 0008 F0B5     		push	{r4, r5, r6, r7, lr}
 1567              		.cfi_def_cfa_offset 20
 1568              		.cfi_offset 4, -20
 1569              		.cfi_offset 5, -16
 1570              		.cfi_offset 6, -12
 1571              		.cfi_offset 7, -8
 1572              		.cfi_offset 14, -4
 1573              	.LBB303:
 1574              	.LBB296:
 1575              	.LBB293:
 1576              		.loc 2 235 7 view .LVU465
 1577 000a F4EEC77A 		vcmpe.f32	s15, s14
 1578              	.LBE293:
 1579              	.LBE296:
 1580              	.LBE303:
  69:mi/plaits/dsp/fm/operator.h ****     Operator* ops,
 1581              		.loc 1 69 6 view .LVU466
 1582 000e DDE90741 		ldrd	r4, r1, [sp, #28]
 1583              	.LVL139:
 1584              	.LBB304:
  91:mi/plaits/dsp/fm/operator.h ****     frequency[i] = static_cast<uint32_t>(std::min(f[i], 0.5f) * 4294967296.0f);
 1585              		.loc 1 91 21 is_stmt 1 view .LVU467
 1586              	.LBB297:
 1587              	.LBI291:
 230:/Library/DaisyToolchain/0.2.0/arm/arm-none-eabi/include/c++/10.3.1/bits/stl_algobase.h ****     {
 1588              		.loc 2 230 5 view .LVU468
 1589              	.LBB294:
 1590              		.loc 2 235 7 is_stmt 0 view .LVU469
 1591 0012 F1EE10FA 		vmrs	APSR_nzcv, FPSCR
 1592 0016 19DC     		bgt	.L83
 1593              	.LBE294:
 1594              	.LBE297:
  92:mi/plaits/dsp/fm/operator.h ****     phase[i] = ops[i].phase;
 1595              		.loc 1 92 63 view .LVU470
 1596 0018 9FED2E7A 		vldr.32	s14, .L91
 1597 001c 67EE877A 		vmul.f32	s15, s15, s14
  92:mi/plaits/dsp/fm/operator.h ****     phase[i] = ops[i].phase;
 1598              		.loc 1 92 20 view .LVU471
 1599 0020 FCEEE77A 		vcvt.u32.f32	s15, s15
 1600 0024 17EE903A 		vmov	r3, s15	@ int
 1601              	.LVL140:
 1602              	.L78:
 1603              	.LBB298:
 1604              	.LBB299:
ARM GAS  /var/folders/9k/zk1mgrrd7wg4__6zvxvr9w8m0000gn/T//ccWZw7sc.s 			page 43


 1605              		.loc 2 235 7 view .LVU472
 1606 0028 F1EE006A 		vmov.f32	s13, #4.0e+0
 1607              		.loc 2 235 15 view .LVU473
 1608 002c D2ED007A 		vldr.32	s15, [r2]
 1609              	.LBE299:
 1610              	.LBE298:
  94:mi/plaits/dsp/fm/operator.h ****     amplitude_increment[i] = (std::min(a[i], 4.0f) - amplitude[i]) * scale;
 1611              		.loc 1 94 27 view .LVU474
 1612 0030 90ED017A 		vldr.32	s14, [r0, #4]
  93:mi/plaits/dsp/fm/operator.h ****     amplitude[i] = ops[i].amplitude;
 1613              		.loc 1 93 23 view .LVU475
 1614 0034 0268     		ldr	r2, [r0]
 1615              	.LVL141:
 1616              	.LBB301:
 1617              	.LBI298:
 230:/Library/DaisyToolchain/0.2.0/arm/arm-none-eabi/include/c++/10.3.1/bits/stl_algobase.h ****     {
 1618              		.loc 2 230 5 is_stmt 1 view .LVU476
 1619              	.LBB300:
 1620              		.loc 2 235 7 is_stmt 0 view .LVU477
 1621 0036 F4EE667A 		vcmp.f32	s15, s13
 1622 003a F1EE10FA 		vmrs	APSR_nzcv, FPSCR
 1623 003e 76FEA77A 		vselgt.f32	s15, s13, s15
 1624              	.LVL142:
 1625              		.loc 2 235 7 view .LVU478
 1626              	.LBE300:
 1627              	.LBE301:
  91:mi/plaits/dsp/fm/operator.h ****     frequency[i] = static_cast<uint32_t>(std::min(f[i], 0.5f) * 4294967296.0f);
 1628              		.loc 1 91 3 is_stmt 1 view .LVU479
  91:mi/plaits/dsp/fm/operator.h ****     frequency[i] = static_cast<uint32_t>(std::min(f[i], 0.5f) * 4294967296.0f);
 1629              		.loc 1 91 21 view .LVU480
  91:mi/plaits/dsp/fm/operator.h ****     frequency[i] = static_cast<uint32_t>(std::min(f[i], 0.5f) * 4294967296.0f);
 1630              		.loc 1 91 21 is_stmt 0 view .LVU481
 1631              	.LBE304:
 100:mi/plaits/dsp/fm/operator.h ****     float pm = 0.0f;
 1632              		.loc 1 100 3 is_stmt 1 view .LVU482
 100:mi/plaits/dsp/fm/operator.h ****     float pm = 0.0f;
 1633              		.loc 1 100 3 is_stmt 0 view .LVU483
 1634 0042 31B9     		cbnz	r1, .L90
 1635              	.LVL143:
 1636              	.LBB305:
 123:mi/plaits/dsp/fm/operator.h ****     ops[i].phase = phase[i];
 1637              		.loc 1 123 21 is_stmt 1 view .LVU484
 124:mi/plaits/dsp/fm/operator.h ****     ops[i].amplitude = amplitude[i];
 1638              		.loc 1 124 18 is_stmt 0 view .LVU485
 1639 0044 0260     		str	r2, [r0]
 125:mi/plaits/dsp/fm/operator.h ****   }
 1640              		.loc 1 125 22 view .LVU486
 1641 0046 80ED017A 		vstr.32	s14, [r0, #4]
 123:mi/plaits/dsp/fm/operator.h ****     ops[i].phase = phase[i];
 1642              		.loc 1 123 3 is_stmt 1 view .LVU487
 1643              	.LVL144:
 123:mi/plaits/dsp/fm/operator.h ****     ops[i].phase = phase[i];
 1644              		.loc 1 123 21 view .LVU488
 123:mi/plaits/dsp/fm/operator.h ****     ops[i].phase = phase[i];
 1645              		.loc 1 123 21 is_stmt 0 view .LVU489
 1646              	.LBE305:
 1647              		.loc 1 132 1 view .LVU490
ARM GAS  /var/folders/9k/zk1mgrrd7wg4__6zvxvr9w8m0000gn/T//ccWZw7sc.s 			page 44


 1648 004a F0BD     		pop	{r4, r5, r6, r7, pc}
 1649              	.LVL145:
 1650              	.L83:
 1651              	.LBB306:
 1652              	.LBB302:
 1653              	.LBB295:
 1654              		.loc 1 132 1 view .LVU491
 1655 004c 4FF00043 		mov	r3, #-2147483648
 1656              	.LVL146:
 1657              		.loc 1 132 1 view .LVU492
 1658 0050 EAE7     		b	.L78
 1659              	.LVL147:
 1660              	.L90:
 1661              		.loc 1 132 1 view .LVU493
 1662              	.LBE295:
 1663              	.LBE302:
 1664              	.LBE306:
  90:mi/plaits/dsp/fm/operator.h ****   for (int i = 0; i < n; ++i) {
 1665              		.loc 1 90 30 view .LVU494
 1666 0052 06EE901A 		vmov	s13, r1	@ int
  90:mi/plaits/dsp/fm/operator.h ****   for (int i = 0; i < n; ++i) {
 1667              		.loc 1 90 15 view .LVU495
 1668 0056 F7EE005A 		vmov.f32	s11, #1.0e+0
 1669              	.LBB307:
  95:mi/plaits/dsp/fm/operator.h ****   }
 1670              		.loc 1 95 52 view .LVU496
 1671 005a 77EEC77A 		vsub.f32	s15, s15, s14
 1672              	.LVL148:
  95:mi/plaits/dsp/fm/operator.h ****   }
 1673              		.loc 1 95 52 view .LVU497
 1674              	.LBE307:
 100:mi/plaits/dsp/fm/operator.h ****     float pm = 0.0f;
 1675              		.loc 1 100 3 view .LVU498
 1676 005e 0139     		subs	r1, r1, #1
 1677              	.LVL149:
  90:mi/plaits/dsp/fm/operator.h ****   for (int i = 0; i < n; ++i) {
 1678              		.loc 1 90 30 view .LVU499
 1679 0060 B8EE666A 		vcvt.f32.u32	s12, s13
 1680 0064 1A44     		add	r2, r2, r3
 1681              	.LVL150:
 100:mi/plaits/dsp/fm/operator.h ****     float pm = 0.0f;
 1682              		.loc 1 100 3 view .LVU500
 1683 0066 0D46     		mov	r5, r1
 1684 0068 1B4E     		ldr	r6, .L91+4
 1685 006a 9646     		mov	lr, r2
  90:mi/plaits/dsp/fm/operator.h ****   for (int i = 0; i < n; ++i) {
 1686              		.loc 1 90 15 view .LVU501
 1687 006c C5EE866A 		vdiv.f32	s13, s11, s12
 1688              	.LBB308:
  95:mi/plaits/dsp/fm/operator.h ****   }
 1689              		.loc 1 95 68 view .LVU502
 1690 0070 66EEA77A 		vmul.f32	s15, s13, s15
 1691              	.LVL151:
 1692              	.L82:
  95:mi/plaits/dsp/fm/operator.h ****   }
 1693              		.loc 1 95 68 view .LVU503
 1694              	.LBE308:
ARM GAS  /var/folders/9k/zk1mgrrd7wg4__6zvxvr9w8m0000gn/T//ccWZw7sc.s 			page 45


 1695              	.LBB309:
 1696              	.LBB310:
 107:mi/plaits/dsp/fm/operator.h ****       phase[i] += frequency[i];
 1697              		.loc 1 107 23 is_stmt 1 view .LVU504
 1698              	.LBB311:
 1699              	.LBI311:
  58:mi/plaits/dsp/oscillator/sine_oscillator.h ****   const float max_uint32 = 4294967296.0f;
 1700              		.loc 3 58 14 view .LVU505
 1701              	.LBB312:
  59:mi/plaits/dsp/oscillator/sine_oscillator.h ****   const int max_index = 32;
 1702              		.loc 3 59 3 view .LVU506
  60:mi/plaits/dsp/oscillator/sine_oscillator.h ****   const float offset = float(max_index);
 1703              		.loc 3 60 3 view .LVU507
  61:mi/plaits/dsp/oscillator/sine_oscillator.h ****   const float scale = max_uint32 / float(max_index * 2);
 1704              		.loc 3 61 3 view .LVU508
  62:mi/plaits/dsp/oscillator/sine_oscillator.h **** 
 1705              		.loc 3 62 3 view .LVU509
  64:mi/plaits/dsp/oscillator/sine_oscillator.h ****   
 1706              		.loc 3 64 3 view .LVU510
  66:mi/plaits/dsp/oscillator/sine_oscillator.h ****   float fractional = static_cast<float>(phase << kSineLUTBits) / float(max_uint32);
 1707              		.loc 3 66 3 view .LVU511
  67:mi/plaits/dsp/oscillator/sine_oscillator.h ****   float a = lut_sine[integral];
 1708              		.loc 3 67 22 is_stmt 0 view .LVU512
 1709 0074 4FEA4E27 		lsl	r7, lr, #9
  67:mi/plaits/dsp/oscillator/sine_oscillator.h ****   float a = lut_sine[integral];
 1710              		.loc 3 67 9 view .LVU513
 1711 0078 9FED186A 		vldr.32	s12, .L91+8
  66:mi/plaits/dsp/oscillator/sine_oscillator.h ****   float fractional = static_cast<float>(phase << kSineLUTBits) / float(max_uint32);
 1712              		.loc 3 66 12 view .LVU514
 1713 007c 4FEADE5C 		lsr	ip, lr, #23
 1714              	.LVL152:
  67:mi/plaits/dsp/oscillator/sine_oscillator.h ****   float a = lut_sine[integral];
 1715              		.loc 3 67 3 is_stmt 1 view .LVU515
  68:mi/plaits/dsp/oscillator/sine_oscillator.h ****   float b = lut_sine[integral + 1];
 1716              		.loc 3 68 3 view .LVU516
 1717              	.LBE312:
 1718              	.LBE311:
 1719              	.LBE310:
 117:mi/plaits/dsp/fm/operator.h ****     } else {
 1720              		.loc 1 117 14 is_stmt 0 view .LVU517
 1721 0080 F4EC015A 		vldmia.32	r4!, {s11}
 1722              	.LVL153:
 1723              	.LBB323:
 1724              	.LBB318:
 1725              	.LBB313:
  67:mi/plaits/dsp/oscillator/sine_oscillator.h ****   float a = lut_sine[integral];
 1726              		.loc 3 67 22 view .LVU518
 1727 0084 06EE907A 		vmov	s13, r7	@ int
 1728              	.LBE313:
 1729              	.LBE318:
 1730              	.LBE323:
 1731              	.LBE309:
 100:mi/plaits/dsp/fm/operator.h ****     float pm = 0.0f;
 1732              		.loc 1 100 3 view .LVU519
 1733 0088 013D     		subs	r5, r5, #1
 1734              	.LVL154:
 1735              	.LBB329:
ARM GAS  /var/folders/9k/zk1mgrrd7wg4__6zvxvr9w8m0000gn/T//ccWZw7sc.s 			page 46


 1736              	.LBB324:
 1737              	.LBB319:
 1738              	.LBB314:
  68:mi/plaits/dsp/oscillator/sine_oscillator.h ****   float b = lut_sine[integral + 1];
 1739              		.loc 3 68 9 view .LVU520
 1740 008a 06EB8C07 		add	r7, r6, ip, lsl #2
 1741              	.LBE314:
 1742              	.LBE319:
 110:mi/plaits/dsp/fm/operator.h ****       if (i == modulation_source) {
 1743              		.loc 1 110 20 view .LVU521
 1744 008e 77EE874A 		vadd.f32	s9, s15, s14
 1745              	.LBB320:
 1746              	.LBB315:
  67:mi/plaits/dsp/oscillator/sine_oscillator.h ****   float a = lut_sine[integral];
 1747              		.loc 3 67 22 view .LVU522
 1748 0092 F8EE666A 		vcvt.f32.u32	s13, s13
 1749              	.LBE315:
 1750              	.LBE320:
 1751              	.LBE324:
 1752              	.LBE329:
 100:mi/plaits/dsp/fm/operator.h ****     float pm = 0.0f;
 1753              		.loc 1 100 3 view .LVU523
 1754 0096 9E44     		add	lr, lr, r3
 1755              	.LVL155:
 1756              	.LBB330:
 1757              	.LBB325:
 1758              	.LBB321:
 1759              	.LBB316:
 1760              		.loc 3 70 17 view .LVU524
 1761 0098 97ED015A 		vldr.32	s10, [r7, #4]
  67:mi/plaits/dsp/oscillator/sine_oscillator.h ****   float a = lut_sine[integral];
 1762              		.loc 3 67 9 view .LVU525
 1763 009c 66EE866A 		vmul.f32	s13, s13, s12
 1764              	.LVL156:
  68:mi/plaits/dsp/oscillator/sine_oscillator.h ****   float b = lut_sine[integral + 1];
 1765              		.loc 3 68 9 view .LVU526
 1766 00a0 97ED006A 		vldr.32	s12, [r7]
 1767              	.LVL157:
  69:mi/plaits/dsp/oscillator/sine_oscillator.h ****   return a + (b - a) * fractional;
 1768              		.loc 3 69 3 is_stmt 1 view .LVU527
 1769              		.loc 3 70 3 view .LVU528
 1770              	.LBE316:
 1771              	.LBE321:
 1772              	.LBE325:
 1773              	.LBE330:
 100:mi/plaits/dsp/fm/operator.h ****     float pm = 0.0f;
 1774              		.loc 1 100 3 is_stmt 0 view .LVU529
 1775 00a4 6F1C     		adds	r7, r5, #1
 1776              	.LBB331:
 1777              	.LBB326:
 1778              	.LBB322:
 1779              	.LBB317:
 1780              		.loc 3 70 17 view .LVU530
 1781 00a6 35EE465A 		vsub.f32	s10, s10, s12
 1782              		.loc 3 70 24 view .LVU531
 1783 00aa A6EE856A 		vfma.f32	s12, s13, s10
 1784              	.LVL158:
ARM GAS  /var/folders/9k/zk1mgrrd7wg4__6zvxvr9w8m0000gn/T//ccWZw7sc.s 			page 47


 1785              		.loc 3 70 24 view .LVU532
 1786              	.LBE317:
 1787              	.LBE322:
 107:mi/plaits/dsp/fm/operator.h ****       phase[i] += frequency[i];
 1788              		.loc 1 107 5 is_stmt 1 view .LVU533
 107:mi/plaits/dsp/fm/operator.h ****       phase[i] += frequency[i];
 1789              		.loc 1 107 23 view .LVU534
 107:mi/plaits/dsp/fm/operator.h ****       phase[i] += frequency[i];
 1790              		.loc 1 107 23 is_stmt 0 view .LVU535
 1791              	.LBE326:
 117:mi/plaits/dsp/fm/operator.h ****     } else {
 1792              		.loc 1 117 14 view .LVU536
 1793 00ae F0EE656A 		vmov.f32	s13, s11
 1794 00b2 E7EE066A 		vfma.f32	s13, s14, s12
 1795 00b6 44ED016A 		vstr.32	s13, [r4, #-4]
 1796              	.LVL159:
 117:mi/plaits/dsp/fm/operator.h ****     } else {
 1797              		.loc 1 117 14 view .LVU537
 1798              	.LBE331:
 100:mi/plaits/dsp/fm/operator.h ****     float pm = 0.0f;
 1799              		.loc 1 100 3 is_stmt 1 view .LVU538
 100:mi/plaits/dsp/fm/operator.h ****     float pm = 0.0f;
 1800              		.loc 1 100 3 is_stmt 0 view .LVU539
 1801 00ba 07D1     		bne	.L84
 1802              	.LBB332:
 1803              	.LBB327:
 110:mi/plaits/dsp/fm/operator.h ****       if (i == modulation_source) {
 1804              		.loc 1 110 20 view .LVU540
 1805 00bc B0EE647A 		vmov.f32	s14, s9
 1806              	.LVL160:
 110:mi/plaits/dsp/fm/operator.h ****       if (i == modulation_source) {
 1807              		.loc 1 110 20 view .LVU541
 1808              	.LBE327:
 1809              	.LBE332:
 1810              	.LBB333:
 123:mi/plaits/dsp/fm/operator.h ****     ops[i].phase = phase[i];
 1811              		.loc 1 123 21 is_stmt 1 view .LVU542
 1812 00c0 01FB0322 		mla	r2, r1, r3, r2
 124:mi/plaits/dsp/fm/operator.h ****     ops[i].amplitude = amplitude[i];
 1813              		.loc 1 124 18 is_stmt 0 view .LVU543
 1814 00c4 0260     		str	r2, [r0]
 125:mi/plaits/dsp/fm/operator.h ****   }
 1815              		.loc 1 125 22 view .LVU544
 1816 00c6 80ED017A 		vstr.32	s14, [r0, #4]
 123:mi/plaits/dsp/fm/operator.h ****     ops[i].phase = phase[i];
 1817              		.loc 1 123 3 is_stmt 1 view .LVU545
 1818              	.LVL161:
 123:mi/plaits/dsp/fm/operator.h ****     ops[i].phase = phase[i];
 1819              		.loc 1 123 21 view .LVU546
 123:mi/plaits/dsp/fm/operator.h ****     ops[i].phase = phase[i];
 1820              		.loc 1 123 21 is_stmt 0 view .LVU547
 1821              	.LBE333:
 1822              		.loc 1 132 1 view .LVU548
 1823 00ca F0BD     		pop	{r4, r5, r6, r7, pc}
 1824              	.LVL162:
 1825              	.L84:
 1826              	.LBB334:
ARM GAS  /var/folders/9k/zk1mgrrd7wg4__6zvxvr9w8m0000gn/T//ccWZw7sc.s 			page 48


 1827              	.LBB328:
 110:mi/plaits/dsp/fm/operator.h ****       if (i == modulation_source) {
 1828              		.loc 1 110 20 view .LVU549
 1829 00cc B0EE647A 		vmov.f32	s14, s9
 1830              	.LVL163:
 110:mi/plaits/dsp/fm/operator.h ****       if (i == modulation_source) {
 1831              		.loc 1 110 20 view .LVU550
 1832 00d0 D0E7     		b	.L82
 1833              	.L92:
 1834 00d2 00BF     		.align	2
 1835              	.L91:
 1836 00d4 0000804F 		.word	1333788672
 1837 00d8 00000000 		.word	_ZN6plaits8lut_sineE
 1838 00dc 0000802F 		.word	796917760
 1839              	.LBE328:
 1840              	.LBE334:
 1841              		.cfi_endproc
 1842              	.LFE1477:
 1844              		.section	.text._ZN6plaits2fm15RenderOperatorsILi1ELin2ELb0EEEvPNS0_8OperatorEPKfS5_PfiS5_S6_j,"axG
 1845              		.align	1
 1846              		.p2align 2,,3
 1847              		.weak	_ZN6plaits2fm15RenderOperatorsILi1ELin2ELb0EEEvPNS0_8OperatorEPKfS5_PfiS5_S6_j
 1848              		.syntax unified
 1849              		.thumb
 1850              		.thumb_func
 1852              	_ZN6plaits2fm15RenderOperatorsILi1ELin2ELb0EEEvPNS0_8OperatorEPKfS5_PfiS5_S6_j:
 1853              	.LVL164:
 1854              	.LFB1474:
  69:mi/plaits/dsp/fm/operator.h ****     Operator* ops,
 1855              		.loc 1 69 6 is_stmt 1 view -0
 1856              		.cfi_startproc
 1857              		@ args = 16, pretend = 0, frame = 0
 1858              		@ frame_needed = 0, uses_anonymous_args = 0
 1859              	.LBB345:
 1860              	.LBB346:
 1861              	.LBB347:
 1862              		.loc 2 235 7 is_stmt 0 view .LVU552
 1863 0000 B6EE007A 		vmov.f32	s14, #5.0e-1
 1864              		.loc 2 235 15 view .LVU553
 1865 0004 D1ED007A 		vldr.32	s15, [r1]
 1866              	.LBE347:
 1867              	.LBE346:
 1868              	.LBE345:
  69:mi/plaits/dsp/fm/operator.h ****     Operator* ops,
 1869              		.loc 1 69 6 view .LVU554
 1870 0008 70B5     		push	{r4, r5, r6, lr}
 1871              		.cfi_def_cfa_offset 16
 1872              		.cfi_offset 4, -16
 1873              		.cfi_offset 5, -12
 1874              		.cfi_offset 6, -8
 1875              		.cfi_offset 14, -4
 1876              	.LBB358:
 1877              	.LBB351:
 1878              	.LBB348:
 1879              		.loc 2 235 7 view .LVU555
 1880 000a F4EEC77A 		vcmpe.f32	s15, s14
 1881              	.LBE348:
ARM GAS  /var/folders/9k/zk1mgrrd7wg4__6zvxvr9w8m0000gn/T//ccWZw7sc.s 			page 49


 1882              	.LBE351:
 1883              	.LBE358:
  69:mi/plaits/dsp/fm/operator.h ****     Operator* ops,
 1884              		.loc 1 69 6 view .LVU556
 1885 000e 079C     		ldr	r4, [sp, #28]
 1886              	.LVL165:
 1887              	.LBB359:
  91:mi/plaits/dsp/fm/operator.h ****     frequency[i] = static_cast<uint32_t>(std::min(f[i], 0.5f) * 4294967296.0f);
 1888              		.loc 1 91 21 is_stmt 1 view .LVU557
 1889              	.LBB352:
 1890              	.LBI346:
 230:/Library/DaisyToolchain/0.2.0/arm/arm-none-eabi/include/c++/10.3.1/bits/stl_algobase.h ****     {
 1891              		.loc 2 230 5 view .LVU558
 1892              	.LBB349:
 1893              		.loc 2 235 7 is_stmt 0 view .LVU559
 1894 0010 F1EE10FA 		vmrs	APSR_nzcv, FPSCR
 1895 0014 19DC     		bgt	.L100
 1896              	.LBE349:
 1897              	.LBE352:
  92:mi/plaits/dsp/fm/operator.h ****     phase[i] = ops[i].phase;
 1898              		.loc 1 92 63 view .LVU560
 1899 0016 9FED357A 		vldr.32	s14, .L105
 1900 001a 67EE877A 		vmul.f32	s15, s15, s14
  92:mi/plaits/dsp/fm/operator.h ****     phase[i] = ops[i].phase;
 1901              		.loc 1 92 20 view .LVU561
 1902 001e FCEEE77A 		vcvt.u32.f32	s15, s15
 1903 0022 17EE901A 		vmov	r1, s15	@ int
 1904              	.LVL166:
 1905              	.L94:
 1906              	.LBB353:
 1907              	.LBB354:
 1908              		.loc 2 235 7 view .LVU562
 1909 0026 B1EE007A 		vmov.f32	s14, #4.0e+0
 1910              		.loc 2 235 15 view .LVU563
 1911 002a D2ED007A 		vldr.32	s15, [r2]
 1912              	.LBE354:
 1913              	.LBE353:
  94:mi/plaits/dsp/fm/operator.h ****     amplitude_increment[i] = (std::min(a[i], 4.0f) - amplitude[i]) * scale;
 1914              		.loc 1 94 27 view .LVU564
 1915 002e D0ED016A 		vldr.32	s13, [r0, #4]
  93:mi/plaits/dsp/fm/operator.h ****     amplitude[i] = ops[i].amplitude;
 1916              		.loc 1 93 23 view .LVU565
 1917 0032 0268     		ldr	r2, [r0]
 1918              	.LVL167:
 1919              	.LBB356:
 1920              	.LBI353:
 230:/Library/DaisyToolchain/0.2.0/arm/arm-none-eabi/include/c++/10.3.1/bits/stl_algobase.h ****     {
 1921              		.loc 2 230 5 is_stmt 1 view .LVU566
 1922              	.LBB355:
 1923              		.loc 2 235 7 is_stmt 0 view .LVU567
 1924 0034 F4EE477A 		vcmp.f32	s15, s14
 1925 0038 F1EE10FA 		vmrs	APSR_nzcv, FPSCR
 1926 003c 77FE277A 		vselgt.f32	s15, s14, s15
 1927              	.LVL168:
 1928              		.loc 2 235 7 view .LVU568
 1929              	.LBE355:
 1930              	.LBE356:
ARM GAS  /var/folders/9k/zk1mgrrd7wg4__6zvxvr9w8m0000gn/T//ccWZw7sc.s 			page 50


  91:mi/plaits/dsp/fm/operator.h ****     frequency[i] = static_cast<uint32_t>(std::min(f[i], 0.5f) * 4294967296.0f);
 1931              		.loc 1 91 3 is_stmt 1 view .LVU569
  91:mi/plaits/dsp/fm/operator.h ****     frequency[i] = static_cast<uint32_t>(std::min(f[i], 0.5f) * 4294967296.0f);
 1932              		.loc 1 91 21 view .LVU570
  91:mi/plaits/dsp/fm/operator.h ****     frequency[i] = static_cast<uint32_t>(std::min(f[i], 0.5f) * 4294967296.0f);
 1933              		.loc 1 91 21 is_stmt 0 view .LVU571
 1934              	.LBE359:
 100:mi/plaits/dsp/fm/operator.h ****     float pm = 0.0f;
 1935              		.loc 1 100 3 is_stmt 1 view .LVU572
 100:mi/plaits/dsp/fm/operator.h ****     float pm = 0.0f;
 1936              		.loc 1 100 3 is_stmt 0 view .LVU573
 1937 0040 34B9     		cbnz	r4, .L97
 1938              	.LVL169:
 1939              	.LBB360:
 123:mi/plaits/dsp/fm/operator.h ****     ops[i].phase = phase[i];
 1940              		.loc 1 123 21 is_stmt 1 view .LVU574
 124:mi/plaits/dsp/fm/operator.h ****     ops[i].amplitude = amplitude[i];
 1941              		.loc 1 124 18 is_stmt 0 view .LVU575
 1942 0042 0260     		str	r2, [r0]
 125:mi/plaits/dsp/fm/operator.h ****   }
 1943              		.loc 1 125 22 view .LVU576
 1944 0044 C0ED016A 		vstr.32	s13, [r0, #4]
 123:mi/plaits/dsp/fm/operator.h ****     ops[i].phase = phase[i];
 1945              		.loc 1 123 3 is_stmt 1 view .LVU577
 1946              	.LVL170:
 123:mi/plaits/dsp/fm/operator.h ****     ops[i].phase = phase[i];
 1947              		.loc 1 123 21 view .LVU578
 123:mi/plaits/dsp/fm/operator.h ****     ops[i].phase = phase[i];
 1948              		.loc 1 123 21 is_stmt 0 view .LVU579
 1949              	.LBE360:
 1950              		.loc 1 132 1 view .LVU580
 1951 0048 70BD     		pop	{r4, r5, r6, pc}
 1952              	.LVL171:
 1953              	.L100:
 1954              	.LBB361:
 1955              	.LBB357:
 1956              	.LBB350:
 1957              		.loc 1 132 1 view .LVU581
 1958 004a 4FF00041 		mov	r1, #-2147483648
 1959              	.LVL172:
 1960              		.loc 1 132 1 view .LVU582
 1961 004e EAE7     		b	.L94
 1962              	.LVL173:
 1963              	.L97:
 1964              		.loc 1 132 1 view .LVU583
 1965              	.LBE350:
 1966              	.LBE357:
 1967              	.LBE361:
  90:mi/plaits/dsp/fm/operator.h ****   for (int i = 0; i < n; ++i) {
 1968              		.loc 1 90 30 view .LVU584
 1969 0050 07EE104A 		vmov	s14, r4	@ int
  90:mi/plaits/dsp/fm/operator.h ****   for (int i = 0; i < n; ++i) {
 1970              		.loc 1 90 15 view .LVU585
 1971 0054 B7EE006A 		vmov.f32	s12, #1.0e+0
 1972              	.LBB362:
  95:mi/plaits/dsp/fm/operator.h ****   }
 1973              		.loc 1 95 52 view .LVU586
ARM GAS  /var/folders/9k/zk1mgrrd7wg4__6zvxvr9w8m0000gn/T//ccWZw7sc.s 			page 51


 1974 0058 77EEE67A 		vsub.f32	s15, s15, s13
 1975              	.LVL174:
  95:mi/plaits/dsp/fm/operator.h ****   }
 1976              		.loc 1 95 52 view .LVU587
 1977              	.LBE362:
 100:mi/plaits/dsp/fm/operator.h ****     float pm = 0.0f;
 1978              		.loc 1 100 3 view .LVU588
 1979 005c 013C     		subs	r4, r4, #1
 1980              	.LVL175:
  90:mi/plaits/dsp/fm/operator.h ****   for (int i = 0; i < n; ++i) {
 1981              		.loc 1 90 30 view .LVU589
 1982 005e B8EE477A 		vcvt.f32.u32	s14, s14
 1983 0062 0A44     		add	r2, r2, r1
 1984              	.LVL176:
 100:mi/plaits/dsp/fm/operator.h ****     float pm = 0.0f;
 1985              		.loc 1 100 3 view .LVU590
 1986 0064 A646     		mov	lr, r4
 1987 0066 224E     		ldr	r6, .L105+4
 1988 0068 1546     		mov	r5, r2
  90:mi/plaits/dsp/fm/operator.h ****   for (int i = 0; i < n; ++i) {
 1989              		.loc 1 90 15 view .LVU591
 1990 006a C6EE075A 		vdiv.f32	s11, s12, s14
 1991              	.LBB363:
  95:mi/plaits/dsp/fm/operator.h ****   }
 1992              		.loc 1 95 68 view .LVU592
 1993 006e 65EEA75A 		vmul.f32	s11, s11, s15
 1994              	.LVL177:
 1995              	.L98:
  95:mi/plaits/dsp/fm/operator.h ****   }
 1996              		.loc 1 95 68 view .LVU593
 1997              	.LBE363:
 1998              	.LBB364:
 1999              	.LBB365:
 107:mi/plaits/dsp/fm/operator.h ****       phase[i] += frequency[i];
 2000              		.loc 1 107 23 is_stmt 1 view .LVU594
 2001              	.LBB366:
 2002              	.LBI366:
  58:mi/plaits/dsp/oscillator/sine_oscillator.h ****   const float max_uint32 = 4294967296.0f;
 2003              		.loc 3 58 14 view .LVU595
 2004              	.LBB367:
  59:mi/plaits/dsp/oscillator/sine_oscillator.h ****   const int max_index = 32;
 2005              		.loc 3 59 3 view .LVU596
  60:mi/plaits/dsp/oscillator/sine_oscillator.h ****   const float offset = float(max_index);
 2006              		.loc 3 60 3 view .LVU597
  61:mi/plaits/dsp/oscillator/sine_oscillator.h ****   const float scale = max_uint32 / float(max_index * 2);
 2007              		.loc 3 61 3 view .LVU598
  62:mi/plaits/dsp/oscillator/sine_oscillator.h **** 
 2008              		.loc 3 62 3 view .LVU599
  64:mi/plaits/dsp/oscillator/sine_oscillator.h ****   
 2009              		.loc 3 64 3 view .LVU600
  64:mi/plaits/dsp/oscillator/sine_oscillator.h ****   
 2010              		.loc 3 64 38 is_stmt 0 view .LVU601
 2011 0072 059B     		ldr	r3, [sp, #20]
 2012              	.LBE367:
 2013              	.LBE366:
 2014              	.LBE365:
 2015              	.LBE364:
ARM GAS  /var/folders/9k/zk1mgrrd7wg4__6zvxvr9w8m0000gn/T//ccWZw7sc.s 			page 52


 100:mi/plaits/dsp/fm/operator.h ****     float pm = 0.0f;
 2016              		.loc 1 100 3 view .LVU602
 2017 0074 0EF1FF3E 		add	lr, lr, #-1
 2018              	.LVL178:
 2019              	.LBB380:
 2020              	.LBB376:
 2021              	.LBB372:
 2022              	.LBB368:
  64:mi/plaits/dsp/oscillator/sine_oscillator.h ****   
 2023              		.loc 3 64 38 view .LVU603
 2024 0078 9FED1E5A 		vldr.32	s10, .L105+8
 2025 007c B3EC017A 		vldmia.32	r3!, {s14}
 2026              	.LVL179:
  64:mi/plaits/dsp/oscillator/sine_oscillator.h ****   
 2027              		.loc 3 64 38 view .LVU604
 2028              	.LBE368:
 2029              	.LBE372:
 2030              	.LBE376:
 2031              	.LBE380:
 100:mi/plaits/dsp/fm/operator.h ****     float pm = 0.0f;
 2032              		.loc 1 100 3 view .LVU605
 2033 0080 BEF1FF3F 		cmp	lr, #-1
 2034              	.LBB381:
 2035              	.LBB377:
 2036              	.LBB373:
 2037              	.LBB369:
  64:mi/plaits/dsp/oscillator/sine_oscillator.h ****   
 2038              		.loc 3 64 48 view .LVU606
 2039 0084 DFED1C7A 		vldr.32	s15, .L105+12
  64:mi/plaits/dsp/oscillator/sine_oscillator.h ****   
 2040              		.loc 3 64 38 view .LVU607
 2041 0088 37EE057A 		vadd.f32	s14, s14, s10
 2042 008c 0593     		str	r3, [sp, #20]
 2043              	.LVL180:
  67:mi/plaits/dsp/oscillator/sine_oscillator.h ****   float a = lut_sine[integral];
 2044              		.loc 3 67 9 view .LVU608
 2045 008e 9FED1B6A 		vldr.32	s12, .L105+16
  64:mi/plaits/dsp/oscillator/sine_oscillator.h ****   
 2046              		.loc 3 64 48 view .LVU609
 2047 0092 27EE277A 		vmul.f32	s14, s14, s15
  64:mi/plaits/dsp/oscillator/sine_oscillator.h ****   
 2048              		.loc 3 64 12 view .LVU610
 2049 0096 FCEEC77A 		vcvt.u32.f32	s15, s14
 2050 009a 17EE903A 		vmov	r3, s15	@ int
 2051              	.LVL181:
  64:mi/plaits/dsp/oscillator/sine_oscillator.h ****   
 2052              		.loc 3 64 9 view .LVU611
 2053 009e 05EB8313 		add	r3, r5, r3, lsl #6
 2054              	.LVL182:
  66:mi/plaits/dsp/oscillator/sine_oscillator.h ****   float fractional = static_cast<float>(phase << kSineLUTBits) / float(max_uint32);
 2055              		.loc 3 66 3 is_stmt 1 view .LVU612
 2056              	.LBE369:
 2057              	.LBE373:
 2058              	.LBE377:
 2059              	.LBE381:
 100:mi/plaits/dsp/fm/operator.h ****     float pm = 0.0f;
 2060              		.loc 1 100 3 is_stmt 0 view .LVU613
ARM GAS  /var/folders/9k/zk1mgrrd7wg4__6zvxvr9w8m0000gn/T//ccWZw7sc.s 			page 53


 2061 00a2 0D44     		add	r5, r5, r1
 2062              	.LVL183:
 2063              	.LBB382:
 2064              	.LBB378:
 2065              	.LBB374:
 2066              	.LBB370:
  66:mi/plaits/dsp/oscillator/sine_oscillator.h ****   float fractional = static_cast<float>(phase << kSineLUTBits) / float(max_uint32);
 2067              		.loc 3 66 12 view .LVU614
 2068 00a4 4FEAD35C 		lsr	ip, r3, #23
 2069              	.LVL184:
  67:mi/plaits/dsp/oscillator/sine_oscillator.h ****   float a = lut_sine[integral];
 2070              		.loc 3 67 3 is_stmt 1 view .LVU615
  68:mi/plaits/dsp/oscillator/sine_oscillator.h ****   float b = lut_sine[integral + 1];
 2071              		.loc 3 68 3 view .LVU616
  67:mi/plaits/dsp/oscillator/sine_oscillator.h ****   float a = lut_sine[integral];
 2072              		.loc 3 67 47 is_stmt 0 view .LVU617
 2073 00a8 4FEA4323 		lsl	r3, r3, #9
 2074              	.LVL185:
  67:mi/plaits/dsp/oscillator/sine_oscillator.h ****   float a = lut_sine[integral];
 2075              		.loc 3 67 47 view .LVU618
 2076 00ac 07EE903A 		vmov	s15, r3	@ int
  68:mi/plaits/dsp/oscillator/sine_oscillator.h ****   float b = lut_sine[integral + 1];
 2077              		.loc 3 68 9 view .LVU619
 2078 00b0 06EB8C03 		add	r3, r6, ip, lsl #2
  67:mi/plaits/dsp/oscillator/sine_oscillator.h ****   float a = lut_sine[integral];
 2079              		.loc 3 67 22 view .LVU620
 2080 00b4 F8EE677A 		vcvt.f32.u32	s15, s15
  68:mi/plaits/dsp/oscillator/sine_oscillator.h ****   float b = lut_sine[integral + 1];
 2081              		.loc 3 68 9 view .LVU621
 2082 00b8 93ED007A 		vldr.32	s14, [r3]
  67:mi/plaits/dsp/oscillator/sine_oscillator.h ****   float a = lut_sine[integral];
 2083              		.loc 3 67 9 view .LVU622
 2084 00bc 67EE867A 		vmul.f32	s15, s15, s12
 2085              	.LVL186:
  69:mi/plaits/dsp/oscillator/sine_oscillator.h ****   return a + (b - a) * fractional;
 2086              		.loc 3 69 3 is_stmt 1 view .LVU623
 2087              		.loc 3 70 3 view .LVU624
 2088              		.loc 3 70 17 is_stmt 0 view .LVU625
 2089 00c0 93ED016A 		vldr.32	s12, [r3, #4]
 2090              	.LBE370:
 2091              	.LBE374:
 2092              	.LBE378:
 119:mi/plaits/dsp/fm/operator.h ****     }
 2093              		.loc 1 119 14 view .LVU626
 2094 00c4 069B     		ldr	r3, [sp, #24]
 2095              	.LBB379:
 2096              	.LBB375:
 2097              	.LBB371:
 2098              		.loc 3 70 17 view .LVU627
 2099 00c6 36EE476A 		vsub.f32	s12, s12, s14
 2100              		.loc 3 70 24 view .LVU628
 2101 00ca A7EE867A 		vfma.f32	s14, s15, s12
 2102              	.LVL187:
 2103              		.loc 3 70 24 view .LVU629
 2104              	.LBE371:
 2105              	.LBE375:
 109:mi/plaits/dsp/fm/operator.h ****       amplitude[i] += amplitude_increment[i];
ARM GAS  /var/folders/9k/zk1mgrrd7wg4__6zvxvr9w8m0000gn/T//ccWZw7sc.s 			page 54


 2106              		.loc 1 109 10 view .LVU630
 2107 00ce 26EE877A 		vmul.f32	s14, s13, s14
 2108              	.LVL188:
 110:mi/plaits/dsp/fm/operator.h ****       if (i == modulation_source) {
 2109              		.loc 1 110 20 view .LVU631
 2110 00d2 76EEA56A 		vadd.f32	s13, s13, s11
 2111              	.LVL189:
 107:mi/plaits/dsp/fm/operator.h ****       phase[i] += frequency[i];
 2112              		.loc 1 107 5 is_stmt 1 view .LVU632
 107:mi/plaits/dsp/fm/operator.h ****       phase[i] += frequency[i];
 2113              		.loc 1 107 23 view .LVU633
 107:mi/plaits/dsp/fm/operator.h ****       phase[i] += frequency[i];
 2114              		.loc 1 107 23 is_stmt 0 view .LVU634
 2115              	.LBE379:
 119:mi/plaits/dsp/fm/operator.h ****     }
 2116              		.loc 1 119 14 view .LVU635
 2117 00d6 A3EC017A 		vstmia.32	r3!, {s14}
 2118              	.LVL190:
 119:mi/plaits/dsp/fm/operator.h ****     }
 2119              		.loc 1 119 14 view .LVU636
 2120 00da 0693     		str	r3, [sp, #24]
 2121              	.LVL191:
 119:mi/plaits/dsp/fm/operator.h ****     }
 2122              		.loc 1 119 14 view .LVU637
 2123              	.LBE382:
 100:mi/plaits/dsp/fm/operator.h ****     float pm = 0.0f;
 2124              		.loc 1 100 3 is_stmt 1 view .LVU638
 100:mi/plaits/dsp/fm/operator.h ****     float pm = 0.0f;
 2125              		.loc 1 100 3 is_stmt 0 view .LVU639
 2126 00dc C9D1     		bne	.L98
 2127 00de 01FB0422 		mla	r2, r1, r4, r2
 2128              	.LVL192:
 2129              	.LBB383:
 123:mi/plaits/dsp/fm/operator.h ****     ops[i].phase = phase[i];
 2130              		.loc 1 123 21 is_stmt 1 view .LVU640
 125:mi/plaits/dsp/fm/operator.h ****   }
 2131              		.loc 1 125 22 is_stmt 0 view .LVU641
 2132 00e2 C0ED016A 		vstr.32	s13, [r0, #4]
 123:mi/plaits/dsp/fm/operator.h ****     ops[i].phase = phase[i];
 2133              		.loc 1 123 3 is_stmt 1 view .LVU642
 2134              	.LVL193:
 123:mi/plaits/dsp/fm/operator.h ****     ops[i].phase = phase[i];
 2135              		.loc 1 123 21 view .LVU643
 124:mi/plaits/dsp/fm/operator.h ****     ops[i].amplitude = amplitude[i];
 2136              		.loc 1 124 18 is_stmt 0 view .LVU644
 2137 00e6 0260     		str	r2, [r0]
 2138              	.LBE383:
 2139              		.loc 1 132 1 view .LVU645
 2140 00e8 70BD     		pop	{r4, r5, r6, pc}
 2141              	.LVL194:
 2142              	.L106:
 2143              		.loc 1 132 1 view .LVU646
 2144 00ea 00BF     		.align	2
 2145              	.L105:
 2146 00ec 0000804F 		.word	1333788672
 2147 00f0 00000000 		.word	_ZN6plaits8lut_sineE
 2148 00f4 00000042 		.word	1107296256
ARM GAS  /var/folders/9k/zk1mgrrd7wg4__6zvxvr9w8m0000gn/T//ccWZw7sc.s 			page 55


 2149 00f8 0000804C 		.word	1283457024
 2150 00fc 0000802F 		.word	796917760
 2151              		.cfi_endproc
 2152              	.LFE1474:
 2154              		.section	.text._ZN6plaits2fm15RenderOperatorsILi1ELin2ELb1EEEvPNS0_8OperatorEPKfS5_PfiS5_S6_j,"axG
 2155              		.align	1
 2156              		.p2align 2,,3
 2157              		.weak	_ZN6plaits2fm15RenderOperatorsILi1ELin2ELb1EEEvPNS0_8OperatorEPKfS5_PfiS5_S6_j
 2158              		.syntax unified
 2159              		.thumb
 2160              		.thumb_func
 2162              	_ZN6plaits2fm15RenderOperatorsILi1ELin2ELb1EEEvPNS0_8OperatorEPKfS5_PfiS5_S6_j:
 2163              	.LVL195:
 2164              	.LFB1475:
  69:mi/plaits/dsp/fm/operator.h ****     Operator* ops,
 2165              		.loc 1 69 6 is_stmt 1 view -0
 2166              		.cfi_startproc
 2167              		@ args = 16, pretend = 0, frame = 0
 2168              		@ frame_needed = 0, uses_anonymous_args = 0
 2169              	.LBB394:
 2170              	.LBB395:
 2171              	.LBB396:
 2172              		.loc 2 235 7 is_stmt 0 view .LVU648
 2173 0000 B6EE007A 		vmov.f32	s14, #5.0e-1
 2174              		.loc 2 235 15 view .LVU649
 2175 0004 D1ED007A 		vldr.32	s15, [r1]
 2176              	.LBE396:
 2177              	.LBE395:
 2178              	.LBE394:
  69:mi/plaits/dsp/fm/operator.h ****     Operator* ops,
 2179              		.loc 1 69 6 view .LVU650
 2180 0008 F0B5     		push	{r4, r5, r6, r7, lr}
 2181              		.cfi_def_cfa_offset 20
 2182              		.cfi_offset 4, -20
 2183              		.cfi_offset 5, -16
 2184              		.cfi_offset 6, -12
 2185              		.cfi_offset 7, -8
 2186              		.cfi_offset 14, -4
 2187              	.LBB407:
 2188              	.LBB400:
 2189              	.LBB397:
 2190              		.loc 2 235 7 view .LVU651
 2191 000a F4EEC77A 		vcmpe.f32	s15, s14
 2192              	.LBE397:
 2193              	.LBE400:
 2194              	.LBE407:
  69:mi/plaits/dsp/fm/operator.h ****     Operator* ops,
 2195              		.loc 1 69 6 view .LVU652
 2196 000e DDE90754 		ldrd	r5, r4, [sp, #28]
 2197              	.LVL196:
 2198              	.LBB408:
  91:mi/plaits/dsp/fm/operator.h ****     frequency[i] = static_cast<uint32_t>(std::min(f[i], 0.5f) * 4294967296.0f);
 2199              		.loc 1 91 21 is_stmt 1 view .LVU653
 2200              	.LBB401:
 2201              	.LBI395:
 230:/Library/DaisyToolchain/0.2.0/arm/arm-none-eabi/include/c++/10.3.1/bits/stl_algobase.h ****     {
 2202              		.loc 2 230 5 view .LVU654
ARM GAS  /var/folders/9k/zk1mgrrd7wg4__6zvxvr9w8m0000gn/T//ccWZw7sc.s 			page 56


 2203              	.LBB398:
 2204              		.loc 2 235 7 is_stmt 0 view .LVU655
 2205 0012 F1EE10FA 		vmrs	APSR_nzcv, FPSCR
 2206 0016 19DC     		bgt	.L114
 2207              	.LBE398:
 2208              	.LBE401:
  92:mi/plaits/dsp/fm/operator.h ****     phase[i] = ops[i].phase;
 2209              		.loc 1 92 63 view .LVU656
 2210 0018 9FED377A 		vldr.32	s14, .L119
 2211 001c 67EE877A 		vmul.f32	s15, s15, s14
  92:mi/plaits/dsp/fm/operator.h ****     phase[i] = ops[i].phase;
 2212              		.loc 1 92 20 view .LVU657
 2213 0020 FCEEE77A 		vcvt.u32.f32	s15, s15
 2214 0024 17EE901A 		vmov	r1, s15	@ int
 2215              	.LVL197:
 2216              	.L108:
 2217              	.LBB402:
 2218              	.LBB403:
 2219              		.loc 2 235 7 view .LVU658
 2220 0028 B1EE007A 		vmov.f32	s14, #4.0e+0
 2221              		.loc 2 235 15 view .LVU659
 2222 002c D2ED007A 		vldr.32	s15, [r2]
 2223              	.LBE403:
 2224              	.LBE402:
  94:mi/plaits/dsp/fm/operator.h ****     amplitude_increment[i] = (std::min(a[i], 4.0f) - amplitude[i]) * scale;
 2225              		.loc 1 94 27 view .LVU660
 2226 0030 D0ED016A 		vldr.32	s13, [r0, #4]
  93:mi/plaits/dsp/fm/operator.h ****     amplitude[i] = ops[i].amplitude;
 2227              		.loc 1 93 23 view .LVU661
 2228 0034 0268     		ldr	r2, [r0]
 2229              	.LVL198:
 2230              	.LBB405:
 2231              	.LBI402:
 230:/Library/DaisyToolchain/0.2.0/arm/arm-none-eabi/include/c++/10.3.1/bits/stl_algobase.h ****     {
 2232              		.loc 2 230 5 is_stmt 1 view .LVU662
 2233              	.LBB404:
 2234              		.loc 2 235 7 is_stmt 0 view .LVU663
 2235 0036 F4EE477A 		vcmp.f32	s15, s14
 2236 003a F1EE10FA 		vmrs	APSR_nzcv, FPSCR
 2237 003e 77FE277A 		vselgt.f32	s15, s14, s15
 2238              	.LVL199:
 2239              		.loc 2 235 7 view .LVU664
 2240              	.LBE404:
 2241              	.LBE405:
  91:mi/plaits/dsp/fm/operator.h ****     frequency[i] = static_cast<uint32_t>(std::min(f[i], 0.5f) * 4294967296.0f);
 2242              		.loc 1 91 3 is_stmt 1 view .LVU665
  91:mi/plaits/dsp/fm/operator.h ****     frequency[i] = static_cast<uint32_t>(std::min(f[i], 0.5f) * 4294967296.0f);
 2243              		.loc 1 91 21 view .LVU666
  91:mi/plaits/dsp/fm/operator.h ****     frequency[i] = static_cast<uint32_t>(std::min(f[i], 0.5f) * 4294967296.0f);
 2244              		.loc 1 91 21 is_stmt 0 view .LVU667
 2245              	.LBE408:
 100:mi/plaits/dsp/fm/operator.h ****     float pm = 0.0f;
 2246              		.loc 1 100 3 is_stmt 1 view .LVU668
 100:mi/plaits/dsp/fm/operator.h ****     float pm = 0.0f;
 2247              		.loc 1 100 3 is_stmt 0 view .LVU669
 2248 0042 34B9     		cbnz	r4, .L111
 2249              	.LVL200:
ARM GAS  /var/folders/9k/zk1mgrrd7wg4__6zvxvr9w8m0000gn/T//ccWZw7sc.s 			page 57


 2250              	.LBB409:
 123:mi/plaits/dsp/fm/operator.h ****     ops[i].phase = phase[i];
 2251              		.loc 1 123 21 is_stmt 1 view .LVU670
 124:mi/plaits/dsp/fm/operator.h ****     ops[i].amplitude = amplitude[i];
 2252              		.loc 1 124 18 is_stmt 0 view .LVU671
 2253 0044 0260     		str	r2, [r0]
 125:mi/plaits/dsp/fm/operator.h ****   }
 2254              		.loc 1 125 22 view .LVU672
 2255 0046 C0ED016A 		vstr.32	s13, [r0, #4]
 123:mi/plaits/dsp/fm/operator.h ****     ops[i].phase = phase[i];
 2256              		.loc 1 123 3 is_stmt 1 view .LVU673
 2257              	.LVL201:
 123:mi/plaits/dsp/fm/operator.h ****     ops[i].phase = phase[i];
 2258              		.loc 1 123 21 view .LVU674
 123:mi/plaits/dsp/fm/operator.h ****     ops[i].phase = phase[i];
 2259              		.loc 1 123 21 is_stmt 0 view .LVU675
 2260              	.LBE409:
 2261              		.loc 1 132 1 view .LVU676
 2262 004a F0BD     		pop	{r4, r5, r6, r7, pc}
 2263              	.LVL202:
 2264              	.L114:
 2265              	.LBB410:
 2266              	.LBB406:
 2267              	.LBB399:
 2268              		.loc 1 132 1 view .LVU677
 2269 004c 4FF00041 		mov	r1, #-2147483648
 2270              	.LVL203:
 2271              		.loc 1 132 1 view .LVU678
 2272 0050 EAE7     		b	.L108
 2273              	.LVL204:
 2274              	.L111:
 2275              		.loc 1 132 1 view .LVU679
 2276              	.LBE399:
 2277              	.LBE406:
 2278              	.LBE410:
  90:mi/plaits/dsp/fm/operator.h ****   for (int i = 0; i < n; ++i) {
 2279              		.loc 1 90 30 view .LVU680
 2280 0052 07EE104A 		vmov	s14, r4	@ int
  90:mi/plaits/dsp/fm/operator.h ****   for (int i = 0; i < n; ++i) {
 2281              		.loc 1 90 15 view .LVU681
 2282 0056 B7EE006A 		vmov.f32	s12, #1.0e+0
 2283              	.LBB411:
  95:mi/plaits/dsp/fm/operator.h ****   }
 2284              		.loc 1 95 52 view .LVU682
 2285 005a 77EEE67A 		vsub.f32	s15, s15, s13
 2286              	.LVL205:
  95:mi/plaits/dsp/fm/operator.h ****   }
 2287              		.loc 1 95 52 view .LVU683
 2288              	.LBE411:
 100:mi/plaits/dsp/fm/operator.h ****     float pm = 0.0f;
 2289              		.loc 1 100 3 view .LVU684
 2290 005e 013C     		subs	r4, r4, #1
 2291              	.LVL206:
  90:mi/plaits/dsp/fm/operator.h ****   for (int i = 0; i < n; ++i) {
 2292              		.loc 1 90 30 view .LVU685
 2293 0060 B8EE477A 		vcvt.f32.u32	s14, s14
 2294 0064 0A44     		add	r2, r2, r1
ARM GAS  /var/folders/9k/zk1mgrrd7wg4__6zvxvr9w8m0000gn/T//ccWZw7sc.s 			page 58


 2295              	.LVL207:
 100:mi/plaits/dsp/fm/operator.h ****     float pm = 0.0f;
 2296              		.loc 1 100 3 view .LVU686
 2297 0066 A646     		mov	lr, r4
 2298 0068 244F     		ldr	r7, .L119+4
 2299 006a 1646     		mov	r6, r2
  90:mi/plaits/dsp/fm/operator.h ****   for (int i = 0; i < n; ++i) {
 2300              		.loc 1 90 15 view .LVU687
 2301 006c 86EE075A 		vdiv.f32	s10, s12, s14
 2302              	.LBB412:
  95:mi/plaits/dsp/fm/operator.h ****   }
 2303              		.loc 1 95 68 view .LVU688
 2304 0070 25EE275A 		vmul.f32	s10, s10, s15
 2305              	.LVL208:
 2306              	.L112:
  95:mi/plaits/dsp/fm/operator.h ****   }
 2307              		.loc 1 95 68 view .LVU689
 2308              	.LBE412:
 2309              	.LBB413:
 2310              	.LBB414:
 107:mi/plaits/dsp/fm/operator.h ****       phase[i] += frequency[i];
 2311              		.loc 1 107 23 is_stmt 1 view .LVU690
 2312              	.LBB415:
 2313              	.LBI415:
  58:mi/plaits/dsp/oscillator/sine_oscillator.h ****   const float max_uint32 = 4294967296.0f;
 2314              		.loc 3 58 14 view .LVU691
 2315              	.LBB416:
  59:mi/plaits/dsp/oscillator/sine_oscillator.h ****   const int max_index = 32;
 2316              		.loc 3 59 3 view .LVU692
  60:mi/plaits/dsp/oscillator/sine_oscillator.h ****   const float offset = float(max_index);
 2317              		.loc 3 60 3 view .LVU693
  61:mi/plaits/dsp/oscillator/sine_oscillator.h ****   const float scale = max_uint32 / float(max_index * 2);
 2318              		.loc 3 61 3 view .LVU694
  62:mi/plaits/dsp/oscillator/sine_oscillator.h **** 
 2319              		.loc 3 62 3 view .LVU695
  64:mi/plaits/dsp/oscillator/sine_oscillator.h ****   
 2320              		.loc 3 64 3 view .LVU696
  64:mi/plaits/dsp/oscillator/sine_oscillator.h ****   
 2321              		.loc 3 64 38 is_stmt 0 view .LVU697
 2322 0074 069B     		ldr	r3, [sp, #24]
 2323              	.LBE416:
 2324              	.LBE415:
 2325              	.LBE414:
 2326              	.LBE413:
 100:mi/plaits/dsp/fm/operator.h ****     float pm = 0.0f;
 2327              		.loc 1 100 3 view .LVU698
 2328 0076 0EF1FF3E 		add	lr, lr, #-1
 2329              	.LVL209:
 2330              	.LBB433:
 2331              	.LBB427:
 2332              	.LBB422:
 2333              	.LBB417:
  64:mi/plaits/dsp/oscillator/sine_oscillator.h ****   
 2334              		.loc 3 64 38 view .LVU699
 2335 007a 9FED216A 		vldr.32	s12, .L119+8
 2336              	.LBE417:
 2337              	.LBE422:
ARM GAS  /var/folders/9k/zk1mgrrd7wg4__6zvxvr9w8m0000gn/T//ccWZw7sc.s 			page 59


 110:mi/plaits/dsp/fm/operator.h ****       if (i == modulation_source) {
 2338              		.loc 1 110 20 view .LVU700
 2339 007e 75EE264A 		vadd.f32	s9, s10, s13
 2340              	.LBB423:
 2341              	.LBB418:
  64:mi/plaits/dsp/oscillator/sine_oscillator.h ****   
 2342              		.loc 3 64 38 view .LVU701
 2343 0082 B3EC017A 		vldmia.32	r3!, {s14}
 2344              	.LVL210:
  64:mi/plaits/dsp/oscillator/sine_oscillator.h ****   
 2345              		.loc 3 64 38 view .LVU702
 2346              	.LBE418:
 2347              	.LBE423:
 2348              	.LBE427:
 2349              	.LBE433:
 100:mi/plaits/dsp/fm/operator.h ****     float pm = 0.0f;
 2350              		.loc 1 100 3 view .LVU703
 2351 0086 BEF1FF3F 		cmp	lr, #-1
 2352              	.LBB434:
 2353              	.LBB428:
 2354              	.LBB424:
 2355              	.LBB419:
  64:mi/plaits/dsp/oscillator/sine_oscillator.h ****   
 2356              		.loc 3 64 48 view .LVU704
 2357 008a DFED1E7A 		vldr.32	s15, .L119+12
  64:mi/plaits/dsp/oscillator/sine_oscillator.h ****   
 2358              		.loc 3 64 38 view .LVU705
 2359 008e 37EE067A 		vadd.f32	s14, s14, s12
 2360 0092 0693     		str	r3, [sp, #24]
 2361              	.LVL211:
  67:mi/plaits/dsp/oscillator/sine_oscillator.h ****   float a = lut_sine[integral];
 2362              		.loc 3 67 9 view .LVU706
 2363 0094 DFED1C5A 		vldr.32	s11, .L119+16
 2364              	.LBE419:
 2365              	.LBE424:
 2366              	.LBE428:
 117:mi/plaits/dsp/fm/operator.h ****     } else {
 2367              		.loc 1 117 14 view .LVU707
 2368 0098 B5EC016A 		vldmia.32	r5!, {s12}
 2369              	.LVL212:
 2370              	.LBB429:
 2371              	.LBB425:
 2372              	.LBB420:
  64:mi/plaits/dsp/oscillator/sine_oscillator.h ****   
 2373              		.loc 3 64 48 view .LVU708
 2374 009c 27EE277A 		vmul.f32	s14, s14, s15
  64:mi/plaits/dsp/oscillator/sine_oscillator.h ****   
 2375              		.loc 3 64 12 view .LVU709
 2376 00a0 FCEEC77A 		vcvt.u32.f32	s15, s14
 2377 00a4 17EE903A 		vmov	r3, s15	@ int
 2378              	.LVL213:
  64:mi/plaits/dsp/oscillator/sine_oscillator.h ****   
 2379              		.loc 3 64 9 view .LVU710
 2380 00a8 06EB8313 		add	r3, r6, r3, lsl #6
 2381              	.LVL214:
  66:mi/plaits/dsp/oscillator/sine_oscillator.h ****   float fractional = static_cast<float>(phase << kSineLUTBits) / float(max_uint32);
 2382              		.loc 3 66 3 is_stmt 1 view .LVU711
ARM GAS  /var/folders/9k/zk1mgrrd7wg4__6zvxvr9w8m0000gn/T//ccWZw7sc.s 			page 60


 2383              	.LBE420:
 2384              	.LBE425:
 2385              	.LBE429:
 2386              	.LBE434:
 100:mi/plaits/dsp/fm/operator.h ****     float pm = 0.0f;
 2387              		.loc 1 100 3 is_stmt 0 view .LVU712
 2388 00ac 0E44     		add	r6, r6, r1
 2389              	.LVL215:
 2390              	.LBB435:
 2391              	.LBB430:
 2392              	.LBB426:
 2393              	.LBB421:
  66:mi/plaits/dsp/oscillator/sine_oscillator.h ****   float fractional = static_cast<float>(phase << kSineLUTBits) / float(max_uint32);
 2394              		.loc 3 66 12 view .LVU713
 2395 00ae 4FEAD35C 		lsr	ip, r3, #23
 2396              	.LVL216:
  67:mi/plaits/dsp/oscillator/sine_oscillator.h ****   float a = lut_sine[integral];
 2397              		.loc 3 67 3 is_stmt 1 view .LVU714
  68:mi/plaits/dsp/oscillator/sine_oscillator.h ****   float b = lut_sine[integral + 1];
 2398              		.loc 3 68 3 view .LVU715
  67:mi/plaits/dsp/oscillator/sine_oscillator.h ****   float a = lut_sine[integral];
 2399              		.loc 3 67 47 is_stmt 0 view .LVU716
 2400 00b2 4FEA4323 		lsl	r3, r3, #9
 2401              	.LVL217:
  67:mi/plaits/dsp/oscillator/sine_oscillator.h ****   float a = lut_sine[integral];
 2402              		.loc 3 67 47 view .LVU717
 2403 00b6 07EE903A 		vmov	s15, r3	@ int
  68:mi/plaits/dsp/oscillator/sine_oscillator.h ****   float b = lut_sine[integral + 1];
 2404              		.loc 3 68 9 view .LVU718
 2405 00ba 07EB8C03 		add	r3, r7, ip, lsl #2
  67:mi/plaits/dsp/oscillator/sine_oscillator.h ****   float a = lut_sine[integral];
 2406              		.loc 3 67 22 view .LVU719
 2407 00be F8EE677A 		vcvt.f32.u32	s15, s15
  68:mi/plaits/dsp/oscillator/sine_oscillator.h ****   float b = lut_sine[integral + 1];
 2408              		.loc 3 68 9 view .LVU720
 2409 00c2 93ED007A 		vldr.32	s14, [r3]
  67:mi/plaits/dsp/oscillator/sine_oscillator.h ****   float a = lut_sine[integral];
 2410              		.loc 3 67 9 view .LVU721
 2411 00c6 67EEA57A 		vmul.f32	s15, s15, s11
 2412              	.LVL218:
  69:mi/plaits/dsp/oscillator/sine_oscillator.h ****   return a + (b - a) * fractional;
 2413              		.loc 3 69 3 is_stmt 1 view .LVU722
 2414              		.loc 3 70 3 view .LVU723
 2415              		.loc 3 70 17 is_stmt 0 view .LVU724
 2416 00ca D3ED015A 		vldr.32	s11, [r3, #4]
 2417 00ce 75EEC75A 		vsub.f32	s11, s11, s14
 2418              		.loc 3 70 24 view .LVU725
 2419 00d2 A7EEA57A 		vfma.f32	s14, s15, s11
 2420              	.LVL219:
 2421              		.loc 3 70 24 view .LVU726
 2422              	.LBE421:
 2423              	.LBE426:
 107:mi/plaits/dsp/fm/operator.h ****       phase[i] += frequency[i];
 2424              		.loc 1 107 5 is_stmt 1 view .LVU727
 107:mi/plaits/dsp/fm/operator.h ****       phase[i] += frequency[i];
 2425              		.loc 1 107 23 view .LVU728
 107:mi/plaits/dsp/fm/operator.h ****       phase[i] += frequency[i];
ARM GAS  /var/folders/9k/zk1mgrrd7wg4__6zvxvr9w8m0000gn/T//ccWZw7sc.s 			page 61


 2426              		.loc 1 107 23 is_stmt 0 view .LVU729
 2427              	.LBE430:
 117:mi/plaits/dsp/fm/operator.h ****     } else {
 2428              		.loc 1 117 14 view .LVU730
 2429 00d6 A6EE876A 		vfma.f32	s12, s13, s14
 2430 00da 05ED016A 		vstr.32	s12, [r5, #-4]
 2431              	.LVL220:
 117:mi/plaits/dsp/fm/operator.h ****     } else {
 2432              		.loc 1 117 14 view .LVU731
 2433              	.LBE435:
 100:mi/plaits/dsp/fm/operator.h ****     float pm = 0.0f;
 2434              		.loc 1 100 3 is_stmt 1 view .LVU732
 100:mi/plaits/dsp/fm/operator.h ****     float pm = 0.0f;
 2435              		.loc 1 100 3 is_stmt 0 view .LVU733
 2436 00de 07D1     		bne	.L115
 2437              	.LBB436:
 2438              	.LBB431:
 110:mi/plaits/dsp/fm/operator.h ****       if (i == modulation_source) {
 2439              		.loc 1 110 20 view .LVU734
 2440 00e0 F0EE646A 		vmov.f32	s13, s9
 2441              	.LVL221:
 110:mi/plaits/dsp/fm/operator.h ****       if (i == modulation_source) {
 2442              		.loc 1 110 20 view .LVU735
 2443              	.LBE431:
 2444              	.LBE436:
 2445              	.LBB437:
 123:mi/plaits/dsp/fm/operator.h ****     ops[i].phase = phase[i];
 2446              		.loc 1 123 21 is_stmt 1 view .LVU736
 2447 00e4 01FB0422 		mla	r2, r1, r4, r2
 124:mi/plaits/dsp/fm/operator.h ****     ops[i].amplitude = amplitude[i];
 2448              		.loc 1 124 18 is_stmt 0 view .LVU737
 2449 00e8 0260     		str	r2, [r0]
 125:mi/plaits/dsp/fm/operator.h ****   }
 2450              		.loc 1 125 22 view .LVU738
 2451 00ea C0ED016A 		vstr.32	s13, [r0, #4]
 123:mi/plaits/dsp/fm/operator.h ****     ops[i].phase = phase[i];
 2452              		.loc 1 123 3 is_stmt 1 view .LVU739
 2453              	.LVL222:
 123:mi/plaits/dsp/fm/operator.h ****     ops[i].phase = phase[i];
 2454              		.loc 1 123 21 view .LVU740
 123:mi/plaits/dsp/fm/operator.h ****     ops[i].phase = phase[i];
 2455              		.loc 1 123 21 is_stmt 0 view .LVU741
 2456              	.LBE437:
 2457              		.loc 1 132 1 view .LVU742
 2458 00ee F0BD     		pop	{r4, r5, r6, r7, pc}
 2459              	.LVL223:
 2460              	.L115:
 2461              	.LBB438:
 2462              	.LBB432:
 110:mi/plaits/dsp/fm/operator.h ****       if (i == modulation_source) {
 2463              		.loc 1 110 20 view .LVU743
 2464 00f0 F0EE646A 		vmov.f32	s13, s9
 2465              	.LVL224:
 110:mi/plaits/dsp/fm/operator.h ****       if (i == modulation_source) {
 2466              		.loc 1 110 20 view .LVU744
 2467 00f4 BEE7     		b	.L112
 2468              	.L120:
ARM GAS  /var/folders/9k/zk1mgrrd7wg4__6zvxvr9w8m0000gn/T//ccWZw7sc.s 			page 62


 2469 00f6 00BF     		.align	2
 2470              	.L119:
 2471 00f8 0000804F 		.word	1333788672
 2472 00fc 00000000 		.word	_ZN6plaits8lut_sineE
 2473 0100 00000042 		.word	1107296256
 2474 0104 0000804C 		.word	1283457024
 2475 0108 0000802F 		.word	796917760
 2476              	.LBE432:
 2477              	.LBE438:
 2478              		.cfi_endproc
 2479              	.LFE1475:
 2481              		.section	.text._ZN6plaits2fm15RenderOperatorsILi1ELi0ELb0EEEvPNS0_8OperatorEPKfS5_PfiS5_S6_j,"axG"
 2482              		.align	1
 2483              		.p2align 2,,3
 2484              		.weak	_ZN6plaits2fm15RenderOperatorsILi1ELi0ELb0EEEvPNS0_8OperatorEPKfS5_PfiS5_S6_j
 2485              		.syntax unified
 2486              		.thumb
 2487              		.thumb_func
 2489              	_ZN6plaits2fm15RenderOperatorsILi1ELi0ELb0EEEvPNS0_8OperatorEPKfS5_PfiS5_S6_j:
 2490              	.LVL225:
 2491              	.LFB1478:
  69:mi/plaits/dsp/fm/operator.h ****     Operator* ops,
 2492              		.loc 1 69 6 is_stmt 1 view -0
 2493              		.cfi_startproc
 2494              		@ args = 16, pretend = 0, frame = 0
 2495              		@ frame_needed = 0, uses_anonymous_args = 0
 2496              	.LBB449:
 2497              	.LBB450:
 2498              	.LBB451:
 2499              		.loc 2 235 7 is_stmt 0 view .LVU746
 2500 0000 B6EE007A 		vmov.f32	s14, #5.0e-1
 2501              		.loc 2 235 15 view .LVU747
 2502 0004 D1ED007A 		vldr.32	s15, [r1]
 2503              	.LBE451:
 2504              	.LBE450:
 2505              	.LBE449:
  81:mi/plaits/dsp/fm/operator.h ****     previous_1 = fb_state[1];
 2506              		.loc 1 81 16 view .LVU748
 2507 0008 D3ED006A 		vldr.32	s13, [r3]
 2508              	.LVL226:
  82:mi/plaits/dsp/fm/operator.h ****   }
 2509              		.loc 1 82 16 view .LVU749
 2510 000c 93ED015A 		vldr.32	s10, [r3, #4]
 2511              	.LVL227:
 2512              	.LBB464:
 2513              	.LBB456:
 2514              	.LBB452:
 2515              		.loc 2 235 7 view .LVU750
 2516 0010 F4EEC77A 		vcmpe.f32	s15, s14
 2517              	.LBE452:
 2518              	.LBE456:
 2519              	.LBE464:
  69:mi/plaits/dsp/fm/operator.h ****     Operator* ops,
 2520              		.loc 1 69 6 view .LVU751
 2521 0014 F0B5     		push	{r4, r5, r6, r7, lr}
 2522              		.cfi_def_cfa_offset 20
 2523              		.cfi_offset 4, -20
ARM GAS  /var/folders/9k/zk1mgrrd7wg4__6zvxvr9w8m0000gn/T//ccWZw7sc.s 			page 63


 2524              		.cfi_offset 5, -16
 2525              		.cfi_offset 6, -12
 2526              		.cfi_offset 7, -8
 2527              		.cfi_offset 14, -4
 2528              	.LBB465:
 2529              	.LBB457:
 2530              	.LBB453:
 2531              		.loc 2 235 7 view .LVU752
 2532 0016 F1EE10FA 		vmrs	APSR_nzcv, FPSCR
 2533              	.LBE453:
 2534              	.LBE457:
 2535              	.LBE465:
  69:mi/plaits/dsp/fm/operator.h ****     Operator* ops,
 2536              		.loc 1 69 6 view .LVU753
 2537 001a 059D     		ldr	r5, [sp, #20]
 2538 001c 089C     		ldr	r4, [sp, #32]
 2539              	.LVL228:
 2540              	.LBB466:
  91:mi/plaits/dsp/fm/operator.h ****     frequency[i] = static_cast<uint32_t>(std::min(f[i], 0.5f) * 4294967296.0f);
 2541              		.loc 1 91 21 is_stmt 1 view .LVU754
 2542              	.LBB458:
 2543              	.LBI450:
 230:/Library/DaisyToolchain/0.2.0/arm/arm-none-eabi/include/c++/10.3.1/bits/stl_algobase.h ****     {
 2544              		.loc 2 230 5 view .LVU755
 2545              	.LBB454:
 2546              		.loc 2 235 7 is_stmt 0 view .LVU756
 2547 001e 75DC     		bgt	.L129
 2548              	.LBE454:
 2549              	.LBE458:
  92:mi/plaits/dsp/fm/operator.h ****     phase[i] = ops[i].phase;
 2550              		.loc 1 92 63 view .LVU757
 2551 0020 9FED3C7A 		vldr.32	s14, .L135
 2552 0024 67EE877A 		vmul.f32	s15, s15, s14
  92:mi/plaits/dsp/fm/operator.h ****     phase[i] = ops[i].phase;
 2553              		.loc 1 92 20 view .LVU758
 2554 0028 FCEEE77A 		vcvt.u32.f32	s15, s15
 2555 002c 17EE901A 		vmov	r1, s15	@ int
 2556              	.LVL229:
 2557              	.L122:
 2558              	.LBB459:
 2559              	.LBB460:
 2560              		.loc 2 235 7 view .LVU759
 2561 0030 B1EE007A 		vmov.f32	s14, #4.0e+0
 2562              		.loc 2 235 15 view .LVU760
 2563 0034 D2ED007A 		vldr.32	s15, [r2]
 2564              	.LBE460:
 2565              	.LBE459:
  94:mi/plaits/dsp/fm/operator.h ****     amplitude_increment[i] = (std::min(a[i], 4.0f) - amplitude[i]) * scale;
 2566              		.loc 1 94 27 view .LVU761
 2567 0038 90ED016A 		vldr.32	s12, [r0, #4]
  93:mi/plaits/dsp/fm/operator.h ****     amplitude[i] = ops[i].amplitude;
 2568              		.loc 1 93 23 view .LVU762
 2569 003c 0268     		ldr	r2, [r0]
 2570              	.LVL230:
 2571              	.LBB462:
 2572              	.LBI459:
 230:/Library/DaisyToolchain/0.2.0/arm/arm-none-eabi/include/c++/10.3.1/bits/stl_algobase.h ****     {
ARM GAS  /var/folders/9k/zk1mgrrd7wg4__6zvxvr9w8m0000gn/T//ccWZw7sc.s 			page 64


 2573              		.loc 2 230 5 is_stmt 1 view .LVU763
 2574              	.LBB461:
 2575              		.loc 2 235 7 is_stmt 0 view .LVU764
 2576 003e F4EE477A 		vcmp.f32	s15, s14
 2577 0042 F1EE10FA 		vmrs	APSR_nzcv, FPSCR
 2578 0046 77FE277A 		vselgt.f32	s15, s14, s15
 2579              	.LVL231:
 2580              		.loc 2 235 7 view .LVU765
 2581              	.LBE461:
 2582              	.LBE462:
  91:mi/plaits/dsp/fm/operator.h ****     frequency[i] = static_cast<uint32_t>(std::min(f[i], 0.5f) * 4294967296.0f);
 2583              		.loc 1 91 3 is_stmt 1 view .LVU766
  91:mi/plaits/dsp/fm/operator.h ****     frequency[i] = static_cast<uint32_t>(std::min(f[i], 0.5f) * 4294967296.0f);
 2584              		.loc 1 91 21 view .LVU767
 2585              	.LBE466:
  98:mi/plaits/dsp/fm/operator.h **** 
 2586              		.loc 1 98 36 is_stmt 0 view .LVU768
 2587 004a 85B1     		cbz	r5, .L130
  98:mi/plaits/dsp/fm/operator.h **** 
 2588              		.loc 1 98 46 discriminator 1 view .LVU769
 2589 004c 4FF0010C 		mov	ip, #1
 2590 0050 0CFA05F5 		lsl	r5, ip, r5
 2591 0054 05EE905A 		vmov	s11, r5	@ int
  98:mi/plaits/dsp/fm/operator.h **** 
 2592              		.loc 1 98 36 discriminator 1 view .LVU770
 2593 0058 FAEEEB5A 		vcvt.f32.s32	s11, s11, #9
 2594              	.LVL232:
 100:mi/plaits/dsp/fm/operator.h ****     float pm = 0.0f;
 2595              		.loc 1 100 3 is_stmt 1 discriminator 1 view .LVU771
 100:mi/plaits/dsp/fm/operator.h ****     float pm = 0.0f;
 2596              		.loc 1 100 3 is_stmt 0 discriminator 1 view .LVU772
 2597 005c 5CB9     		cbnz	r4, .L126
 2598              	.LVL233:
 2599              	.L128:
 2600              	.LBB467:
 123:mi/plaits/dsp/fm/operator.h ****     ops[i].phase = phase[i];
 2601              		.loc 1 123 21 is_stmt 1 view .LVU773
 124:mi/plaits/dsp/fm/operator.h ****     ops[i].amplitude = amplitude[i];
 2602              		.loc 1 124 18 is_stmt 0 view .LVU774
 2603 005e 0260     		str	r2, [r0]
 125:mi/plaits/dsp/fm/operator.h ****   }
 2604              		.loc 1 125 22 view .LVU775
 2605 0060 80ED016A 		vstr.32	s12, [r0, #4]
 123:mi/plaits/dsp/fm/operator.h ****     ops[i].phase = phase[i];
 2606              		.loc 1 123 3 is_stmt 1 view .LVU776
 2607              	.LVL234:
 123:mi/plaits/dsp/fm/operator.h ****     ops[i].phase = phase[i];
 2608              		.loc 1 123 21 view .LVU777
 2609              	.LBE467:
 129:mi/plaits/dsp/fm/operator.h ****     fb_state[1] = previous_1;
 2610              		.loc 1 129 17 is_stmt 0 view .LVU778
 2611 0064 C3ED006A 		vstr.32	s13, [r3]
 130:mi/plaits/dsp/fm/operator.h ****   }
 2612              		.loc 1 130 17 view .LVU779
 2613 0068 83ED015A 		vstr.32	s10, [r3, #4]
 2614              	.LVL235:
 2615              		.loc 1 132 1 view .LVU780
ARM GAS  /var/folders/9k/zk1mgrrd7wg4__6zvxvr9w8m0000gn/T//ccWZw7sc.s 			page 65


 2616 006c F0BD     		pop	{r4, r5, r6, r7, pc}
 2617              	.LVL236:
 2618              	.L130:
  98:mi/plaits/dsp/fm/operator.h **** 
 2619              		.loc 1 98 36 view .LVU781
 2620 006e DFED2A5A 		vldr.32	s11, .L135+4
 2621              	.LVL237:
 100:mi/plaits/dsp/fm/operator.h ****     float pm = 0.0f;
 2622              		.loc 1 100 3 is_stmt 1 view .LVU782
 100:mi/plaits/dsp/fm/operator.h ****     float pm = 0.0f;
 2623              		.loc 1 100 3 is_stmt 0 view .LVU783
 2624 0072 002C     		cmp	r4, #0
 2625 0074 F3D0     		beq	.L128
 2626              	.LVL238:
 2627              	.L126:
  90:mi/plaits/dsp/fm/operator.h ****   for (int i = 0; i < n; ++i) {
 2628              		.loc 1 90 30 view .LVU784
 2629 0076 07EE104A 		vmov	s14, r4	@ int
  90:mi/plaits/dsp/fm/operator.h ****   for (int i = 0; i < n; ++i) {
 2630              		.loc 1 90 15 view .LVU785
 2631 007a B7EE004A 		vmov.f32	s8, #1.0e+0
 2632              	.LBB468:
  95:mi/plaits/dsp/fm/operator.h ****   }
 2633              		.loc 1 95 52 view .LVU786
 2634 007e 77EEC67A 		vsub.f32	s15, s15, s12
 2635              	.LVL239:
  95:mi/plaits/dsp/fm/operator.h ****   }
 2636              		.loc 1 95 52 view .LVU787
 2637              	.LBE468:
 100:mi/plaits/dsp/fm/operator.h ****     float pm = 0.0f;
 2638              		.loc 1 100 3 view .LVU788
 2639 0082 013C     		subs	r4, r4, #1
 2640              	.LVL240:
  90:mi/plaits/dsp/fm/operator.h ****   for (int i = 0; i < n; ++i) {
 2641              		.loc 1 90 30 view .LVU789
 2642 0084 B8EE477A 		vcvt.f32.u32	s14, s14
 2643 0088 02EB010C 		add	ip, r2, r1
 100:mi/plaits/dsp/fm/operator.h ****     float pm = 0.0f;
 2644              		.loc 1 100 3 view .LVU790
 2645 008c A646     		mov	lr, r4
 2646 008e 234F     		ldr	r7, .L135+8
 2647 0090 6646     		mov	r6, ip
  90:mi/plaits/dsp/fm/operator.h ****   for (int i = 0; i < n; ++i) {
 2648              		.loc 1 90 15 view .LVU791
 2649 0092 C4EE074A 		vdiv.f32	s9, s8, s14
 2650              	.LBB469:
  95:mi/plaits/dsp/fm/operator.h ****   }
 2651              		.loc 1 95 68 view .LVU792
 2652 0096 64EEA74A 		vmul.f32	s9, s9, s15
 2653              	.LVL241:
 2654              	.L127:
  95:mi/plaits/dsp/fm/operator.h ****   }
 2655              		.loc 1 95 68 view .LVU793
 2656              	.LBE469:
 2657              	.LBB470:
 2658              	.LBB471:
 107:mi/plaits/dsp/fm/operator.h ****       phase[i] += frequency[i];
ARM GAS  /var/folders/9k/zk1mgrrd7wg4__6zvxvr9w8m0000gn/T//ccWZw7sc.s 			page 66


 2659              		.loc 1 107 23 is_stmt 1 view .LVU794
 2660              	.LBB472:
 2661              	.LBI472:
  58:mi/plaits/dsp/oscillator/sine_oscillator.h ****   const float max_uint32 = 4294967296.0f;
 2662              		.loc 3 58 14 view .LVU795
 2663              	.LBB473:
  59:mi/plaits/dsp/oscillator/sine_oscillator.h ****   const int max_index = 32;
 2664              		.loc 3 59 3 view .LVU796
  60:mi/plaits/dsp/oscillator/sine_oscillator.h ****   const float offset = float(max_index);
 2665              		.loc 3 60 3 view .LVU797
  61:mi/plaits/dsp/oscillator/sine_oscillator.h ****   const float scale = max_uint32 / float(max_index * 2);
 2666              		.loc 3 61 3 view .LVU798
  62:mi/plaits/dsp/oscillator/sine_oscillator.h **** 
 2667              		.loc 3 62 3 view .LVU799
  64:mi/plaits/dsp/oscillator/sine_oscillator.h ****   
 2668              		.loc 3 64 3 view .LVU800
 2669              	.LBE473:
 2670              	.LBE472:
 2671              	.LBE471:
 103:mi/plaits/dsp/fm/operator.h ****     } else if (modulation_source == Operator::MODULATION_SOURCE_EXTERNAL) {
 2672              		.loc 1 103 24 is_stmt 0 view .LVU801
 2673 009a 75EE263A 		vadd.f32	s7, s10, s13
 2674              	.LBB484:
 2675              	.LBB479:
 2676              	.LBB474:
  64:mi/plaits/dsp/oscillator/sine_oscillator.h ****   
 2677              		.loc 3 64 38 view .LVU802
 2678 009e 9FED207A 		vldr.32	s14, .L135+12
  64:mi/plaits/dsp/oscillator/sine_oscillator.h ****   
 2679              		.loc 3 64 48 view .LVU803
 2680 00a2 DFED207A 		vldr.32	s15, .L135+16
 2681 00a6 B0EE665A 		vmov.f32	s10, s13
 2682              	.LVL242:
  67:mi/plaits/dsp/oscillator/sine_oscillator.h ****   float a = lut_sine[integral];
 2683              		.loc 3 67 9 view .LVU804
 2684 00aa 9FED1F4A 		vldr.32	s8, .L135+20
 2685              	.LBE474:
 2686              	.LBE479:
 2687              	.LBE484:
 2688              	.LBE470:
 100:mi/plaits/dsp/fm/operator.h ****     float pm = 0.0f;
 2689              		.loc 1 100 3 view .LVU805
 2690 00ae 0EF1FF3E 		add	lr, lr, #-1
 2691              	.LVL243:
 2692              	.LBB489:
 2693              	.LBB485:
 2694              	.LBB480:
 2695              	.LBB475:
  64:mi/plaits/dsp/oscillator/sine_oscillator.h ****   
 2696              		.loc 3 64 38 view .LVU806
 2697 00b2 A3EEA57A 		vfma.f32	s14, s7, s11
 2698              	.LBE475:
 2699              	.LBE480:
 2700              	.LBE485:
 2701              	.LBE489:
 100:mi/plaits/dsp/fm/operator.h ****     float pm = 0.0f;
 2702              		.loc 1 100 3 view .LVU807
ARM GAS  /var/folders/9k/zk1mgrrd7wg4__6zvxvr9w8m0000gn/T//ccWZw7sc.s 			page 67


 2703 00b6 BEF1FF3F 		cmp	lr, #-1
 2704              	.LBB490:
 2705              	.LBB486:
 2706              	.LBB481:
 2707              	.LBB476:
  64:mi/plaits/dsp/oscillator/sine_oscillator.h ****   
 2708              		.loc 3 64 48 view .LVU808
 2709 00ba 27EE277A 		vmul.f32	s14, s14, s15
  64:mi/plaits/dsp/oscillator/sine_oscillator.h ****   
 2710              		.loc 3 64 12 view .LVU809
 2711 00be FCEEC77A 		vcvt.u32.f32	s15, s14
 2712 00c2 17EE902A 		vmov	r2, s15	@ int
  64:mi/plaits/dsp/oscillator/sine_oscillator.h ****   
 2713              		.loc 3 64 9 view .LVU810
 2714 00c6 06EB8212 		add	r2, r6, r2, lsl #6
 2715              	.LVL244:
  66:mi/plaits/dsp/oscillator/sine_oscillator.h ****   float fractional = static_cast<float>(phase << kSineLUTBits) / float(max_uint32);
 2716              		.loc 3 66 3 is_stmt 1 view .LVU811
 2717              	.LBE476:
 2718              	.LBE481:
 2719              	.LBE486:
 2720              	.LBE490:
 100:mi/plaits/dsp/fm/operator.h ****     float pm = 0.0f;
 2721              		.loc 1 100 3 is_stmt 0 view .LVU812
 2722 00ca 0E44     		add	r6, r6, r1
 2723              	.LVL245:
 2724              	.LBB491:
 2725              	.LBB487:
 2726              	.LBB482:
 2727              	.LBB477:
  66:mi/plaits/dsp/oscillator/sine_oscillator.h ****   float fractional = static_cast<float>(phase << kSineLUTBits) / float(max_uint32);
 2728              		.loc 3 66 12 view .LVU813
 2729 00cc 4FEAD255 		lsr	r5, r2, #23
 2730              	.LVL246:
  67:mi/plaits/dsp/oscillator/sine_oscillator.h ****   float a = lut_sine[integral];
 2731              		.loc 3 67 3 is_stmt 1 view .LVU814
  68:mi/plaits/dsp/oscillator/sine_oscillator.h ****   float b = lut_sine[integral + 1];
 2732              		.loc 3 68 3 view .LVU815
  67:mi/plaits/dsp/oscillator/sine_oscillator.h ****   float a = lut_sine[integral];
 2733              		.loc 3 67 47 is_stmt 0 view .LVU816
 2734 00d0 4FEA4222 		lsl	r2, r2, #9
 2735              	.LVL247:
  67:mi/plaits/dsp/oscillator/sine_oscillator.h ****   float a = lut_sine[integral];
 2736              		.loc 3 67 47 view .LVU817
 2737 00d4 07EE902A 		vmov	s15, r2	@ int
  69:mi/plaits/dsp/oscillator/sine_oscillator.h ****   return a + (b - a) * fractional;
 2738              		.loc 3 69 9 view .LVU818
 2739 00d8 07EB8502 		add	r2, r7, r5, lsl #2
  67:mi/plaits/dsp/oscillator/sine_oscillator.h ****   float a = lut_sine[integral];
 2740              		.loc 3 67 22 view .LVU819
 2741 00dc F8EE677A 		vcvt.f32.u32	s15, s15
  68:mi/plaits/dsp/oscillator/sine_oscillator.h ****   float b = lut_sine[integral + 1];
 2742              		.loc 3 68 9 view .LVU820
 2743 00e0 D2ED006A 		vldr.32	s13, [r2]
 2744              	.LVL248:
  69:mi/plaits/dsp/oscillator/sine_oscillator.h ****   return a + (b - a) * fractional;
 2745              		.loc 3 69 3 is_stmt 1 view .LVU821
ARM GAS  /var/folders/9k/zk1mgrrd7wg4__6zvxvr9w8m0000gn/T//ccWZw7sc.s 			page 68


 2746              		.loc 3 70 3 view .LVU822
 2747              		.loc 3 70 17 is_stmt 0 view .LVU823
 2748 00e4 92ED017A 		vldr.32	s14, [r2, #4]
 2749              		.loc 3 70 17 view .LVU824
 2750              	.LBE477:
 2751              	.LBE482:
 2752              	.LBE487:
 119:mi/plaits/dsp/fm/operator.h ****     }
 2753              		.loc 1 119 14 view .LVU825
 2754 00e8 079A     		ldr	r2, [sp, #28]
 2755              	.LBB488:
 2756              	.LBB483:
 2757              	.LBB478:
  67:mi/plaits/dsp/oscillator/sine_oscillator.h ****   float a = lut_sine[integral];
 2758              		.loc 3 67 9 view .LVU826
 2759 00ea 67EE847A 		vmul.f32	s15, s15, s8
 2760              	.LVL249:
 2761              		.loc 3 70 17 view .LVU827
 2762 00ee 37EE667A 		vsub.f32	s14, s14, s13
 2763              		.loc 3 70 24 view .LVU828
 2764 00f2 E7EE876A 		vfma.f32	s13, s15, s14
 2765              	.LVL250:
 2766              		.loc 3 70 24 view .LVU829
 2767              	.LBE478:
 2768              	.LBE483:
 109:mi/plaits/dsp/fm/operator.h ****       amplitude[i] += amplitude_increment[i];
 2769              		.loc 1 109 10 view .LVU830
 2770 00f6 66EE266A 		vmul.f32	s13, s12, s13
 2771              	.LVL251:
 110:mi/plaits/dsp/fm/operator.h ****       if (i == modulation_source) {
 2772              		.loc 1 110 20 view .LVU831
 2773 00fa 36EE246A 		vadd.f32	s12, s12, s9
 2774              	.LVL252:
 107:mi/plaits/dsp/fm/operator.h ****       phase[i] += frequency[i];
 2775              		.loc 1 107 5 is_stmt 1 view .LVU832
 107:mi/plaits/dsp/fm/operator.h ****       phase[i] += frequency[i];
 2776              		.loc 1 107 23 view .LVU833
 107:mi/plaits/dsp/fm/operator.h ****       phase[i] += frequency[i];
 2777              		.loc 1 107 23 is_stmt 0 view .LVU834
 2778              	.LBE488:
 119:mi/plaits/dsp/fm/operator.h ****     }
 2779              		.loc 1 119 14 view .LVU835
 2780 00fe E2EC016A 		vstmia.32	r2!, {s13}
 2781              	.LVL253:
 119:mi/plaits/dsp/fm/operator.h ****     }
 2782              		.loc 1 119 14 view .LVU836
 2783 0102 0792     		str	r2, [sp, #28]
 2784              	.LVL254:
 119:mi/plaits/dsp/fm/operator.h ****     }
 2785              		.loc 1 119 14 view .LVU837
 2786              	.LBE491:
 100:mi/plaits/dsp/fm/operator.h ****     float pm = 0.0f;
 2787              		.loc 1 100 3 is_stmt 1 view .LVU838
 100:mi/plaits/dsp/fm/operator.h ****     float pm = 0.0f;
 2788              		.loc 1 100 3 is_stmt 0 view .LVU839
 2789 0104 C9D1     		bne	.L127
 100:mi/plaits/dsp/fm/operator.h ****     float pm = 0.0f;
ARM GAS  /var/folders/9k/zk1mgrrd7wg4__6zvxvr9w8m0000gn/T//ccWZw7sc.s 			page 69


 2790              		.loc 1 100 3 view .LVU840
 2791 0106 01FB04C2 		mla	r2, r1, r4, ip
 2792              	.LVL255:
 100:mi/plaits/dsp/fm/operator.h ****     float pm = 0.0f;
 2793              		.loc 1 100 3 view .LVU841
 2794 010a A8E7     		b	.L128
 2795              	.LVL256:
 2796              	.L129:
 2797              	.LBB492:
 2798              	.LBB463:
 2799              	.LBB455:
 100:mi/plaits/dsp/fm/operator.h ****     float pm = 0.0f;
 2800              		.loc 1 100 3 view .LVU842
 2801 010c 4FF00041 		mov	r1, #-2147483648
 2802              	.LVL257:
 100:mi/plaits/dsp/fm/operator.h ****     float pm = 0.0f;
 2803              		.loc 1 100 3 view .LVU843
 2804 0110 8EE7     		b	.L122
 2805              	.L136:
 2806 0112 00BF     		.align	2
 2807              	.L135:
 2808 0114 0000804F 		.word	1333788672
 2809 0118 00000000 		.word	0
 2810 011c 00000000 		.word	_ZN6plaits8lut_sineE
 2811 0120 00000042 		.word	1107296256
 2812 0124 0000804C 		.word	1283457024
 2813 0128 0000802F 		.word	796917760
 2814              	.LBE455:
 2815              	.LBE463:
 2816              	.LBE492:
 2817              		.cfi_endproc
 2818              	.LFE1478:
 2820              		.global	_ZN6plaits2fm10AlgorithmsILi6EE10renderers_E
 2821              		.global	_ZN6plaits2fm10AlgorithmsILi4EE10renderers_E
 2822              		.global	_ZN6plaits2fm10AlgorithmsILi6EE8opcodes_E
 2823              		.global	_ZN6plaits2fm10AlgorithmsILi4EE8opcodes_E
 2824              		.section	.rodata._ZN6plaits2fm10AlgorithmsILi4EE10renderers_E,"a"
 2825              		.align	2
 2828              	_ZN6plaits2fm10AlgorithmsILi4EE10renderers_E:
 2829 0000 01000000 		.word	1
 2830 0004 FEFFFFFF 		.word	-2
 2831 0008 00       		.byte	0
 2832 0009 000000   		.space	3
 2833 000c 00000000 		.word	_ZN6plaits2fm15RenderOperatorsILi1ELin2ELb0EEEvPNS0_8OperatorEPKfS5_PfiS5_S6_j
 2834 0010 01000000 		.word	1
 2835 0014 FEFFFFFF 		.word	-2
 2836 0018 01       		.byte	1
 2837 0019 000000   		.space	3
 2838 001c 00000000 		.word	_ZN6plaits2fm15RenderOperatorsILi1ELin2ELb1EEEvPNS0_8OperatorEPKfS5_PfiS5_S6_j
 2839 0020 01000000 		.word	1
 2840 0024 FFFFFFFF 		.word	-1
 2841 0028 00       		.byte	0
 2842 0029 000000   		.space	3
 2843 002c 00000000 		.word	_ZN6plaits2fm15RenderOperatorsILi1ELin1ELb0EEEvPNS0_8OperatorEPKfS5_PfiS5_S6_j
 2844 0030 01000000 		.word	1
 2845 0034 FFFFFFFF 		.word	-1
 2846 0038 01       		.byte	1
ARM GAS  /var/folders/9k/zk1mgrrd7wg4__6zvxvr9w8m0000gn/T//ccWZw7sc.s 			page 70


 2847 0039 000000   		.space	3
 2848 003c 00000000 		.word	_ZN6plaits2fm15RenderOperatorsILi1ELin1ELb1EEEvPNS0_8OperatorEPKfS5_PfiS5_S6_j
 2849 0040 01000000 		.word	1
 2850 0044 00000000 		.word	0
 2851 0048 00       		.byte	0
 2852 0049 000000   		.space	3
 2853 004c 00000000 		.word	_ZN6plaits2fm15RenderOperatorsILi1ELi0ELb0EEEvPNS0_8OperatorEPKfS5_PfiS5_S6_j
 2854 0050 01000000 		.word	1
 2855 0054 00000000 		.word	0
 2856 0058 01       		.byte	1
 2857 0059 000000   		.space	3
 2858 005c 00000000 		.word	_ZN6plaits2fm15RenderOperatorsILi1ELi0ELb1EEEvPNS0_8OperatorEPKfS5_PfiS5_S6_j
 2859 0060 00000000 		.word	0
 2860 0064 00000000 		.word	0
 2861 0068 00       		.byte	0
 2862 0069 000000   		.space	3
 2863 006c 00000000 		.word	0
 2864              		.section	.rodata._ZN6plaits2fm10AlgorithmsILi4EE8opcodes_E,"a"
 2865              		.align	2
 2868              	_ZN6plaits2fm10AlgorithmsILi4EE8opcodes_E:
 2869 0000 71111114 		.ascii	"q\021\021\024"
 2870 0004 71051114 		.ascii	"q\005\021\024"
 2871 0008 71022514 		.ascii	"q\002%\024"
 2872 000c 71110514 		.ascii	"q\021\005\024"
 2873 0010 71140114 		.ascii	"q\024\001\024"
 2874 0014 71141414 		.ascii	"q\024\024\024"
 2875 0018 71140404 		.ascii	"q\024\004\004"
 2876 001c 74040404 		.ascii	"t\004\004\004"
 2877              		.section	.rodata._ZN6plaits2fm10AlgorithmsILi6EE10renderers_E,"a"
 2878              		.align	2
 2881              	_ZN6plaits2fm10AlgorithmsILi6EE10renderers_E:
 2882 0000 01000000 		.word	1
 2883 0004 FEFFFFFF 		.word	-2
 2884 0008 00       		.byte	0
 2885 0009 000000   		.space	3
 2886 000c 00000000 		.word	_ZN6plaits2fm15RenderOperatorsILi1ELin2ELb0EEEvPNS0_8OperatorEPKfS5_PfiS5_S6_j
 2887 0010 01000000 		.word	1
 2888 0014 FEFFFFFF 		.word	-2
 2889 0018 01       		.byte	1
 2890 0019 000000   		.space	3
 2891 001c 00000000 		.word	_ZN6plaits2fm15RenderOperatorsILi1ELin2ELb1EEEvPNS0_8OperatorEPKfS5_PfiS5_S6_j
 2892 0020 01000000 		.word	1
 2893 0024 FFFFFFFF 		.word	-1
 2894 0028 00       		.byte	0
 2895 0029 000000   		.space	3
 2896 002c 00000000 		.word	_ZN6plaits2fm15RenderOperatorsILi1ELin1ELb0EEEvPNS0_8OperatorEPKfS5_PfiS5_S6_j
 2897 0030 01000000 		.word	1
 2898 0034 FFFFFFFF 		.word	-1
 2899 0038 01       		.byte	1
 2900 0039 000000   		.space	3
 2901 003c 00000000 		.word	_ZN6plaits2fm15RenderOperatorsILi1ELin1ELb1EEEvPNS0_8OperatorEPKfS5_PfiS5_S6_j
 2902 0040 01000000 		.word	1
 2903 0044 00000000 		.word	0
 2904 0048 00       		.byte	0
 2905 0049 000000   		.space	3
 2906 004c 00000000 		.word	_ZN6plaits2fm15RenderOperatorsILi1ELi0ELb0EEEvPNS0_8OperatorEPKfS5_PfiS5_S6_j
 2907 0050 01000000 		.word	1
ARM GAS  /var/folders/9k/zk1mgrrd7wg4__6zvxvr9w8m0000gn/T//ccWZw7sc.s 			page 71


 2908 0054 00000000 		.word	0
 2909 0058 01       		.byte	1
 2910 0059 000000   		.space	3
 2911 005c 00000000 		.word	_ZN6plaits2fm15RenderOperatorsILi1ELi0ELb1EEEvPNS0_8OperatorEPKfS5_PfiS5_S6_j
 2912 0060 03000000 		.word	3
 2913 0064 02000000 		.word	2
 2914 0068 01       		.byte	1
 2915 0069 000000   		.space	3
 2916 006c 00000000 		.word	_ZN6plaits2fm15RenderOperatorsILi3ELi2ELb1EEEvPNS0_8OperatorEPKfS5_PfiS5_S6_j
 2917 0070 02000000 		.word	2
 2918 0074 01000000 		.word	1
 2919 0078 01       		.byte	1
 2920 0079 000000   		.space	3
 2921 007c 00000000 		.word	_ZN6plaits2fm15RenderOperatorsILi2ELi1ELb1EEEvPNS0_8OperatorEPKfS5_PfiS5_S6_j
 2922 0080 00000000 		.word	0
 2923 0084 00000000 		.word	0
 2924 0088 00       		.byte	0
 2925 0089 000000   		.space	3
 2926 008c 00000000 		.word	0
 2927              		.section	.rodata._ZN6plaits2fm10AlgorithmsILi6EE8opcodes_E,"a"
 2928              		.align	2
 2931              	_ZN6plaits2fm10AlgorithmsILi6EE8opcodes_E:
 2932 0000 71111114 		.ascii	"q\021\021\024\001\024"
 2932      0114
 2933 0006 01111114 		.ascii	"\001\021\021\024q\024"
 2933      7114
 2934 000c 71111401 		.ascii	"q\021\024\001\021\024"
 2934      1114
 2935 0012 31115401 		.ascii	"1\021T\001\021\024"
 2935      1114
 2936 0018 71140114 		.ascii	"q\024\001\024\001\024"
 2936      0114
 2937 001e 31540114 		.ascii	"1T\001\024\001\024"
 2937      0114
 2938 0024 71110514 		.ascii	"q\021\005\024\001\024"
 2938      0114
 2939 002a 01117514 		.ascii	"\001\021u\024\001\024"
 2939      0114
 2940 0030 01110514 		.ascii	"\001\021\005\024q\024"
 2940      7114
 2941 0036 01051471 		.ascii	"\001\005\024q\021\024"
 2941      1114
 2942 003c 71051401 		.ascii	"q\005\024\001\021\024"
 2942      1114
 2943 0042 01050514 		.ascii	"\001\005\005\024q\024"
 2943      7114
 2944 0048 71050514 		.ascii	"q\005\005\024\001\024"
 2944      0114
 2945 004e 71051114 		.ascii	"q\005\021\024\001\024"
 2945      0114
 2946 0054 01051114 		.ascii	"\001\005\021\024q\024"
 2946      7114
 2947 005a 71110225 		.ascii	"q\021\002%\005\024"
 2947      0514
 2948 0060 01110225 		.ascii	"\001\021\002%u\024"
 2948      7514
 2949 0066 01111175 		.ascii	"\001\021\021u\005\024"
ARM GAS  /var/folders/9k/zk1mgrrd7wg4__6zvxvr9w8m0000gn/T//ccWZw7sc.s 			page 72


 2949      0514
 2950 006c 71141401 		.ascii	"q\024\024\001\021\024"
 2950      1114
 2951 0072 01051471 		.ascii	"\001\005\024q\024\024"
 2951      1414
 2952 0078 01141471 		.ascii	"\001\024\024q\024\024"
 2952      1414
 2953 007e 71141414 		.ascii	"q\024\024\024\001\024"
 2953      0114
 2954 0084 71141401 		.ascii	"q\024\024\001\024\004"
 2954      1404
 2955 008a 71141414 		.ascii	"q\024\024\024\004\004"
 2955      0404
 2956 0090 71141404 		.ascii	"q\024\024\004\004\004"
 2956      0404
 2957 0096 71051401 		.ascii	"q\005\024\001\024\004"
 2957      1404
 2958 009c 01051471 		.ascii	"\001\005\024q\024\004"
 2958      1404
 2959 00a2 04711114 		.ascii	"\004q\021\024\001\024"
 2959      0114
 2960 00a8 71140114 		.ascii	"q\024\001\024\004\004"
 2960      0404
 2961 00ae 04711114 		.ascii	"\004q\021\024\004\004"
 2961      0404
 2962 00b4 71140404 		.ascii	"q\024\004\004\004\004"
 2962      0404
 2963 00ba 74040404 		.ascii	"t\004\004\004\004\004"
 2963      0404
 2964              		.text
 2965              	.Letext0:
 2966              		.file 4 "/Library/DaisyToolchain/0.2.0/arm/arm-none-eabi/include/machine/_default_types.h"
 2967              		.file 5 "/Library/DaisyToolchain/0.2.0/arm/arm-none-eabi/include/sys/_stdint.h"
 2968              		.file 6 "/Library/DaisyToolchain/0.2.0/arm/lib/gcc/arm-none-eabi/10.3.1/include/stddef.h"
 2969              		.file 7 "/Library/DaisyToolchain/0.2.0/arm/arm-none-eabi/include/c++/10.3.1/cmath"
 2970              		.file 8 "/Library/DaisyToolchain/0.2.0/arm/arm-none-eabi/include/c++/10.3.1/bits/std_abs.h"
 2971              		.file 9 "/Library/DaisyToolchain/0.2.0/arm/arm-none-eabi/include/c++/10.3.1/type_traits"
 2972              		.file 10 "/Library/DaisyToolchain/0.2.0/arm/arm-none-eabi/include/c++/10.3.1/debug/debug.h"
 2973              		.file 11 "/Library/DaisyToolchain/0.2.0/arm/arm-none-eabi/include/c++/10.3.1/cstdlib"
 2974              		.file 12 "/Library/DaisyToolchain/0.2.0/arm/arm-none-eabi/include/c++/10.3.1/arm-none-eabi/thumb/v
 2975              		.file 13 "/Library/DaisyToolchain/0.2.0/arm/arm-none-eabi/include/c++/10.3.1/bits/algorithmfwd.h"
 2976              		.file 14 "/Library/DaisyToolchain/0.2.0/arm/arm-none-eabi/include/c++/10.3.1/bits/stl_pair.h"
 2977              		.file 15 "/Library/DaisyToolchain/0.2.0/arm/arm-none-eabi/include/c++/10.3.1/bits/exception_ptr.h"
 2978              		.file 16 "/Library/DaisyToolchain/0.2.0/arm/arm-none-eabi/include/c++/10.3.1/bits/predefined_ops.h
 2979              		.file 17 "/Library/DaisyToolchain/0.2.0/arm/arm-none-eabi/include/math.h"
 2980              		.file 18 "/Library/DaisyToolchain/0.2.0/arm/arm-none-eabi/include/stdlib.h"
 2981              		.file 19 "/Library/DaisyToolchain/0.2.0/arm/arm-none-eabi/include/c++/10.3.1/math.h"
 2982              		.file 20 "mi/stmlib/stmlib.h"
 2983              		.file 21 "mi/plaits/resources.h"
 2984              		.file 22 "mi/plaits/dsp/fm/algorithms.h"
 2985              		.file 23 "mi/plaits/dsp/fm/algorithms.cpp"
 2986              		.file 24 "<built-in>"
ARM GAS  /var/folders/9k/zk1mgrrd7wg4__6zvxvr9w8m0000gn/T//ccWZw7sc.s 			page 73

