ARM GAS  /var/folders/9k/zk1mgrrd7wg4__6zvxvr9w8m0000gn/T//cc4BDeRe.s 			page 1


   1              		.cpu cortex-m7
   2              		.arch armv7e-m
   3              		.fpu fpv5-d16
   4              		.eabi_attribute 28, 1
   5              		.eabi_attribute 20, 1
   6              		.eabi_attribute 21, 1
   7              		.eabi_attribute 23, 3
   8              		.eabi_attribute 24, 1
   9              		.eabi_attribute 25, 1
  10              		.eabi_attribute 26, 1
  11              		.eabi_attribute 30, 2
  12              		.eabi_attribute 34, 1
  13              		.eabi_attribute 18, 4
  14              		.file	"chiptune_engine.cpp"
  15              		.text
  16              	.Ltext0:
  17              		.cfi_sections	.debug_frame
  18              		.section	.text._ZN6plaits14ChiptuneEngine12LoadUserDataEPKh,"axG",%progbits,_ZN6plaits14ChiptuneEn
  19              		.align	1
  20              		.p2align 2,,3
  21              		.weak	_ZN6plaits14ChiptuneEngine12LoadUserDataEPKh
  22              		.syntax unified
  23              		.thumb
  24              		.thumb_func
  26              	_ZN6plaits14ChiptuneEngine12LoadUserDataEPKh:
  27              	.LVL0:
  28              	.LFB1557:
  29              		.file 1 "mi/plaits/dsp/engine2/chiptune_engine.h"
   1:mi/plaits/dsp/engine2/chiptune_engine.h **** // Copyright 2021 Emilie Gillet.
   2:mi/plaits/dsp/engine2/chiptune_engine.h **** //
   3:mi/plaits/dsp/engine2/chiptune_engine.h **** // Author: Emilie Gillet (emilie.o.gillet@gmail.com)
   4:mi/plaits/dsp/engine2/chiptune_engine.h **** //
   5:mi/plaits/dsp/engine2/chiptune_engine.h **** // Permission is hereby granted, free of charge, to any person obtaining a copy
   6:mi/plaits/dsp/engine2/chiptune_engine.h **** // of this software and associated documentation files (the "Software"), to deal
   7:mi/plaits/dsp/engine2/chiptune_engine.h **** // in the Software without restriction, including without limitation the rights
   8:mi/plaits/dsp/engine2/chiptune_engine.h **** // to use, copy, modify, merge, publish, distribute, sublicense, and/or sell
   9:mi/plaits/dsp/engine2/chiptune_engine.h **** // copies of the Software, and to permit persons to whom the Software is
  10:mi/plaits/dsp/engine2/chiptune_engine.h **** // furnished to do so, subject to the following conditions:
  11:mi/plaits/dsp/engine2/chiptune_engine.h **** // 
  12:mi/plaits/dsp/engine2/chiptune_engine.h **** // The above copyright notice and this permission notice shall be included in
  13:mi/plaits/dsp/engine2/chiptune_engine.h **** // all copies or substantial portions of the Software.
  14:mi/plaits/dsp/engine2/chiptune_engine.h **** // 
  15:mi/plaits/dsp/engine2/chiptune_engine.h **** // THE SOFTWARE IS PROVIDED "AS IS", WITHOUT WARRANTY OF ANY KIND, EXPRESS OR
  16:mi/plaits/dsp/engine2/chiptune_engine.h **** // IMPLIED, INCLUDING BUT NOT LIMITED TO THE WARRANTIES OF MERCHANTABILITY,
  17:mi/plaits/dsp/engine2/chiptune_engine.h **** // FITNESS FOR A PARTICULAR PURPOSE AND NONINFRINGEMENT. IN NO EVENT SHALL THE
  18:mi/plaits/dsp/engine2/chiptune_engine.h **** // AUTHORS OR COPYRIGHT HOLDERS BE LIABLE FOR ANY CLAIM, DAMAGES OR OTHER
  19:mi/plaits/dsp/engine2/chiptune_engine.h **** // LIABILITY, WHETHER IN AN ACTION OF CONTRACT, TORT OR OTHERWISE, ARISING FROM,
  20:mi/plaits/dsp/engine2/chiptune_engine.h **** // OUT OF OR IN CONNECTION WITH THE SOFTWARE OR THE USE OR OTHER DEALINGS IN
  21:mi/plaits/dsp/engine2/chiptune_engine.h **** // THE SOFTWARE.
  22:mi/plaits/dsp/engine2/chiptune_engine.h **** // 
  23:mi/plaits/dsp/engine2/chiptune_engine.h **** // See http://creativecommons.org/licenses/MIT/ for more information.
  24:mi/plaits/dsp/engine2/chiptune_engine.h **** //
  25:mi/plaits/dsp/engine2/chiptune_engine.h **** // -----------------------------------------------------------------------------
  26:mi/plaits/dsp/engine2/chiptune_engine.h **** //
  27:mi/plaits/dsp/engine2/chiptune_engine.h **** // Chiptune waveforms with arpeggiator.
  28:mi/plaits/dsp/engine2/chiptune_engine.h **** 
  29:mi/plaits/dsp/engine2/chiptune_engine.h **** #ifndef PLAITS_DSP_ENGINE_CHIPTUNE_ENGINE_H_
ARM GAS  /var/folders/9k/zk1mgrrd7wg4__6zvxvr9w8m0000gn/T//cc4BDeRe.s 			page 2


  30:mi/plaits/dsp/engine2/chiptune_engine.h **** #define PLAITS_DSP_ENGINE_CHIPTUNE_ENGINE_H_
  31:mi/plaits/dsp/engine2/chiptune_engine.h **** 
  32:mi/plaits/dsp/engine2/chiptune_engine.h **** #include "plaits/dsp/chords/chord_bank.h"
  33:mi/plaits/dsp/engine2/chiptune_engine.h **** #include "plaits/dsp/engine/engine.h"
  34:mi/plaits/dsp/engine2/chiptune_engine.h **** #include "plaits/dsp/engine2/arpeggiator.h"
  35:mi/plaits/dsp/engine2/chiptune_engine.h **** #include "plaits/dsp/oscillator/nes_triangle_oscillator.h"
  36:mi/plaits/dsp/engine2/chiptune_engine.h **** #include "plaits/dsp/oscillator/super_square_oscillator.h"
  37:mi/plaits/dsp/engine2/chiptune_engine.h **** 
  38:mi/plaits/dsp/engine2/chiptune_engine.h **** namespace plaits {
  39:mi/plaits/dsp/engine2/chiptune_engine.h **** 
  40:mi/plaits/dsp/engine2/chiptune_engine.h **** class ChiptuneEngine : public Engine {
  41:mi/plaits/dsp/engine2/chiptune_engine.h ****  public:
  42:mi/plaits/dsp/engine2/chiptune_engine.h ****   ChiptuneEngine() { }
  43:mi/plaits/dsp/engine2/chiptune_engine.h ****   ~ChiptuneEngine() { }
  44:mi/plaits/dsp/engine2/chiptune_engine.h ****   
  45:mi/plaits/dsp/engine2/chiptune_engine.h ****   enum {
  46:mi/plaits/dsp/engine2/chiptune_engine.h ****     NO_ENVELOPE = 2
  47:mi/plaits/dsp/engine2/chiptune_engine.h ****   };
  48:mi/plaits/dsp/engine2/chiptune_engine.h ****   
  49:mi/plaits/dsp/engine2/chiptune_engine.h ****   virtual void Init(stmlib::BufferAllocator* allocator);
  50:mi/plaits/dsp/engine2/chiptune_engine.h ****   virtual void Reset();
  51:mi/plaits/dsp/engine2/chiptune_engine.h ****   virtual void LoadUserData(const uint8_t* user_data) { }
  30              		.loc 1 51 16 view -0
  31              		.cfi_startproc
  32              		@ args = 0, pretend = 0, frame = 0
  33              		@ frame_needed = 0, uses_anonymous_args = 0
  34              		@ link register save eliminated.
  35              		.loc 1 51 57 is_stmt 0 view .LVU1
  36 0000 7047     		bx	lr
  37              		.cfi_endproc
  38              	.LFE1557:
  40 0002 00BF     		.section	.text._ZN6plaits14ChiptuneEngine4InitEPN6stmlib15BufferAllocatorE,"ax",%progbits
  41              		.align	1
  42              		.p2align 2,,3
  43              		.global	_ZN6plaits14ChiptuneEngine4InitEPN6stmlib15BufferAllocatorE
  44              		.syntax unified
  45              		.thumb
  46              		.thumb_func
  48              	_ZN6plaits14ChiptuneEngine4InitEPN6stmlib15BufferAllocatorE:
  49              	.LVL1:
  50              	.LFB1559:
  51              		.file 2 "mi/plaits/dsp/engine2/chiptune_engine.cpp"
   1:mi/plaits/dsp/engine2/chiptune_engine.cpp **** // Copyright 2021 Emilie Gillet.
   2:mi/plaits/dsp/engine2/chiptune_engine.cpp **** //
   3:mi/plaits/dsp/engine2/chiptune_engine.cpp **** // Author: Emilie Gillet (emilie.o.gillet@gmail.com)
   4:mi/plaits/dsp/engine2/chiptune_engine.cpp **** //
   5:mi/plaits/dsp/engine2/chiptune_engine.cpp **** // Permission is hereby granted, free of charge, to any person obtaining a copy
   6:mi/plaits/dsp/engine2/chiptune_engine.cpp **** // of this software and associated documentation files (the "Software"), to deal
   7:mi/plaits/dsp/engine2/chiptune_engine.cpp **** // in the Software without restriction, including without limitation the rights
   8:mi/plaits/dsp/engine2/chiptune_engine.cpp **** // to use, copy, modify, merge, publish, distribute, sublicense, and/or sell
   9:mi/plaits/dsp/engine2/chiptune_engine.cpp **** // copies of the Software, and to permit persons to whom the Software is
  10:mi/plaits/dsp/engine2/chiptune_engine.cpp **** // furnished to do so, subject to the following conditions:
  11:mi/plaits/dsp/engine2/chiptune_engine.cpp **** // 
  12:mi/plaits/dsp/engine2/chiptune_engine.cpp **** // The above copyright notice and this permission notice shall be included in
  13:mi/plaits/dsp/engine2/chiptune_engine.cpp **** // all copies or substantial portions of the Software.
  14:mi/plaits/dsp/engine2/chiptune_engine.cpp **** // 
  15:mi/plaits/dsp/engine2/chiptune_engine.cpp **** // THE SOFTWARE IS PROVIDED "AS IS", WITHOUT WARRANTY OF ANY KIND, EXPRESS OR
ARM GAS  /var/folders/9k/zk1mgrrd7wg4__6zvxvr9w8m0000gn/T//cc4BDeRe.s 			page 3


  16:mi/plaits/dsp/engine2/chiptune_engine.cpp **** // IMPLIED, INCLUDING BUT NOT LIMITED TO THE WARRANTIES OF MERCHANTABILITY,
  17:mi/plaits/dsp/engine2/chiptune_engine.cpp **** // FITNESS FOR A PARTICULAR PURPOSE AND NONINFRINGEMENT. IN NO EVENT SHALL THE
  18:mi/plaits/dsp/engine2/chiptune_engine.cpp **** // AUTHORS OR COPYRIGHT HOLDERS BE LIABLE FOR ANY CLAIM, DAMAGES OR OTHER
  19:mi/plaits/dsp/engine2/chiptune_engine.cpp **** // LIABILITY, WHETHER IN AN ACTION OF CONTRACT, TORT OR OTHERWISE, ARISING FROM,
  20:mi/plaits/dsp/engine2/chiptune_engine.cpp **** // OUT OF OR IN CONNECTION WITH THE SOFTWARE OR THE USE OR OTHER DEALINGS IN
  21:mi/plaits/dsp/engine2/chiptune_engine.cpp **** // THE SOFTWARE.
  22:mi/plaits/dsp/engine2/chiptune_engine.cpp **** // 
  23:mi/plaits/dsp/engine2/chiptune_engine.cpp **** // See http://creativecommons.org/licenses/MIT/ for more information.
  24:mi/plaits/dsp/engine2/chiptune_engine.cpp **** //
  25:mi/plaits/dsp/engine2/chiptune_engine.cpp **** // -----------------------------------------------------------------------------
  26:mi/plaits/dsp/engine2/chiptune_engine.cpp **** //
  27:mi/plaits/dsp/engine2/chiptune_engine.cpp **** // Chiptune waveforms with arpeggiator.
  28:mi/plaits/dsp/engine2/chiptune_engine.cpp **** 
  29:mi/plaits/dsp/engine2/chiptune_engine.cpp **** #include "plaits/dsp/engine2/chiptune_engine.h"
  30:mi/plaits/dsp/engine2/chiptune_engine.cpp **** 
  31:mi/plaits/dsp/engine2/chiptune_engine.cpp **** #include <algorithm>
  32:mi/plaits/dsp/engine2/chiptune_engine.cpp **** 
  33:mi/plaits/dsp/engine2/chiptune_engine.cpp **** namespace plaits {
  34:mi/plaits/dsp/engine2/chiptune_engine.cpp **** 
  35:mi/plaits/dsp/engine2/chiptune_engine.cpp **** using namespace std;
  36:mi/plaits/dsp/engine2/chiptune_engine.cpp **** using namespace stmlib;
  37:mi/plaits/dsp/engine2/chiptune_engine.cpp **** 
  38:mi/plaits/dsp/engine2/chiptune_engine.cpp **** void ChiptuneEngine::Init(BufferAllocator* allocator) {
  52              		.loc 2 38 55 is_stmt 1 view -0
  53              		.cfi_startproc
  54              		@ args = 0, pretend = 0, frame = 0
  55              		@ frame_needed = 0, uses_anonymous_args = 0
  39:mi/plaits/dsp/engine2/chiptune_engine.cpp ****   bass_.Init();
  56              		.loc 2 39 3 view .LVU3
  38:mi/plaits/dsp/engine2/chiptune_engine.cpp ****   bass_.Init();
  57              		.loc 2 38 55 is_stmt 0 view .LVU4
  58 0000 70B5     		push	{r4, r5, r6, lr}
  59              		.cfi_def_cfa_offset 16
  60              		.cfi_offset 4, -16
  61              		.cfi_offset 5, -12
  62              		.cfi_offset 6, -8
  63              		.cfi_offset 14, -4
  64              	.LBB390:
  65              	.LBB391:
  66              		.file 3 "mi/plaits/dsp/oscillator/nes_triangle_oscillator.h"
   1:mi/plaits/dsp/oscillator/nes_triangle_oscillator.h **** // Copyright 2016 Emilie Gillet.
   2:mi/plaits/dsp/oscillator/nes_triangle_oscillator.h **** //
   3:mi/plaits/dsp/oscillator/nes_triangle_oscillator.h **** // Author: Emilie Gillet (emilie.o.gillet@gmail.com)
   4:mi/plaits/dsp/oscillator/nes_triangle_oscillator.h **** //
   5:mi/plaits/dsp/oscillator/nes_triangle_oscillator.h **** // Permission is hereby granted, free of charge, to any person obtaining a copy
   6:mi/plaits/dsp/oscillator/nes_triangle_oscillator.h **** // of this software and associated documentation files (the "Software"), to deal
   7:mi/plaits/dsp/oscillator/nes_triangle_oscillator.h **** // in the Software without restriction, including without limitation the rights
   8:mi/plaits/dsp/oscillator/nes_triangle_oscillator.h **** // to use, copy, modify, merge, publish, distribute, sublicense, and/or sell
   9:mi/plaits/dsp/oscillator/nes_triangle_oscillator.h **** // copies of the Software, and to permit persons to whom the Software is
  10:mi/plaits/dsp/oscillator/nes_triangle_oscillator.h **** // furnished to do so, subject to the following conditions:
  11:mi/plaits/dsp/oscillator/nes_triangle_oscillator.h **** // 
  12:mi/plaits/dsp/oscillator/nes_triangle_oscillator.h **** // The above copyright notice and this permission notice shall be included in
  13:mi/plaits/dsp/oscillator/nes_triangle_oscillator.h **** // all copies or substantial portions of the Software.
  14:mi/plaits/dsp/oscillator/nes_triangle_oscillator.h **** // 
  15:mi/plaits/dsp/oscillator/nes_triangle_oscillator.h **** // THE SOFTWARE IS PROVIDED "AS IS", WITHOUT WARRANTY OF ANY KIND, EXPRESS OR
  16:mi/plaits/dsp/oscillator/nes_triangle_oscillator.h **** // IMPLIED, INCLUDING BUT NOT LIMITED TO THE WARRANTIES OF MERCHANTABILITY,
  17:mi/plaits/dsp/oscillator/nes_triangle_oscillator.h **** // FITNESS FOR A PARTICULAR PURPOSE AND NONINFRINGEMENT. IN NO EVENT SHALL THE
ARM GAS  /var/folders/9k/zk1mgrrd7wg4__6zvxvr9w8m0000gn/T//cc4BDeRe.s 			page 4


  18:mi/plaits/dsp/oscillator/nes_triangle_oscillator.h **** // AUTHORS OR COPYRIGHT HOLDERS BE LIABLE FOR ANY CLAIM, DAMAGES OR OTHER
  19:mi/plaits/dsp/oscillator/nes_triangle_oscillator.h **** // LIABILITY, WHETHER IN AN ACTION OF CONTRACT, TORT OR OTHERWISE, ARISING FROM,
  20:mi/plaits/dsp/oscillator/nes_triangle_oscillator.h **** // OUT OF OR IN CONNECTION WITH THE SOFTWARE OR THE USE OR OTHER DEALINGS IN
  21:mi/plaits/dsp/oscillator/nes_triangle_oscillator.h **** // THE SOFTWARE.
  22:mi/plaits/dsp/oscillator/nes_triangle_oscillator.h **** // 
  23:mi/plaits/dsp/oscillator/nes_triangle_oscillator.h **** // See http://creativecommons.org/licenses/MIT/ for more information.
  24:mi/plaits/dsp/oscillator/nes_triangle_oscillator.h **** //
  25:mi/plaits/dsp/oscillator/nes_triangle_oscillator.h **** // -----------------------------------------------------------------------------
  26:mi/plaits/dsp/oscillator/nes_triangle_oscillator.h **** //
  27:mi/plaits/dsp/oscillator/nes_triangle_oscillator.h **** // Triangle waveform approximated by 16 discrete steps.
  28:mi/plaits/dsp/oscillator/nes_triangle_oscillator.h **** 
  29:mi/plaits/dsp/oscillator/nes_triangle_oscillator.h **** #ifndef PLAITS_DSP_OSCILLATOR_NES_TRIANGLE_OSCILLATOR_H_
  30:mi/plaits/dsp/oscillator/nes_triangle_oscillator.h **** #define PLAITS_DSP_OSCILLATOR_NES_TRIANGLE_OSCILLATOR_H_
  31:mi/plaits/dsp/oscillator/nes_triangle_oscillator.h **** 
  32:mi/plaits/dsp/oscillator/nes_triangle_oscillator.h **** #include <algorithm>
  33:mi/plaits/dsp/oscillator/nes_triangle_oscillator.h **** 
  34:mi/plaits/dsp/oscillator/nes_triangle_oscillator.h **** #include "stmlib/dsp/dsp.h"
  35:mi/plaits/dsp/oscillator/nes_triangle_oscillator.h **** #include "plaits/dsp/oscillator/wavetable_oscillator.h"
  36:mi/plaits/dsp/oscillator/nes_triangle_oscillator.h **** #include "stmlib/dsp/parameter_interpolator.h"
  37:mi/plaits/dsp/oscillator/nes_triangle_oscillator.h **** #include "stmlib/dsp/polyblep.h"
  38:mi/plaits/dsp/oscillator/nes_triangle_oscillator.h **** 
  39:mi/plaits/dsp/oscillator/nes_triangle_oscillator.h **** #include "plaits/resources.h"
  40:mi/plaits/dsp/oscillator/nes_triangle_oscillator.h **** 
  41:mi/plaits/dsp/oscillator/nes_triangle_oscillator.h **** namespace plaits {
  42:mi/plaits/dsp/oscillator/nes_triangle_oscillator.h **** 
  43:mi/plaits/dsp/oscillator/nes_triangle_oscillator.h **** template<int num_bits=5>
  44:mi/plaits/dsp/oscillator/nes_triangle_oscillator.h **** class NESTriangleOscillator {
  45:mi/plaits/dsp/oscillator/nes_triangle_oscillator.h ****  public:
  46:mi/plaits/dsp/oscillator/nes_triangle_oscillator.h ****   NESTriangleOscillator() { }
  47:mi/plaits/dsp/oscillator/nes_triangle_oscillator.h ****   ~NESTriangleOscillator() { }
  48:mi/plaits/dsp/oscillator/nes_triangle_oscillator.h ****   
  49:mi/plaits/dsp/oscillator/nes_triangle_oscillator.h ****   inline void Init() {
  50:mi/plaits/dsp/oscillator/nes_triangle_oscillator.h ****     phase_ = 0.0f;
  67              		.loc 3 50 12 view .LVU5
  68 0002 0022     		movs	r2, #0
  51:mi/plaits/dsp/oscillator/nes_triangle_oscillator.h ****     step_ = 0;
  52:mi/plaits/dsp/oscillator/nes_triangle_oscillator.h ****     ascending_ = true;
  69              		.loc 3 52 16 view .LVU6
  70 0004 0123     		movs	r3, #1
  51:mi/plaits/dsp/oscillator/nes_triangle_oscillator.h ****     step_ = 0;
  71              		.loc 3 51 11 view .LVU7
  72 0006 0025     		movs	r5, #0
  73              	.LBE391:
  74              	.LBE390:
  38:mi/plaits/dsp/engine2/chiptune_engine.cpp ****   bass_.Init();
  75              		.loc 2 38 55 view .LVU8
  76 0008 0446     		mov	r4, r0
  77              	.LVL2:
  78              	.LBB393:
  79              	.LBI390:
  49:mi/plaits/dsp/oscillator/nes_triangle_oscillator.h ****     phase_ = 0.0f;
  80              		.loc 3 49 15 is_stmt 1 view .LVU9
  81              	.LBB392:
  82              		.loc 3 52 16 is_stmt 0 view .LVU10
  83 000a 80F89430 		strb	r3, [r0, #148]
  50:mi/plaits/dsp/oscillator/nes_triangle_oscillator.h ****     step_ = 0;
  84              		.loc 3 50 12 view .LVU11
ARM GAS  /var/folders/9k/zk1mgrrd7wg4__6zvxvr9w8m0000gn/T//cc4BDeRe.s 			page 5


  85 000e C0F88820 		str	r2, [r0, #136]	@ float
  86 0012 2346     		mov	r3, r4
  51:mi/plaits/dsp/oscillator/nes_triangle_oscillator.h ****     ascending_ = true;
  87              		.loc 3 51 11 view .LVU12
  88 0014 C0F89050 		str	r5, [r0, #144]
  53:mi/plaits/dsp/oscillator/nes_triangle_oscillator.h ****     next_sample_ = 0.0f;
  54:mi/plaits/dsp/oscillator/nes_triangle_oscillator.h ****     frequency_ = 0.001f;
  89              		.loc 3 54 16 view .LVU13
  90 0018 1B48     		ldr	r0, .L7
  91              	.LVL3:
  53:mi/plaits/dsp/oscillator/nes_triangle_oscillator.h ****     next_sample_ = 0.0f;
  92              		.loc 3 53 18 view .LVU14
  93 001a C4F88C20 		str	r2, [r4, #140]	@ float
  94              		.loc 3 54 16 view .LVU15
  95 001e C4F89800 		str	r0, [r4, #152]	@ float
  96              	.LVL4:
  97              		.loc 3 54 16 view .LVU16
  98              	.LBE392:
  99              	.LBE393:
  40:mi/plaits/dsp/engine2/chiptune_engine.cpp ****   for (int i = 0; i < kChordNumNotes; ++i) {
 100              		.loc 2 40 3 is_stmt 1 view .LVU17
 101              	.LBB394:
 102              		.loc 2 40 21 view .LVU18
 103 0022 04F16000 		add	r0, r4, #96
 104              	.LVL5:
 105              	.L4:
  41:mi/plaits/dsp/engine2/chiptune_engine.cpp ****     voice_[i].Init();
 106              		.loc 2 41 5 discriminator 2 view .LVU19
 107              	.LBB395:
 108              	.LBI395:
 109              		.file 4 "mi/plaits/dsp/oscillator/super_square_oscillator.h"
   1:mi/plaits/dsp/oscillator/super_square_oscillator.h **** // Copyright 2021 Emilie Gillet.
   2:mi/plaits/dsp/oscillator/super_square_oscillator.h **** //
   3:mi/plaits/dsp/oscillator/super_square_oscillator.h **** // Author: Emilie Gillet (emilie.o.gillet@gmail.com)
   4:mi/plaits/dsp/oscillator/super_square_oscillator.h **** //
   5:mi/plaits/dsp/oscillator/super_square_oscillator.h **** // Permission is hereby granted, free of charge, to any person obtaining a copy
   6:mi/plaits/dsp/oscillator/super_square_oscillator.h **** // of this software and associated documentation files (the "Software"), to deal
   7:mi/plaits/dsp/oscillator/super_square_oscillator.h **** // in the Software without restriction, including without limitation the rights
   8:mi/plaits/dsp/oscillator/super_square_oscillator.h **** // to use, copy, modify, merge, publish, distribute, sublicense, and/or sell
   9:mi/plaits/dsp/oscillator/super_square_oscillator.h **** // copies of the Software, and to permit persons to whom the Software is
  10:mi/plaits/dsp/oscillator/super_square_oscillator.h **** // furnished to do so, subject to the following conditions:
  11:mi/plaits/dsp/oscillator/super_square_oscillator.h **** // 
  12:mi/plaits/dsp/oscillator/super_square_oscillator.h **** // The above copyright notice and this permission notice shall be included in
  13:mi/plaits/dsp/oscillator/super_square_oscillator.h **** // all copies or substantial portions of the Software.
  14:mi/plaits/dsp/oscillator/super_square_oscillator.h **** // 
  15:mi/plaits/dsp/oscillator/super_square_oscillator.h **** // THE SOFTWARE IS PROVIDED "AS IS", WITHOUT WARRANTY OF ANY KIND, EXPRESS OR
  16:mi/plaits/dsp/oscillator/super_square_oscillator.h **** // IMPLIED, INCLUDING BUT NOT LIMITED TO THE WARRANTIES OF MERCHANTABILITY,
  17:mi/plaits/dsp/oscillator/super_square_oscillator.h **** // FITNESS FOR A PARTICULAR PURPOSE AND NONINFRINGEMENT. IN NO EVENT SHALL THE
  18:mi/plaits/dsp/oscillator/super_square_oscillator.h **** // AUTHORS OR COPYRIGHT HOLDERS BE LIABLE FOR ANY CLAIM, DAMAGES OR OTHER
  19:mi/plaits/dsp/oscillator/super_square_oscillator.h **** // LIABILITY, WHETHER IN AN ACTION OF CONTRACT, TORT OR OTHERWISE, ARISING FROM,
  20:mi/plaits/dsp/oscillator/super_square_oscillator.h **** // OUT OF OR IN CONNECTION WITH THE SOFTWARE OR THE USE OR OTHER DEALINGS IN
  21:mi/plaits/dsp/oscillator/super_square_oscillator.h **** // THE SOFTWARE.
  22:mi/plaits/dsp/oscillator/super_square_oscillator.h **** // 
  23:mi/plaits/dsp/oscillator/super_square_oscillator.h **** // See http://creativecommons.org/licenses/MIT/ for more information.
  24:mi/plaits/dsp/oscillator/super_square_oscillator.h **** //
  25:mi/plaits/dsp/oscillator/super_square_oscillator.h **** // -----------------------------------------------------------------------------
  26:mi/plaits/dsp/oscillator/super_square_oscillator.h **** //
ARM GAS  /var/folders/9k/zk1mgrrd7wg4__6zvxvr9w8m0000gn/T//cc4BDeRe.s 			page 6


  27:mi/plaits/dsp/oscillator/super_square_oscillator.h **** // Two hard-sync'ed square waves with a meta-parameter, also faking PWM.
  28:mi/plaits/dsp/oscillator/super_square_oscillator.h **** // Based on VariableShapeOscillator, with hard-coded pulse width (0.5),
  29:mi/plaits/dsp/oscillator/super_square_oscillator.h **** // waveshape (only square), and sync enabled by default.
  30:mi/plaits/dsp/oscillator/super_square_oscillator.h **** 
  31:mi/plaits/dsp/oscillator/super_square_oscillator.h **** #ifndef PLAITS_DSP_OSCILLATOR_SUPERSQUARE_OSCILLATOR_H_
  32:mi/plaits/dsp/oscillator/super_square_oscillator.h **** #define PLAITS_DSP_OSCILLATOR_SUPERSQUARE_OSCILLATOR_H_
  33:mi/plaits/dsp/oscillator/super_square_oscillator.h **** 
  34:mi/plaits/dsp/oscillator/super_square_oscillator.h **** #include "stmlib/dsp/dsp.h"
  35:mi/plaits/dsp/oscillator/super_square_oscillator.h **** #include "stmlib/dsp/parameter_interpolator.h"
  36:mi/plaits/dsp/oscillator/super_square_oscillator.h **** #include "stmlib/dsp/polyblep.h"
  37:mi/plaits/dsp/oscillator/super_square_oscillator.h **** 
  38:mi/plaits/dsp/oscillator/super_square_oscillator.h **** #include <algorithm>
  39:mi/plaits/dsp/oscillator/super_square_oscillator.h **** 
  40:mi/plaits/dsp/oscillator/super_square_oscillator.h **** namespace plaits {
  41:mi/plaits/dsp/oscillator/super_square_oscillator.h **** 
  42:mi/plaits/dsp/oscillator/super_square_oscillator.h **** class SuperSquareOscillator {
  43:mi/plaits/dsp/oscillator/super_square_oscillator.h ****  public:
  44:mi/plaits/dsp/oscillator/super_square_oscillator.h ****   SuperSquareOscillator() { }
  45:mi/plaits/dsp/oscillator/super_square_oscillator.h ****   ~SuperSquareOscillator() { }
  46:mi/plaits/dsp/oscillator/super_square_oscillator.h **** 
  47:mi/plaits/dsp/oscillator/super_square_oscillator.h ****   void Init() {
 110              		.loc 4 47 8 discriminator 2 view .LVU20
 111              	.LBB396:
  48:mi/plaits/dsp/oscillator/super_square_oscillator.h ****     master_phase_ = 0.0f;
 112              		.loc 4 48 5 discriminator 2 view .LVU21
 113              	.LBE396:
 114              	.LBE395:
  40:mi/plaits/dsp/engine2/chiptune_engine.cpp ****     voice_[i].Init();
 115              		.loc 2 40 21 is_stmt 0 discriminator 2 view .LVU22
 116 0026 1833     		adds	r3, r3, #24
 117              	.LBB399:
 118              	.LBB397:
 119              		.loc 4 48 19 discriminator 2 view .LVU23
 120 0028 0025     		movs	r5, #0
  49:mi/plaits/dsp/oscillator/super_square_oscillator.h ****     slave_phase_ = 0.0f;
  50:mi/plaits/dsp/oscillator/super_square_oscillator.h ****     next_sample_ = 0.0f;
  51:mi/plaits/dsp/oscillator/super_square_oscillator.h ****     high_ = false;
 121              		.loc 4 51 11 discriminator 2 view .LVU24
 122 002a 0026     		movs	r6, #0
  52:mi/plaits/dsp/oscillator/super_square_oscillator.h ****   
  53:mi/plaits/dsp/oscillator/super_square_oscillator.h ****     master_frequency_ = 0.0f;
  54:mi/plaits/dsp/oscillator/super_square_oscillator.h ****     slave_frequency_ = 0.01f;
 123              		.loc 4 54 22 discriminator 2 view .LVU25
 124 002c 174A     		ldr	r2, .L7+4
 125              	.LBE397:
 126              	.LBE399:
  40:mi/plaits/dsp/engine2/chiptune_engine.cpp ****     voice_[i].Init();
 127              		.loc 2 40 21 discriminator 2 view .LVU26
 128 002e 8342     		cmp	r3, r0
 129              	.LBB400:
 130              	.LBB398:
  48:mi/plaits/dsp/oscillator/super_square_oscillator.h ****     slave_phase_ = 0.0f;
 131              		.loc 4 48 19 discriminator 2 view .LVU27
 132 0030 43F8085C 		str	r5, [r3, #-8]	@ float
  49:mi/plaits/dsp/oscillator/super_square_oscillator.h ****     next_sample_ = 0.0f;
 133              		.loc 4 49 5 is_stmt 1 discriminator 2 view .LVU28
  49:mi/plaits/dsp/oscillator/super_square_oscillator.h ****     next_sample_ = 0.0f;
ARM GAS  /var/folders/9k/zk1mgrrd7wg4__6zvxvr9w8m0000gn/T//cc4BDeRe.s 			page 7


 134              		.loc 4 49 18 is_stmt 0 discriminator 2 view .LVU29
 135 0034 43F8045C 		str	r5, [r3, #-4]	@ float
  50:mi/plaits/dsp/oscillator/super_square_oscillator.h ****     high_ = false;
 136              		.loc 4 50 5 is_stmt 1 discriminator 2 view .LVU30
  50:mi/plaits/dsp/oscillator/super_square_oscillator.h ****     high_ = false;
 137              		.loc 4 50 18 is_stmt 0 discriminator 2 view .LVU31
 138 0038 1D60     		str	r5, [r3]	@ float
  51:mi/plaits/dsp/oscillator/super_square_oscillator.h ****   
 139              		.loc 4 51 5 is_stmt 1 discriminator 2 view .LVU32
  51:mi/plaits/dsp/oscillator/super_square_oscillator.h ****   
 140              		.loc 4 51 11 is_stmt 0 discriminator 2 view .LVU33
 141 003a 1E71     		strb	r6, [r3, #4]
  53:mi/plaits/dsp/oscillator/super_square_oscillator.h ****     slave_frequency_ = 0.01f;
 142              		.loc 4 53 5 is_stmt 1 discriminator 2 view .LVU34
  53:mi/plaits/dsp/oscillator/super_square_oscillator.h ****     slave_frequency_ = 0.01f;
 143              		.loc 4 53 23 is_stmt 0 discriminator 2 view .LVU35
 144 003c 9D60     		str	r5, [r3, #8]	@ float
 145              		.loc 4 54 5 is_stmt 1 discriminator 2 view .LVU36
 146              		.loc 4 54 22 is_stmt 0 discriminator 2 view .LVU37
 147 003e DA60     		str	r2, [r3, #12]	@ float
 148              		.loc 4 54 22 discriminator 2 view .LVU38
 149              	.LBE398:
 150              	.LBE400:
  40:mi/plaits/dsp/engine2/chiptune_engine.cpp ****     voice_[i].Init();
 151              		.loc 2 40 3 is_stmt 1 discriminator 2 view .LVU39
  40:mi/plaits/dsp/engine2/chiptune_engine.cpp ****     voice_[i].Init();
 152              		.loc 2 40 21 discriminator 2 view .LVU40
 153 0040 F1D1     		bne	.L4
 154              	.LBE394:
  42:mi/plaits/dsp/engine2/chiptune_engine.cpp ****   }
  43:mi/plaits/dsp/engine2/chiptune_engine.cpp ****   
  44:mi/plaits/dsp/engine2/chiptune_engine.cpp ****   chords_.Init(allocator);
 155              		.loc 2 44 3 view .LVU41
 156              		.loc 2 44 15 is_stmt 0 view .LVU42
 157 0042 04F19C00 		add	r0, r4, #156
 158 0046 FFF7FEFF 		bl	_ZN6plaits9ChordBank4InitEPN6stmlib15BufferAllocatorE
 159              	.LVL6:
  45:mi/plaits/dsp/engine2/chiptune_engine.cpp ****   
  46:mi/plaits/dsp/engine2/chiptune_engine.cpp ****   arpeggiator_.Init();
 160              		.loc 2 46 3 is_stmt 1 view .LVU43
 161              	.LBB401:
 162              	.LBI401:
 163              		.file 5 "mi/plaits/dsp/engine2/arpeggiator.h"
   1:mi/plaits/dsp/engine2/arpeggiator.h **** // Copyright 2021 Emilie Gillet.
   2:mi/plaits/dsp/engine2/arpeggiator.h **** //
   3:mi/plaits/dsp/engine2/arpeggiator.h **** // Author: Emilie Gillet (emilie.o.gillet@gmail.com)
   4:mi/plaits/dsp/engine2/arpeggiator.h **** //
   5:mi/plaits/dsp/engine2/arpeggiator.h **** // Permission is hereby granted, free of charge, to any person obtaining a copy
   6:mi/plaits/dsp/engine2/arpeggiator.h **** // of this software and associated documentation files (the "Software"), to deal
   7:mi/plaits/dsp/engine2/arpeggiator.h **** // in the Software without restriction, including without limitation the rights
   8:mi/plaits/dsp/engine2/arpeggiator.h **** // to use, copy, modify, merge, publish, distribute, sublicense, and/or sell
   9:mi/plaits/dsp/engine2/arpeggiator.h **** // copies of the Software, and to permit persons to whom the Software is
  10:mi/plaits/dsp/engine2/arpeggiator.h **** // furnished to do so, subject to the following conditions:
  11:mi/plaits/dsp/engine2/arpeggiator.h **** // 
  12:mi/plaits/dsp/engine2/arpeggiator.h **** // The above copyright notice and this permission notice shall be included in
  13:mi/plaits/dsp/engine2/arpeggiator.h **** // all copies or substantial portions of the Software.
  14:mi/plaits/dsp/engine2/arpeggiator.h **** // 
ARM GAS  /var/folders/9k/zk1mgrrd7wg4__6zvxvr9w8m0000gn/T//cc4BDeRe.s 			page 8


  15:mi/plaits/dsp/engine2/arpeggiator.h **** // THE SOFTWARE IS PROVIDED "AS IS", WITHOUT WARRANTY OF ANY KIND, EXPRESS OR
  16:mi/plaits/dsp/engine2/arpeggiator.h **** // IMPLIED, INCLUDING BUT NOT LIMITED TO THE WARRANTIES OF MERCHANTABILITY,
  17:mi/plaits/dsp/engine2/arpeggiator.h **** // FITNESS FOR A PARTICULAR PURPOSE AND NONINFRINGEMENT. IN NO EVENT SHALL THE
  18:mi/plaits/dsp/engine2/arpeggiator.h **** // AUTHORS OR COPYRIGHT HOLDERS BE LIABLE FOR ANY CLAIM, DAMAGES OR OTHER
  19:mi/plaits/dsp/engine2/arpeggiator.h **** // LIABILITY, WHETHER IN AN ACTION OF CONTRACT, TORT OR OTHERWISE, ARISING FROM,
  20:mi/plaits/dsp/engine2/arpeggiator.h **** // OUT OF OR IN CONNECTION WITH THE SOFTWARE OR THE USE OR OTHER DEALINGS IN
  21:mi/plaits/dsp/engine2/arpeggiator.h **** // THE SOFTWARE.
  22:mi/plaits/dsp/engine2/arpeggiator.h **** // 
  23:mi/plaits/dsp/engine2/arpeggiator.h **** // See http://creativecommons.org/licenses/MIT/ for more information.
  24:mi/plaits/dsp/engine2/arpeggiator.h **** //
  25:mi/plaits/dsp/engine2/arpeggiator.h **** // -----------------------------------------------------------------------------
  26:mi/plaits/dsp/engine2/arpeggiator.h **** //
  27:mi/plaits/dsp/engine2/arpeggiator.h **** // Arpeggiator.
  28:mi/plaits/dsp/engine2/arpeggiator.h **** 
  29:mi/plaits/dsp/engine2/arpeggiator.h **** #ifndef PLAITS_DSP_ENGINE_ARPEGGIATOR_H_
  30:mi/plaits/dsp/engine2/arpeggiator.h **** #define PLAITS_DSP_ENGINE_ARPEGGIATOR_H_
  31:mi/plaits/dsp/engine2/arpeggiator.h **** 
  32:mi/plaits/dsp/engine2/arpeggiator.h **** #include "stmlib/utils/random.h"
  33:mi/plaits/dsp/engine2/arpeggiator.h **** 
  34:mi/plaits/dsp/engine2/arpeggiator.h **** namespace plaits {
  35:mi/plaits/dsp/engine2/arpeggiator.h **** 
  36:mi/plaits/dsp/engine2/arpeggiator.h **** enum ArpeggiatorMode {
  37:mi/plaits/dsp/engine2/arpeggiator.h ****   ARPEGGIATOR_MODE_UP,
  38:mi/plaits/dsp/engine2/arpeggiator.h ****   ARPEGGIATOR_MODE_DOWN,
  39:mi/plaits/dsp/engine2/arpeggiator.h ****   ARPEGGIATOR_MODE_UP_DOWN,
  40:mi/plaits/dsp/engine2/arpeggiator.h ****   ARPEGGIATOR_MODE_RANDOM,
  41:mi/plaits/dsp/engine2/arpeggiator.h ****   ARPEGGIATOR_MODE_LAST
  42:mi/plaits/dsp/engine2/arpeggiator.h **** };
  43:mi/plaits/dsp/engine2/arpeggiator.h **** 
  44:mi/plaits/dsp/engine2/arpeggiator.h **** class Arpeggiator{
  45:mi/plaits/dsp/engine2/arpeggiator.h ****  public:
  46:mi/plaits/dsp/engine2/arpeggiator.h ****   Arpeggiator() { }
  47:mi/plaits/dsp/engine2/arpeggiator.h ****   ~Arpeggiator() { }
  48:mi/plaits/dsp/engine2/arpeggiator.h ****   
  49:mi/plaits/dsp/engine2/arpeggiator.h ****   void Init() {
 164              		.loc 5 49 8 view .LVU44
 165              	.LBB402:
  50:mi/plaits/dsp/engine2/arpeggiator.h ****     mode_ = ARPEGGIATOR_MODE_UP;
 166              		.loc 5 50 5 view .LVU45
 167              	.LBB403:
 168              	.LBB404:
  51:mi/plaits/dsp/engine2/arpeggiator.h ****     Reset();
  52:mi/plaits/dsp/engine2/arpeggiator.h ****   }
  53:mi/plaits/dsp/engine2/arpeggiator.h ****   
  54:mi/plaits/dsp/engine2/arpeggiator.h ****   void Reset() {
  55:mi/plaits/dsp/engine2/arpeggiator.h ****     note_ = 0;
  56:mi/plaits/dsp/engine2/arpeggiator.h ****     octave_ = 0;
  57:mi/plaits/dsp/engine2/arpeggiator.h ****     direction_ = 1;
 169              		.loc 5 57 16 is_stmt 0 view .LVU46
 170 004a 0122     		movs	r2, #1
 171              	.LBE404:
 172              	.LBE403:
 173              	.LBE402:
 174              	.LBE401:
 175              	.LBB414:
 176              	.LBB415:
 177              		.file 6 "mi/stmlib/dsp/hysteresis_quantizer.h"
ARM GAS  /var/folders/9k/zk1mgrrd7wg4__6zvxvr9w8m0000gn/T//cc4BDeRe.s 			page 9


   1:mi/stmlib/dsp/hysteresis_quantizer.h **** // Copyright 2015 Emilie Gillet.
   2:mi/stmlib/dsp/hysteresis_quantizer.h **** //
   3:mi/stmlib/dsp/hysteresis_quantizer.h **** // Author: Emilie Gillet (emilie.o.gillet@gmail.com)
   4:mi/stmlib/dsp/hysteresis_quantizer.h **** //
   5:mi/stmlib/dsp/hysteresis_quantizer.h **** // Permission is hereby granted, free of charge, to any person obtaining a copy
   6:mi/stmlib/dsp/hysteresis_quantizer.h **** // of this software and associated documentation files (the "Software"), to deal
   7:mi/stmlib/dsp/hysteresis_quantizer.h **** // in the Software without restriction, including without limitation the rights
   8:mi/stmlib/dsp/hysteresis_quantizer.h **** // to use, copy, modify, merge, publish, distribute, sublicense, and/or sell
   9:mi/stmlib/dsp/hysteresis_quantizer.h **** // copies of the Software, and to permit persons to whom the Software is
  10:mi/stmlib/dsp/hysteresis_quantizer.h **** // furnished to do so, subject to the following conditions:
  11:mi/stmlib/dsp/hysteresis_quantizer.h **** // 
  12:mi/stmlib/dsp/hysteresis_quantizer.h **** // The above copyright notice and this permission notice shall be included in
  13:mi/stmlib/dsp/hysteresis_quantizer.h **** // all copies or substantial portions of the Software.
  14:mi/stmlib/dsp/hysteresis_quantizer.h **** // 
  15:mi/stmlib/dsp/hysteresis_quantizer.h **** // THE SOFTWARE IS PROVIDED "AS IS", WITHOUT WARRANTY OF ANY KIND, EXPRESS OR
  16:mi/stmlib/dsp/hysteresis_quantizer.h **** // IMPLIED, INCLUDING BUT NOT LIMITED TO THE WARRANTIES OF MERCHANTABILITY,
  17:mi/stmlib/dsp/hysteresis_quantizer.h **** // FITNESS FOR A PARTICULAR PURPOSE AND NONINFRINGEMENT. IN NO EVENT SHALL THE
  18:mi/stmlib/dsp/hysteresis_quantizer.h **** // AUTHORS OR COPYRIGHT HOLDERS BE LIABLE FOR ANY CLAIM, DAMAGES OR OTHER
  19:mi/stmlib/dsp/hysteresis_quantizer.h **** // LIABILITY, WHETHER IN AN ACTION OF CONTRACT, TORT OR OTHERWISE, ARISING FROM,
  20:mi/stmlib/dsp/hysteresis_quantizer.h **** // OUT OF OR IN CONNECTION WITH THE SOFTWARE OR THE USE OR OTHER DEALINGS IN
  21:mi/stmlib/dsp/hysteresis_quantizer.h **** // THE SOFTWARE.
  22:mi/stmlib/dsp/hysteresis_quantizer.h **** // 
  23:mi/stmlib/dsp/hysteresis_quantizer.h **** // See http://creativecommons.org/licenses/MIT/ for more information.
  24:mi/stmlib/dsp/hysteresis_quantizer.h **** //
  25:mi/stmlib/dsp/hysteresis_quantizer.h **** // -----------------------------------------------------------------------------
  26:mi/stmlib/dsp/hysteresis_quantizer.h **** //
  27:mi/stmlib/dsp/hysteresis_quantizer.h **** // Quantize a float in [0, 1] to an integer in [0, num_steps[. Apply hysteresis
  28:mi/stmlib/dsp/hysteresis_quantizer.h **** // to prevent jumps near the decision boundary.
  29:mi/stmlib/dsp/hysteresis_quantizer.h **** 
  30:mi/stmlib/dsp/hysteresis_quantizer.h **** #ifndef STMLIB_DSP_HYSTERESIS_QUANTIZER_H_
  31:mi/stmlib/dsp/hysteresis_quantizer.h **** #define STMLIB_DSP_HYSTERESIS_QUANTIZER_H_
  32:mi/stmlib/dsp/hysteresis_quantizer.h **** 
  33:mi/stmlib/dsp/hysteresis_quantizer.h **** #include "stmlib/stmlib.h"
  34:mi/stmlib/dsp/hysteresis_quantizer.h **** 
  35:mi/stmlib/dsp/hysteresis_quantizer.h **** namespace stmlib {
  36:mi/stmlib/dsp/hysteresis_quantizer.h **** 
  37:mi/stmlib/dsp/hysteresis_quantizer.h **** class HysteresisQuantizer {
  38:mi/stmlib/dsp/hysteresis_quantizer.h ****  public:
  39:mi/stmlib/dsp/hysteresis_quantizer.h ****   HysteresisQuantizer() { }
  40:mi/stmlib/dsp/hysteresis_quantizer.h ****   ~HysteresisQuantizer() { }
  41:mi/stmlib/dsp/hysteresis_quantizer.h **** 
  42:mi/stmlib/dsp/hysteresis_quantizer.h ****   void Init() {
  43:mi/stmlib/dsp/hysteresis_quantizer.h ****     quantized_value_ = 0;
  44:mi/stmlib/dsp/hysteresis_quantizer.h ****   }
  45:mi/stmlib/dsp/hysteresis_quantizer.h **** 
  46:mi/stmlib/dsp/hysteresis_quantizer.h ****   inline int Process(float value, int num_steps) {
  47:mi/stmlib/dsp/hysteresis_quantizer.h ****     return Process(value, num_steps, 0.25f);
  48:mi/stmlib/dsp/hysteresis_quantizer.h ****   }
  49:mi/stmlib/dsp/hysteresis_quantizer.h **** 
  50:mi/stmlib/dsp/hysteresis_quantizer.h ****   inline int Process(float value, int num_steps, float hysteresis) {
  51:mi/stmlib/dsp/hysteresis_quantizer.h ****     return Process(0, value, num_steps, hysteresis);
  52:mi/stmlib/dsp/hysteresis_quantizer.h ****   }
  53:mi/stmlib/dsp/hysteresis_quantizer.h **** 
  54:mi/stmlib/dsp/hysteresis_quantizer.h ****   inline int Process(int base, float value, int num_steps, float hysteresis) {
  55:mi/stmlib/dsp/hysteresis_quantizer.h ****     value *= static_cast<float>(num_steps - 1);
  56:mi/stmlib/dsp/hysteresis_quantizer.h ****     value += static_cast<float>(base);
  57:mi/stmlib/dsp/hysteresis_quantizer.h ****     float hysteresis_feedback = value > static_cast<float>(quantized_value_)
ARM GAS  /var/folders/9k/zk1mgrrd7wg4__6zvxvr9w8m0000gn/T//cc4BDeRe.s 			page 10


  58:mi/stmlib/dsp/hysteresis_quantizer.h ****         ? -hysteresis
  59:mi/stmlib/dsp/hysteresis_quantizer.h ****         : hysteresis;
  60:mi/stmlib/dsp/hysteresis_quantizer.h ****     int q = static_cast<int>(value + hysteresis_feedback + 0.5f);
  61:mi/stmlib/dsp/hysteresis_quantizer.h ****     CONSTRAIN(q, 0, num_steps - 1);
  62:mi/stmlib/dsp/hysteresis_quantizer.h ****     quantized_value_ = q;
  63:mi/stmlib/dsp/hysteresis_quantizer.h ****     return q;
  64:mi/stmlib/dsp/hysteresis_quantizer.h ****   }
  65:mi/stmlib/dsp/hysteresis_quantizer.h **** 
  66:mi/stmlib/dsp/hysteresis_quantizer.h ****   template<typename T>
  67:mi/stmlib/dsp/hysteresis_quantizer.h ****   const T& Lookup(const T* array, float value, int num_steps) {
  68:mi/stmlib/dsp/hysteresis_quantizer.h ****     return array[Process(value, num_steps)];
  69:mi/stmlib/dsp/hysteresis_quantizer.h ****   }
  70:mi/stmlib/dsp/hysteresis_quantizer.h **** 
  71:mi/stmlib/dsp/hysteresis_quantizer.h ****  private:
  72:mi/stmlib/dsp/hysteresis_quantizer.h ****   int quantized_value_;
  73:mi/stmlib/dsp/hysteresis_quantizer.h ****   
  74:mi/stmlib/dsp/hysteresis_quantizer.h ****   DISALLOW_COPY_AND_ASSIGN(HysteresisQuantizer);
  75:mi/stmlib/dsp/hysteresis_quantizer.h **** };
  76:mi/stmlib/dsp/hysteresis_quantizer.h **** 
  77:mi/stmlib/dsp/hysteresis_quantizer.h **** 
  78:mi/stmlib/dsp/hysteresis_quantizer.h **** // Note: currently refactoring this aspect of all Mutable Instruments modules.
  79:mi/stmlib/dsp/hysteresis_quantizer.h **** // The codebase will progressively use only this class, at which point the other
  80:mi/stmlib/dsp/hysteresis_quantizer.h **** // version will be deprecated
  81:mi/stmlib/dsp/hysteresis_quantizer.h **** 
  82:mi/stmlib/dsp/hysteresis_quantizer.h **** class HysteresisQuantizer2 {
  83:mi/stmlib/dsp/hysteresis_quantizer.h ****  public:
  84:mi/stmlib/dsp/hysteresis_quantizer.h ****   HysteresisQuantizer2() { }
  85:mi/stmlib/dsp/hysteresis_quantizer.h ****   ~HysteresisQuantizer2() { }
  86:mi/stmlib/dsp/hysteresis_quantizer.h **** 
  87:mi/stmlib/dsp/hysteresis_quantizer.h ****   void Init(int num_steps, float hysteresis, bool symmetric) {
  88:mi/stmlib/dsp/hysteresis_quantizer.h ****     num_steps_ = num_steps;
  89:mi/stmlib/dsp/hysteresis_quantizer.h ****     hysteresis_ = hysteresis;
  90:mi/stmlib/dsp/hysteresis_quantizer.h **** 
  91:mi/stmlib/dsp/hysteresis_quantizer.h ****     scale_ = static_cast<float>(symmetric ? num_steps - 1 : num_steps);
  92:mi/stmlib/dsp/hysteresis_quantizer.h ****     offset_ = symmetric ? 0.0f : -0.5f;
 178              		.loc 6 92 13 view .LVU47
 179 004c 4FF03F43 		mov	r3, #-1090519040
  91:mi/stmlib/dsp/hysteresis_quantizer.h ****     offset_ = symmetric ? 0.0f : -0.5f;
 180              		.loc 6 91 12 view .LVU48
 181 0050 0F49     		ldr	r1, .L7+8
 182              	.LBE415:
 183              	.LBE414:
 184              	.LBB420:
 185              	.LBB411:
 186              	.LBB408:
 187              	.LBB405:
 188              		.loc 5 57 16 view .LVU49
 189 0052 C4F8CC20 		str	r2, [r4, #204]
 190              	.LBE405:
 191              	.LBE408:
 192              	.LBE411:
 193              	.LBE420:
 194              	.LBB421:
 195              	.LBB416:
  88:mi/stmlib/dsp/hysteresis_quantizer.h ****     hysteresis_ = hysteresis;
 196              		.loc 6 88 16 view .LVU50
 197 0056 0C22     		movs	r2, #12
ARM GAS  /var/folders/9k/zk1mgrrd7wg4__6zvxvr9w8m0000gn/T//cc4BDeRe.s 			page 11


 198              		.loc 6 92 13 view .LVU51
 199 0058 C4F8DC30 		str	r3, [r4, #220]	@ float
 200              	.LBE416:
 201              	.LBE421:
  47:mi/plaits/dsp/engine2/chiptune_engine.cpp ****   
  48:mi/plaits/dsp/engine2/chiptune_engine.cpp ****   arpeggiator_pattern_selector_.Init(12, 0.075f, false);
  49:mi/plaits/dsp/engine2/chiptune_engine.cpp ****   
  50:mi/plaits/dsp/engine2/chiptune_engine.cpp ****   envelope_shape_ = NO_ENVELOPE;
 202              		.loc 2 50 19 view .LVU52
 203 005c 4FF08043 		mov	r3, #1073741824
 204              	.LBB422:
 205              	.LBB417:
  88:mi/stmlib/dsp/hysteresis_quantizer.h ****     hysteresis_ = hysteresis;
 206              		.loc 6 88 16 view .LVU53
 207 0060 C4F8D020 		str	r2, [r4, #208]
  89:mi/stmlib/dsp/hysteresis_quantizer.h **** 
 208              		.loc 6 89 17 view .LVU54
 209 0064 0B4A     		ldr	r2, .L7+12
  91:mi/stmlib/dsp/hysteresis_quantizer.h ****     offset_ = symmetric ? 0.0f : -0.5f;
 210              		.loc 6 91 12 view .LVU55
 211 0066 C4F8D810 		str	r1, [r4, #216]	@ float
 212              	.LBE417:
 213              	.LBE422:
 214              	.LBB423:
 215              	.LBB412:
  50:mi/plaits/dsp/engine2/arpeggiator.h ****     Reset();
 216              		.loc 5 50 11 view .LVU56
 217 006a 84F8BC60 		strb	r6, [r4, #188]
  51:mi/plaits/dsp/engine2/arpeggiator.h ****   }
 218              		.loc 5 51 5 is_stmt 1 view .LVU57
 219              	.LVL7:
 220              	.LBB409:
 221              	.LBI403:
  54:mi/plaits/dsp/engine2/arpeggiator.h ****     note_ = 0;
 222              		.loc 5 54 8 view .LVU58
 223              	.LBB406:
  55:mi/plaits/dsp/engine2/arpeggiator.h ****     octave_ = 0;
 224              		.loc 5 55 5 view .LVU59
 225              	.LBE406:
 226              	.LBE409:
 227              	.LBE412:
 228              	.LBE423:
 229              	.LBB424:
 230              	.LBB418:
  89:mi/stmlib/dsp/hysteresis_quantizer.h **** 
 231              		.loc 6 89 17 is_stmt 0 view .LVU60
 232 006e C4F8D420 		str	r2, [r4, #212]	@ float
  93:mi/stmlib/dsp/hysteresis_quantizer.h **** 
  94:mi/stmlib/dsp/hysteresis_quantizer.h ****     quantized_value_ = 0;
 233              		.loc 6 94 22 view .LVU61
 234 0072 C4F8E060 		str	r6, [r4, #224]
 235              	.LBE418:
 236              	.LBE424:
  51:mi/plaits/dsp/engine2/chiptune_engine.cpp ****   envelope_state_ = 0.0f;
 237              		.loc 2 51 19 view .LVU62
 238 0076 C4F8E850 		str	r5, [r4, #232]	@ float
  52:mi/plaits/dsp/engine2/chiptune_engine.cpp ****   aux_envelope_amount_ = 0.0f;
ARM GAS  /var/folders/9k/zk1mgrrd7wg4__6zvxvr9w8m0000gn/T//cc4BDeRe.s 			page 12


 239              		.loc 2 52 24 view .LVU63
 240 007a C4F8EC50 		str	r5, [r4, #236]	@ float
  50:mi/plaits/dsp/engine2/chiptune_engine.cpp ****   envelope_state_ = 0.0f;
 241              		.loc 2 50 19 view .LVU64
 242 007e C4F8E430 		str	r3, [r4, #228]	@ float
 243              	.LBB425:
 244              	.LBB413:
 245              	.LBB410:
 246              	.LBB407:
  56:mi/plaits/dsp/engine2/arpeggiator.h ****     direction_ = 1;
 247              		.loc 5 56 13 view .LVU65
 248 0082 C4E93166 		strd	r6, r6, [r4, #196]
 249              		.loc 5 57 5 is_stmt 1 view .LVU66
 250              	.LVL8:
 251              		.loc 5 57 5 is_stmt 0 view .LVU67
 252              	.LBE407:
 253              	.LBE410:
 254              	.LBE413:
 255              	.LBE425:
  48:mi/plaits/dsp/engine2/chiptune_engine.cpp ****   
 256              		.loc 2 48 3 is_stmt 1 view .LVU68
 257              	.LBB426:
 258              	.LBI414:
  87:mi/stmlib/dsp/hysteresis_quantizer.h ****     num_steps_ = num_steps;
 259              		.loc 6 87 8 view .LVU69
 260              	.LBB419:
  88:mi/stmlib/dsp/hysteresis_quantizer.h ****     hysteresis_ = hysteresis;
 261              		.loc 6 88 5 view .LVU70
  89:mi/stmlib/dsp/hysteresis_quantizer.h **** 
 262              		.loc 6 89 5 view .LVU71
  91:mi/stmlib/dsp/hysteresis_quantizer.h ****     offset_ = symmetric ? 0.0f : -0.5f;
 263              		.loc 6 91 5 view .LVU72
  92:mi/stmlib/dsp/hysteresis_quantizer.h **** 
 264              		.loc 6 92 5 view .LVU73
 265              		.loc 6 94 5 view .LVU74
 266              		.loc 6 94 5 is_stmt 0 view .LVU75
 267              	.LBE419:
 268              	.LBE426:
  50:mi/plaits/dsp/engine2/chiptune_engine.cpp ****   envelope_state_ = 0.0f;
 269              		.loc 2 50 3 is_stmt 1 view .LVU76
  51:mi/plaits/dsp/engine2/chiptune_engine.cpp ****   aux_envelope_amount_ = 0.0f;
 270              		.loc 2 51 3 view .LVU77
 271              		.loc 2 52 3 view .LVU78
  53:mi/plaits/dsp/engine2/chiptune_engine.cpp **** }
 272              		.loc 2 53 1 is_stmt 0 view .LVU79
 273 0086 70BD     		pop	{r4, r5, r6, pc}
 274              	.LVL9:
 275              	.L8:
 276              		.loc 2 53 1 view .LVU80
 277              		.align	2
 278              	.L7:
 279 0088 6F12833A 		.word	981668463
 280 008c 0AD7233C 		.word	1008981770
 281 0090 00004041 		.word	1094713344
 282 0094 9A99993D 		.word	1033476506
 283              		.cfi_endproc
 284              	.LFE1559:
ARM GAS  /var/folders/9k/zk1mgrrd7wg4__6zvxvr9w8m0000gn/T//cc4BDeRe.s 			page 13


 286              		.section	.text._ZN6plaits14ChiptuneEngine5ResetEv,"ax",%progbits
 287              		.align	1
 288              		.p2align 2,,3
 289              		.global	_ZN6plaits14ChiptuneEngine5ResetEv
 290              		.syntax unified
 291              		.thumb
 292              		.thumb_func
 294              	_ZN6plaits14ChiptuneEngine5ResetEv:
 295              	.LVL10:
 296              	.LFB1560:
  54:mi/plaits/dsp/engine2/chiptune_engine.cpp **** 
  55:mi/plaits/dsp/engine2/chiptune_engine.cpp **** void ChiptuneEngine::Reset() {
 297              		.loc 2 55 30 is_stmt 1 view -0
 298              		.cfi_startproc
 299              		@ args = 0, pretend = 0, frame = 0
 300              		@ frame_needed = 0, uses_anonymous_args = 0
 301              		@ link register save eliminated.
  56:mi/plaits/dsp/engine2/chiptune_engine.cpp ****   chords_.Reset();
 302              		.loc 2 56 3 view .LVU82
 303              		.loc 2 56 16 is_stmt 0 view .LVU83
 304 0000 9C30     		adds	r0, r0, #156
 305              	.LVL11:
 306              		.loc 2 56 16 view .LVU84
 307 0002 FFF7FEBF 		b	_ZN6plaits9ChordBank5ResetEv
 308              	.LVL12:
 309              		.loc 2 56 16 view .LVU85
 310              		.cfi_endproc
 311              	.LFE1560:
 313 0006 00BF     		.section	.text._ZSt13__adjust_heapIPfifN9__gnu_cxx5__ops15_Iter_less_iterEEvT_T0_S5_T1_T2_.isra.0,
 314              		.align	1
 315              		.p2align 2,,3
 316              		.syntax unified
 317              		.thumb
 318              		.thumb_func
 320              	_ZSt13__adjust_heapIPfifN9__gnu_cxx5__ops15_Iter_less_iterEEvT_T0_S5_T1_T2_.isra.0:
 321              	.LVL13:
 322              	.LFB1622:
 323              		.file 7 "/Library/DaisyToolchain/0.2.0/arm/arm-none-eabi/include/c++/10.3.1/bits/stl_heap.h"
   1:/Library/DaisyToolchain/0.2.0/arm/arm-none-eabi/include/c++/10.3.1/bits/stl_heap.h **** // Heap implementation -*- C++ -*-
   2:/Library/DaisyToolchain/0.2.0/arm/arm-none-eabi/include/c++/10.3.1/bits/stl_heap.h **** 
   3:/Library/DaisyToolchain/0.2.0/arm/arm-none-eabi/include/c++/10.3.1/bits/stl_heap.h **** // Copyright (C) 2001-2020 Free Software Foundation, Inc.
   4:/Library/DaisyToolchain/0.2.0/arm/arm-none-eabi/include/c++/10.3.1/bits/stl_heap.h **** //
   5:/Library/DaisyToolchain/0.2.0/arm/arm-none-eabi/include/c++/10.3.1/bits/stl_heap.h **** // This file is part of the GNU ISO C++ Library.  This library is free
   6:/Library/DaisyToolchain/0.2.0/arm/arm-none-eabi/include/c++/10.3.1/bits/stl_heap.h **** // software; you can redistribute it and/or modify it under the
   7:/Library/DaisyToolchain/0.2.0/arm/arm-none-eabi/include/c++/10.3.1/bits/stl_heap.h **** // terms of the GNU General Public License as published by the
   8:/Library/DaisyToolchain/0.2.0/arm/arm-none-eabi/include/c++/10.3.1/bits/stl_heap.h **** // Free Software Foundation; either version 3, or (at your option)
   9:/Library/DaisyToolchain/0.2.0/arm/arm-none-eabi/include/c++/10.3.1/bits/stl_heap.h **** // any later version.
  10:/Library/DaisyToolchain/0.2.0/arm/arm-none-eabi/include/c++/10.3.1/bits/stl_heap.h **** 
  11:/Library/DaisyToolchain/0.2.0/arm/arm-none-eabi/include/c++/10.3.1/bits/stl_heap.h **** // This library is distributed in the hope that it will be useful,
  12:/Library/DaisyToolchain/0.2.0/arm/arm-none-eabi/include/c++/10.3.1/bits/stl_heap.h **** // but WITHOUT ANY WARRANTY; without even the implied warranty of
  13:/Library/DaisyToolchain/0.2.0/arm/arm-none-eabi/include/c++/10.3.1/bits/stl_heap.h **** // MERCHANTABILITY or FITNESS FOR A PARTICULAR PURPOSE.  See the
  14:/Library/DaisyToolchain/0.2.0/arm/arm-none-eabi/include/c++/10.3.1/bits/stl_heap.h **** // GNU General Public License for more details.
  15:/Library/DaisyToolchain/0.2.0/arm/arm-none-eabi/include/c++/10.3.1/bits/stl_heap.h **** 
  16:/Library/DaisyToolchain/0.2.0/arm/arm-none-eabi/include/c++/10.3.1/bits/stl_heap.h **** // Under Section 7 of GPL version 3, you are granted additional
  17:/Library/DaisyToolchain/0.2.0/arm/arm-none-eabi/include/c++/10.3.1/bits/stl_heap.h **** // permissions described in the GCC Runtime Library Exception, version
  18:/Library/DaisyToolchain/0.2.0/arm/arm-none-eabi/include/c++/10.3.1/bits/stl_heap.h **** // 3.1, as published by the Free Software Foundation.
  19:/Library/DaisyToolchain/0.2.0/arm/arm-none-eabi/include/c++/10.3.1/bits/stl_heap.h **** 
ARM GAS  /var/folders/9k/zk1mgrrd7wg4__6zvxvr9w8m0000gn/T//cc4BDeRe.s 			page 14


  20:/Library/DaisyToolchain/0.2.0/arm/arm-none-eabi/include/c++/10.3.1/bits/stl_heap.h **** // You should have received a copy of the GNU General Public License and
  21:/Library/DaisyToolchain/0.2.0/arm/arm-none-eabi/include/c++/10.3.1/bits/stl_heap.h **** // a copy of the GCC Runtime Library Exception along with this program;
  22:/Library/DaisyToolchain/0.2.0/arm/arm-none-eabi/include/c++/10.3.1/bits/stl_heap.h **** // see the files COPYING3 and COPYING.RUNTIME respectively.  If not, see
  23:/Library/DaisyToolchain/0.2.0/arm/arm-none-eabi/include/c++/10.3.1/bits/stl_heap.h **** // <http://www.gnu.org/licenses/>.
  24:/Library/DaisyToolchain/0.2.0/arm/arm-none-eabi/include/c++/10.3.1/bits/stl_heap.h **** 
  25:/Library/DaisyToolchain/0.2.0/arm/arm-none-eabi/include/c++/10.3.1/bits/stl_heap.h **** /*
  26:/Library/DaisyToolchain/0.2.0/arm/arm-none-eabi/include/c++/10.3.1/bits/stl_heap.h ****  *
  27:/Library/DaisyToolchain/0.2.0/arm/arm-none-eabi/include/c++/10.3.1/bits/stl_heap.h ****  * Copyright (c) 1994
  28:/Library/DaisyToolchain/0.2.0/arm/arm-none-eabi/include/c++/10.3.1/bits/stl_heap.h ****  * Hewlett-Packard Company
  29:/Library/DaisyToolchain/0.2.0/arm/arm-none-eabi/include/c++/10.3.1/bits/stl_heap.h ****  *
  30:/Library/DaisyToolchain/0.2.0/arm/arm-none-eabi/include/c++/10.3.1/bits/stl_heap.h ****  * Permission to use, copy, modify, distribute and sell this software
  31:/Library/DaisyToolchain/0.2.0/arm/arm-none-eabi/include/c++/10.3.1/bits/stl_heap.h ****  * and its documentation for any purpose is hereby granted without fee,
  32:/Library/DaisyToolchain/0.2.0/arm/arm-none-eabi/include/c++/10.3.1/bits/stl_heap.h ****  * provided that the above copyright notice appear in all copies and
  33:/Library/DaisyToolchain/0.2.0/arm/arm-none-eabi/include/c++/10.3.1/bits/stl_heap.h ****  * that both that copyright notice and this permission notice appear
  34:/Library/DaisyToolchain/0.2.0/arm/arm-none-eabi/include/c++/10.3.1/bits/stl_heap.h ****  * in supporting documentation.  Hewlett-Packard Company makes no
  35:/Library/DaisyToolchain/0.2.0/arm/arm-none-eabi/include/c++/10.3.1/bits/stl_heap.h ****  * representations about the suitability of this software for any
  36:/Library/DaisyToolchain/0.2.0/arm/arm-none-eabi/include/c++/10.3.1/bits/stl_heap.h ****  * purpose.  It is provided "as is" without express or implied warranty.
  37:/Library/DaisyToolchain/0.2.0/arm/arm-none-eabi/include/c++/10.3.1/bits/stl_heap.h ****  *
  38:/Library/DaisyToolchain/0.2.0/arm/arm-none-eabi/include/c++/10.3.1/bits/stl_heap.h ****  * Copyright (c) 1997
  39:/Library/DaisyToolchain/0.2.0/arm/arm-none-eabi/include/c++/10.3.1/bits/stl_heap.h ****  * Silicon Graphics Computer Systems, Inc.
  40:/Library/DaisyToolchain/0.2.0/arm/arm-none-eabi/include/c++/10.3.1/bits/stl_heap.h ****  *
  41:/Library/DaisyToolchain/0.2.0/arm/arm-none-eabi/include/c++/10.3.1/bits/stl_heap.h ****  * Permission to use, copy, modify, distribute and sell this software
  42:/Library/DaisyToolchain/0.2.0/arm/arm-none-eabi/include/c++/10.3.1/bits/stl_heap.h ****  * and its documentation for any purpose is hereby granted without fee,
  43:/Library/DaisyToolchain/0.2.0/arm/arm-none-eabi/include/c++/10.3.1/bits/stl_heap.h ****  * provided that the above copyright notice appear in all copies and
  44:/Library/DaisyToolchain/0.2.0/arm/arm-none-eabi/include/c++/10.3.1/bits/stl_heap.h ****  * that both that copyright notice and this permission notice appear
  45:/Library/DaisyToolchain/0.2.0/arm/arm-none-eabi/include/c++/10.3.1/bits/stl_heap.h ****  * in supporting documentation.  Silicon Graphics makes no
  46:/Library/DaisyToolchain/0.2.0/arm/arm-none-eabi/include/c++/10.3.1/bits/stl_heap.h ****  * representations about the suitability of this software for any
  47:/Library/DaisyToolchain/0.2.0/arm/arm-none-eabi/include/c++/10.3.1/bits/stl_heap.h ****  * purpose.  It is provided "as is" without express or implied warranty.
  48:/Library/DaisyToolchain/0.2.0/arm/arm-none-eabi/include/c++/10.3.1/bits/stl_heap.h ****  */
  49:/Library/DaisyToolchain/0.2.0/arm/arm-none-eabi/include/c++/10.3.1/bits/stl_heap.h **** 
  50:/Library/DaisyToolchain/0.2.0/arm/arm-none-eabi/include/c++/10.3.1/bits/stl_heap.h **** /** @file bits/stl_heap.h
  51:/Library/DaisyToolchain/0.2.0/arm/arm-none-eabi/include/c++/10.3.1/bits/stl_heap.h ****  *  This is an internal header file, included by other library headers.
  52:/Library/DaisyToolchain/0.2.0/arm/arm-none-eabi/include/c++/10.3.1/bits/stl_heap.h ****  *  Do not attempt to use it directly. @headername{queue}
  53:/Library/DaisyToolchain/0.2.0/arm/arm-none-eabi/include/c++/10.3.1/bits/stl_heap.h ****  */
  54:/Library/DaisyToolchain/0.2.0/arm/arm-none-eabi/include/c++/10.3.1/bits/stl_heap.h **** 
  55:/Library/DaisyToolchain/0.2.0/arm/arm-none-eabi/include/c++/10.3.1/bits/stl_heap.h **** #ifndef _STL_HEAP_H
  56:/Library/DaisyToolchain/0.2.0/arm/arm-none-eabi/include/c++/10.3.1/bits/stl_heap.h **** #define _STL_HEAP_H 1
  57:/Library/DaisyToolchain/0.2.0/arm/arm-none-eabi/include/c++/10.3.1/bits/stl_heap.h **** 
  58:/Library/DaisyToolchain/0.2.0/arm/arm-none-eabi/include/c++/10.3.1/bits/stl_heap.h **** #include <debug/debug.h>
  59:/Library/DaisyToolchain/0.2.0/arm/arm-none-eabi/include/c++/10.3.1/bits/stl_heap.h **** #include <bits/move.h>
  60:/Library/DaisyToolchain/0.2.0/arm/arm-none-eabi/include/c++/10.3.1/bits/stl_heap.h **** #include <bits/predefined_ops.h>
  61:/Library/DaisyToolchain/0.2.0/arm/arm-none-eabi/include/c++/10.3.1/bits/stl_heap.h **** 
  62:/Library/DaisyToolchain/0.2.0/arm/arm-none-eabi/include/c++/10.3.1/bits/stl_heap.h **** namespace std _GLIBCXX_VISIBILITY(default)
  63:/Library/DaisyToolchain/0.2.0/arm/arm-none-eabi/include/c++/10.3.1/bits/stl_heap.h **** {
  64:/Library/DaisyToolchain/0.2.0/arm/arm-none-eabi/include/c++/10.3.1/bits/stl_heap.h **** _GLIBCXX_BEGIN_NAMESPACE_VERSION
  65:/Library/DaisyToolchain/0.2.0/arm/arm-none-eabi/include/c++/10.3.1/bits/stl_heap.h **** 
  66:/Library/DaisyToolchain/0.2.0/arm/arm-none-eabi/include/c++/10.3.1/bits/stl_heap.h ****   /**
  67:/Library/DaisyToolchain/0.2.0/arm/arm-none-eabi/include/c++/10.3.1/bits/stl_heap.h ****    * @defgroup heap_algorithms Heap
  68:/Library/DaisyToolchain/0.2.0/arm/arm-none-eabi/include/c++/10.3.1/bits/stl_heap.h ****    * @ingroup sorting_algorithms
  69:/Library/DaisyToolchain/0.2.0/arm/arm-none-eabi/include/c++/10.3.1/bits/stl_heap.h ****    */
  70:/Library/DaisyToolchain/0.2.0/arm/arm-none-eabi/include/c++/10.3.1/bits/stl_heap.h **** 
  71:/Library/DaisyToolchain/0.2.0/arm/arm-none-eabi/include/c++/10.3.1/bits/stl_heap.h ****   template<typename _RandomAccessIterator, typename _Distance,
  72:/Library/DaisyToolchain/0.2.0/arm/arm-none-eabi/include/c++/10.3.1/bits/stl_heap.h **** 	   typename _Compare>
  73:/Library/DaisyToolchain/0.2.0/arm/arm-none-eabi/include/c++/10.3.1/bits/stl_heap.h ****     _GLIBCXX20_CONSTEXPR
  74:/Library/DaisyToolchain/0.2.0/arm/arm-none-eabi/include/c++/10.3.1/bits/stl_heap.h ****     _Distance
  75:/Library/DaisyToolchain/0.2.0/arm/arm-none-eabi/include/c++/10.3.1/bits/stl_heap.h ****     __is_heap_until(_RandomAccessIterator __first, _Distance __n,
  76:/Library/DaisyToolchain/0.2.0/arm/arm-none-eabi/include/c++/10.3.1/bits/stl_heap.h **** 		    _Compare& __comp)
ARM GAS  /var/folders/9k/zk1mgrrd7wg4__6zvxvr9w8m0000gn/T//cc4BDeRe.s 			page 15


  77:/Library/DaisyToolchain/0.2.0/arm/arm-none-eabi/include/c++/10.3.1/bits/stl_heap.h ****     {
  78:/Library/DaisyToolchain/0.2.0/arm/arm-none-eabi/include/c++/10.3.1/bits/stl_heap.h ****       _Distance __parent = 0;
  79:/Library/DaisyToolchain/0.2.0/arm/arm-none-eabi/include/c++/10.3.1/bits/stl_heap.h ****       for (_Distance __child = 1; __child < __n; ++__child)
  80:/Library/DaisyToolchain/0.2.0/arm/arm-none-eabi/include/c++/10.3.1/bits/stl_heap.h **** 	{
  81:/Library/DaisyToolchain/0.2.0/arm/arm-none-eabi/include/c++/10.3.1/bits/stl_heap.h **** 	  if (__comp(__first + __parent, __first + __child))
  82:/Library/DaisyToolchain/0.2.0/arm/arm-none-eabi/include/c++/10.3.1/bits/stl_heap.h **** 	    return __child;
  83:/Library/DaisyToolchain/0.2.0/arm/arm-none-eabi/include/c++/10.3.1/bits/stl_heap.h **** 	  if ((__child & 1) == 0)
  84:/Library/DaisyToolchain/0.2.0/arm/arm-none-eabi/include/c++/10.3.1/bits/stl_heap.h **** 	    ++__parent;
  85:/Library/DaisyToolchain/0.2.0/arm/arm-none-eabi/include/c++/10.3.1/bits/stl_heap.h **** 	}
  86:/Library/DaisyToolchain/0.2.0/arm/arm-none-eabi/include/c++/10.3.1/bits/stl_heap.h ****       return __n;
  87:/Library/DaisyToolchain/0.2.0/arm/arm-none-eabi/include/c++/10.3.1/bits/stl_heap.h ****     }
  88:/Library/DaisyToolchain/0.2.0/arm/arm-none-eabi/include/c++/10.3.1/bits/stl_heap.h **** 
  89:/Library/DaisyToolchain/0.2.0/arm/arm-none-eabi/include/c++/10.3.1/bits/stl_heap.h ****   // __is_heap, a predicate testing whether or not a range is a heap.
  90:/Library/DaisyToolchain/0.2.0/arm/arm-none-eabi/include/c++/10.3.1/bits/stl_heap.h ****   // This function is an extension, not part of the C++ standard.
  91:/Library/DaisyToolchain/0.2.0/arm/arm-none-eabi/include/c++/10.3.1/bits/stl_heap.h ****   template<typename _RandomAccessIterator, typename _Distance>
  92:/Library/DaisyToolchain/0.2.0/arm/arm-none-eabi/include/c++/10.3.1/bits/stl_heap.h ****     _GLIBCXX20_CONSTEXPR
  93:/Library/DaisyToolchain/0.2.0/arm/arm-none-eabi/include/c++/10.3.1/bits/stl_heap.h ****     inline bool
  94:/Library/DaisyToolchain/0.2.0/arm/arm-none-eabi/include/c++/10.3.1/bits/stl_heap.h ****     __is_heap(_RandomAccessIterator __first, _Distance __n)
  95:/Library/DaisyToolchain/0.2.0/arm/arm-none-eabi/include/c++/10.3.1/bits/stl_heap.h ****     {
  96:/Library/DaisyToolchain/0.2.0/arm/arm-none-eabi/include/c++/10.3.1/bits/stl_heap.h ****       __gnu_cxx::__ops::_Iter_less_iter __comp;
  97:/Library/DaisyToolchain/0.2.0/arm/arm-none-eabi/include/c++/10.3.1/bits/stl_heap.h ****       return std::__is_heap_until(__first, __n, __comp) == __n;
  98:/Library/DaisyToolchain/0.2.0/arm/arm-none-eabi/include/c++/10.3.1/bits/stl_heap.h ****     }
  99:/Library/DaisyToolchain/0.2.0/arm/arm-none-eabi/include/c++/10.3.1/bits/stl_heap.h **** 
 100:/Library/DaisyToolchain/0.2.0/arm/arm-none-eabi/include/c++/10.3.1/bits/stl_heap.h ****   template<typename _RandomAccessIterator, typename _Compare,
 101:/Library/DaisyToolchain/0.2.0/arm/arm-none-eabi/include/c++/10.3.1/bits/stl_heap.h **** 	   typename _Distance>
 102:/Library/DaisyToolchain/0.2.0/arm/arm-none-eabi/include/c++/10.3.1/bits/stl_heap.h ****     _GLIBCXX20_CONSTEXPR
 103:/Library/DaisyToolchain/0.2.0/arm/arm-none-eabi/include/c++/10.3.1/bits/stl_heap.h ****     inline bool
 104:/Library/DaisyToolchain/0.2.0/arm/arm-none-eabi/include/c++/10.3.1/bits/stl_heap.h ****     __is_heap(_RandomAccessIterator __first, _Compare __comp, _Distance __n)
 105:/Library/DaisyToolchain/0.2.0/arm/arm-none-eabi/include/c++/10.3.1/bits/stl_heap.h ****     {
 106:/Library/DaisyToolchain/0.2.0/arm/arm-none-eabi/include/c++/10.3.1/bits/stl_heap.h ****       typedef __decltype(__comp) _Cmp;
 107:/Library/DaisyToolchain/0.2.0/arm/arm-none-eabi/include/c++/10.3.1/bits/stl_heap.h ****       __gnu_cxx::__ops::_Iter_comp_iter<_Cmp> __cmp(_GLIBCXX_MOVE(__comp));
 108:/Library/DaisyToolchain/0.2.0/arm/arm-none-eabi/include/c++/10.3.1/bits/stl_heap.h ****       return std::__is_heap_until(__first, __n, __cmp) == __n;
 109:/Library/DaisyToolchain/0.2.0/arm/arm-none-eabi/include/c++/10.3.1/bits/stl_heap.h ****     }
 110:/Library/DaisyToolchain/0.2.0/arm/arm-none-eabi/include/c++/10.3.1/bits/stl_heap.h **** 
 111:/Library/DaisyToolchain/0.2.0/arm/arm-none-eabi/include/c++/10.3.1/bits/stl_heap.h ****   template<typename _RandomAccessIterator>
 112:/Library/DaisyToolchain/0.2.0/arm/arm-none-eabi/include/c++/10.3.1/bits/stl_heap.h ****     _GLIBCXX20_CONSTEXPR
 113:/Library/DaisyToolchain/0.2.0/arm/arm-none-eabi/include/c++/10.3.1/bits/stl_heap.h ****     inline bool
 114:/Library/DaisyToolchain/0.2.0/arm/arm-none-eabi/include/c++/10.3.1/bits/stl_heap.h ****     __is_heap(_RandomAccessIterator __first, _RandomAccessIterator __last)
 115:/Library/DaisyToolchain/0.2.0/arm/arm-none-eabi/include/c++/10.3.1/bits/stl_heap.h ****     { return std::__is_heap(__first, std::distance(__first, __last)); }
 116:/Library/DaisyToolchain/0.2.0/arm/arm-none-eabi/include/c++/10.3.1/bits/stl_heap.h **** 
 117:/Library/DaisyToolchain/0.2.0/arm/arm-none-eabi/include/c++/10.3.1/bits/stl_heap.h ****   template<typename _RandomAccessIterator, typename _Compare>
 118:/Library/DaisyToolchain/0.2.0/arm/arm-none-eabi/include/c++/10.3.1/bits/stl_heap.h ****     _GLIBCXX20_CONSTEXPR
 119:/Library/DaisyToolchain/0.2.0/arm/arm-none-eabi/include/c++/10.3.1/bits/stl_heap.h ****     inline bool
 120:/Library/DaisyToolchain/0.2.0/arm/arm-none-eabi/include/c++/10.3.1/bits/stl_heap.h ****     __is_heap(_RandomAccessIterator __first, _RandomAccessIterator __last,
 121:/Library/DaisyToolchain/0.2.0/arm/arm-none-eabi/include/c++/10.3.1/bits/stl_heap.h **** 	      _Compare __comp)
 122:/Library/DaisyToolchain/0.2.0/arm/arm-none-eabi/include/c++/10.3.1/bits/stl_heap.h ****     {
 123:/Library/DaisyToolchain/0.2.0/arm/arm-none-eabi/include/c++/10.3.1/bits/stl_heap.h ****       return std::__is_heap(__first, _GLIBCXX_MOVE(__comp),
 124:/Library/DaisyToolchain/0.2.0/arm/arm-none-eabi/include/c++/10.3.1/bits/stl_heap.h **** 			    std::distance(__first, __last));
 125:/Library/DaisyToolchain/0.2.0/arm/arm-none-eabi/include/c++/10.3.1/bits/stl_heap.h ****     }
 126:/Library/DaisyToolchain/0.2.0/arm/arm-none-eabi/include/c++/10.3.1/bits/stl_heap.h **** 
 127:/Library/DaisyToolchain/0.2.0/arm/arm-none-eabi/include/c++/10.3.1/bits/stl_heap.h ****   // Heap-manipulation functions: push_heap, pop_heap, make_heap, sort_heap,
 128:/Library/DaisyToolchain/0.2.0/arm/arm-none-eabi/include/c++/10.3.1/bits/stl_heap.h ****   // + is_heap and is_heap_until in C++0x.
 129:/Library/DaisyToolchain/0.2.0/arm/arm-none-eabi/include/c++/10.3.1/bits/stl_heap.h **** 
 130:/Library/DaisyToolchain/0.2.0/arm/arm-none-eabi/include/c++/10.3.1/bits/stl_heap.h ****   template<typename _RandomAccessIterator, typename _Distance, typename _Tp,
 131:/Library/DaisyToolchain/0.2.0/arm/arm-none-eabi/include/c++/10.3.1/bits/stl_heap.h **** 	   typename _Compare>
 132:/Library/DaisyToolchain/0.2.0/arm/arm-none-eabi/include/c++/10.3.1/bits/stl_heap.h ****     _GLIBCXX20_CONSTEXPR
 133:/Library/DaisyToolchain/0.2.0/arm/arm-none-eabi/include/c++/10.3.1/bits/stl_heap.h ****     void
ARM GAS  /var/folders/9k/zk1mgrrd7wg4__6zvxvr9w8m0000gn/T//cc4BDeRe.s 			page 16


 134:/Library/DaisyToolchain/0.2.0/arm/arm-none-eabi/include/c++/10.3.1/bits/stl_heap.h ****     __push_heap(_RandomAccessIterator __first,
 135:/Library/DaisyToolchain/0.2.0/arm/arm-none-eabi/include/c++/10.3.1/bits/stl_heap.h **** 		_Distance __holeIndex, _Distance __topIndex, _Tp __value,
 136:/Library/DaisyToolchain/0.2.0/arm/arm-none-eabi/include/c++/10.3.1/bits/stl_heap.h **** 		_Compare& __comp)
 137:/Library/DaisyToolchain/0.2.0/arm/arm-none-eabi/include/c++/10.3.1/bits/stl_heap.h ****     {
 138:/Library/DaisyToolchain/0.2.0/arm/arm-none-eabi/include/c++/10.3.1/bits/stl_heap.h ****       _Distance __parent = (__holeIndex - 1) / 2;
 139:/Library/DaisyToolchain/0.2.0/arm/arm-none-eabi/include/c++/10.3.1/bits/stl_heap.h ****       while (__holeIndex > __topIndex && __comp(__first + __parent, __value))
 140:/Library/DaisyToolchain/0.2.0/arm/arm-none-eabi/include/c++/10.3.1/bits/stl_heap.h **** 	{
 141:/Library/DaisyToolchain/0.2.0/arm/arm-none-eabi/include/c++/10.3.1/bits/stl_heap.h **** 	  *(__first + __holeIndex) = _GLIBCXX_MOVE(*(__first + __parent));
 142:/Library/DaisyToolchain/0.2.0/arm/arm-none-eabi/include/c++/10.3.1/bits/stl_heap.h **** 	  __holeIndex = __parent;
 143:/Library/DaisyToolchain/0.2.0/arm/arm-none-eabi/include/c++/10.3.1/bits/stl_heap.h **** 	  __parent = (__holeIndex - 1) / 2;
 144:/Library/DaisyToolchain/0.2.0/arm/arm-none-eabi/include/c++/10.3.1/bits/stl_heap.h **** 	}
 145:/Library/DaisyToolchain/0.2.0/arm/arm-none-eabi/include/c++/10.3.1/bits/stl_heap.h ****       *(__first + __holeIndex) = _GLIBCXX_MOVE(__value);
 146:/Library/DaisyToolchain/0.2.0/arm/arm-none-eabi/include/c++/10.3.1/bits/stl_heap.h ****     }
 147:/Library/DaisyToolchain/0.2.0/arm/arm-none-eabi/include/c++/10.3.1/bits/stl_heap.h **** 
 148:/Library/DaisyToolchain/0.2.0/arm/arm-none-eabi/include/c++/10.3.1/bits/stl_heap.h ****   /**
 149:/Library/DaisyToolchain/0.2.0/arm/arm-none-eabi/include/c++/10.3.1/bits/stl_heap.h ****    *  @brief  Push an element onto a heap.
 150:/Library/DaisyToolchain/0.2.0/arm/arm-none-eabi/include/c++/10.3.1/bits/stl_heap.h ****    *  @param  __first  Start of heap.
 151:/Library/DaisyToolchain/0.2.0/arm/arm-none-eabi/include/c++/10.3.1/bits/stl_heap.h ****    *  @param  __last   End of heap + element.
 152:/Library/DaisyToolchain/0.2.0/arm/arm-none-eabi/include/c++/10.3.1/bits/stl_heap.h ****    *  @ingroup heap_algorithms
 153:/Library/DaisyToolchain/0.2.0/arm/arm-none-eabi/include/c++/10.3.1/bits/stl_heap.h ****    *
 154:/Library/DaisyToolchain/0.2.0/arm/arm-none-eabi/include/c++/10.3.1/bits/stl_heap.h ****    *  This operation pushes the element at last-1 onto the valid heap
 155:/Library/DaisyToolchain/0.2.0/arm/arm-none-eabi/include/c++/10.3.1/bits/stl_heap.h ****    *  over the range [__first,__last-1).  After completion,
 156:/Library/DaisyToolchain/0.2.0/arm/arm-none-eabi/include/c++/10.3.1/bits/stl_heap.h ****    *  [__first,__last) is a valid heap.
 157:/Library/DaisyToolchain/0.2.0/arm/arm-none-eabi/include/c++/10.3.1/bits/stl_heap.h ****   */
 158:/Library/DaisyToolchain/0.2.0/arm/arm-none-eabi/include/c++/10.3.1/bits/stl_heap.h ****   template<typename _RandomAccessIterator>
 159:/Library/DaisyToolchain/0.2.0/arm/arm-none-eabi/include/c++/10.3.1/bits/stl_heap.h ****     _GLIBCXX20_CONSTEXPR
 160:/Library/DaisyToolchain/0.2.0/arm/arm-none-eabi/include/c++/10.3.1/bits/stl_heap.h ****     inline void
 161:/Library/DaisyToolchain/0.2.0/arm/arm-none-eabi/include/c++/10.3.1/bits/stl_heap.h ****     push_heap(_RandomAccessIterator __first, _RandomAccessIterator __last)
 162:/Library/DaisyToolchain/0.2.0/arm/arm-none-eabi/include/c++/10.3.1/bits/stl_heap.h ****     {
 163:/Library/DaisyToolchain/0.2.0/arm/arm-none-eabi/include/c++/10.3.1/bits/stl_heap.h ****       typedef typename iterator_traits<_RandomAccessIterator>::value_type
 164:/Library/DaisyToolchain/0.2.0/arm/arm-none-eabi/include/c++/10.3.1/bits/stl_heap.h **** 	  _ValueType;
 165:/Library/DaisyToolchain/0.2.0/arm/arm-none-eabi/include/c++/10.3.1/bits/stl_heap.h ****       typedef typename iterator_traits<_RandomAccessIterator>::difference_type
 166:/Library/DaisyToolchain/0.2.0/arm/arm-none-eabi/include/c++/10.3.1/bits/stl_heap.h **** 	  _DistanceType;
 167:/Library/DaisyToolchain/0.2.0/arm/arm-none-eabi/include/c++/10.3.1/bits/stl_heap.h **** 
 168:/Library/DaisyToolchain/0.2.0/arm/arm-none-eabi/include/c++/10.3.1/bits/stl_heap.h ****       // concept requirements
 169:/Library/DaisyToolchain/0.2.0/arm/arm-none-eabi/include/c++/10.3.1/bits/stl_heap.h ****       __glibcxx_function_requires(_Mutable_RandomAccessIteratorConcept<
 170:/Library/DaisyToolchain/0.2.0/arm/arm-none-eabi/include/c++/10.3.1/bits/stl_heap.h **** 	    _RandomAccessIterator>)
 171:/Library/DaisyToolchain/0.2.0/arm/arm-none-eabi/include/c++/10.3.1/bits/stl_heap.h ****       __glibcxx_function_requires(_LessThanComparableConcept<_ValueType>)
 172:/Library/DaisyToolchain/0.2.0/arm/arm-none-eabi/include/c++/10.3.1/bits/stl_heap.h ****       __glibcxx_requires_valid_range(__first, __last);
 173:/Library/DaisyToolchain/0.2.0/arm/arm-none-eabi/include/c++/10.3.1/bits/stl_heap.h ****       __glibcxx_requires_irreflexive(__first, __last);
 174:/Library/DaisyToolchain/0.2.0/arm/arm-none-eabi/include/c++/10.3.1/bits/stl_heap.h ****       __glibcxx_requires_heap(__first, __last - 1);
 175:/Library/DaisyToolchain/0.2.0/arm/arm-none-eabi/include/c++/10.3.1/bits/stl_heap.h **** 
 176:/Library/DaisyToolchain/0.2.0/arm/arm-none-eabi/include/c++/10.3.1/bits/stl_heap.h ****       __gnu_cxx::__ops::_Iter_less_val __comp;
 177:/Library/DaisyToolchain/0.2.0/arm/arm-none-eabi/include/c++/10.3.1/bits/stl_heap.h ****       _ValueType __value = _GLIBCXX_MOVE(*(__last - 1));
 178:/Library/DaisyToolchain/0.2.0/arm/arm-none-eabi/include/c++/10.3.1/bits/stl_heap.h ****       std::__push_heap(__first, _DistanceType((__last - __first) - 1),
 179:/Library/DaisyToolchain/0.2.0/arm/arm-none-eabi/include/c++/10.3.1/bits/stl_heap.h **** 		       _DistanceType(0), _GLIBCXX_MOVE(__value), __comp);
 180:/Library/DaisyToolchain/0.2.0/arm/arm-none-eabi/include/c++/10.3.1/bits/stl_heap.h ****     }
 181:/Library/DaisyToolchain/0.2.0/arm/arm-none-eabi/include/c++/10.3.1/bits/stl_heap.h **** 
 182:/Library/DaisyToolchain/0.2.0/arm/arm-none-eabi/include/c++/10.3.1/bits/stl_heap.h ****   /**
 183:/Library/DaisyToolchain/0.2.0/arm/arm-none-eabi/include/c++/10.3.1/bits/stl_heap.h ****    *  @brief  Push an element onto a heap using comparison functor.
 184:/Library/DaisyToolchain/0.2.0/arm/arm-none-eabi/include/c++/10.3.1/bits/stl_heap.h ****    *  @param  __first  Start of heap.
 185:/Library/DaisyToolchain/0.2.0/arm/arm-none-eabi/include/c++/10.3.1/bits/stl_heap.h ****    *  @param  __last   End of heap + element.
 186:/Library/DaisyToolchain/0.2.0/arm/arm-none-eabi/include/c++/10.3.1/bits/stl_heap.h ****    *  @param  __comp   Comparison functor.
 187:/Library/DaisyToolchain/0.2.0/arm/arm-none-eabi/include/c++/10.3.1/bits/stl_heap.h ****    *  @ingroup heap_algorithms
 188:/Library/DaisyToolchain/0.2.0/arm/arm-none-eabi/include/c++/10.3.1/bits/stl_heap.h ****    *
 189:/Library/DaisyToolchain/0.2.0/arm/arm-none-eabi/include/c++/10.3.1/bits/stl_heap.h ****    *  This operation pushes the element at __last-1 onto the valid
 190:/Library/DaisyToolchain/0.2.0/arm/arm-none-eabi/include/c++/10.3.1/bits/stl_heap.h ****    *  heap over the range [__first,__last-1).  After completion,
ARM GAS  /var/folders/9k/zk1mgrrd7wg4__6zvxvr9w8m0000gn/T//cc4BDeRe.s 			page 17


 191:/Library/DaisyToolchain/0.2.0/arm/arm-none-eabi/include/c++/10.3.1/bits/stl_heap.h ****    *  [__first,__last) is a valid heap.  Compare operations are
 192:/Library/DaisyToolchain/0.2.0/arm/arm-none-eabi/include/c++/10.3.1/bits/stl_heap.h ****    *  performed using comp.
 193:/Library/DaisyToolchain/0.2.0/arm/arm-none-eabi/include/c++/10.3.1/bits/stl_heap.h ****   */
 194:/Library/DaisyToolchain/0.2.0/arm/arm-none-eabi/include/c++/10.3.1/bits/stl_heap.h ****   template<typename _RandomAccessIterator, typename _Compare>
 195:/Library/DaisyToolchain/0.2.0/arm/arm-none-eabi/include/c++/10.3.1/bits/stl_heap.h ****     _GLIBCXX20_CONSTEXPR
 196:/Library/DaisyToolchain/0.2.0/arm/arm-none-eabi/include/c++/10.3.1/bits/stl_heap.h ****     inline void
 197:/Library/DaisyToolchain/0.2.0/arm/arm-none-eabi/include/c++/10.3.1/bits/stl_heap.h ****     push_heap(_RandomAccessIterator __first, _RandomAccessIterator __last,
 198:/Library/DaisyToolchain/0.2.0/arm/arm-none-eabi/include/c++/10.3.1/bits/stl_heap.h **** 	      _Compare __comp)
 199:/Library/DaisyToolchain/0.2.0/arm/arm-none-eabi/include/c++/10.3.1/bits/stl_heap.h ****     {
 200:/Library/DaisyToolchain/0.2.0/arm/arm-none-eabi/include/c++/10.3.1/bits/stl_heap.h ****       typedef typename iterator_traits<_RandomAccessIterator>::value_type
 201:/Library/DaisyToolchain/0.2.0/arm/arm-none-eabi/include/c++/10.3.1/bits/stl_heap.h **** 	  _ValueType;
 202:/Library/DaisyToolchain/0.2.0/arm/arm-none-eabi/include/c++/10.3.1/bits/stl_heap.h ****       typedef typename iterator_traits<_RandomAccessIterator>::difference_type
 203:/Library/DaisyToolchain/0.2.0/arm/arm-none-eabi/include/c++/10.3.1/bits/stl_heap.h **** 	  _DistanceType;
 204:/Library/DaisyToolchain/0.2.0/arm/arm-none-eabi/include/c++/10.3.1/bits/stl_heap.h **** 
 205:/Library/DaisyToolchain/0.2.0/arm/arm-none-eabi/include/c++/10.3.1/bits/stl_heap.h ****       // concept requirements
 206:/Library/DaisyToolchain/0.2.0/arm/arm-none-eabi/include/c++/10.3.1/bits/stl_heap.h ****       __glibcxx_function_requires(_Mutable_RandomAccessIteratorConcept<
 207:/Library/DaisyToolchain/0.2.0/arm/arm-none-eabi/include/c++/10.3.1/bits/stl_heap.h **** 	    _RandomAccessIterator>)
 208:/Library/DaisyToolchain/0.2.0/arm/arm-none-eabi/include/c++/10.3.1/bits/stl_heap.h ****       __glibcxx_requires_valid_range(__first, __last);
 209:/Library/DaisyToolchain/0.2.0/arm/arm-none-eabi/include/c++/10.3.1/bits/stl_heap.h ****       __glibcxx_requires_irreflexive_pred(__first, __last, __comp);
 210:/Library/DaisyToolchain/0.2.0/arm/arm-none-eabi/include/c++/10.3.1/bits/stl_heap.h ****       __glibcxx_requires_heap_pred(__first, __last - 1, __comp);
 211:/Library/DaisyToolchain/0.2.0/arm/arm-none-eabi/include/c++/10.3.1/bits/stl_heap.h **** 
 212:/Library/DaisyToolchain/0.2.0/arm/arm-none-eabi/include/c++/10.3.1/bits/stl_heap.h ****       __decltype(__gnu_cxx::__ops::__iter_comp_val(_GLIBCXX_MOVE(__comp)))
 213:/Library/DaisyToolchain/0.2.0/arm/arm-none-eabi/include/c++/10.3.1/bits/stl_heap.h **** 	__cmp(_GLIBCXX_MOVE(__comp));
 214:/Library/DaisyToolchain/0.2.0/arm/arm-none-eabi/include/c++/10.3.1/bits/stl_heap.h ****       _ValueType __value = _GLIBCXX_MOVE(*(__last - 1));
 215:/Library/DaisyToolchain/0.2.0/arm/arm-none-eabi/include/c++/10.3.1/bits/stl_heap.h ****       std::__push_heap(__first, _DistanceType((__last - __first) - 1),
 216:/Library/DaisyToolchain/0.2.0/arm/arm-none-eabi/include/c++/10.3.1/bits/stl_heap.h **** 		       _DistanceType(0), _GLIBCXX_MOVE(__value), __cmp);
 217:/Library/DaisyToolchain/0.2.0/arm/arm-none-eabi/include/c++/10.3.1/bits/stl_heap.h ****     }
 218:/Library/DaisyToolchain/0.2.0/arm/arm-none-eabi/include/c++/10.3.1/bits/stl_heap.h **** 
 219:/Library/DaisyToolchain/0.2.0/arm/arm-none-eabi/include/c++/10.3.1/bits/stl_heap.h ****   template<typename _RandomAccessIterator, typename _Distance,
 220:/Library/DaisyToolchain/0.2.0/arm/arm-none-eabi/include/c++/10.3.1/bits/stl_heap.h **** 	   typename _Tp, typename _Compare>
 221:/Library/DaisyToolchain/0.2.0/arm/arm-none-eabi/include/c++/10.3.1/bits/stl_heap.h ****     _GLIBCXX20_CONSTEXPR
 222:/Library/DaisyToolchain/0.2.0/arm/arm-none-eabi/include/c++/10.3.1/bits/stl_heap.h ****     void
 223:/Library/DaisyToolchain/0.2.0/arm/arm-none-eabi/include/c++/10.3.1/bits/stl_heap.h ****     __adjust_heap(_RandomAccessIterator __first, _Distance __holeIndex,
 324              		.loc 7 223 5 is_stmt 1 view -0
 325              		.cfi_startproc
 326              		@ args = 0, pretend = 0, frame = 0
 327              		@ frame_needed = 0, uses_anonymous_args = 0
 224:/Library/DaisyToolchain/0.2.0/arm/arm-none-eabi/include/c++/10.3.1/bits/stl_heap.h **** 		  _Distance __len, _Tp __value, _Compare __comp)
 225:/Library/DaisyToolchain/0.2.0/arm/arm-none-eabi/include/c++/10.3.1/bits/stl_heap.h ****     {
 226:/Library/DaisyToolchain/0.2.0/arm/arm-none-eabi/include/c++/10.3.1/bits/stl_heap.h ****       const _Distance __topIndex = __holeIndex;
 227:/Library/DaisyToolchain/0.2.0/arm/arm-none-eabi/include/c++/10.3.1/bits/stl_heap.h ****       _Distance __secondChild = __holeIndex;
 228:/Library/DaisyToolchain/0.2.0/arm/arm-none-eabi/include/c++/10.3.1/bits/stl_heap.h ****       while (__secondChild < (__len - 1) / 2)
 328              		.loc 7 228 28 view .LVU87
 223:/Library/DaisyToolchain/0.2.0/arm/arm-none-eabi/include/c++/10.3.1/bits/stl_heap.h **** 		  _Distance __len, _Tp __value, _Compare __comp)
 329              		.loc 7 223 5 is_stmt 0 view .LVU88
 330 0000 70B5     		push	{r4, r5, r6, lr}
 331              		.cfi_def_cfa_offset 16
 332              		.cfi_offset 4, -16
 333              		.cfi_offset 5, -12
 334              		.cfi_offset 6, -8
 335              		.cfi_offset 14, -4
 336              		.loc 7 228 42 view .LVU89
 337 0002 561E     		subs	r6, r2, #1
 338 0004 54BF     		ite	pl
 339 0006 3346     		movpl	r3, r6
 340 0008 1346     		movmi	r3, r2
 341              		.loc 7 228 28 view .LVU90
ARM GAS  /var/folders/9k/zk1mgrrd7wg4__6zvxvr9w8m0000gn/T//cc4BDeRe.s 			page 18


 342 000a B1EB630F 		cmp	r1, r3, asr #1
 343 000e 3FDA     		bge	.L12
 344 0010 5D10     		asrs	r5, r3, #1
 345 0012 8C46     		mov	ip, r1
 346              	.LVL14:
 347              	.L15:
 229:/Library/DaisyToolchain/0.2.0/arm/arm-none-eabi/include/c++/10.3.1/bits/stl_heap.h **** 	{
 230:/Library/DaisyToolchain/0.2.0/arm/arm-none-eabi/include/c++/10.3.1/bits/stl_heap.h **** 	  __secondChild = 2 * (__secondChild + 1);
 348              		.loc 7 230 39 view .LVU91
 349 0014 0CF10103 		add	r3, ip, #1
 231:/Library/DaisyToolchain/0.2.0/arm/arm-none-eabi/include/c++/10.3.1/bits/stl_heap.h **** 	  if (__comp(__first + __secondChild,
 232:/Library/DaisyToolchain/0.2.0/arm/arm-none-eabi/include/c++/10.3.1/bits/stl_heap.h **** 		     __first + (__secondChild - 1)))
 233:/Library/DaisyToolchain/0.2.0/arm/arm-none-eabi/include/c++/10.3.1/bits/stl_heap.h **** 	    __secondChild--;
 234:/Library/DaisyToolchain/0.2.0/arm/arm-none-eabi/include/c++/10.3.1/bits/stl_heap.h **** 	  *(__first + __holeIndex) = _GLIBCXX_MOVE(*(__first + __secondChild));
 350              		.loc 7 234 29 view .LVU92
 351 0018 00EB8C04 		add	r4, r0, ip, lsl #2
 231:/Library/DaisyToolchain/0.2.0/arm/arm-none-eabi/include/c++/10.3.1/bits/stl_heap.h **** 	  if (__comp(__first + __secondChild,
 352              		.loc 7 231 14 view .LVU93
 353 001c 00EBC30E 		add	lr, r0, r3, lsl #3
 230:/Library/DaisyToolchain/0.2.0/arm/arm-none-eabi/include/c++/10.3.1/bits/stl_heap.h **** 	  if (__comp(__first + __secondChild,
 354              		.loc 7 230 18 view .LVU94
 355 0020 5B00     		lsls	r3, r3, #1
 356              	.LVL15:
 357              	.LBB434:
 358              	.LBI434:
 359              		.file 8 "/Library/DaisyToolchain/0.2.0/arm/arm-none-eabi/include/c++/10.3.1/bits/predefined_ops.h"
   1:/Library/DaisyToolchain/0.2.0/arm/arm-none-eabi/include/c++/10.3.1/bits/predefined_ops.h **** // Default predicates for internal use -*- C++ -*-
   2:/Library/DaisyToolchain/0.2.0/arm/arm-none-eabi/include/c++/10.3.1/bits/predefined_ops.h **** 
   3:/Library/DaisyToolchain/0.2.0/arm/arm-none-eabi/include/c++/10.3.1/bits/predefined_ops.h **** // Copyright (C) 2013-2020 Free Software Foundation, Inc.
   4:/Library/DaisyToolchain/0.2.0/arm/arm-none-eabi/include/c++/10.3.1/bits/predefined_ops.h **** //
   5:/Library/DaisyToolchain/0.2.0/arm/arm-none-eabi/include/c++/10.3.1/bits/predefined_ops.h **** // This file is part of the GNU ISO C++ Library.  This library is free
   6:/Library/DaisyToolchain/0.2.0/arm/arm-none-eabi/include/c++/10.3.1/bits/predefined_ops.h **** // software; you can redistribute it and/or modify it under the
   7:/Library/DaisyToolchain/0.2.0/arm/arm-none-eabi/include/c++/10.3.1/bits/predefined_ops.h **** // terms of the GNU General Public License as published by the
   8:/Library/DaisyToolchain/0.2.0/arm/arm-none-eabi/include/c++/10.3.1/bits/predefined_ops.h **** // Free Software Foundation; either version 3, or (at your option)
   9:/Library/DaisyToolchain/0.2.0/arm/arm-none-eabi/include/c++/10.3.1/bits/predefined_ops.h **** // any later version.
  10:/Library/DaisyToolchain/0.2.0/arm/arm-none-eabi/include/c++/10.3.1/bits/predefined_ops.h **** 
  11:/Library/DaisyToolchain/0.2.0/arm/arm-none-eabi/include/c++/10.3.1/bits/predefined_ops.h **** // This library is distributed in the hope that it will be useful,
  12:/Library/DaisyToolchain/0.2.0/arm/arm-none-eabi/include/c++/10.3.1/bits/predefined_ops.h **** // but WITHOUT ANY WARRANTY; without even the implied warranty of
  13:/Library/DaisyToolchain/0.2.0/arm/arm-none-eabi/include/c++/10.3.1/bits/predefined_ops.h **** // MERCHANTABILITY or FITNESS FOR A PARTICULAR PURPOSE.  See the
  14:/Library/DaisyToolchain/0.2.0/arm/arm-none-eabi/include/c++/10.3.1/bits/predefined_ops.h **** // GNU General Public License for more details.
  15:/Library/DaisyToolchain/0.2.0/arm/arm-none-eabi/include/c++/10.3.1/bits/predefined_ops.h **** 
  16:/Library/DaisyToolchain/0.2.0/arm/arm-none-eabi/include/c++/10.3.1/bits/predefined_ops.h **** // Under Section 7 of GPL version 3, you are granted additional
  17:/Library/DaisyToolchain/0.2.0/arm/arm-none-eabi/include/c++/10.3.1/bits/predefined_ops.h **** // permissions described in the GCC Runtime Library Exception, version
  18:/Library/DaisyToolchain/0.2.0/arm/arm-none-eabi/include/c++/10.3.1/bits/predefined_ops.h **** // 3.1, as published by the Free Software Foundation.
  19:/Library/DaisyToolchain/0.2.0/arm/arm-none-eabi/include/c++/10.3.1/bits/predefined_ops.h **** 
  20:/Library/DaisyToolchain/0.2.0/arm/arm-none-eabi/include/c++/10.3.1/bits/predefined_ops.h **** // You should have received a copy of the GNU General Public License and
  21:/Library/DaisyToolchain/0.2.0/arm/arm-none-eabi/include/c++/10.3.1/bits/predefined_ops.h **** // a copy of the GCC Runtime Library Exception along with this program;
  22:/Library/DaisyToolchain/0.2.0/arm/arm-none-eabi/include/c++/10.3.1/bits/predefined_ops.h **** // see the files COPYING3 and COPYING.RUNTIME respectively.  If not, see
  23:/Library/DaisyToolchain/0.2.0/arm/arm-none-eabi/include/c++/10.3.1/bits/predefined_ops.h **** // <http://www.gnu.org/licenses/>.
  24:/Library/DaisyToolchain/0.2.0/arm/arm-none-eabi/include/c++/10.3.1/bits/predefined_ops.h **** 
  25:/Library/DaisyToolchain/0.2.0/arm/arm-none-eabi/include/c++/10.3.1/bits/predefined_ops.h **** /** @file predefined_ops.h
  26:/Library/DaisyToolchain/0.2.0/arm/arm-none-eabi/include/c++/10.3.1/bits/predefined_ops.h ****  *  This is an internal header file, included by other library headers.
  27:/Library/DaisyToolchain/0.2.0/arm/arm-none-eabi/include/c++/10.3.1/bits/predefined_ops.h ****  *  You should not attempt to use it directly. @headername{algorithm}
  28:/Library/DaisyToolchain/0.2.0/arm/arm-none-eabi/include/c++/10.3.1/bits/predefined_ops.h ****  */
  29:/Library/DaisyToolchain/0.2.0/arm/arm-none-eabi/include/c++/10.3.1/bits/predefined_ops.h **** 
  30:/Library/DaisyToolchain/0.2.0/arm/arm-none-eabi/include/c++/10.3.1/bits/predefined_ops.h **** #ifndef _GLIBCXX_PREDEFINED_OPS_H
  31:/Library/DaisyToolchain/0.2.0/arm/arm-none-eabi/include/c++/10.3.1/bits/predefined_ops.h **** #define _GLIBCXX_PREDEFINED_OPS_H	1
ARM GAS  /var/folders/9k/zk1mgrrd7wg4__6zvxvr9w8m0000gn/T//cc4BDeRe.s 			page 19


  32:/Library/DaisyToolchain/0.2.0/arm/arm-none-eabi/include/c++/10.3.1/bits/predefined_ops.h **** 
  33:/Library/DaisyToolchain/0.2.0/arm/arm-none-eabi/include/c++/10.3.1/bits/predefined_ops.h **** namespace __gnu_cxx
  34:/Library/DaisyToolchain/0.2.0/arm/arm-none-eabi/include/c++/10.3.1/bits/predefined_ops.h **** {
  35:/Library/DaisyToolchain/0.2.0/arm/arm-none-eabi/include/c++/10.3.1/bits/predefined_ops.h **** namespace __ops
  36:/Library/DaisyToolchain/0.2.0/arm/arm-none-eabi/include/c++/10.3.1/bits/predefined_ops.h **** {
  37:/Library/DaisyToolchain/0.2.0/arm/arm-none-eabi/include/c++/10.3.1/bits/predefined_ops.h ****   struct _Iter_less_iter
  38:/Library/DaisyToolchain/0.2.0/arm/arm-none-eabi/include/c++/10.3.1/bits/predefined_ops.h ****   {
  39:/Library/DaisyToolchain/0.2.0/arm/arm-none-eabi/include/c++/10.3.1/bits/predefined_ops.h ****     template<typename _Iterator1, typename _Iterator2>
  40:/Library/DaisyToolchain/0.2.0/arm/arm-none-eabi/include/c++/10.3.1/bits/predefined_ops.h ****       _GLIBCXX14_CONSTEXPR
  41:/Library/DaisyToolchain/0.2.0/arm/arm-none-eabi/include/c++/10.3.1/bits/predefined_ops.h ****       bool
  42:/Library/DaisyToolchain/0.2.0/arm/arm-none-eabi/include/c++/10.3.1/bits/predefined_ops.h ****       operator()(_Iterator1 __it1, _Iterator2 __it2) const
 360              		.loc 8 42 7 is_stmt 1 view .LVU95
 361              	.LBB435:
  43:/Library/DaisyToolchain/0.2.0/arm/arm-none-eabi/include/c++/10.3.1/bits/predefined_ops.h ****       { return *__it1 < *__it2; }
 362              		.loc 8 43 23 is_stmt 0 view .LVU96
 363 0022 DEED007A 		vldr.32	s15, [lr]
 364              	.LVL16:
 365              		.loc 8 43 23 view .LVU97
 366              	.LBE435:
 367              	.LBE434:
 231:/Library/DaisyToolchain/0.2.0/arm/arm-none-eabi/include/c++/10.3.1/bits/stl_heap.h **** 		     __first + (__secondChild - 1)))
 368              		.loc 7 231 4 view .LVU98
 369 0026 1EED017A 		vldr.32	s14, [lr, #-4]
 370 002a F4EEC77A 		vcmpe.f32	s15, s14
 371 002e F1EE10FA 		vmrs	APSR_nzcv, FPSCR
 372 0032 04D5     		bpl	.L13
 233:/Library/DaisyToolchain/0.2.0/arm/arm-none-eabi/include/c++/10.3.1/bits/stl_heap.h **** 	  *(__first + __holeIndex) = _GLIBCXX_MOVE(*(__first + __secondChild));
 373              		.loc 7 233 6 view .LVU99
 374 0034 013B     		subs	r3, r3, #1
 375              	.LVL17:
 376              		.loc 7 234 31 view .LVU100
 377 0036 00EB830E 		add	lr, r0, r3, lsl #2
 378              		.loc 7 234 29 view .LVU101
 379 003a DEED007A 		vldr.32	s15, [lr]
 380              	.L13:
 228:/Library/DaisyToolchain/0.2.0/arm/arm-none-eabi/include/c++/10.3.1/bits/stl_heap.h **** 	{
 381              		.loc 7 228 28 view .LVU102
 382 003e AB42     		cmp	r3, r5
 383 0040 9C46     		mov	ip, r3
 384              	.LVL18:
 385              		.loc 7 234 29 view .LVU103
 386 0042 C4ED007A 		vstr.32	s15, [r4]
 387              	.LVL19:
 228:/Library/DaisyToolchain/0.2.0/arm/arm-none-eabi/include/c++/10.3.1/bits/stl_heap.h **** 	{
 388              		.loc 7 228 28 is_stmt 1 view .LVU104
 389 0046 E5DB     		blt	.L15
 235:/Library/DaisyToolchain/0.2.0/arm/arm-none-eabi/include/c++/10.3.1/bits/stl_heap.h **** 	  __holeIndex = __secondChild;
 236:/Library/DaisyToolchain/0.2.0/arm/arm-none-eabi/include/c++/10.3.1/bits/stl_heap.h **** 	}
 237:/Library/DaisyToolchain/0.2.0/arm/arm-none-eabi/include/c++/10.3.1/bits/stl_heap.h ****       if ((__len & 1) == 0 && __secondChild == (__len - 2) / 2)
 390              		.loc 7 237 7 is_stmt 0 view .LVU105
 391 0048 D407     		lsls	r4, r2, #31
 392 004a 26D5     		bpl	.L24
 393              	.LVL20:
 394              	.L16:
 395              	.LBB436:
 396              	.LBI436:
  44:/Library/DaisyToolchain/0.2.0/arm/arm-none-eabi/include/c++/10.3.1/bits/predefined_ops.h ****   };
ARM GAS  /var/folders/9k/zk1mgrrd7wg4__6zvxvr9w8m0000gn/T//cc4BDeRe.s 			page 20


  45:/Library/DaisyToolchain/0.2.0/arm/arm-none-eabi/include/c++/10.3.1/bits/predefined_ops.h **** 
  46:/Library/DaisyToolchain/0.2.0/arm/arm-none-eabi/include/c++/10.3.1/bits/predefined_ops.h ****   _GLIBCXX14_CONSTEXPR
  47:/Library/DaisyToolchain/0.2.0/arm/arm-none-eabi/include/c++/10.3.1/bits/predefined_ops.h ****   inline _Iter_less_iter
  48:/Library/DaisyToolchain/0.2.0/arm/arm-none-eabi/include/c++/10.3.1/bits/predefined_ops.h ****   __iter_less_iter()
  49:/Library/DaisyToolchain/0.2.0/arm/arm-none-eabi/include/c++/10.3.1/bits/predefined_ops.h ****   { return _Iter_less_iter(); }
  50:/Library/DaisyToolchain/0.2.0/arm/arm-none-eabi/include/c++/10.3.1/bits/predefined_ops.h **** 
  51:/Library/DaisyToolchain/0.2.0/arm/arm-none-eabi/include/c++/10.3.1/bits/predefined_ops.h ****   struct _Iter_less_val
  52:/Library/DaisyToolchain/0.2.0/arm/arm-none-eabi/include/c++/10.3.1/bits/predefined_ops.h ****   {
  53:/Library/DaisyToolchain/0.2.0/arm/arm-none-eabi/include/c++/10.3.1/bits/predefined_ops.h **** #if __cplusplus >= 201103L
  54:/Library/DaisyToolchain/0.2.0/arm/arm-none-eabi/include/c++/10.3.1/bits/predefined_ops.h ****     constexpr _Iter_less_val() = default;
  55:/Library/DaisyToolchain/0.2.0/arm/arm-none-eabi/include/c++/10.3.1/bits/predefined_ops.h **** #else
  56:/Library/DaisyToolchain/0.2.0/arm/arm-none-eabi/include/c++/10.3.1/bits/predefined_ops.h ****     _Iter_less_val() { }
  57:/Library/DaisyToolchain/0.2.0/arm/arm-none-eabi/include/c++/10.3.1/bits/predefined_ops.h **** #endif
  58:/Library/DaisyToolchain/0.2.0/arm/arm-none-eabi/include/c++/10.3.1/bits/predefined_ops.h **** 
  59:/Library/DaisyToolchain/0.2.0/arm/arm-none-eabi/include/c++/10.3.1/bits/predefined_ops.h ****     _GLIBCXX20_CONSTEXPR
  60:/Library/DaisyToolchain/0.2.0/arm/arm-none-eabi/include/c++/10.3.1/bits/predefined_ops.h ****     explicit
  61:/Library/DaisyToolchain/0.2.0/arm/arm-none-eabi/include/c++/10.3.1/bits/predefined_ops.h ****     _Iter_less_val(_Iter_less_iter) { }
 397              		.loc 8 61 5 is_stmt 1 view .LVU106
 398              		.loc 8 61 5 is_stmt 0 view .LVU107
 399              	.LBE436:
 400              	.LBB437:
 401              	.LBI437:
 134:/Library/DaisyToolchain/0.2.0/arm/arm-none-eabi/include/c++/10.3.1/bits/stl_heap.h **** 		_Distance __holeIndex, _Distance __topIndex, _Tp __value,
 402              		.loc 7 134 5 is_stmt 1 view .LVU108
 403              	.LBB438:
 138:/Library/DaisyToolchain/0.2.0/arm/arm-none-eabi/include/c++/10.3.1/bits/stl_heap.h ****       while (__holeIndex > __topIndex && __comp(__first + __parent, __value))
 404              		.loc 7 138 17 is_stmt 0 view .LVU109
 405 004c 5A1E     		subs	r2, r3, #1
 406 004e 48BF     		it	mi
 407 0050 1A46     		movmi	r2, r3
 139:/Library/DaisyToolchain/0.2.0/arm/arm-none-eabi/include/c++/10.3.1/bits/stl_heap.h **** 	{
 408              		.loc 7 139 39 view .LVU110
 409 0052 8B42     		cmp	r3, r1
 138:/Library/DaisyToolchain/0.2.0/arm/arm-none-eabi/include/c++/10.3.1/bits/stl_heap.h ****       while (__holeIndex > __topIndex && __comp(__first + __parent, __value))
 410              		.loc 7 138 17 view .LVU111
 411 0054 4FEA6202 		asr	r2, r2, #1
 412              	.LVL21:
 139:/Library/DaisyToolchain/0.2.0/arm/arm-none-eabi/include/c++/10.3.1/bits/stl_heap.h **** 	{
 413              		.loc 7 139 39 is_stmt 1 view .LVU112
 414 0058 0BDC     		bgt	.L22
 139:/Library/DaisyToolchain/0.2.0/arm/arm-none-eabi/include/c++/10.3.1/bits/stl_heap.h **** 	{
 415              		.loc 7 139 39 is_stmt 0 view .LVU113
 416 005a 16E0     		b	.L19
 417              	.LVL22:
 418              	.L20:
 143:/Library/DaisyToolchain/0.2.0/arm/arm-none-eabi/include/c++/10.3.1/bits/stl_heap.h **** 	}
 419              		.loc 7 143 13 view .LVU114
 420 005c B2F1010C 		subs	ip, r2, #1
 421 0060 1346     		mov	r3, r2
 422              	.LVL23:
 141:/Library/DaisyToolchain/0.2.0/arm/arm-none-eabi/include/c++/10.3.1/bits/stl_heap.h **** 	  __holeIndex = __parent;
 423              		.loc 7 141 29 view .LVU115
 424 0062 C4ED007A 		vstr.32	s15, [r4]
 425              	.LVL24:
 143:/Library/DaisyToolchain/0.2.0/arm/arm-none-eabi/include/c++/10.3.1/bits/stl_heap.h **** 	}
 426              		.loc 7 143 13 view .LVU116
 427 0066 48BF     		it	mi
ARM GAS  /var/folders/9k/zk1mgrrd7wg4__6zvxvr9w8m0000gn/T//cc4BDeRe.s 			page 21


 428 0068 9446     		movmi	ip, r2
 139:/Library/DaisyToolchain/0.2.0/arm/arm-none-eabi/include/c++/10.3.1/bits/stl_heap.h **** 	{
 429              		.loc 7 139 39 view .LVU117
 430 006a 9942     		cmp	r1, r3
 143:/Library/DaisyToolchain/0.2.0/arm/arm-none-eabi/include/c++/10.3.1/bits/stl_heap.h **** 	}
 431              		.loc 7 143 13 view .LVU118
 432 006c 4FEA6C02 		asr	r2, ip, #1
 433              	.LVL25:
 139:/Library/DaisyToolchain/0.2.0/arm/arm-none-eabi/include/c++/10.3.1/bits/stl_heap.h **** 	{
 434              		.loc 7 139 39 is_stmt 1 view .LVU119
 435 0070 0BDA     		bge	.L19
 436              	.L22:
 139:/Library/DaisyToolchain/0.2.0/arm/arm-none-eabi/include/c++/10.3.1/bits/stl_heap.h **** 	{
 437              		.loc 7 139 48 is_stmt 0 view .LVU120
 438 0072 00EB820E 		add	lr, r0, r2, lsl #2
 439              	.LVL26:
 440              	.LBB439:
 441              	.LBI439:
  62:/Library/DaisyToolchain/0.2.0/arm/arm-none-eabi/include/c++/10.3.1/bits/predefined_ops.h **** 
  63:/Library/DaisyToolchain/0.2.0/arm/arm-none-eabi/include/c++/10.3.1/bits/predefined_ops.h ****     template<typename _Iterator, typename _Value>
  64:/Library/DaisyToolchain/0.2.0/arm/arm-none-eabi/include/c++/10.3.1/bits/predefined_ops.h ****       _GLIBCXX20_CONSTEXPR
  65:/Library/DaisyToolchain/0.2.0/arm/arm-none-eabi/include/c++/10.3.1/bits/predefined_ops.h ****       bool
  66:/Library/DaisyToolchain/0.2.0/arm/arm-none-eabi/include/c++/10.3.1/bits/predefined_ops.h ****       operator()(_Iterator __it, _Value& __val) const
 442              		.loc 8 66 7 is_stmt 1 view .LVU121
 443              	.LBE439:
 141:/Library/DaisyToolchain/0.2.0/arm/arm-none-eabi/include/c++/10.3.1/bits/stl_heap.h **** 	  __holeIndex = __parent;
 444              		.loc 7 141 29 is_stmt 0 view .LVU122
 445 0076 00EB8304 		add	r4, r0, r3, lsl #2
 446              	.LBB441:
 447              	.LBB440:
  67:/Library/DaisyToolchain/0.2.0/arm/arm-none-eabi/include/c++/10.3.1/bits/predefined_ops.h ****       { return *__it < __val; }
 448              		.loc 8 67 22 view .LVU123
 449 007a DEED007A 		vldr.32	s15, [lr]
 450              	.LVL27:
 451              		.loc 8 67 22 view .LVU124
 452              	.LBE440:
 453              	.LBE441:
 139:/Library/DaisyToolchain/0.2.0/arm/arm-none-eabi/include/c++/10.3.1/bits/stl_heap.h **** 	{
 454              		.loc 7 139 39 view .LVU125
 455 007e B4EEE70A 		vcmpe.f32	s0, s15
 456 0082 F1EE10FA 		vmrs	APSR_nzcv, FPSCR
 457 0086 E9DC     		bgt	.L20
 145:/Library/DaisyToolchain/0.2.0/arm/arm-none-eabi/include/c++/10.3.1/bits/stl_heap.h ****     }
 458              		.loc 7 145 17 view .LVU126
 459 0088 A646     		mov	lr, r4
 460              	.LVL28:
 461              	.L19:
 145:/Library/DaisyToolchain/0.2.0/arm/arm-none-eabi/include/c++/10.3.1/bits/stl_heap.h ****     }
 462              		.loc 7 145 32 view .LVU127
 463 008a 8EED000A 		vstr.32	s0, [lr]
 464              	.LBE438:
 465              	.LBE437:
 238:/Library/DaisyToolchain/0.2.0/arm/arm-none-eabi/include/c++/10.3.1/bits/stl_heap.h **** 	{
 239:/Library/DaisyToolchain/0.2.0/arm/arm-none-eabi/include/c++/10.3.1/bits/stl_heap.h **** 	  __secondChild = 2 * (__secondChild + 1);
 240:/Library/DaisyToolchain/0.2.0/arm/arm-none-eabi/include/c++/10.3.1/bits/stl_heap.h **** 	  *(__first + __holeIndex) = _GLIBCXX_MOVE(*(__first
 241:/Library/DaisyToolchain/0.2.0/arm/arm-none-eabi/include/c++/10.3.1/bits/stl_heap.h **** 						     + (__secondChild - 1)));
 242:/Library/DaisyToolchain/0.2.0/arm/arm-none-eabi/include/c++/10.3.1/bits/stl_heap.h **** 	  __holeIndex = __secondChild - 1;
ARM GAS  /var/folders/9k/zk1mgrrd7wg4__6zvxvr9w8m0000gn/T//cc4BDeRe.s 			page 22


 243:/Library/DaisyToolchain/0.2.0/arm/arm-none-eabi/include/c++/10.3.1/bits/stl_heap.h **** 	}
 244:/Library/DaisyToolchain/0.2.0/arm/arm-none-eabi/include/c++/10.3.1/bits/stl_heap.h ****       __decltype(__gnu_cxx::__ops::__iter_comp_val(_GLIBCXX_MOVE(__comp)))
 245:/Library/DaisyToolchain/0.2.0/arm/arm-none-eabi/include/c++/10.3.1/bits/stl_heap.h **** 	__cmp(_GLIBCXX_MOVE(__comp));
 246:/Library/DaisyToolchain/0.2.0/arm/arm-none-eabi/include/c++/10.3.1/bits/stl_heap.h ****       std::__push_heap(__first, __holeIndex, __topIndex,
 247:/Library/DaisyToolchain/0.2.0/arm/arm-none-eabi/include/c++/10.3.1/bits/stl_heap.h **** 		       _GLIBCXX_MOVE(__value), __cmp);
 248:/Library/DaisyToolchain/0.2.0/arm/arm-none-eabi/include/c++/10.3.1/bits/stl_heap.h ****     }
 466              		.loc 7 248 5 view .LVU128
 467 008e 70BD     		pop	{r4, r5, r6, pc}
 468              	.LVL29:
 469              	.L12:
 237:/Library/DaisyToolchain/0.2.0/arm/arm-none-eabi/include/c++/10.3.1/bits/stl_heap.h **** 	{
 470              		.loc 7 237 7 view .LVU129
 471 0090 D307     		lsls	r3, r2, #31
 240:/Library/DaisyToolchain/0.2.0/arm/arm-none-eabi/include/c++/10.3.1/bits/stl_heap.h **** 						     + (__secondChild - 1)));
 472              		.loc 7 240 14 view .LVU130
 473 0092 00EB810E 		add	lr, r0, r1, lsl #2
 237:/Library/DaisyToolchain/0.2.0/arm/arm-none-eabi/include/c++/10.3.1/bits/stl_heap.h **** 	{
 474              		.loc 7 237 7 view .LVU131
 475 0096 F8D4     		bmi	.L19
 240:/Library/DaisyToolchain/0.2.0/arm/arm-none-eabi/include/c++/10.3.1/bits/stl_heap.h **** 						     + (__secondChild - 1)));
 476              		.loc 7 240 14 view .LVU132
 477 0098 0B46     		mov	r3, r1
 478              	.LVL30:
 479              	.L24:
 237:/Library/DaisyToolchain/0.2.0/arm/arm-none-eabi/include/c++/10.3.1/bits/stl_heap.h **** 	{
 480              		.loc 7 237 60 view .LVU133
 481 009a 023A     		subs	r2, r2, #2
 482              	.LVL31:
 237:/Library/DaisyToolchain/0.2.0/arm/arm-none-eabi/include/c++/10.3.1/bits/stl_heap.h **** 	{
 483              		.loc 7 237 60 view .LVU134
 484 009c 48BF     		it	mi
 485 009e 3246     		movmi	r2, r6
 486              	.LVL32:
 237:/Library/DaisyToolchain/0.2.0/arm/arm-none-eabi/include/c++/10.3.1/bits/stl_heap.h **** 	{
 487              		.loc 7 237 28 view .LVU135
 488 00a0 B3EB620F 		cmp	r3, r2, asr #1
 489 00a4 D2D1     		bne	.L16
 239:/Library/DaisyToolchain/0.2.0/arm/arm-none-eabi/include/c++/10.3.1/bits/stl_heap.h **** 	  *(__first + __holeIndex) = _GLIBCXX_MOVE(*(__first
 490              		.loc 7 239 39 view .LVU136
 491 00a6 0133     		adds	r3, r3, #1
 492              	.LVL33:
 240:/Library/DaisyToolchain/0.2.0/arm/arm-none-eabi/include/c++/10.3.1/bits/stl_heap.h **** 						     + (__secondChild - 1)));
 493              		.loc 7 240 29 view .LVU137
 494 00a8 00EBC302 		add	r2, r0, r3, lsl #3
 239:/Library/DaisyToolchain/0.2.0/arm/arm-none-eabi/include/c++/10.3.1/bits/stl_heap.h **** 	  *(__first + __holeIndex) = _GLIBCXX_MOVE(*(__first
 495              		.loc 7 239 18 view .LVU138
 496 00ac 5C00     		lsls	r4, r3, #1
 497              	.LVL34:
 240:/Library/DaisyToolchain/0.2.0/arm/arm-none-eabi/include/c++/10.3.1/bits/stl_heap.h **** 						     + (__secondChild - 1)));
 498              		.loc 7 240 29 view .LVU139
 499 00ae 52F8042C 		ldr	r2, [r2, #-4]	@ float
 242:/Library/DaisyToolchain/0.2.0/arm/arm-none-eabi/include/c++/10.3.1/bits/stl_heap.h **** 	}
 500              		.loc 7 242 16 view .LVU140
 501 00b2 631E     		subs	r3, r4, #1
 502              	.LVL35:
 240:/Library/DaisyToolchain/0.2.0/arm/arm-none-eabi/include/c++/10.3.1/bits/stl_heap.h **** 						     + (__secondChild - 1)));
 503              		.loc 7 240 29 view .LVU141
ARM GAS  /var/folders/9k/zk1mgrrd7wg4__6zvxvr9w8m0000gn/T//cc4BDeRe.s 			page 23


 504 00b4 CEF80020 		str	r2, [lr]	@ float
 505              	.LBB443:
 506              	.LBB442:
 141:/Library/DaisyToolchain/0.2.0/arm/arm-none-eabi/include/c++/10.3.1/bits/stl_heap.h **** 	  __holeIndex = __parent;
 507              		.loc 7 141 14 view .LVU142
 508 00b8 00EB830E 		add	lr, r0, r3, lsl #2
 509              	.LBE442:
 510              	.LBE443:
 511 00bc C6E7     		b	.L16
 512              		.cfi_endproc
 513              	.LFE1622:
 515 00be 00BF     		.section	.text._ZSt16__insertion_sortIPfN9__gnu_cxx5__ops15_Iter_less_iterEEvT_S4_T0_.isra.0,"ax",
 516              		.align	1
 517              		.p2align 2,,3
 518              		.syntax unified
 519              		.thumb
 520              		.thumb_func
 522              	_ZSt16__insertion_sortIPfN9__gnu_cxx5__ops15_Iter_less_iterEEvT_S4_T0_.isra.0:
 523              	.LVL36:
 524              	.LFB1615:
 525              		.file 9 "/Library/DaisyToolchain/0.2.0/arm/arm-none-eabi/include/c++/10.3.1/bits/stl_algo.h"
   1:/Library/DaisyToolchain/0.2.0/arm/arm-none-eabi/include/c++/10.3.1/bits/stl_algo.h **** // Algorithm implementation -*- C++ -*-
   2:/Library/DaisyToolchain/0.2.0/arm/arm-none-eabi/include/c++/10.3.1/bits/stl_algo.h **** 
   3:/Library/DaisyToolchain/0.2.0/arm/arm-none-eabi/include/c++/10.3.1/bits/stl_algo.h **** // Copyright (C) 2001-2020 Free Software Foundation, Inc.
   4:/Library/DaisyToolchain/0.2.0/arm/arm-none-eabi/include/c++/10.3.1/bits/stl_algo.h **** //
   5:/Library/DaisyToolchain/0.2.0/arm/arm-none-eabi/include/c++/10.3.1/bits/stl_algo.h **** // This file is part of the GNU ISO C++ Library.  This library is free
   6:/Library/DaisyToolchain/0.2.0/arm/arm-none-eabi/include/c++/10.3.1/bits/stl_algo.h **** // software; you can redistribute it and/or modify it under the
   7:/Library/DaisyToolchain/0.2.0/arm/arm-none-eabi/include/c++/10.3.1/bits/stl_algo.h **** // terms of the GNU General Public License as published by the
   8:/Library/DaisyToolchain/0.2.0/arm/arm-none-eabi/include/c++/10.3.1/bits/stl_algo.h **** // Free Software Foundation; either version 3, or (at your option)
   9:/Library/DaisyToolchain/0.2.0/arm/arm-none-eabi/include/c++/10.3.1/bits/stl_algo.h **** // any later version.
  10:/Library/DaisyToolchain/0.2.0/arm/arm-none-eabi/include/c++/10.3.1/bits/stl_algo.h **** 
  11:/Library/DaisyToolchain/0.2.0/arm/arm-none-eabi/include/c++/10.3.1/bits/stl_algo.h **** // This library is distributed in the hope that it will be useful,
  12:/Library/DaisyToolchain/0.2.0/arm/arm-none-eabi/include/c++/10.3.1/bits/stl_algo.h **** // but WITHOUT ANY WARRANTY; without even the implied warranty of
  13:/Library/DaisyToolchain/0.2.0/arm/arm-none-eabi/include/c++/10.3.1/bits/stl_algo.h **** // MERCHANTABILITY or FITNESS FOR A PARTICULAR PURPOSE.  See the
  14:/Library/DaisyToolchain/0.2.0/arm/arm-none-eabi/include/c++/10.3.1/bits/stl_algo.h **** // GNU General Public License for more details.
  15:/Library/DaisyToolchain/0.2.0/arm/arm-none-eabi/include/c++/10.3.1/bits/stl_algo.h **** 
  16:/Library/DaisyToolchain/0.2.0/arm/arm-none-eabi/include/c++/10.3.1/bits/stl_algo.h **** // Under Section 7 of GPL version 3, you are granted additional
  17:/Library/DaisyToolchain/0.2.0/arm/arm-none-eabi/include/c++/10.3.1/bits/stl_algo.h **** // permissions described in the GCC Runtime Library Exception, version
  18:/Library/DaisyToolchain/0.2.0/arm/arm-none-eabi/include/c++/10.3.1/bits/stl_algo.h **** // 3.1, as published by the Free Software Foundation.
  19:/Library/DaisyToolchain/0.2.0/arm/arm-none-eabi/include/c++/10.3.1/bits/stl_algo.h **** 
  20:/Library/DaisyToolchain/0.2.0/arm/arm-none-eabi/include/c++/10.3.1/bits/stl_algo.h **** // You should have received a copy of the GNU General Public License and
  21:/Library/DaisyToolchain/0.2.0/arm/arm-none-eabi/include/c++/10.3.1/bits/stl_algo.h **** // a copy of the GCC Runtime Library Exception along with this program;
  22:/Library/DaisyToolchain/0.2.0/arm/arm-none-eabi/include/c++/10.3.1/bits/stl_algo.h **** // see the files COPYING3 and COPYING.RUNTIME respectively.  If not, see
  23:/Library/DaisyToolchain/0.2.0/arm/arm-none-eabi/include/c++/10.3.1/bits/stl_algo.h **** // <http://www.gnu.org/licenses/>.
  24:/Library/DaisyToolchain/0.2.0/arm/arm-none-eabi/include/c++/10.3.1/bits/stl_algo.h **** 
  25:/Library/DaisyToolchain/0.2.0/arm/arm-none-eabi/include/c++/10.3.1/bits/stl_algo.h **** /*
  26:/Library/DaisyToolchain/0.2.0/arm/arm-none-eabi/include/c++/10.3.1/bits/stl_algo.h ****  *
  27:/Library/DaisyToolchain/0.2.0/arm/arm-none-eabi/include/c++/10.3.1/bits/stl_algo.h ****  * Copyright (c) 1994
  28:/Library/DaisyToolchain/0.2.0/arm/arm-none-eabi/include/c++/10.3.1/bits/stl_algo.h ****  * Hewlett-Packard Company
  29:/Library/DaisyToolchain/0.2.0/arm/arm-none-eabi/include/c++/10.3.1/bits/stl_algo.h ****  *
  30:/Library/DaisyToolchain/0.2.0/arm/arm-none-eabi/include/c++/10.3.1/bits/stl_algo.h ****  * Permission to use, copy, modify, distribute and sell this software
  31:/Library/DaisyToolchain/0.2.0/arm/arm-none-eabi/include/c++/10.3.1/bits/stl_algo.h ****  * and its documentation for any purpose is hereby granted without fee,
  32:/Library/DaisyToolchain/0.2.0/arm/arm-none-eabi/include/c++/10.3.1/bits/stl_algo.h ****  * provided that the above copyright notice appear in all copies and
  33:/Library/DaisyToolchain/0.2.0/arm/arm-none-eabi/include/c++/10.3.1/bits/stl_algo.h ****  * that both that copyright notice and this permission notice appear
  34:/Library/DaisyToolchain/0.2.0/arm/arm-none-eabi/include/c++/10.3.1/bits/stl_algo.h ****  * in supporting documentation.  Hewlett-Packard Company makes no
  35:/Library/DaisyToolchain/0.2.0/arm/arm-none-eabi/include/c++/10.3.1/bits/stl_algo.h ****  * representations about the suitability of this software for any
  36:/Library/DaisyToolchain/0.2.0/arm/arm-none-eabi/include/c++/10.3.1/bits/stl_algo.h ****  * purpose.  It is provided "as is" without express or implied warranty.
ARM GAS  /var/folders/9k/zk1mgrrd7wg4__6zvxvr9w8m0000gn/T//cc4BDeRe.s 			page 24


  37:/Library/DaisyToolchain/0.2.0/arm/arm-none-eabi/include/c++/10.3.1/bits/stl_algo.h ****  *
  38:/Library/DaisyToolchain/0.2.0/arm/arm-none-eabi/include/c++/10.3.1/bits/stl_algo.h ****  *
  39:/Library/DaisyToolchain/0.2.0/arm/arm-none-eabi/include/c++/10.3.1/bits/stl_algo.h ****  * Copyright (c) 1996
  40:/Library/DaisyToolchain/0.2.0/arm/arm-none-eabi/include/c++/10.3.1/bits/stl_algo.h ****  * Silicon Graphics Computer Systems, Inc.
  41:/Library/DaisyToolchain/0.2.0/arm/arm-none-eabi/include/c++/10.3.1/bits/stl_algo.h ****  *
  42:/Library/DaisyToolchain/0.2.0/arm/arm-none-eabi/include/c++/10.3.1/bits/stl_algo.h ****  * Permission to use, copy, modify, distribute and sell this software
  43:/Library/DaisyToolchain/0.2.0/arm/arm-none-eabi/include/c++/10.3.1/bits/stl_algo.h ****  * and its documentation for any purpose is hereby granted without fee,
  44:/Library/DaisyToolchain/0.2.0/arm/arm-none-eabi/include/c++/10.3.1/bits/stl_algo.h ****  * provided that the above copyright notice appear in all copies and
  45:/Library/DaisyToolchain/0.2.0/arm/arm-none-eabi/include/c++/10.3.1/bits/stl_algo.h ****  * that both that copyright notice and this permission notice appear
  46:/Library/DaisyToolchain/0.2.0/arm/arm-none-eabi/include/c++/10.3.1/bits/stl_algo.h ****  * in supporting documentation.  Silicon Graphics makes no
  47:/Library/DaisyToolchain/0.2.0/arm/arm-none-eabi/include/c++/10.3.1/bits/stl_algo.h ****  * representations about the suitability of this software for any
  48:/Library/DaisyToolchain/0.2.0/arm/arm-none-eabi/include/c++/10.3.1/bits/stl_algo.h ****  * purpose.  It is provided "as is" without express or implied warranty.
  49:/Library/DaisyToolchain/0.2.0/arm/arm-none-eabi/include/c++/10.3.1/bits/stl_algo.h ****  */
  50:/Library/DaisyToolchain/0.2.0/arm/arm-none-eabi/include/c++/10.3.1/bits/stl_algo.h **** 
  51:/Library/DaisyToolchain/0.2.0/arm/arm-none-eabi/include/c++/10.3.1/bits/stl_algo.h **** /** @file bits/stl_algo.h
  52:/Library/DaisyToolchain/0.2.0/arm/arm-none-eabi/include/c++/10.3.1/bits/stl_algo.h ****  *  This is an internal header file, included by other library headers.
  53:/Library/DaisyToolchain/0.2.0/arm/arm-none-eabi/include/c++/10.3.1/bits/stl_algo.h ****  *  Do not attempt to use it directly. @headername{algorithm}
  54:/Library/DaisyToolchain/0.2.0/arm/arm-none-eabi/include/c++/10.3.1/bits/stl_algo.h ****  */
  55:/Library/DaisyToolchain/0.2.0/arm/arm-none-eabi/include/c++/10.3.1/bits/stl_algo.h **** 
  56:/Library/DaisyToolchain/0.2.0/arm/arm-none-eabi/include/c++/10.3.1/bits/stl_algo.h **** #ifndef _STL_ALGO_H
  57:/Library/DaisyToolchain/0.2.0/arm/arm-none-eabi/include/c++/10.3.1/bits/stl_algo.h **** #define _STL_ALGO_H 1
  58:/Library/DaisyToolchain/0.2.0/arm/arm-none-eabi/include/c++/10.3.1/bits/stl_algo.h **** 
  59:/Library/DaisyToolchain/0.2.0/arm/arm-none-eabi/include/c++/10.3.1/bits/stl_algo.h **** #include <cstdlib>	     // for rand
  60:/Library/DaisyToolchain/0.2.0/arm/arm-none-eabi/include/c++/10.3.1/bits/stl_algo.h **** #include <bits/algorithmfwd.h>
  61:/Library/DaisyToolchain/0.2.0/arm/arm-none-eabi/include/c++/10.3.1/bits/stl_algo.h **** #include <bits/stl_heap.h>
  62:/Library/DaisyToolchain/0.2.0/arm/arm-none-eabi/include/c++/10.3.1/bits/stl_algo.h **** #include <bits/stl_tempbuf.h>  // for _Temporary_buffer
  63:/Library/DaisyToolchain/0.2.0/arm/arm-none-eabi/include/c++/10.3.1/bits/stl_algo.h **** #include <bits/predefined_ops.h>
  64:/Library/DaisyToolchain/0.2.0/arm/arm-none-eabi/include/c++/10.3.1/bits/stl_algo.h **** 
  65:/Library/DaisyToolchain/0.2.0/arm/arm-none-eabi/include/c++/10.3.1/bits/stl_algo.h **** #if __cplusplus >= 201103L
  66:/Library/DaisyToolchain/0.2.0/arm/arm-none-eabi/include/c++/10.3.1/bits/stl_algo.h **** #include <bits/uniform_int_dist.h>
  67:/Library/DaisyToolchain/0.2.0/arm/arm-none-eabi/include/c++/10.3.1/bits/stl_algo.h **** #endif
  68:/Library/DaisyToolchain/0.2.0/arm/arm-none-eabi/include/c++/10.3.1/bits/stl_algo.h **** 
  69:/Library/DaisyToolchain/0.2.0/arm/arm-none-eabi/include/c++/10.3.1/bits/stl_algo.h **** // See concept_check.h for the __glibcxx_*_requires macros.
  70:/Library/DaisyToolchain/0.2.0/arm/arm-none-eabi/include/c++/10.3.1/bits/stl_algo.h **** 
  71:/Library/DaisyToolchain/0.2.0/arm/arm-none-eabi/include/c++/10.3.1/bits/stl_algo.h **** namespace std _GLIBCXX_VISIBILITY(default)
  72:/Library/DaisyToolchain/0.2.0/arm/arm-none-eabi/include/c++/10.3.1/bits/stl_algo.h **** {
  73:/Library/DaisyToolchain/0.2.0/arm/arm-none-eabi/include/c++/10.3.1/bits/stl_algo.h **** _GLIBCXX_BEGIN_NAMESPACE_VERSION
  74:/Library/DaisyToolchain/0.2.0/arm/arm-none-eabi/include/c++/10.3.1/bits/stl_algo.h **** 
  75:/Library/DaisyToolchain/0.2.0/arm/arm-none-eabi/include/c++/10.3.1/bits/stl_algo.h ****   /// Swaps the median value of *__a, *__b and *__c under __comp to *__result
  76:/Library/DaisyToolchain/0.2.0/arm/arm-none-eabi/include/c++/10.3.1/bits/stl_algo.h ****   template<typename _Iterator, typename _Compare>
  77:/Library/DaisyToolchain/0.2.0/arm/arm-none-eabi/include/c++/10.3.1/bits/stl_algo.h ****     _GLIBCXX20_CONSTEXPR
  78:/Library/DaisyToolchain/0.2.0/arm/arm-none-eabi/include/c++/10.3.1/bits/stl_algo.h ****     void
  79:/Library/DaisyToolchain/0.2.0/arm/arm-none-eabi/include/c++/10.3.1/bits/stl_algo.h ****     __move_median_to_first(_Iterator __result,_Iterator __a, _Iterator __b,
  80:/Library/DaisyToolchain/0.2.0/arm/arm-none-eabi/include/c++/10.3.1/bits/stl_algo.h **** 			   _Iterator __c, _Compare __comp)
  81:/Library/DaisyToolchain/0.2.0/arm/arm-none-eabi/include/c++/10.3.1/bits/stl_algo.h ****     {
  82:/Library/DaisyToolchain/0.2.0/arm/arm-none-eabi/include/c++/10.3.1/bits/stl_algo.h ****       if (__comp(__a, __b))
  83:/Library/DaisyToolchain/0.2.0/arm/arm-none-eabi/include/c++/10.3.1/bits/stl_algo.h **** 	{
  84:/Library/DaisyToolchain/0.2.0/arm/arm-none-eabi/include/c++/10.3.1/bits/stl_algo.h **** 	  if (__comp(__b, __c))
  85:/Library/DaisyToolchain/0.2.0/arm/arm-none-eabi/include/c++/10.3.1/bits/stl_algo.h **** 	    std::iter_swap(__result, __b);
  86:/Library/DaisyToolchain/0.2.0/arm/arm-none-eabi/include/c++/10.3.1/bits/stl_algo.h **** 	  else if (__comp(__a, __c))
  87:/Library/DaisyToolchain/0.2.0/arm/arm-none-eabi/include/c++/10.3.1/bits/stl_algo.h **** 	    std::iter_swap(__result, __c);
  88:/Library/DaisyToolchain/0.2.0/arm/arm-none-eabi/include/c++/10.3.1/bits/stl_algo.h **** 	  else
  89:/Library/DaisyToolchain/0.2.0/arm/arm-none-eabi/include/c++/10.3.1/bits/stl_algo.h **** 	    std::iter_swap(__result, __a);
  90:/Library/DaisyToolchain/0.2.0/arm/arm-none-eabi/include/c++/10.3.1/bits/stl_algo.h **** 	}
  91:/Library/DaisyToolchain/0.2.0/arm/arm-none-eabi/include/c++/10.3.1/bits/stl_algo.h ****       else if (__comp(__a, __c))
  92:/Library/DaisyToolchain/0.2.0/arm/arm-none-eabi/include/c++/10.3.1/bits/stl_algo.h **** 	std::iter_swap(__result, __a);
  93:/Library/DaisyToolchain/0.2.0/arm/arm-none-eabi/include/c++/10.3.1/bits/stl_algo.h ****       else if (__comp(__b, __c))
ARM GAS  /var/folders/9k/zk1mgrrd7wg4__6zvxvr9w8m0000gn/T//cc4BDeRe.s 			page 25


  94:/Library/DaisyToolchain/0.2.0/arm/arm-none-eabi/include/c++/10.3.1/bits/stl_algo.h **** 	std::iter_swap(__result, __c);
  95:/Library/DaisyToolchain/0.2.0/arm/arm-none-eabi/include/c++/10.3.1/bits/stl_algo.h ****       else
  96:/Library/DaisyToolchain/0.2.0/arm/arm-none-eabi/include/c++/10.3.1/bits/stl_algo.h **** 	std::iter_swap(__result, __b);
  97:/Library/DaisyToolchain/0.2.0/arm/arm-none-eabi/include/c++/10.3.1/bits/stl_algo.h ****     }
  98:/Library/DaisyToolchain/0.2.0/arm/arm-none-eabi/include/c++/10.3.1/bits/stl_algo.h **** 
  99:/Library/DaisyToolchain/0.2.0/arm/arm-none-eabi/include/c++/10.3.1/bits/stl_algo.h ****   /// Provided for stable_partition to use.
 100:/Library/DaisyToolchain/0.2.0/arm/arm-none-eabi/include/c++/10.3.1/bits/stl_algo.h ****   template<typename _InputIterator, typename _Predicate>
 101:/Library/DaisyToolchain/0.2.0/arm/arm-none-eabi/include/c++/10.3.1/bits/stl_algo.h ****     _GLIBCXX20_CONSTEXPR
 102:/Library/DaisyToolchain/0.2.0/arm/arm-none-eabi/include/c++/10.3.1/bits/stl_algo.h ****     inline _InputIterator
 103:/Library/DaisyToolchain/0.2.0/arm/arm-none-eabi/include/c++/10.3.1/bits/stl_algo.h ****     __find_if_not(_InputIterator __first, _InputIterator __last,
 104:/Library/DaisyToolchain/0.2.0/arm/arm-none-eabi/include/c++/10.3.1/bits/stl_algo.h **** 		  _Predicate __pred)
 105:/Library/DaisyToolchain/0.2.0/arm/arm-none-eabi/include/c++/10.3.1/bits/stl_algo.h ****     {
 106:/Library/DaisyToolchain/0.2.0/arm/arm-none-eabi/include/c++/10.3.1/bits/stl_algo.h ****       return std::__find_if(__first, __last,
 107:/Library/DaisyToolchain/0.2.0/arm/arm-none-eabi/include/c++/10.3.1/bits/stl_algo.h **** 			    __gnu_cxx::__ops::__negate(__pred),
 108:/Library/DaisyToolchain/0.2.0/arm/arm-none-eabi/include/c++/10.3.1/bits/stl_algo.h **** 			    std::__iterator_category(__first));
 109:/Library/DaisyToolchain/0.2.0/arm/arm-none-eabi/include/c++/10.3.1/bits/stl_algo.h ****     }
 110:/Library/DaisyToolchain/0.2.0/arm/arm-none-eabi/include/c++/10.3.1/bits/stl_algo.h **** 
 111:/Library/DaisyToolchain/0.2.0/arm/arm-none-eabi/include/c++/10.3.1/bits/stl_algo.h ****   /// Like find_if_not(), but uses and updates a count of the
 112:/Library/DaisyToolchain/0.2.0/arm/arm-none-eabi/include/c++/10.3.1/bits/stl_algo.h ****   /// remaining range length instead of comparing against an end
 113:/Library/DaisyToolchain/0.2.0/arm/arm-none-eabi/include/c++/10.3.1/bits/stl_algo.h ****   /// iterator.
 114:/Library/DaisyToolchain/0.2.0/arm/arm-none-eabi/include/c++/10.3.1/bits/stl_algo.h ****   template<typename _InputIterator, typename _Predicate, typename _Distance>
 115:/Library/DaisyToolchain/0.2.0/arm/arm-none-eabi/include/c++/10.3.1/bits/stl_algo.h ****     _GLIBCXX20_CONSTEXPR
 116:/Library/DaisyToolchain/0.2.0/arm/arm-none-eabi/include/c++/10.3.1/bits/stl_algo.h ****     _InputIterator
 117:/Library/DaisyToolchain/0.2.0/arm/arm-none-eabi/include/c++/10.3.1/bits/stl_algo.h ****     __find_if_not_n(_InputIterator __first, _Distance& __len, _Predicate __pred)
 118:/Library/DaisyToolchain/0.2.0/arm/arm-none-eabi/include/c++/10.3.1/bits/stl_algo.h ****     {
 119:/Library/DaisyToolchain/0.2.0/arm/arm-none-eabi/include/c++/10.3.1/bits/stl_algo.h ****       for (; __len; --__len,  (void) ++__first)
 120:/Library/DaisyToolchain/0.2.0/arm/arm-none-eabi/include/c++/10.3.1/bits/stl_algo.h **** 	if (!__pred(__first))
 121:/Library/DaisyToolchain/0.2.0/arm/arm-none-eabi/include/c++/10.3.1/bits/stl_algo.h **** 	  break;
 122:/Library/DaisyToolchain/0.2.0/arm/arm-none-eabi/include/c++/10.3.1/bits/stl_algo.h ****       return __first;
 123:/Library/DaisyToolchain/0.2.0/arm/arm-none-eabi/include/c++/10.3.1/bits/stl_algo.h ****     }
 124:/Library/DaisyToolchain/0.2.0/arm/arm-none-eabi/include/c++/10.3.1/bits/stl_algo.h **** 
 125:/Library/DaisyToolchain/0.2.0/arm/arm-none-eabi/include/c++/10.3.1/bits/stl_algo.h ****   // set_difference
 126:/Library/DaisyToolchain/0.2.0/arm/arm-none-eabi/include/c++/10.3.1/bits/stl_algo.h ****   // set_intersection
 127:/Library/DaisyToolchain/0.2.0/arm/arm-none-eabi/include/c++/10.3.1/bits/stl_algo.h ****   // set_symmetric_difference
 128:/Library/DaisyToolchain/0.2.0/arm/arm-none-eabi/include/c++/10.3.1/bits/stl_algo.h ****   // set_union
 129:/Library/DaisyToolchain/0.2.0/arm/arm-none-eabi/include/c++/10.3.1/bits/stl_algo.h ****   // for_each
 130:/Library/DaisyToolchain/0.2.0/arm/arm-none-eabi/include/c++/10.3.1/bits/stl_algo.h ****   // find
 131:/Library/DaisyToolchain/0.2.0/arm/arm-none-eabi/include/c++/10.3.1/bits/stl_algo.h ****   // find_if
 132:/Library/DaisyToolchain/0.2.0/arm/arm-none-eabi/include/c++/10.3.1/bits/stl_algo.h ****   // find_first_of
 133:/Library/DaisyToolchain/0.2.0/arm/arm-none-eabi/include/c++/10.3.1/bits/stl_algo.h ****   // adjacent_find
 134:/Library/DaisyToolchain/0.2.0/arm/arm-none-eabi/include/c++/10.3.1/bits/stl_algo.h ****   // count
 135:/Library/DaisyToolchain/0.2.0/arm/arm-none-eabi/include/c++/10.3.1/bits/stl_algo.h ****   // count_if
 136:/Library/DaisyToolchain/0.2.0/arm/arm-none-eabi/include/c++/10.3.1/bits/stl_algo.h ****   // search
 137:/Library/DaisyToolchain/0.2.0/arm/arm-none-eabi/include/c++/10.3.1/bits/stl_algo.h **** 
 138:/Library/DaisyToolchain/0.2.0/arm/arm-none-eabi/include/c++/10.3.1/bits/stl_algo.h ****   template<typename _ForwardIterator1, typename _ForwardIterator2,
 139:/Library/DaisyToolchain/0.2.0/arm/arm-none-eabi/include/c++/10.3.1/bits/stl_algo.h **** 	   typename _BinaryPredicate>
 140:/Library/DaisyToolchain/0.2.0/arm/arm-none-eabi/include/c++/10.3.1/bits/stl_algo.h ****     _GLIBCXX20_CONSTEXPR
 141:/Library/DaisyToolchain/0.2.0/arm/arm-none-eabi/include/c++/10.3.1/bits/stl_algo.h ****     _ForwardIterator1
 142:/Library/DaisyToolchain/0.2.0/arm/arm-none-eabi/include/c++/10.3.1/bits/stl_algo.h ****     __search(_ForwardIterator1 __first1, _ForwardIterator1 __last1,
 143:/Library/DaisyToolchain/0.2.0/arm/arm-none-eabi/include/c++/10.3.1/bits/stl_algo.h **** 	     _ForwardIterator2 __first2, _ForwardIterator2 __last2,
 144:/Library/DaisyToolchain/0.2.0/arm/arm-none-eabi/include/c++/10.3.1/bits/stl_algo.h **** 	     _BinaryPredicate  __predicate)
 145:/Library/DaisyToolchain/0.2.0/arm/arm-none-eabi/include/c++/10.3.1/bits/stl_algo.h ****     {
 146:/Library/DaisyToolchain/0.2.0/arm/arm-none-eabi/include/c++/10.3.1/bits/stl_algo.h ****       // Test for empty ranges
 147:/Library/DaisyToolchain/0.2.0/arm/arm-none-eabi/include/c++/10.3.1/bits/stl_algo.h ****       if (__first1 == __last1 || __first2 == __last2)
 148:/Library/DaisyToolchain/0.2.0/arm/arm-none-eabi/include/c++/10.3.1/bits/stl_algo.h **** 	return __first1;
 149:/Library/DaisyToolchain/0.2.0/arm/arm-none-eabi/include/c++/10.3.1/bits/stl_algo.h **** 
 150:/Library/DaisyToolchain/0.2.0/arm/arm-none-eabi/include/c++/10.3.1/bits/stl_algo.h ****       // Test for a pattern of length 1.
ARM GAS  /var/folders/9k/zk1mgrrd7wg4__6zvxvr9w8m0000gn/T//cc4BDeRe.s 			page 26


 151:/Library/DaisyToolchain/0.2.0/arm/arm-none-eabi/include/c++/10.3.1/bits/stl_algo.h ****       _ForwardIterator2 __p1(__first2);
 152:/Library/DaisyToolchain/0.2.0/arm/arm-none-eabi/include/c++/10.3.1/bits/stl_algo.h ****       if (++__p1 == __last2)
 153:/Library/DaisyToolchain/0.2.0/arm/arm-none-eabi/include/c++/10.3.1/bits/stl_algo.h **** 	return std::__find_if(__first1, __last1,
 154:/Library/DaisyToolchain/0.2.0/arm/arm-none-eabi/include/c++/10.3.1/bits/stl_algo.h **** 		__gnu_cxx::__ops::__iter_comp_iter(__predicate, __first2));
 155:/Library/DaisyToolchain/0.2.0/arm/arm-none-eabi/include/c++/10.3.1/bits/stl_algo.h **** 
 156:/Library/DaisyToolchain/0.2.0/arm/arm-none-eabi/include/c++/10.3.1/bits/stl_algo.h ****       // General case.
 157:/Library/DaisyToolchain/0.2.0/arm/arm-none-eabi/include/c++/10.3.1/bits/stl_algo.h ****       _ForwardIterator1 __current = __first1;
 158:/Library/DaisyToolchain/0.2.0/arm/arm-none-eabi/include/c++/10.3.1/bits/stl_algo.h **** 
 159:/Library/DaisyToolchain/0.2.0/arm/arm-none-eabi/include/c++/10.3.1/bits/stl_algo.h ****       for (;;)
 160:/Library/DaisyToolchain/0.2.0/arm/arm-none-eabi/include/c++/10.3.1/bits/stl_algo.h **** 	{
 161:/Library/DaisyToolchain/0.2.0/arm/arm-none-eabi/include/c++/10.3.1/bits/stl_algo.h **** 	  __first1 =
 162:/Library/DaisyToolchain/0.2.0/arm/arm-none-eabi/include/c++/10.3.1/bits/stl_algo.h **** 	    std::__find_if(__first1, __last1,
 163:/Library/DaisyToolchain/0.2.0/arm/arm-none-eabi/include/c++/10.3.1/bits/stl_algo.h **** 		__gnu_cxx::__ops::__iter_comp_iter(__predicate, __first2));
 164:/Library/DaisyToolchain/0.2.0/arm/arm-none-eabi/include/c++/10.3.1/bits/stl_algo.h **** 
 165:/Library/DaisyToolchain/0.2.0/arm/arm-none-eabi/include/c++/10.3.1/bits/stl_algo.h **** 	  if (__first1 == __last1)
 166:/Library/DaisyToolchain/0.2.0/arm/arm-none-eabi/include/c++/10.3.1/bits/stl_algo.h **** 	    return __last1;
 167:/Library/DaisyToolchain/0.2.0/arm/arm-none-eabi/include/c++/10.3.1/bits/stl_algo.h **** 
 168:/Library/DaisyToolchain/0.2.0/arm/arm-none-eabi/include/c++/10.3.1/bits/stl_algo.h **** 	  _ForwardIterator2 __p = __p1;
 169:/Library/DaisyToolchain/0.2.0/arm/arm-none-eabi/include/c++/10.3.1/bits/stl_algo.h **** 	  __current = __first1;
 170:/Library/DaisyToolchain/0.2.0/arm/arm-none-eabi/include/c++/10.3.1/bits/stl_algo.h **** 	  if (++__current == __last1)
 171:/Library/DaisyToolchain/0.2.0/arm/arm-none-eabi/include/c++/10.3.1/bits/stl_algo.h **** 	    return __last1;
 172:/Library/DaisyToolchain/0.2.0/arm/arm-none-eabi/include/c++/10.3.1/bits/stl_algo.h **** 
 173:/Library/DaisyToolchain/0.2.0/arm/arm-none-eabi/include/c++/10.3.1/bits/stl_algo.h **** 	  while (__predicate(__current, __p))
 174:/Library/DaisyToolchain/0.2.0/arm/arm-none-eabi/include/c++/10.3.1/bits/stl_algo.h **** 	    {
 175:/Library/DaisyToolchain/0.2.0/arm/arm-none-eabi/include/c++/10.3.1/bits/stl_algo.h **** 	      if (++__p == __last2)
 176:/Library/DaisyToolchain/0.2.0/arm/arm-none-eabi/include/c++/10.3.1/bits/stl_algo.h **** 		return __first1;
 177:/Library/DaisyToolchain/0.2.0/arm/arm-none-eabi/include/c++/10.3.1/bits/stl_algo.h **** 	      if (++__current == __last1)
 178:/Library/DaisyToolchain/0.2.0/arm/arm-none-eabi/include/c++/10.3.1/bits/stl_algo.h **** 		return __last1;
 179:/Library/DaisyToolchain/0.2.0/arm/arm-none-eabi/include/c++/10.3.1/bits/stl_algo.h **** 	    }
 180:/Library/DaisyToolchain/0.2.0/arm/arm-none-eabi/include/c++/10.3.1/bits/stl_algo.h **** 	  ++__first1;
 181:/Library/DaisyToolchain/0.2.0/arm/arm-none-eabi/include/c++/10.3.1/bits/stl_algo.h **** 	}
 182:/Library/DaisyToolchain/0.2.0/arm/arm-none-eabi/include/c++/10.3.1/bits/stl_algo.h ****       return __first1;
 183:/Library/DaisyToolchain/0.2.0/arm/arm-none-eabi/include/c++/10.3.1/bits/stl_algo.h ****     }
 184:/Library/DaisyToolchain/0.2.0/arm/arm-none-eabi/include/c++/10.3.1/bits/stl_algo.h **** 
 185:/Library/DaisyToolchain/0.2.0/arm/arm-none-eabi/include/c++/10.3.1/bits/stl_algo.h ****   // search_n
 186:/Library/DaisyToolchain/0.2.0/arm/arm-none-eabi/include/c++/10.3.1/bits/stl_algo.h **** 
 187:/Library/DaisyToolchain/0.2.0/arm/arm-none-eabi/include/c++/10.3.1/bits/stl_algo.h ****   /**
 188:/Library/DaisyToolchain/0.2.0/arm/arm-none-eabi/include/c++/10.3.1/bits/stl_algo.h ****    *  This is an helper function for search_n overloaded for forward iterators.
 189:/Library/DaisyToolchain/0.2.0/arm/arm-none-eabi/include/c++/10.3.1/bits/stl_algo.h ****   */
 190:/Library/DaisyToolchain/0.2.0/arm/arm-none-eabi/include/c++/10.3.1/bits/stl_algo.h ****   template<typename _ForwardIterator, typename _Integer,
 191:/Library/DaisyToolchain/0.2.0/arm/arm-none-eabi/include/c++/10.3.1/bits/stl_algo.h **** 	   typename _UnaryPredicate>
 192:/Library/DaisyToolchain/0.2.0/arm/arm-none-eabi/include/c++/10.3.1/bits/stl_algo.h ****     _GLIBCXX20_CONSTEXPR
 193:/Library/DaisyToolchain/0.2.0/arm/arm-none-eabi/include/c++/10.3.1/bits/stl_algo.h ****     _ForwardIterator
 194:/Library/DaisyToolchain/0.2.0/arm/arm-none-eabi/include/c++/10.3.1/bits/stl_algo.h ****     __search_n_aux(_ForwardIterator __first, _ForwardIterator __last,
 195:/Library/DaisyToolchain/0.2.0/arm/arm-none-eabi/include/c++/10.3.1/bits/stl_algo.h **** 		   _Integer __count, _UnaryPredicate __unary_pred,
 196:/Library/DaisyToolchain/0.2.0/arm/arm-none-eabi/include/c++/10.3.1/bits/stl_algo.h **** 		   std::forward_iterator_tag)
 197:/Library/DaisyToolchain/0.2.0/arm/arm-none-eabi/include/c++/10.3.1/bits/stl_algo.h ****     {
 198:/Library/DaisyToolchain/0.2.0/arm/arm-none-eabi/include/c++/10.3.1/bits/stl_algo.h ****       __first = std::__find_if(__first, __last, __unary_pred);
 199:/Library/DaisyToolchain/0.2.0/arm/arm-none-eabi/include/c++/10.3.1/bits/stl_algo.h ****       while (__first != __last)
 200:/Library/DaisyToolchain/0.2.0/arm/arm-none-eabi/include/c++/10.3.1/bits/stl_algo.h **** 	{
 201:/Library/DaisyToolchain/0.2.0/arm/arm-none-eabi/include/c++/10.3.1/bits/stl_algo.h **** 	  typename iterator_traits<_ForwardIterator>::difference_type
 202:/Library/DaisyToolchain/0.2.0/arm/arm-none-eabi/include/c++/10.3.1/bits/stl_algo.h **** 	    __n = __count;
 203:/Library/DaisyToolchain/0.2.0/arm/arm-none-eabi/include/c++/10.3.1/bits/stl_algo.h **** 	  _ForwardIterator __i = __first;
 204:/Library/DaisyToolchain/0.2.0/arm/arm-none-eabi/include/c++/10.3.1/bits/stl_algo.h **** 	  ++__i;
 205:/Library/DaisyToolchain/0.2.0/arm/arm-none-eabi/include/c++/10.3.1/bits/stl_algo.h **** 	  while (__i != __last && __n != 1 && __unary_pred(__i))
 206:/Library/DaisyToolchain/0.2.0/arm/arm-none-eabi/include/c++/10.3.1/bits/stl_algo.h **** 	    {
 207:/Library/DaisyToolchain/0.2.0/arm/arm-none-eabi/include/c++/10.3.1/bits/stl_algo.h **** 	      ++__i;
ARM GAS  /var/folders/9k/zk1mgrrd7wg4__6zvxvr9w8m0000gn/T//cc4BDeRe.s 			page 27


 208:/Library/DaisyToolchain/0.2.0/arm/arm-none-eabi/include/c++/10.3.1/bits/stl_algo.h **** 	      --__n;
 209:/Library/DaisyToolchain/0.2.0/arm/arm-none-eabi/include/c++/10.3.1/bits/stl_algo.h **** 	    }
 210:/Library/DaisyToolchain/0.2.0/arm/arm-none-eabi/include/c++/10.3.1/bits/stl_algo.h **** 	  if (__n == 1)
 211:/Library/DaisyToolchain/0.2.0/arm/arm-none-eabi/include/c++/10.3.1/bits/stl_algo.h **** 	    return __first;
 212:/Library/DaisyToolchain/0.2.0/arm/arm-none-eabi/include/c++/10.3.1/bits/stl_algo.h **** 	  if (__i == __last)
 213:/Library/DaisyToolchain/0.2.0/arm/arm-none-eabi/include/c++/10.3.1/bits/stl_algo.h **** 	    return __last;
 214:/Library/DaisyToolchain/0.2.0/arm/arm-none-eabi/include/c++/10.3.1/bits/stl_algo.h **** 	  __first = std::__find_if(++__i, __last, __unary_pred);
 215:/Library/DaisyToolchain/0.2.0/arm/arm-none-eabi/include/c++/10.3.1/bits/stl_algo.h **** 	}
 216:/Library/DaisyToolchain/0.2.0/arm/arm-none-eabi/include/c++/10.3.1/bits/stl_algo.h ****       return __last;
 217:/Library/DaisyToolchain/0.2.0/arm/arm-none-eabi/include/c++/10.3.1/bits/stl_algo.h ****     }
 218:/Library/DaisyToolchain/0.2.0/arm/arm-none-eabi/include/c++/10.3.1/bits/stl_algo.h **** 
 219:/Library/DaisyToolchain/0.2.0/arm/arm-none-eabi/include/c++/10.3.1/bits/stl_algo.h ****   /**
 220:/Library/DaisyToolchain/0.2.0/arm/arm-none-eabi/include/c++/10.3.1/bits/stl_algo.h ****    *  This is an helper function for search_n overloaded for random access
 221:/Library/DaisyToolchain/0.2.0/arm/arm-none-eabi/include/c++/10.3.1/bits/stl_algo.h ****    *  iterators.
 222:/Library/DaisyToolchain/0.2.0/arm/arm-none-eabi/include/c++/10.3.1/bits/stl_algo.h ****   */
 223:/Library/DaisyToolchain/0.2.0/arm/arm-none-eabi/include/c++/10.3.1/bits/stl_algo.h ****   template<typename _RandomAccessIter, typename _Integer,
 224:/Library/DaisyToolchain/0.2.0/arm/arm-none-eabi/include/c++/10.3.1/bits/stl_algo.h **** 	   typename _UnaryPredicate>
 225:/Library/DaisyToolchain/0.2.0/arm/arm-none-eabi/include/c++/10.3.1/bits/stl_algo.h ****     _GLIBCXX20_CONSTEXPR
 226:/Library/DaisyToolchain/0.2.0/arm/arm-none-eabi/include/c++/10.3.1/bits/stl_algo.h ****     _RandomAccessIter
 227:/Library/DaisyToolchain/0.2.0/arm/arm-none-eabi/include/c++/10.3.1/bits/stl_algo.h ****     __search_n_aux(_RandomAccessIter __first, _RandomAccessIter __last,
 228:/Library/DaisyToolchain/0.2.0/arm/arm-none-eabi/include/c++/10.3.1/bits/stl_algo.h **** 		   _Integer __count, _UnaryPredicate __unary_pred,
 229:/Library/DaisyToolchain/0.2.0/arm/arm-none-eabi/include/c++/10.3.1/bits/stl_algo.h **** 		   std::random_access_iterator_tag)
 230:/Library/DaisyToolchain/0.2.0/arm/arm-none-eabi/include/c++/10.3.1/bits/stl_algo.h ****     {
 231:/Library/DaisyToolchain/0.2.0/arm/arm-none-eabi/include/c++/10.3.1/bits/stl_algo.h ****       typedef typename std::iterator_traits<_RandomAccessIter>::difference_type
 232:/Library/DaisyToolchain/0.2.0/arm/arm-none-eabi/include/c++/10.3.1/bits/stl_algo.h **** 	_DistanceType;
 233:/Library/DaisyToolchain/0.2.0/arm/arm-none-eabi/include/c++/10.3.1/bits/stl_algo.h **** 
 234:/Library/DaisyToolchain/0.2.0/arm/arm-none-eabi/include/c++/10.3.1/bits/stl_algo.h ****       _DistanceType __tailSize = __last - __first;
 235:/Library/DaisyToolchain/0.2.0/arm/arm-none-eabi/include/c++/10.3.1/bits/stl_algo.h ****       _DistanceType __remainder = __count;
 236:/Library/DaisyToolchain/0.2.0/arm/arm-none-eabi/include/c++/10.3.1/bits/stl_algo.h **** 
 237:/Library/DaisyToolchain/0.2.0/arm/arm-none-eabi/include/c++/10.3.1/bits/stl_algo.h ****       while (__remainder <= __tailSize) // the main loop...
 238:/Library/DaisyToolchain/0.2.0/arm/arm-none-eabi/include/c++/10.3.1/bits/stl_algo.h **** 	{
 239:/Library/DaisyToolchain/0.2.0/arm/arm-none-eabi/include/c++/10.3.1/bits/stl_algo.h **** 	  __first += __remainder;
 240:/Library/DaisyToolchain/0.2.0/arm/arm-none-eabi/include/c++/10.3.1/bits/stl_algo.h **** 	  __tailSize -= __remainder;
 241:/Library/DaisyToolchain/0.2.0/arm/arm-none-eabi/include/c++/10.3.1/bits/stl_algo.h **** 	  // __first here is always pointing to one past the last element of
 242:/Library/DaisyToolchain/0.2.0/arm/arm-none-eabi/include/c++/10.3.1/bits/stl_algo.h **** 	  // next possible match.
 243:/Library/DaisyToolchain/0.2.0/arm/arm-none-eabi/include/c++/10.3.1/bits/stl_algo.h **** 	  _RandomAccessIter __backTrack = __first; 
 244:/Library/DaisyToolchain/0.2.0/arm/arm-none-eabi/include/c++/10.3.1/bits/stl_algo.h **** 	  while (__unary_pred(--__backTrack))
 245:/Library/DaisyToolchain/0.2.0/arm/arm-none-eabi/include/c++/10.3.1/bits/stl_algo.h **** 	    {
 246:/Library/DaisyToolchain/0.2.0/arm/arm-none-eabi/include/c++/10.3.1/bits/stl_algo.h **** 	      if (--__remainder == 0)
 247:/Library/DaisyToolchain/0.2.0/arm/arm-none-eabi/include/c++/10.3.1/bits/stl_algo.h **** 		return (__first - __count); // Success
 248:/Library/DaisyToolchain/0.2.0/arm/arm-none-eabi/include/c++/10.3.1/bits/stl_algo.h **** 	    }
 249:/Library/DaisyToolchain/0.2.0/arm/arm-none-eabi/include/c++/10.3.1/bits/stl_algo.h **** 	  __remainder = __count + 1 - (__first - __backTrack);
 250:/Library/DaisyToolchain/0.2.0/arm/arm-none-eabi/include/c++/10.3.1/bits/stl_algo.h **** 	}
 251:/Library/DaisyToolchain/0.2.0/arm/arm-none-eabi/include/c++/10.3.1/bits/stl_algo.h ****       return __last; // Failure
 252:/Library/DaisyToolchain/0.2.0/arm/arm-none-eabi/include/c++/10.3.1/bits/stl_algo.h ****     }
 253:/Library/DaisyToolchain/0.2.0/arm/arm-none-eabi/include/c++/10.3.1/bits/stl_algo.h **** 
 254:/Library/DaisyToolchain/0.2.0/arm/arm-none-eabi/include/c++/10.3.1/bits/stl_algo.h ****   template<typename _ForwardIterator, typename _Integer,
 255:/Library/DaisyToolchain/0.2.0/arm/arm-none-eabi/include/c++/10.3.1/bits/stl_algo.h **** 	   typename _UnaryPredicate>
 256:/Library/DaisyToolchain/0.2.0/arm/arm-none-eabi/include/c++/10.3.1/bits/stl_algo.h ****     _GLIBCXX20_CONSTEXPR
 257:/Library/DaisyToolchain/0.2.0/arm/arm-none-eabi/include/c++/10.3.1/bits/stl_algo.h ****     _ForwardIterator
 258:/Library/DaisyToolchain/0.2.0/arm/arm-none-eabi/include/c++/10.3.1/bits/stl_algo.h ****     __search_n(_ForwardIterator __first, _ForwardIterator __last,
 259:/Library/DaisyToolchain/0.2.0/arm/arm-none-eabi/include/c++/10.3.1/bits/stl_algo.h **** 	       _Integer __count,
 260:/Library/DaisyToolchain/0.2.0/arm/arm-none-eabi/include/c++/10.3.1/bits/stl_algo.h **** 	       _UnaryPredicate __unary_pred)
 261:/Library/DaisyToolchain/0.2.0/arm/arm-none-eabi/include/c++/10.3.1/bits/stl_algo.h ****     {
 262:/Library/DaisyToolchain/0.2.0/arm/arm-none-eabi/include/c++/10.3.1/bits/stl_algo.h ****       if (__count <= 0)
 263:/Library/DaisyToolchain/0.2.0/arm/arm-none-eabi/include/c++/10.3.1/bits/stl_algo.h **** 	return __first;
 264:/Library/DaisyToolchain/0.2.0/arm/arm-none-eabi/include/c++/10.3.1/bits/stl_algo.h **** 
ARM GAS  /var/folders/9k/zk1mgrrd7wg4__6zvxvr9w8m0000gn/T//cc4BDeRe.s 			page 28


 265:/Library/DaisyToolchain/0.2.0/arm/arm-none-eabi/include/c++/10.3.1/bits/stl_algo.h ****       if (__count == 1)
 266:/Library/DaisyToolchain/0.2.0/arm/arm-none-eabi/include/c++/10.3.1/bits/stl_algo.h **** 	return std::__find_if(__first, __last, __unary_pred);
 267:/Library/DaisyToolchain/0.2.0/arm/arm-none-eabi/include/c++/10.3.1/bits/stl_algo.h **** 
 268:/Library/DaisyToolchain/0.2.0/arm/arm-none-eabi/include/c++/10.3.1/bits/stl_algo.h ****       return std::__search_n_aux(__first, __last, __count, __unary_pred,
 269:/Library/DaisyToolchain/0.2.0/arm/arm-none-eabi/include/c++/10.3.1/bits/stl_algo.h **** 				 std::__iterator_category(__first));
 270:/Library/DaisyToolchain/0.2.0/arm/arm-none-eabi/include/c++/10.3.1/bits/stl_algo.h ****     }
 271:/Library/DaisyToolchain/0.2.0/arm/arm-none-eabi/include/c++/10.3.1/bits/stl_algo.h **** 
 272:/Library/DaisyToolchain/0.2.0/arm/arm-none-eabi/include/c++/10.3.1/bits/stl_algo.h ****   // find_end for forward iterators.
 273:/Library/DaisyToolchain/0.2.0/arm/arm-none-eabi/include/c++/10.3.1/bits/stl_algo.h ****   template<typename _ForwardIterator1, typename _ForwardIterator2,
 274:/Library/DaisyToolchain/0.2.0/arm/arm-none-eabi/include/c++/10.3.1/bits/stl_algo.h **** 	   typename _BinaryPredicate>
 275:/Library/DaisyToolchain/0.2.0/arm/arm-none-eabi/include/c++/10.3.1/bits/stl_algo.h ****     _GLIBCXX20_CONSTEXPR
 276:/Library/DaisyToolchain/0.2.0/arm/arm-none-eabi/include/c++/10.3.1/bits/stl_algo.h ****     _ForwardIterator1
 277:/Library/DaisyToolchain/0.2.0/arm/arm-none-eabi/include/c++/10.3.1/bits/stl_algo.h ****     __find_end(_ForwardIterator1 __first1, _ForwardIterator1 __last1,
 278:/Library/DaisyToolchain/0.2.0/arm/arm-none-eabi/include/c++/10.3.1/bits/stl_algo.h **** 	       _ForwardIterator2 __first2, _ForwardIterator2 __last2,
 279:/Library/DaisyToolchain/0.2.0/arm/arm-none-eabi/include/c++/10.3.1/bits/stl_algo.h **** 	       forward_iterator_tag, forward_iterator_tag,
 280:/Library/DaisyToolchain/0.2.0/arm/arm-none-eabi/include/c++/10.3.1/bits/stl_algo.h **** 	       _BinaryPredicate __comp)
 281:/Library/DaisyToolchain/0.2.0/arm/arm-none-eabi/include/c++/10.3.1/bits/stl_algo.h ****     {
 282:/Library/DaisyToolchain/0.2.0/arm/arm-none-eabi/include/c++/10.3.1/bits/stl_algo.h ****       if (__first2 == __last2)
 283:/Library/DaisyToolchain/0.2.0/arm/arm-none-eabi/include/c++/10.3.1/bits/stl_algo.h **** 	return __last1;
 284:/Library/DaisyToolchain/0.2.0/arm/arm-none-eabi/include/c++/10.3.1/bits/stl_algo.h **** 
 285:/Library/DaisyToolchain/0.2.0/arm/arm-none-eabi/include/c++/10.3.1/bits/stl_algo.h ****       _ForwardIterator1 __result = __last1;
 286:/Library/DaisyToolchain/0.2.0/arm/arm-none-eabi/include/c++/10.3.1/bits/stl_algo.h ****       while (1)
 287:/Library/DaisyToolchain/0.2.0/arm/arm-none-eabi/include/c++/10.3.1/bits/stl_algo.h **** 	{
 288:/Library/DaisyToolchain/0.2.0/arm/arm-none-eabi/include/c++/10.3.1/bits/stl_algo.h **** 	  _ForwardIterator1 __new_result
 289:/Library/DaisyToolchain/0.2.0/arm/arm-none-eabi/include/c++/10.3.1/bits/stl_algo.h **** 	    = std::__search(__first1, __last1, __first2, __last2, __comp);
 290:/Library/DaisyToolchain/0.2.0/arm/arm-none-eabi/include/c++/10.3.1/bits/stl_algo.h **** 	  if (__new_result == __last1)
 291:/Library/DaisyToolchain/0.2.0/arm/arm-none-eabi/include/c++/10.3.1/bits/stl_algo.h **** 	    return __result;
 292:/Library/DaisyToolchain/0.2.0/arm/arm-none-eabi/include/c++/10.3.1/bits/stl_algo.h **** 	  else
 293:/Library/DaisyToolchain/0.2.0/arm/arm-none-eabi/include/c++/10.3.1/bits/stl_algo.h **** 	    {
 294:/Library/DaisyToolchain/0.2.0/arm/arm-none-eabi/include/c++/10.3.1/bits/stl_algo.h **** 	      __result = __new_result;
 295:/Library/DaisyToolchain/0.2.0/arm/arm-none-eabi/include/c++/10.3.1/bits/stl_algo.h **** 	      __first1 = __new_result;
 296:/Library/DaisyToolchain/0.2.0/arm/arm-none-eabi/include/c++/10.3.1/bits/stl_algo.h **** 	      ++__first1;
 297:/Library/DaisyToolchain/0.2.0/arm/arm-none-eabi/include/c++/10.3.1/bits/stl_algo.h **** 	    }
 298:/Library/DaisyToolchain/0.2.0/arm/arm-none-eabi/include/c++/10.3.1/bits/stl_algo.h **** 	}
 299:/Library/DaisyToolchain/0.2.0/arm/arm-none-eabi/include/c++/10.3.1/bits/stl_algo.h ****     }
 300:/Library/DaisyToolchain/0.2.0/arm/arm-none-eabi/include/c++/10.3.1/bits/stl_algo.h **** 
 301:/Library/DaisyToolchain/0.2.0/arm/arm-none-eabi/include/c++/10.3.1/bits/stl_algo.h ****   // find_end for bidirectional iterators (much faster).
 302:/Library/DaisyToolchain/0.2.0/arm/arm-none-eabi/include/c++/10.3.1/bits/stl_algo.h ****   template<typename _BidirectionalIterator1, typename _BidirectionalIterator2,
 303:/Library/DaisyToolchain/0.2.0/arm/arm-none-eabi/include/c++/10.3.1/bits/stl_algo.h **** 	   typename _BinaryPredicate>
 304:/Library/DaisyToolchain/0.2.0/arm/arm-none-eabi/include/c++/10.3.1/bits/stl_algo.h ****     _GLIBCXX20_CONSTEXPR
 305:/Library/DaisyToolchain/0.2.0/arm/arm-none-eabi/include/c++/10.3.1/bits/stl_algo.h ****     _BidirectionalIterator1
 306:/Library/DaisyToolchain/0.2.0/arm/arm-none-eabi/include/c++/10.3.1/bits/stl_algo.h ****     __find_end(_BidirectionalIterator1 __first1,
 307:/Library/DaisyToolchain/0.2.0/arm/arm-none-eabi/include/c++/10.3.1/bits/stl_algo.h **** 	       _BidirectionalIterator1 __last1,
 308:/Library/DaisyToolchain/0.2.0/arm/arm-none-eabi/include/c++/10.3.1/bits/stl_algo.h **** 	       _BidirectionalIterator2 __first2,
 309:/Library/DaisyToolchain/0.2.0/arm/arm-none-eabi/include/c++/10.3.1/bits/stl_algo.h **** 	       _BidirectionalIterator2 __last2,
 310:/Library/DaisyToolchain/0.2.0/arm/arm-none-eabi/include/c++/10.3.1/bits/stl_algo.h **** 	       bidirectional_iterator_tag, bidirectional_iterator_tag,
 311:/Library/DaisyToolchain/0.2.0/arm/arm-none-eabi/include/c++/10.3.1/bits/stl_algo.h **** 	       _BinaryPredicate __comp)
 312:/Library/DaisyToolchain/0.2.0/arm/arm-none-eabi/include/c++/10.3.1/bits/stl_algo.h ****     {
 313:/Library/DaisyToolchain/0.2.0/arm/arm-none-eabi/include/c++/10.3.1/bits/stl_algo.h ****       // concept requirements
 314:/Library/DaisyToolchain/0.2.0/arm/arm-none-eabi/include/c++/10.3.1/bits/stl_algo.h ****       __glibcxx_function_requires(_BidirectionalIteratorConcept<
 315:/Library/DaisyToolchain/0.2.0/arm/arm-none-eabi/include/c++/10.3.1/bits/stl_algo.h **** 				  _BidirectionalIterator1>)
 316:/Library/DaisyToolchain/0.2.0/arm/arm-none-eabi/include/c++/10.3.1/bits/stl_algo.h ****       __glibcxx_function_requires(_BidirectionalIteratorConcept<
 317:/Library/DaisyToolchain/0.2.0/arm/arm-none-eabi/include/c++/10.3.1/bits/stl_algo.h **** 				  _BidirectionalIterator2>)
 318:/Library/DaisyToolchain/0.2.0/arm/arm-none-eabi/include/c++/10.3.1/bits/stl_algo.h **** 
 319:/Library/DaisyToolchain/0.2.0/arm/arm-none-eabi/include/c++/10.3.1/bits/stl_algo.h ****       typedef reverse_iterator<_BidirectionalIterator1> _RevIterator1;
 320:/Library/DaisyToolchain/0.2.0/arm/arm-none-eabi/include/c++/10.3.1/bits/stl_algo.h ****       typedef reverse_iterator<_BidirectionalIterator2> _RevIterator2;
 321:/Library/DaisyToolchain/0.2.0/arm/arm-none-eabi/include/c++/10.3.1/bits/stl_algo.h **** 
ARM GAS  /var/folders/9k/zk1mgrrd7wg4__6zvxvr9w8m0000gn/T//cc4BDeRe.s 			page 29


 322:/Library/DaisyToolchain/0.2.0/arm/arm-none-eabi/include/c++/10.3.1/bits/stl_algo.h ****       _RevIterator1 __rlast1(__first1);
 323:/Library/DaisyToolchain/0.2.0/arm/arm-none-eabi/include/c++/10.3.1/bits/stl_algo.h ****       _RevIterator2 __rlast2(__first2);
 324:/Library/DaisyToolchain/0.2.0/arm/arm-none-eabi/include/c++/10.3.1/bits/stl_algo.h ****       _RevIterator1 __rresult = std::__search(_RevIterator1(__last1), __rlast1,
 325:/Library/DaisyToolchain/0.2.0/arm/arm-none-eabi/include/c++/10.3.1/bits/stl_algo.h **** 					      _RevIterator2(__last2), __rlast2,
 326:/Library/DaisyToolchain/0.2.0/arm/arm-none-eabi/include/c++/10.3.1/bits/stl_algo.h **** 					      __comp);
 327:/Library/DaisyToolchain/0.2.0/arm/arm-none-eabi/include/c++/10.3.1/bits/stl_algo.h **** 
 328:/Library/DaisyToolchain/0.2.0/arm/arm-none-eabi/include/c++/10.3.1/bits/stl_algo.h ****       if (__rresult == __rlast1)
 329:/Library/DaisyToolchain/0.2.0/arm/arm-none-eabi/include/c++/10.3.1/bits/stl_algo.h **** 	return __last1;
 330:/Library/DaisyToolchain/0.2.0/arm/arm-none-eabi/include/c++/10.3.1/bits/stl_algo.h ****       else
 331:/Library/DaisyToolchain/0.2.0/arm/arm-none-eabi/include/c++/10.3.1/bits/stl_algo.h **** 	{
 332:/Library/DaisyToolchain/0.2.0/arm/arm-none-eabi/include/c++/10.3.1/bits/stl_algo.h **** 	  _BidirectionalIterator1 __result = __rresult.base();
 333:/Library/DaisyToolchain/0.2.0/arm/arm-none-eabi/include/c++/10.3.1/bits/stl_algo.h **** 	  std::advance(__result, -std::distance(__first2, __last2));
 334:/Library/DaisyToolchain/0.2.0/arm/arm-none-eabi/include/c++/10.3.1/bits/stl_algo.h **** 	  return __result;
 335:/Library/DaisyToolchain/0.2.0/arm/arm-none-eabi/include/c++/10.3.1/bits/stl_algo.h **** 	}
 336:/Library/DaisyToolchain/0.2.0/arm/arm-none-eabi/include/c++/10.3.1/bits/stl_algo.h ****     }
 337:/Library/DaisyToolchain/0.2.0/arm/arm-none-eabi/include/c++/10.3.1/bits/stl_algo.h **** 
 338:/Library/DaisyToolchain/0.2.0/arm/arm-none-eabi/include/c++/10.3.1/bits/stl_algo.h ****   /**
 339:/Library/DaisyToolchain/0.2.0/arm/arm-none-eabi/include/c++/10.3.1/bits/stl_algo.h ****    *  @brief  Find last matching subsequence in a sequence.
 340:/Library/DaisyToolchain/0.2.0/arm/arm-none-eabi/include/c++/10.3.1/bits/stl_algo.h ****    *  @ingroup non_mutating_algorithms
 341:/Library/DaisyToolchain/0.2.0/arm/arm-none-eabi/include/c++/10.3.1/bits/stl_algo.h ****    *  @param  __first1  Start of range to search.
 342:/Library/DaisyToolchain/0.2.0/arm/arm-none-eabi/include/c++/10.3.1/bits/stl_algo.h ****    *  @param  __last1   End of range to search.
 343:/Library/DaisyToolchain/0.2.0/arm/arm-none-eabi/include/c++/10.3.1/bits/stl_algo.h ****    *  @param  __first2  Start of sequence to match.
 344:/Library/DaisyToolchain/0.2.0/arm/arm-none-eabi/include/c++/10.3.1/bits/stl_algo.h ****    *  @param  __last2   End of sequence to match.
 345:/Library/DaisyToolchain/0.2.0/arm/arm-none-eabi/include/c++/10.3.1/bits/stl_algo.h ****    *  @return   The last iterator @c i in the range
 346:/Library/DaisyToolchain/0.2.0/arm/arm-none-eabi/include/c++/10.3.1/bits/stl_algo.h ****    *  @p [__first1,__last1-(__last2-__first2)) such that @c *(i+N) ==
 347:/Library/DaisyToolchain/0.2.0/arm/arm-none-eabi/include/c++/10.3.1/bits/stl_algo.h ****    *  @p *(__first2+N) for each @c N in the range @p
 348:/Library/DaisyToolchain/0.2.0/arm/arm-none-eabi/include/c++/10.3.1/bits/stl_algo.h ****    *  [0,__last2-__first2), or @p __last1 if no such iterator exists.
 349:/Library/DaisyToolchain/0.2.0/arm/arm-none-eabi/include/c++/10.3.1/bits/stl_algo.h ****    *
 350:/Library/DaisyToolchain/0.2.0/arm/arm-none-eabi/include/c++/10.3.1/bits/stl_algo.h ****    *  Searches the range @p [__first1,__last1) for a sub-sequence that
 351:/Library/DaisyToolchain/0.2.0/arm/arm-none-eabi/include/c++/10.3.1/bits/stl_algo.h ****    *  compares equal value-by-value with the sequence given by @p
 352:/Library/DaisyToolchain/0.2.0/arm/arm-none-eabi/include/c++/10.3.1/bits/stl_algo.h ****    *  [__first2,__last2) and returns an iterator to the __first
 353:/Library/DaisyToolchain/0.2.0/arm/arm-none-eabi/include/c++/10.3.1/bits/stl_algo.h ****    *  element of the sub-sequence, or @p __last1 if the sub-sequence
 354:/Library/DaisyToolchain/0.2.0/arm/arm-none-eabi/include/c++/10.3.1/bits/stl_algo.h ****    *  is not found.  The sub-sequence will be the last such
 355:/Library/DaisyToolchain/0.2.0/arm/arm-none-eabi/include/c++/10.3.1/bits/stl_algo.h ****    *  subsequence contained in [__first1,__last1).
 356:/Library/DaisyToolchain/0.2.0/arm/arm-none-eabi/include/c++/10.3.1/bits/stl_algo.h ****    *
 357:/Library/DaisyToolchain/0.2.0/arm/arm-none-eabi/include/c++/10.3.1/bits/stl_algo.h ****    *  Because the sub-sequence must lie completely within the range @p
 358:/Library/DaisyToolchain/0.2.0/arm/arm-none-eabi/include/c++/10.3.1/bits/stl_algo.h ****    *  [__first1,__last1) it must start at a position less than @p
 359:/Library/DaisyToolchain/0.2.0/arm/arm-none-eabi/include/c++/10.3.1/bits/stl_algo.h ****    *  __last1-(__last2-__first2) where @p __last2-__first2 is the
 360:/Library/DaisyToolchain/0.2.0/arm/arm-none-eabi/include/c++/10.3.1/bits/stl_algo.h ****    *  length of the sub-sequence.  This means that the returned
 361:/Library/DaisyToolchain/0.2.0/arm/arm-none-eabi/include/c++/10.3.1/bits/stl_algo.h ****    *  iterator @c i will be in the range @p
 362:/Library/DaisyToolchain/0.2.0/arm/arm-none-eabi/include/c++/10.3.1/bits/stl_algo.h ****    *  [__first1,__last1-(__last2-__first2))
 363:/Library/DaisyToolchain/0.2.0/arm/arm-none-eabi/include/c++/10.3.1/bits/stl_algo.h ****   */
 364:/Library/DaisyToolchain/0.2.0/arm/arm-none-eabi/include/c++/10.3.1/bits/stl_algo.h ****   template<typename _ForwardIterator1, typename _ForwardIterator2>
 365:/Library/DaisyToolchain/0.2.0/arm/arm-none-eabi/include/c++/10.3.1/bits/stl_algo.h ****     _GLIBCXX20_CONSTEXPR
 366:/Library/DaisyToolchain/0.2.0/arm/arm-none-eabi/include/c++/10.3.1/bits/stl_algo.h ****     inline _ForwardIterator1
 367:/Library/DaisyToolchain/0.2.0/arm/arm-none-eabi/include/c++/10.3.1/bits/stl_algo.h ****     find_end(_ForwardIterator1 __first1, _ForwardIterator1 __last1,
 368:/Library/DaisyToolchain/0.2.0/arm/arm-none-eabi/include/c++/10.3.1/bits/stl_algo.h **** 	     _ForwardIterator2 __first2, _ForwardIterator2 __last2)
 369:/Library/DaisyToolchain/0.2.0/arm/arm-none-eabi/include/c++/10.3.1/bits/stl_algo.h ****     {
 370:/Library/DaisyToolchain/0.2.0/arm/arm-none-eabi/include/c++/10.3.1/bits/stl_algo.h ****       // concept requirements
 371:/Library/DaisyToolchain/0.2.0/arm/arm-none-eabi/include/c++/10.3.1/bits/stl_algo.h ****       __glibcxx_function_requires(_ForwardIteratorConcept<_ForwardIterator1>)
 372:/Library/DaisyToolchain/0.2.0/arm/arm-none-eabi/include/c++/10.3.1/bits/stl_algo.h ****       __glibcxx_function_requires(_ForwardIteratorConcept<_ForwardIterator2>)
 373:/Library/DaisyToolchain/0.2.0/arm/arm-none-eabi/include/c++/10.3.1/bits/stl_algo.h ****       __glibcxx_function_requires(_EqualOpConcept<
 374:/Library/DaisyToolchain/0.2.0/arm/arm-none-eabi/include/c++/10.3.1/bits/stl_algo.h **** 	    typename iterator_traits<_ForwardIterator1>::value_type,
 375:/Library/DaisyToolchain/0.2.0/arm/arm-none-eabi/include/c++/10.3.1/bits/stl_algo.h **** 	    typename iterator_traits<_ForwardIterator2>::value_type>)
 376:/Library/DaisyToolchain/0.2.0/arm/arm-none-eabi/include/c++/10.3.1/bits/stl_algo.h ****       __glibcxx_requires_valid_range(__first1, __last1);
 377:/Library/DaisyToolchain/0.2.0/arm/arm-none-eabi/include/c++/10.3.1/bits/stl_algo.h ****       __glibcxx_requires_valid_range(__first2, __last2);
 378:/Library/DaisyToolchain/0.2.0/arm/arm-none-eabi/include/c++/10.3.1/bits/stl_algo.h **** 
ARM GAS  /var/folders/9k/zk1mgrrd7wg4__6zvxvr9w8m0000gn/T//cc4BDeRe.s 			page 30


 379:/Library/DaisyToolchain/0.2.0/arm/arm-none-eabi/include/c++/10.3.1/bits/stl_algo.h ****       return std::__find_end(__first1, __last1, __first2, __last2,
 380:/Library/DaisyToolchain/0.2.0/arm/arm-none-eabi/include/c++/10.3.1/bits/stl_algo.h **** 			     std::__iterator_category(__first1),
 381:/Library/DaisyToolchain/0.2.0/arm/arm-none-eabi/include/c++/10.3.1/bits/stl_algo.h **** 			     std::__iterator_category(__first2),
 382:/Library/DaisyToolchain/0.2.0/arm/arm-none-eabi/include/c++/10.3.1/bits/stl_algo.h **** 			     __gnu_cxx::__ops::__iter_equal_to_iter());
 383:/Library/DaisyToolchain/0.2.0/arm/arm-none-eabi/include/c++/10.3.1/bits/stl_algo.h ****     }
 384:/Library/DaisyToolchain/0.2.0/arm/arm-none-eabi/include/c++/10.3.1/bits/stl_algo.h **** 
 385:/Library/DaisyToolchain/0.2.0/arm/arm-none-eabi/include/c++/10.3.1/bits/stl_algo.h ****   /**
 386:/Library/DaisyToolchain/0.2.0/arm/arm-none-eabi/include/c++/10.3.1/bits/stl_algo.h ****    *  @brief  Find last matching subsequence in a sequence using a predicate.
 387:/Library/DaisyToolchain/0.2.0/arm/arm-none-eabi/include/c++/10.3.1/bits/stl_algo.h ****    *  @ingroup non_mutating_algorithms
 388:/Library/DaisyToolchain/0.2.0/arm/arm-none-eabi/include/c++/10.3.1/bits/stl_algo.h ****    *  @param  __first1  Start of range to search.
 389:/Library/DaisyToolchain/0.2.0/arm/arm-none-eabi/include/c++/10.3.1/bits/stl_algo.h ****    *  @param  __last1   End of range to search.
 390:/Library/DaisyToolchain/0.2.0/arm/arm-none-eabi/include/c++/10.3.1/bits/stl_algo.h ****    *  @param  __first2  Start of sequence to match.
 391:/Library/DaisyToolchain/0.2.0/arm/arm-none-eabi/include/c++/10.3.1/bits/stl_algo.h ****    *  @param  __last2   End of sequence to match.
 392:/Library/DaisyToolchain/0.2.0/arm/arm-none-eabi/include/c++/10.3.1/bits/stl_algo.h ****    *  @param  __comp    The predicate to use.
 393:/Library/DaisyToolchain/0.2.0/arm/arm-none-eabi/include/c++/10.3.1/bits/stl_algo.h ****    *  @return The last iterator @c i in the range @p
 394:/Library/DaisyToolchain/0.2.0/arm/arm-none-eabi/include/c++/10.3.1/bits/stl_algo.h ****    *  [__first1,__last1-(__last2-__first2)) such that @c
 395:/Library/DaisyToolchain/0.2.0/arm/arm-none-eabi/include/c++/10.3.1/bits/stl_algo.h ****    *  predicate(*(i+N), @p (__first2+N)) is true for each @c N in the
 396:/Library/DaisyToolchain/0.2.0/arm/arm-none-eabi/include/c++/10.3.1/bits/stl_algo.h ****    *  range @p [0,__last2-__first2), or @p __last1 if no such iterator
 397:/Library/DaisyToolchain/0.2.0/arm/arm-none-eabi/include/c++/10.3.1/bits/stl_algo.h ****    *  exists.
 398:/Library/DaisyToolchain/0.2.0/arm/arm-none-eabi/include/c++/10.3.1/bits/stl_algo.h ****    *
 399:/Library/DaisyToolchain/0.2.0/arm/arm-none-eabi/include/c++/10.3.1/bits/stl_algo.h ****    *  Searches the range @p [__first1,__last1) for a sub-sequence that
 400:/Library/DaisyToolchain/0.2.0/arm/arm-none-eabi/include/c++/10.3.1/bits/stl_algo.h ****    *  compares equal value-by-value with the sequence given by @p
 401:/Library/DaisyToolchain/0.2.0/arm/arm-none-eabi/include/c++/10.3.1/bits/stl_algo.h ****    *  [__first2,__last2) using comp as a predicate and returns an
 402:/Library/DaisyToolchain/0.2.0/arm/arm-none-eabi/include/c++/10.3.1/bits/stl_algo.h ****    *  iterator to the first element of the sub-sequence, or @p __last1
 403:/Library/DaisyToolchain/0.2.0/arm/arm-none-eabi/include/c++/10.3.1/bits/stl_algo.h ****    *  if the sub-sequence is not found.  The sub-sequence will be the
 404:/Library/DaisyToolchain/0.2.0/arm/arm-none-eabi/include/c++/10.3.1/bits/stl_algo.h ****    *  last such subsequence contained in [__first,__last1).
 405:/Library/DaisyToolchain/0.2.0/arm/arm-none-eabi/include/c++/10.3.1/bits/stl_algo.h ****    *
 406:/Library/DaisyToolchain/0.2.0/arm/arm-none-eabi/include/c++/10.3.1/bits/stl_algo.h ****    *  Because the sub-sequence must lie completely within the range @p
 407:/Library/DaisyToolchain/0.2.0/arm/arm-none-eabi/include/c++/10.3.1/bits/stl_algo.h ****    *  [__first1,__last1) it must start at a position less than @p
 408:/Library/DaisyToolchain/0.2.0/arm/arm-none-eabi/include/c++/10.3.1/bits/stl_algo.h ****    *  __last1-(__last2-__first2) where @p __last2-__first2 is the
 409:/Library/DaisyToolchain/0.2.0/arm/arm-none-eabi/include/c++/10.3.1/bits/stl_algo.h ****    *  length of the sub-sequence.  This means that the returned
 410:/Library/DaisyToolchain/0.2.0/arm/arm-none-eabi/include/c++/10.3.1/bits/stl_algo.h ****    *  iterator @c i will be in the range @p
 411:/Library/DaisyToolchain/0.2.0/arm/arm-none-eabi/include/c++/10.3.1/bits/stl_algo.h ****    *  [__first1,__last1-(__last2-__first2))
 412:/Library/DaisyToolchain/0.2.0/arm/arm-none-eabi/include/c++/10.3.1/bits/stl_algo.h ****   */
 413:/Library/DaisyToolchain/0.2.0/arm/arm-none-eabi/include/c++/10.3.1/bits/stl_algo.h ****   template<typename _ForwardIterator1, typename _ForwardIterator2,
 414:/Library/DaisyToolchain/0.2.0/arm/arm-none-eabi/include/c++/10.3.1/bits/stl_algo.h **** 	   typename _BinaryPredicate>
 415:/Library/DaisyToolchain/0.2.0/arm/arm-none-eabi/include/c++/10.3.1/bits/stl_algo.h ****     _GLIBCXX20_CONSTEXPR
 416:/Library/DaisyToolchain/0.2.0/arm/arm-none-eabi/include/c++/10.3.1/bits/stl_algo.h ****     inline _ForwardIterator1
 417:/Library/DaisyToolchain/0.2.0/arm/arm-none-eabi/include/c++/10.3.1/bits/stl_algo.h ****     find_end(_ForwardIterator1 __first1, _ForwardIterator1 __last1,
 418:/Library/DaisyToolchain/0.2.0/arm/arm-none-eabi/include/c++/10.3.1/bits/stl_algo.h **** 	     _ForwardIterator2 __first2, _ForwardIterator2 __last2,
 419:/Library/DaisyToolchain/0.2.0/arm/arm-none-eabi/include/c++/10.3.1/bits/stl_algo.h **** 	     _BinaryPredicate __comp)
 420:/Library/DaisyToolchain/0.2.0/arm/arm-none-eabi/include/c++/10.3.1/bits/stl_algo.h ****     {
 421:/Library/DaisyToolchain/0.2.0/arm/arm-none-eabi/include/c++/10.3.1/bits/stl_algo.h ****       // concept requirements
 422:/Library/DaisyToolchain/0.2.0/arm/arm-none-eabi/include/c++/10.3.1/bits/stl_algo.h ****       __glibcxx_function_requires(_ForwardIteratorConcept<_ForwardIterator1>)
 423:/Library/DaisyToolchain/0.2.0/arm/arm-none-eabi/include/c++/10.3.1/bits/stl_algo.h ****       __glibcxx_function_requires(_ForwardIteratorConcept<_ForwardIterator2>)
 424:/Library/DaisyToolchain/0.2.0/arm/arm-none-eabi/include/c++/10.3.1/bits/stl_algo.h ****       __glibcxx_function_requires(_BinaryPredicateConcept<_BinaryPredicate,
 425:/Library/DaisyToolchain/0.2.0/arm/arm-none-eabi/include/c++/10.3.1/bits/stl_algo.h **** 	    typename iterator_traits<_ForwardIterator1>::value_type,
 426:/Library/DaisyToolchain/0.2.0/arm/arm-none-eabi/include/c++/10.3.1/bits/stl_algo.h **** 	    typename iterator_traits<_ForwardIterator2>::value_type>)
 427:/Library/DaisyToolchain/0.2.0/arm/arm-none-eabi/include/c++/10.3.1/bits/stl_algo.h ****       __glibcxx_requires_valid_range(__first1, __last1);
 428:/Library/DaisyToolchain/0.2.0/arm/arm-none-eabi/include/c++/10.3.1/bits/stl_algo.h ****       __glibcxx_requires_valid_range(__first2, __last2);
 429:/Library/DaisyToolchain/0.2.0/arm/arm-none-eabi/include/c++/10.3.1/bits/stl_algo.h **** 
 430:/Library/DaisyToolchain/0.2.0/arm/arm-none-eabi/include/c++/10.3.1/bits/stl_algo.h ****       return std::__find_end(__first1, __last1, __first2, __last2,
 431:/Library/DaisyToolchain/0.2.0/arm/arm-none-eabi/include/c++/10.3.1/bits/stl_algo.h **** 			     std::__iterator_category(__first1),
 432:/Library/DaisyToolchain/0.2.0/arm/arm-none-eabi/include/c++/10.3.1/bits/stl_algo.h **** 			     std::__iterator_category(__first2),
 433:/Library/DaisyToolchain/0.2.0/arm/arm-none-eabi/include/c++/10.3.1/bits/stl_algo.h **** 			     __gnu_cxx::__ops::__iter_comp_iter(__comp));
 434:/Library/DaisyToolchain/0.2.0/arm/arm-none-eabi/include/c++/10.3.1/bits/stl_algo.h ****     }
 435:/Library/DaisyToolchain/0.2.0/arm/arm-none-eabi/include/c++/10.3.1/bits/stl_algo.h **** 
ARM GAS  /var/folders/9k/zk1mgrrd7wg4__6zvxvr9w8m0000gn/T//cc4BDeRe.s 			page 31


 436:/Library/DaisyToolchain/0.2.0/arm/arm-none-eabi/include/c++/10.3.1/bits/stl_algo.h **** #if __cplusplus >= 201103L
 437:/Library/DaisyToolchain/0.2.0/arm/arm-none-eabi/include/c++/10.3.1/bits/stl_algo.h ****   /**
 438:/Library/DaisyToolchain/0.2.0/arm/arm-none-eabi/include/c++/10.3.1/bits/stl_algo.h ****    *  @brief  Checks that a predicate is true for all the elements
 439:/Library/DaisyToolchain/0.2.0/arm/arm-none-eabi/include/c++/10.3.1/bits/stl_algo.h ****    *          of a sequence.
 440:/Library/DaisyToolchain/0.2.0/arm/arm-none-eabi/include/c++/10.3.1/bits/stl_algo.h ****    *  @ingroup non_mutating_algorithms
 441:/Library/DaisyToolchain/0.2.0/arm/arm-none-eabi/include/c++/10.3.1/bits/stl_algo.h ****    *  @param  __first   An input iterator.
 442:/Library/DaisyToolchain/0.2.0/arm/arm-none-eabi/include/c++/10.3.1/bits/stl_algo.h ****    *  @param  __last    An input iterator.
 443:/Library/DaisyToolchain/0.2.0/arm/arm-none-eabi/include/c++/10.3.1/bits/stl_algo.h ****    *  @param  __pred    A predicate.
 444:/Library/DaisyToolchain/0.2.0/arm/arm-none-eabi/include/c++/10.3.1/bits/stl_algo.h ****    *  @return  True if the check is true, false otherwise.
 445:/Library/DaisyToolchain/0.2.0/arm/arm-none-eabi/include/c++/10.3.1/bits/stl_algo.h ****    *
 446:/Library/DaisyToolchain/0.2.0/arm/arm-none-eabi/include/c++/10.3.1/bits/stl_algo.h ****    *  Returns true if @p __pred is true for each element in the range
 447:/Library/DaisyToolchain/0.2.0/arm/arm-none-eabi/include/c++/10.3.1/bits/stl_algo.h ****    *  @p [__first,__last), and false otherwise.
 448:/Library/DaisyToolchain/0.2.0/arm/arm-none-eabi/include/c++/10.3.1/bits/stl_algo.h ****   */
 449:/Library/DaisyToolchain/0.2.0/arm/arm-none-eabi/include/c++/10.3.1/bits/stl_algo.h ****   template<typename _InputIterator, typename _Predicate>
 450:/Library/DaisyToolchain/0.2.0/arm/arm-none-eabi/include/c++/10.3.1/bits/stl_algo.h ****     _GLIBCXX20_CONSTEXPR
 451:/Library/DaisyToolchain/0.2.0/arm/arm-none-eabi/include/c++/10.3.1/bits/stl_algo.h ****     inline bool
 452:/Library/DaisyToolchain/0.2.0/arm/arm-none-eabi/include/c++/10.3.1/bits/stl_algo.h ****     all_of(_InputIterator __first, _InputIterator __last, _Predicate __pred)
 453:/Library/DaisyToolchain/0.2.0/arm/arm-none-eabi/include/c++/10.3.1/bits/stl_algo.h ****     { return __last == std::find_if_not(__first, __last, __pred); }
 454:/Library/DaisyToolchain/0.2.0/arm/arm-none-eabi/include/c++/10.3.1/bits/stl_algo.h **** 
 455:/Library/DaisyToolchain/0.2.0/arm/arm-none-eabi/include/c++/10.3.1/bits/stl_algo.h ****   /**
 456:/Library/DaisyToolchain/0.2.0/arm/arm-none-eabi/include/c++/10.3.1/bits/stl_algo.h ****    *  @brief  Checks that a predicate is false for all the elements
 457:/Library/DaisyToolchain/0.2.0/arm/arm-none-eabi/include/c++/10.3.1/bits/stl_algo.h ****    *          of a sequence.
 458:/Library/DaisyToolchain/0.2.0/arm/arm-none-eabi/include/c++/10.3.1/bits/stl_algo.h ****    *  @ingroup non_mutating_algorithms
 459:/Library/DaisyToolchain/0.2.0/arm/arm-none-eabi/include/c++/10.3.1/bits/stl_algo.h ****    *  @param  __first   An input iterator.
 460:/Library/DaisyToolchain/0.2.0/arm/arm-none-eabi/include/c++/10.3.1/bits/stl_algo.h ****    *  @param  __last    An input iterator.
 461:/Library/DaisyToolchain/0.2.0/arm/arm-none-eabi/include/c++/10.3.1/bits/stl_algo.h ****    *  @param  __pred    A predicate.
 462:/Library/DaisyToolchain/0.2.0/arm/arm-none-eabi/include/c++/10.3.1/bits/stl_algo.h ****    *  @return  True if the check is true, false otherwise.
 463:/Library/DaisyToolchain/0.2.0/arm/arm-none-eabi/include/c++/10.3.1/bits/stl_algo.h ****    *
 464:/Library/DaisyToolchain/0.2.0/arm/arm-none-eabi/include/c++/10.3.1/bits/stl_algo.h ****    *  Returns true if @p __pred is false for each element in the range
 465:/Library/DaisyToolchain/0.2.0/arm/arm-none-eabi/include/c++/10.3.1/bits/stl_algo.h ****    *  @p [__first,__last), and false otherwise.
 466:/Library/DaisyToolchain/0.2.0/arm/arm-none-eabi/include/c++/10.3.1/bits/stl_algo.h ****   */
 467:/Library/DaisyToolchain/0.2.0/arm/arm-none-eabi/include/c++/10.3.1/bits/stl_algo.h ****   template<typename _InputIterator, typename _Predicate>
 468:/Library/DaisyToolchain/0.2.0/arm/arm-none-eabi/include/c++/10.3.1/bits/stl_algo.h ****     _GLIBCXX20_CONSTEXPR
 469:/Library/DaisyToolchain/0.2.0/arm/arm-none-eabi/include/c++/10.3.1/bits/stl_algo.h ****     inline bool
 470:/Library/DaisyToolchain/0.2.0/arm/arm-none-eabi/include/c++/10.3.1/bits/stl_algo.h ****     none_of(_InputIterator __first, _InputIterator __last, _Predicate __pred)
 471:/Library/DaisyToolchain/0.2.0/arm/arm-none-eabi/include/c++/10.3.1/bits/stl_algo.h ****     { return __last == _GLIBCXX_STD_A::find_if(__first, __last, __pred); }
 472:/Library/DaisyToolchain/0.2.0/arm/arm-none-eabi/include/c++/10.3.1/bits/stl_algo.h **** 
 473:/Library/DaisyToolchain/0.2.0/arm/arm-none-eabi/include/c++/10.3.1/bits/stl_algo.h ****   /**
 474:/Library/DaisyToolchain/0.2.0/arm/arm-none-eabi/include/c++/10.3.1/bits/stl_algo.h ****    *  @brief  Checks that a predicate is true for at least one element
 475:/Library/DaisyToolchain/0.2.0/arm/arm-none-eabi/include/c++/10.3.1/bits/stl_algo.h ****    *          of a sequence.
 476:/Library/DaisyToolchain/0.2.0/arm/arm-none-eabi/include/c++/10.3.1/bits/stl_algo.h ****    *  @ingroup non_mutating_algorithms
 477:/Library/DaisyToolchain/0.2.0/arm/arm-none-eabi/include/c++/10.3.1/bits/stl_algo.h ****    *  @param  __first   An input iterator.
 478:/Library/DaisyToolchain/0.2.0/arm/arm-none-eabi/include/c++/10.3.1/bits/stl_algo.h ****    *  @param  __last    An input iterator.
 479:/Library/DaisyToolchain/0.2.0/arm/arm-none-eabi/include/c++/10.3.1/bits/stl_algo.h ****    *  @param  __pred    A predicate.
 480:/Library/DaisyToolchain/0.2.0/arm/arm-none-eabi/include/c++/10.3.1/bits/stl_algo.h ****    *  @return  True if the check is true, false otherwise.
 481:/Library/DaisyToolchain/0.2.0/arm/arm-none-eabi/include/c++/10.3.1/bits/stl_algo.h ****    *
 482:/Library/DaisyToolchain/0.2.0/arm/arm-none-eabi/include/c++/10.3.1/bits/stl_algo.h ****    *  Returns true if an element exists in the range @p
 483:/Library/DaisyToolchain/0.2.0/arm/arm-none-eabi/include/c++/10.3.1/bits/stl_algo.h ****    *  [__first,__last) such that @p __pred is true, and false
 484:/Library/DaisyToolchain/0.2.0/arm/arm-none-eabi/include/c++/10.3.1/bits/stl_algo.h ****    *  otherwise.
 485:/Library/DaisyToolchain/0.2.0/arm/arm-none-eabi/include/c++/10.3.1/bits/stl_algo.h ****   */
 486:/Library/DaisyToolchain/0.2.0/arm/arm-none-eabi/include/c++/10.3.1/bits/stl_algo.h ****   template<typename _InputIterator, typename _Predicate>
 487:/Library/DaisyToolchain/0.2.0/arm/arm-none-eabi/include/c++/10.3.1/bits/stl_algo.h ****     _GLIBCXX20_CONSTEXPR
 488:/Library/DaisyToolchain/0.2.0/arm/arm-none-eabi/include/c++/10.3.1/bits/stl_algo.h ****     inline bool
 489:/Library/DaisyToolchain/0.2.0/arm/arm-none-eabi/include/c++/10.3.1/bits/stl_algo.h ****     any_of(_InputIterator __first, _InputIterator __last, _Predicate __pred)
 490:/Library/DaisyToolchain/0.2.0/arm/arm-none-eabi/include/c++/10.3.1/bits/stl_algo.h ****     { return !std::none_of(__first, __last, __pred); }
 491:/Library/DaisyToolchain/0.2.0/arm/arm-none-eabi/include/c++/10.3.1/bits/stl_algo.h **** 
 492:/Library/DaisyToolchain/0.2.0/arm/arm-none-eabi/include/c++/10.3.1/bits/stl_algo.h ****   /**
ARM GAS  /var/folders/9k/zk1mgrrd7wg4__6zvxvr9w8m0000gn/T//cc4BDeRe.s 			page 32


 493:/Library/DaisyToolchain/0.2.0/arm/arm-none-eabi/include/c++/10.3.1/bits/stl_algo.h ****    *  @brief  Find the first element in a sequence for which a
 494:/Library/DaisyToolchain/0.2.0/arm/arm-none-eabi/include/c++/10.3.1/bits/stl_algo.h ****    *          predicate is false.
 495:/Library/DaisyToolchain/0.2.0/arm/arm-none-eabi/include/c++/10.3.1/bits/stl_algo.h ****    *  @ingroup non_mutating_algorithms
 496:/Library/DaisyToolchain/0.2.0/arm/arm-none-eabi/include/c++/10.3.1/bits/stl_algo.h ****    *  @param  __first  An input iterator.
 497:/Library/DaisyToolchain/0.2.0/arm/arm-none-eabi/include/c++/10.3.1/bits/stl_algo.h ****    *  @param  __last   An input iterator.
 498:/Library/DaisyToolchain/0.2.0/arm/arm-none-eabi/include/c++/10.3.1/bits/stl_algo.h ****    *  @param  __pred   A predicate.
 499:/Library/DaisyToolchain/0.2.0/arm/arm-none-eabi/include/c++/10.3.1/bits/stl_algo.h ****    *  @return   The first iterator @c i in the range @p [__first,__last)
 500:/Library/DaisyToolchain/0.2.0/arm/arm-none-eabi/include/c++/10.3.1/bits/stl_algo.h ****    *  such that @p __pred(*i) is false, or @p __last if no such iterator exists.
 501:/Library/DaisyToolchain/0.2.0/arm/arm-none-eabi/include/c++/10.3.1/bits/stl_algo.h ****   */
 502:/Library/DaisyToolchain/0.2.0/arm/arm-none-eabi/include/c++/10.3.1/bits/stl_algo.h ****   template<typename _InputIterator, typename _Predicate>
 503:/Library/DaisyToolchain/0.2.0/arm/arm-none-eabi/include/c++/10.3.1/bits/stl_algo.h ****     _GLIBCXX20_CONSTEXPR
 504:/Library/DaisyToolchain/0.2.0/arm/arm-none-eabi/include/c++/10.3.1/bits/stl_algo.h ****     inline _InputIterator
 505:/Library/DaisyToolchain/0.2.0/arm/arm-none-eabi/include/c++/10.3.1/bits/stl_algo.h ****     find_if_not(_InputIterator __first, _InputIterator __last,
 506:/Library/DaisyToolchain/0.2.0/arm/arm-none-eabi/include/c++/10.3.1/bits/stl_algo.h **** 		_Predicate __pred)
 507:/Library/DaisyToolchain/0.2.0/arm/arm-none-eabi/include/c++/10.3.1/bits/stl_algo.h ****     {
 508:/Library/DaisyToolchain/0.2.0/arm/arm-none-eabi/include/c++/10.3.1/bits/stl_algo.h ****       // concept requirements
 509:/Library/DaisyToolchain/0.2.0/arm/arm-none-eabi/include/c++/10.3.1/bits/stl_algo.h ****       __glibcxx_function_requires(_InputIteratorConcept<_InputIterator>)
 510:/Library/DaisyToolchain/0.2.0/arm/arm-none-eabi/include/c++/10.3.1/bits/stl_algo.h ****       __glibcxx_function_requires(_UnaryPredicateConcept<_Predicate,
 511:/Library/DaisyToolchain/0.2.0/arm/arm-none-eabi/include/c++/10.3.1/bits/stl_algo.h **** 	      typename iterator_traits<_InputIterator>::value_type>)
 512:/Library/DaisyToolchain/0.2.0/arm/arm-none-eabi/include/c++/10.3.1/bits/stl_algo.h ****       __glibcxx_requires_valid_range(__first, __last);
 513:/Library/DaisyToolchain/0.2.0/arm/arm-none-eabi/include/c++/10.3.1/bits/stl_algo.h ****       return std::__find_if_not(__first, __last,
 514:/Library/DaisyToolchain/0.2.0/arm/arm-none-eabi/include/c++/10.3.1/bits/stl_algo.h **** 				__gnu_cxx::__ops::__pred_iter(__pred));
 515:/Library/DaisyToolchain/0.2.0/arm/arm-none-eabi/include/c++/10.3.1/bits/stl_algo.h ****     }
 516:/Library/DaisyToolchain/0.2.0/arm/arm-none-eabi/include/c++/10.3.1/bits/stl_algo.h **** 
 517:/Library/DaisyToolchain/0.2.0/arm/arm-none-eabi/include/c++/10.3.1/bits/stl_algo.h ****   /**
 518:/Library/DaisyToolchain/0.2.0/arm/arm-none-eabi/include/c++/10.3.1/bits/stl_algo.h ****    *  @brief  Checks whether the sequence is partitioned.
 519:/Library/DaisyToolchain/0.2.0/arm/arm-none-eabi/include/c++/10.3.1/bits/stl_algo.h ****    *  @ingroup mutating_algorithms
 520:/Library/DaisyToolchain/0.2.0/arm/arm-none-eabi/include/c++/10.3.1/bits/stl_algo.h ****    *  @param  __first  An input iterator.
 521:/Library/DaisyToolchain/0.2.0/arm/arm-none-eabi/include/c++/10.3.1/bits/stl_algo.h ****    *  @param  __last   An input iterator.
 522:/Library/DaisyToolchain/0.2.0/arm/arm-none-eabi/include/c++/10.3.1/bits/stl_algo.h ****    *  @param  __pred   A predicate.
 523:/Library/DaisyToolchain/0.2.0/arm/arm-none-eabi/include/c++/10.3.1/bits/stl_algo.h ****    *  @return  True if the range @p [__first,__last) is partioned by @p __pred,
 524:/Library/DaisyToolchain/0.2.0/arm/arm-none-eabi/include/c++/10.3.1/bits/stl_algo.h ****    *  i.e. if all elements that satisfy @p __pred appear before those that
 525:/Library/DaisyToolchain/0.2.0/arm/arm-none-eabi/include/c++/10.3.1/bits/stl_algo.h ****    *  do not.
 526:/Library/DaisyToolchain/0.2.0/arm/arm-none-eabi/include/c++/10.3.1/bits/stl_algo.h ****   */
 527:/Library/DaisyToolchain/0.2.0/arm/arm-none-eabi/include/c++/10.3.1/bits/stl_algo.h ****   template<typename _InputIterator, typename _Predicate>
 528:/Library/DaisyToolchain/0.2.0/arm/arm-none-eabi/include/c++/10.3.1/bits/stl_algo.h ****     _GLIBCXX20_CONSTEXPR
 529:/Library/DaisyToolchain/0.2.0/arm/arm-none-eabi/include/c++/10.3.1/bits/stl_algo.h ****     inline bool
 530:/Library/DaisyToolchain/0.2.0/arm/arm-none-eabi/include/c++/10.3.1/bits/stl_algo.h ****     is_partitioned(_InputIterator __first, _InputIterator __last,
 531:/Library/DaisyToolchain/0.2.0/arm/arm-none-eabi/include/c++/10.3.1/bits/stl_algo.h **** 		   _Predicate __pred)
 532:/Library/DaisyToolchain/0.2.0/arm/arm-none-eabi/include/c++/10.3.1/bits/stl_algo.h ****     {
 533:/Library/DaisyToolchain/0.2.0/arm/arm-none-eabi/include/c++/10.3.1/bits/stl_algo.h ****       __first = std::find_if_not(__first, __last, __pred);
 534:/Library/DaisyToolchain/0.2.0/arm/arm-none-eabi/include/c++/10.3.1/bits/stl_algo.h ****       if (__first == __last)
 535:/Library/DaisyToolchain/0.2.0/arm/arm-none-eabi/include/c++/10.3.1/bits/stl_algo.h **** 	return true;
 536:/Library/DaisyToolchain/0.2.0/arm/arm-none-eabi/include/c++/10.3.1/bits/stl_algo.h ****       ++__first;
 537:/Library/DaisyToolchain/0.2.0/arm/arm-none-eabi/include/c++/10.3.1/bits/stl_algo.h ****       return std::none_of(__first, __last, __pred);
 538:/Library/DaisyToolchain/0.2.0/arm/arm-none-eabi/include/c++/10.3.1/bits/stl_algo.h ****     }
 539:/Library/DaisyToolchain/0.2.0/arm/arm-none-eabi/include/c++/10.3.1/bits/stl_algo.h **** 
 540:/Library/DaisyToolchain/0.2.0/arm/arm-none-eabi/include/c++/10.3.1/bits/stl_algo.h ****   /**
 541:/Library/DaisyToolchain/0.2.0/arm/arm-none-eabi/include/c++/10.3.1/bits/stl_algo.h ****    *  @brief  Find the partition point of a partitioned range.
 542:/Library/DaisyToolchain/0.2.0/arm/arm-none-eabi/include/c++/10.3.1/bits/stl_algo.h ****    *  @ingroup mutating_algorithms
 543:/Library/DaisyToolchain/0.2.0/arm/arm-none-eabi/include/c++/10.3.1/bits/stl_algo.h ****    *  @param  __first   An iterator.
 544:/Library/DaisyToolchain/0.2.0/arm/arm-none-eabi/include/c++/10.3.1/bits/stl_algo.h ****    *  @param  __last    Another iterator.
 545:/Library/DaisyToolchain/0.2.0/arm/arm-none-eabi/include/c++/10.3.1/bits/stl_algo.h ****    *  @param  __pred    A predicate.
 546:/Library/DaisyToolchain/0.2.0/arm/arm-none-eabi/include/c++/10.3.1/bits/stl_algo.h ****    *  @return  An iterator @p mid such that @p all_of(__first, mid, __pred)
 547:/Library/DaisyToolchain/0.2.0/arm/arm-none-eabi/include/c++/10.3.1/bits/stl_algo.h ****    *           and @p none_of(mid, __last, __pred) are both true.
 548:/Library/DaisyToolchain/0.2.0/arm/arm-none-eabi/include/c++/10.3.1/bits/stl_algo.h ****   */
 549:/Library/DaisyToolchain/0.2.0/arm/arm-none-eabi/include/c++/10.3.1/bits/stl_algo.h ****   template<typename _ForwardIterator, typename _Predicate>
ARM GAS  /var/folders/9k/zk1mgrrd7wg4__6zvxvr9w8m0000gn/T//cc4BDeRe.s 			page 33


 550:/Library/DaisyToolchain/0.2.0/arm/arm-none-eabi/include/c++/10.3.1/bits/stl_algo.h ****     _GLIBCXX20_CONSTEXPR
 551:/Library/DaisyToolchain/0.2.0/arm/arm-none-eabi/include/c++/10.3.1/bits/stl_algo.h ****     _ForwardIterator
 552:/Library/DaisyToolchain/0.2.0/arm/arm-none-eabi/include/c++/10.3.1/bits/stl_algo.h ****     partition_point(_ForwardIterator __first, _ForwardIterator __last,
 553:/Library/DaisyToolchain/0.2.0/arm/arm-none-eabi/include/c++/10.3.1/bits/stl_algo.h **** 		    _Predicate __pred)
 554:/Library/DaisyToolchain/0.2.0/arm/arm-none-eabi/include/c++/10.3.1/bits/stl_algo.h ****     {
 555:/Library/DaisyToolchain/0.2.0/arm/arm-none-eabi/include/c++/10.3.1/bits/stl_algo.h ****       // concept requirements
 556:/Library/DaisyToolchain/0.2.0/arm/arm-none-eabi/include/c++/10.3.1/bits/stl_algo.h ****       __glibcxx_function_requires(_ForwardIteratorConcept<_ForwardIterator>)
 557:/Library/DaisyToolchain/0.2.0/arm/arm-none-eabi/include/c++/10.3.1/bits/stl_algo.h ****       __glibcxx_function_requires(_UnaryPredicateConcept<_Predicate,
 558:/Library/DaisyToolchain/0.2.0/arm/arm-none-eabi/include/c++/10.3.1/bits/stl_algo.h **** 	      typename iterator_traits<_ForwardIterator>::value_type>)
 559:/Library/DaisyToolchain/0.2.0/arm/arm-none-eabi/include/c++/10.3.1/bits/stl_algo.h **** 
 560:/Library/DaisyToolchain/0.2.0/arm/arm-none-eabi/include/c++/10.3.1/bits/stl_algo.h ****       // A specific debug-mode test will be necessary...
 561:/Library/DaisyToolchain/0.2.0/arm/arm-none-eabi/include/c++/10.3.1/bits/stl_algo.h ****       __glibcxx_requires_valid_range(__first, __last);
 562:/Library/DaisyToolchain/0.2.0/arm/arm-none-eabi/include/c++/10.3.1/bits/stl_algo.h **** 
 563:/Library/DaisyToolchain/0.2.0/arm/arm-none-eabi/include/c++/10.3.1/bits/stl_algo.h ****       typedef typename iterator_traits<_ForwardIterator>::difference_type
 564:/Library/DaisyToolchain/0.2.0/arm/arm-none-eabi/include/c++/10.3.1/bits/stl_algo.h **** 	_DistanceType;
 565:/Library/DaisyToolchain/0.2.0/arm/arm-none-eabi/include/c++/10.3.1/bits/stl_algo.h **** 
 566:/Library/DaisyToolchain/0.2.0/arm/arm-none-eabi/include/c++/10.3.1/bits/stl_algo.h ****       _DistanceType __len = std::distance(__first, __last);
 567:/Library/DaisyToolchain/0.2.0/arm/arm-none-eabi/include/c++/10.3.1/bits/stl_algo.h **** 
 568:/Library/DaisyToolchain/0.2.0/arm/arm-none-eabi/include/c++/10.3.1/bits/stl_algo.h ****       while (__len > 0)
 569:/Library/DaisyToolchain/0.2.0/arm/arm-none-eabi/include/c++/10.3.1/bits/stl_algo.h **** 	{
 570:/Library/DaisyToolchain/0.2.0/arm/arm-none-eabi/include/c++/10.3.1/bits/stl_algo.h **** 	  _DistanceType __half = __len >> 1;
 571:/Library/DaisyToolchain/0.2.0/arm/arm-none-eabi/include/c++/10.3.1/bits/stl_algo.h **** 	  _ForwardIterator __middle = __first;
 572:/Library/DaisyToolchain/0.2.0/arm/arm-none-eabi/include/c++/10.3.1/bits/stl_algo.h **** 	  std::advance(__middle, __half);
 573:/Library/DaisyToolchain/0.2.0/arm/arm-none-eabi/include/c++/10.3.1/bits/stl_algo.h **** 	  if (__pred(*__middle))
 574:/Library/DaisyToolchain/0.2.0/arm/arm-none-eabi/include/c++/10.3.1/bits/stl_algo.h **** 	    {
 575:/Library/DaisyToolchain/0.2.0/arm/arm-none-eabi/include/c++/10.3.1/bits/stl_algo.h **** 	      __first = __middle;
 576:/Library/DaisyToolchain/0.2.0/arm/arm-none-eabi/include/c++/10.3.1/bits/stl_algo.h **** 	      ++__first;
 577:/Library/DaisyToolchain/0.2.0/arm/arm-none-eabi/include/c++/10.3.1/bits/stl_algo.h **** 	      __len = __len - __half - 1;
 578:/Library/DaisyToolchain/0.2.0/arm/arm-none-eabi/include/c++/10.3.1/bits/stl_algo.h **** 	    }
 579:/Library/DaisyToolchain/0.2.0/arm/arm-none-eabi/include/c++/10.3.1/bits/stl_algo.h **** 	  else
 580:/Library/DaisyToolchain/0.2.0/arm/arm-none-eabi/include/c++/10.3.1/bits/stl_algo.h **** 	    __len = __half;
 581:/Library/DaisyToolchain/0.2.0/arm/arm-none-eabi/include/c++/10.3.1/bits/stl_algo.h **** 	}
 582:/Library/DaisyToolchain/0.2.0/arm/arm-none-eabi/include/c++/10.3.1/bits/stl_algo.h ****       return __first;
 583:/Library/DaisyToolchain/0.2.0/arm/arm-none-eabi/include/c++/10.3.1/bits/stl_algo.h ****     }
 584:/Library/DaisyToolchain/0.2.0/arm/arm-none-eabi/include/c++/10.3.1/bits/stl_algo.h **** #endif
 585:/Library/DaisyToolchain/0.2.0/arm/arm-none-eabi/include/c++/10.3.1/bits/stl_algo.h **** 
 586:/Library/DaisyToolchain/0.2.0/arm/arm-none-eabi/include/c++/10.3.1/bits/stl_algo.h ****   template<typename _InputIterator, typename _OutputIterator,
 587:/Library/DaisyToolchain/0.2.0/arm/arm-none-eabi/include/c++/10.3.1/bits/stl_algo.h **** 	   typename _Predicate>
 588:/Library/DaisyToolchain/0.2.0/arm/arm-none-eabi/include/c++/10.3.1/bits/stl_algo.h ****     _GLIBCXX20_CONSTEXPR
 589:/Library/DaisyToolchain/0.2.0/arm/arm-none-eabi/include/c++/10.3.1/bits/stl_algo.h ****     _OutputIterator
 590:/Library/DaisyToolchain/0.2.0/arm/arm-none-eabi/include/c++/10.3.1/bits/stl_algo.h ****     __remove_copy_if(_InputIterator __first, _InputIterator __last,
 591:/Library/DaisyToolchain/0.2.0/arm/arm-none-eabi/include/c++/10.3.1/bits/stl_algo.h **** 		     _OutputIterator __result, _Predicate __pred)
 592:/Library/DaisyToolchain/0.2.0/arm/arm-none-eabi/include/c++/10.3.1/bits/stl_algo.h ****     {
 593:/Library/DaisyToolchain/0.2.0/arm/arm-none-eabi/include/c++/10.3.1/bits/stl_algo.h ****       for (; __first != __last; ++__first)
 594:/Library/DaisyToolchain/0.2.0/arm/arm-none-eabi/include/c++/10.3.1/bits/stl_algo.h **** 	if (!__pred(__first))
 595:/Library/DaisyToolchain/0.2.0/arm/arm-none-eabi/include/c++/10.3.1/bits/stl_algo.h **** 	  {
 596:/Library/DaisyToolchain/0.2.0/arm/arm-none-eabi/include/c++/10.3.1/bits/stl_algo.h **** 	    *__result = *__first;
 597:/Library/DaisyToolchain/0.2.0/arm/arm-none-eabi/include/c++/10.3.1/bits/stl_algo.h **** 	    ++__result;
 598:/Library/DaisyToolchain/0.2.0/arm/arm-none-eabi/include/c++/10.3.1/bits/stl_algo.h **** 	  }
 599:/Library/DaisyToolchain/0.2.0/arm/arm-none-eabi/include/c++/10.3.1/bits/stl_algo.h ****       return __result;
 600:/Library/DaisyToolchain/0.2.0/arm/arm-none-eabi/include/c++/10.3.1/bits/stl_algo.h ****     }
 601:/Library/DaisyToolchain/0.2.0/arm/arm-none-eabi/include/c++/10.3.1/bits/stl_algo.h **** 
 602:/Library/DaisyToolchain/0.2.0/arm/arm-none-eabi/include/c++/10.3.1/bits/stl_algo.h ****   /**
 603:/Library/DaisyToolchain/0.2.0/arm/arm-none-eabi/include/c++/10.3.1/bits/stl_algo.h ****    *  @brief Copy a sequence, removing elements of a given value.
 604:/Library/DaisyToolchain/0.2.0/arm/arm-none-eabi/include/c++/10.3.1/bits/stl_algo.h ****    *  @ingroup mutating_algorithms
 605:/Library/DaisyToolchain/0.2.0/arm/arm-none-eabi/include/c++/10.3.1/bits/stl_algo.h ****    *  @param  __first   An input iterator.
 606:/Library/DaisyToolchain/0.2.0/arm/arm-none-eabi/include/c++/10.3.1/bits/stl_algo.h ****    *  @param  __last    An input iterator.
ARM GAS  /var/folders/9k/zk1mgrrd7wg4__6zvxvr9w8m0000gn/T//cc4BDeRe.s 			page 34


 607:/Library/DaisyToolchain/0.2.0/arm/arm-none-eabi/include/c++/10.3.1/bits/stl_algo.h ****    *  @param  __result  An output iterator.
 608:/Library/DaisyToolchain/0.2.0/arm/arm-none-eabi/include/c++/10.3.1/bits/stl_algo.h ****    *  @param  __value   The value to be removed.
 609:/Library/DaisyToolchain/0.2.0/arm/arm-none-eabi/include/c++/10.3.1/bits/stl_algo.h ****    *  @return   An iterator designating the end of the resulting sequence.
 610:/Library/DaisyToolchain/0.2.0/arm/arm-none-eabi/include/c++/10.3.1/bits/stl_algo.h ****    *
 611:/Library/DaisyToolchain/0.2.0/arm/arm-none-eabi/include/c++/10.3.1/bits/stl_algo.h ****    *  Copies each element in the range @p [__first,__last) not equal
 612:/Library/DaisyToolchain/0.2.0/arm/arm-none-eabi/include/c++/10.3.1/bits/stl_algo.h ****    *  to @p __value to the range beginning at @p __result.
 613:/Library/DaisyToolchain/0.2.0/arm/arm-none-eabi/include/c++/10.3.1/bits/stl_algo.h ****    *  remove_copy() is stable, so the relative order of elements that
 614:/Library/DaisyToolchain/0.2.0/arm/arm-none-eabi/include/c++/10.3.1/bits/stl_algo.h ****    *  are copied is unchanged.
 615:/Library/DaisyToolchain/0.2.0/arm/arm-none-eabi/include/c++/10.3.1/bits/stl_algo.h ****   */
 616:/Library/DaisyToolchain/0.2.0/arm/arm-none-eabi/include/c++/10.3.1/bits/stl_algo.h ****   template<typename _InputIterator, typename _OutputIterator, typename _Tp>
 617:/Library/DaisyToolchain/0.2.0/arm/arm-none-eabi/include/c++/10.3.1/bits/stl_algo.h ****     _GLIBCXX20_CONSTEXPR
 618:/Library/DaisyToolchain/0.2.0/arm/arm-none-eabi/include/c++/10.3.1/bits/stl_algo.h ****     inline _OutputIterator
 619:/Library/DaisyToolchain/0.2.0/arm/arm-none-eabi/include/c++/10.3.1/bits/stl_algo.h ****     remove_copy(_InputIterator __first, _InputIterator __last,
 620:/Library/DaisyToolchain/0.2.0/arm/arm-none-eabi/include/c++/10.3.1/bits/stl_algo.h **** 		_OutputIterator __result, const _Tp& __value)
 621:/Library/DaisyToolchain/0.2.0/arm/arm-none-eabi/include/c++/10.3.1/bits/stl_algo.h ****     {
 622:/Library/DaisyToolchain/0.2.0/arm/arm-none-eabi/include/c++/10.3.1/bits/stl_algo.h ****       // concept requirements
 623:/Library/DaisyToolchain/0.2.0/arm/arm-none-eabi/include/c++/10.3.1/bits/stl_algo.h ****       __glibcxx_function_requires(_InputIteratorConcept<_InputIterator>)
 624:/Library/DaisyToolchain/0.2.0/arm/arm-none-eabi/include/c++/10.3.1/bits/stl_algo.h ****       __glibcxx_function_requires(_OutputIteratorConcept<_OutputIterator,
 625:/Library/DaisyToolchain/0.2.0/arm/arm-none-eabi/include/c++/10.3.1/bits/stl_algo.h **** 	    typename iterator_traits<_InputIterator>::value_type>)
 626:/Library/DaisyToolchain/0.2.0/arm/arm-none-eabi/include/c++/10.3.1/bits/stl_algo.h ****       __glibcxx_function_requires(_EqualOpConcept<
 627:/Library/DaisyToolchain/0.2.0/arm/arm-none-eabi/include/c++/10.3.1/bits/stl_algo.h **** 	    typename iterator_traits<_InputIterator>::value_type, _Tp>)
 628:/Library/DaisyToolchain/0.2.0/arm/arm-none-eabi/include/c++/10.3.1/bits/stl_algo.h ****       __glibcxx_requires_valid_range(__first, __last);
 629:/Library/DaisyToolchain/0.2.0/arm/arm-none-eabi/include/c++/10.3.1/bits/stl_algo.h **** 
 630:/Library/DaisyToolchain/0.2.0/arm/arm-none-eabi/include/c++/10.3.1/bits/stl_algo.h ****       return std::__remove_copy_if(__first, __last, __result,
 631:/Library/DaisyToolchain/0.2.0/arm/arm-none-eabi/include/c++/10.3.1/bits/stl_algo.h **** 	__gnu_cxx::__ops::__iter_equals_val(__value));
 632:/Library/DaisyToolchain/0.2.0/arm/arm-none-eabi/include/c++/10.3.1/bits/stl_algo.h ****     }
 633:/Library/DaisyToolchain/0.2.0/arm/arm-none-eabi/include/c++/10.3.1/bits/stl_algo.h **** 
 634:/Library/DaisyToolchain/0.2.0/arm/arm-none-eabi/include/c++/10.3.1/bits/stl_algo.h ****   /**
 635:/Library/DaisyToolchain/0.2.0/arm/arm-none-eabi/include/c++/10.3.1/bits/stl_algo.h ****    *  @brief Copy a sequence, removing elements for which a predicate is true.
 636:/Library/DaisyToolchain/0.2.0/arm/arm-none-eabi/include/c++/10.3.1/bits/stl_algo.h ****    *  @ingroup mutating_algorithms
 637:/Library/DaisyToolchain/0.2.0/arm/arm-none-eabi/include/c++/10.3.1/bits/stl_algo.h ****    *  @param  __first   An input iterator.
 638:/Library/DaisyToolchain/0.2.0/arm/arm-none-eabi/include/c++/10.3.1/bits/stl_algo.h ****    *  @param  __last    An input iterator.
 639:/Library/DaisyToolchain/0.2.0/arm/arm-none-eabi/include/c++/10.3.1/bits/stl_algo.h ****    *  @param  __result  An output iterator.
 640:/Library/DaisyToolchain/0.2.0/arm/arm-none-eabi/include/c++/10.3.1/bits/stl_algo.h ****    *  @param  __pred    A predicate.
 641:/Library/DaisyToolchain/0.2.0/arm/arm-none-eabi/include/c++/10.3.1/bits/stl_algo.h ****    *  @return   An iterator designating the end of the resulting sequence.
 642:/Library/DaisyToolchain/0.2.0/arm/arm-none-eabi/include/c++/10.3.1/bits/stl_algo.h ****    *
 643:/Library/DaisyToolchain/0.2.0/arm/arm-none-eabi/include/c++/10.3.1/bits/stl_algo.h ****    *  Copies each element in the range @p [__first,__last) for which
 644:/Library/DaisyToolchain/0.2.0/arm/arm-none-eabi/include/c++/10.3.1/bits/stl_algo.h ****    *  @p __pred returns false to the range beginning at @p __result.
 645:/Library/DaisyToolchain/0.2.0/arm/arm-none-eabi/include/c++/10.3.1/bits/stl_algo.h ****    *
 646:/Library/DaisyToolchain/0.2.0/arm/arm-none-eabi/include/c++/10.3.1/bits/stl_algo.h ****    *  remove_copy_if() is stable, so the relative order of elements that are
 647:/Library/DaisyToolchain/0.2.0/arm/arm-none-eabi/include/c++/10.3.1/bits/stl_algo.h ****    *  copied is unchanged.
 648:/Library/DaisyToolchain/0.2.0/arm/arm-none-eabi/include/c++/10.3.1/bits/stl_algo.h ****   */
 649:/Library/DaisyToolchain/0.2.0/arm/arm-none-eabi/include/c++/10.3.1/bits/stl_algo.h ****   template<typename _InputIterator, typename _OutputIterator,
 650:/Library/DaisyToolchain/0.2.0/arm/arm-none-eabi/include/c++/10.3.1/bits/stl_algo.h **** 	   typename _Predicate>
 651:/Library/DaisyToolchain/0.2.0/arm/arm-none-eabi/include/c++/10.3.1/bits/stl_algo.h ****     _GLIBCXX20_CONSTEXPR
 652:/Library/DaisyToolchain/0.2.0/arm/arm-none-eabi/include/c++/10.3.1/bits/stl_algo.h ****     inline _OutputIterator
 653:/Library/DaisyToolchain/0.2.0/arm/arm-none-eabi/include/c++/10.3.1/bits/stl_algo.h ****     remove_copy_if(_InputIterator __first, _InputIterator __last,
 654:/Library/DaisyToolchain/0.2.0/arm/arm-none-eabi/include/c++/10.3.1/bits/stl_algo.h **** 		   _OutputIterator __result, _Predicate __pred)
 655:/Library/DaisyToolchain/0.2.0/arm/arm-none-eabi/include/c++/10.3.1/bits/stl_algo.h ****     {
 656:/Library/DaisyToolchain/0.2.0/arm/arm-none-eabi/include/c++/10.3.1/bits/stl_algo.h ****       // concept requirements
 657:/Library/DaisyToolchain/0.2.0/arm/arm-none-eabi/include/c++/10.3.1/bits/stl_algo.h ****       __glibcxx_function_requires(_InputIteratorConcept<_InputIterator>)
 658:/Library/DaisyToolchain/0.2.0/arm/arm-none-eabi/include/c++/10.3.1/bits/stl_algo.h ****       __glibcxx_function_requires(_OutputIteratorConcept<_OutputIterator,
 659:/Library/DaisyToolchain/0.2.0/arm/arm-none-eabi/include/c++/10.3.1/bits/stl_algo.h **** 	    typename iterator_traits<_InputIterator>::value_type>)
 660:/Library/DaisyToolchain/0.2.0/arm/arm-none-eabi/include/c++/10.3.1/bits/stl_algo.h ****       __glibcxx_function_requires(_UnaryPredicateConcept<_Predicate,
 661:/Library/DaisyToolchain/0.2.0/arm/arm-none-eabi/include/c++/10.3.1/bits/stl_algo.h **** 	    typename iterator_traits<_InputIterator>::value_type>)
 662:/Library/DaisyToolchain/0.2.0/arm/arm-none-eabi/include/c++/10.3.1/bits/stl_algo.h ****       __glibcxx_requires_valid_range(__first, __last);
 663:/Library/DaisyToolchain/0.2.0/arm/arm-none-eabi/include/c++/10.3.1/bits/stl_algo.h **** 
ARM GAS  /var/folders/9k/zk1mgrrd7wg4__6zvxvr9w8m0000gn/T//cc4BDeRe.s 			page 35


 664:/Library/DaisyToolchain/0.2.0/arm/arm-none-eabi/include/c++/10.3.1/bits/stl_algo.h ****       return std::__remove_copy_if(__first, __last, __result,
 665:/Library/DaisyToolchain/0.2.0/arm/arm-none-eabi/include/c++/10.3.1/bits/stl_algo.h **** 				   __gnu_cxx::__ops::__pred_iter(__pred));
 666:/Library/DaisyToolchain/0.2.0/arm/arm-none-eabi/include/c++/10.3.1/bits/stl_algo.h ****     }
 667:/Library/DaisyToolchain/0.2.0/arm/arm-none-eabi/include/c++/10.3.1/bits/stl_algo.h **** 
 668:/Library/DaisyToolchain/0.2.0/arm/arm-none-eabi/include/c++/10.3.1/bits/stl_algo.h **** #if __cplusplus >= 201103L
 669:/Library/DaisyToolchain/0.2.0/arm/arm-none-eabi/include/c++/10.3.1/bits/stl_algo.h ****   /**
 670:/Library/DaisyToolchain/0.2.0/arm/arm-none-eabi/include/c++/10.3.1/bits/stl_algo.h ****    *  @brief Copy the elements of a sequence for which a predicate is true.
 671:/Library/DaisyToolchain/0.2.0/arm/arm-none-eabi/include/c++/10.3.1/bits/stl_algo.h ****    *  @ingroup mutating_algorithms
 672:/Library/DaisyToolchain/0.2.0/arm/arm-none-eabi/include/c++/10.3.1/bits/stl_algo.h ****    *  @param  __first   An input iterator.
 673:/Library/DaisyToolchain/0.2.0/arm/arm-none-eabi/include/c++/10.3.1/bits/stl_algo.h ****    *  @param  __last    An input iterator.
 674:/Library/DaisyToolchain/0.2.0/arm/arm-none-eabi/include/c++/10.3.1/bits/stl_algo.h ****    *  @param  __result  An output iterator.
 675:/Library/DaisyToolchain/0.2.0/arm/arm-none-eabi/include/c++/10.3.1/bits/stl_algo.h ****    *  @param  __pred    A predicate.
 676:/Library/DaisyToolchain/0.2.0/arm/arm-none-eabi/include/c++/10.3.1/bits/stl_algo.h ****    *  @return   An iterator designating the end of the resulting sequence.
 677:/Library/DaisyToolchain/0.2.0/arm/arm-none-eabi/include/c++/10.3.1/bits/stl_algo.h ****    *
 678:/Library/DaisyToolchain/0.2.0/arm/arm-none-eabi/include/c++/10.3.1/bits/stl_algo.h ****    *  Copies each element in the range @p [__first,__last) for which
 679:/Library/DaisyToolchain/0.2.0/arm/arm-none-eabi/include/c++/10.3.1/bits/stl_algo.h ****    *  @p __pred returns true to the range beginning at @p __result.
 680:/Library/DaisyToolchain/0.2.0/arm/arm-none-eabi/include/c++/10.3.1/bits/stl_algo.h ****    *
 681:/Library/DaisyToolchain/0.2.0/arm/arm-none-eabi/include/c++/10.3.1/bits/stl_algo.h ****    *  copy_if() is stable, so the relative order of elements that are
 682:/Library/DaisyToolchain/0.2.0/arm/arm-none-eabi/include/c++/10.3.1/bits/stl_algo.h ****    *  copied is unchanged.
 683:/Library/DaisyToolchain/0.2.0/arm/arm-none-eabi/include/c++/10.3.1/bits/stl_algo.h ****   */
 684:/Library/DaisyToolchain/0.2.0/arm/arm-none-eabi/include/c++/10.3.1/bits/stl_algo.h ****   template<typename _InputIterator, typename _OutputIterator,
 685:/Library/DaisyToolchain/0.2.0/arm/arm-none-eabi/include/c++/10.3.1/bits/stl_algo.h **** 	   typename _Predicate>
 686:/Library/DaisyToolchain/0.2.0/arm/arm-none-eabi/include/c++/10.3.1/bits/stl_algo.h ****     _GLIBCXX20_CONSTEXPR
 687:/Library/DaisyToolchain/0.2.0/arm/arm-none-eabi/include/c++/10.3.1/bits/stl_algo.h ****     _OutputIterator
 688:/Library/DaisyToolchain/0.2.0/arm/arm-none-eabi/include/c++/10.3.1/bits/stl_algo.h ****     copy_if(_InputIterator __first, _InputIterator __last,
 689:/Library/DaisyToolchain/0.2.0/arm/arm-none-eabi/include/c++/10.3.1/bits/stl_algo.h **** 	    _OutputIterator __result, _Predicate __pred)
 690:/Library/DaisyToolchain/0.2.0/arm/arm-none-eabi/include/c++/10.3.1/bits/stl_algo.h ****     {
 691:/Library/DaisyToolchain/0.2.0/arm/arm-none-eabi/include/c++/10.3.1/bits/stl_algo.h ****       // concept requirements
 692:/Library/DaisyToolchain/0.2.0/arm/arm-none-eabi/include/c++/10.3.1/bits/stl_algo.h ****       __glibcxx_function_requires(_InputIteratorConcept<_InputIterator>)
 693:/Library/DaisyToolchain/0.2.0/arm/arm-none-eabi/include/c++/10.3.1/bits/stl_algo.h ****       __glibcxx_function_requires(_OutputIteratorConcept<_OutputIterator,
 694:/Library/DaisyToolchain/0.2.0/arm/arm-none-eabi/include/c++/10.3.1/bits/stl_algo.h **** 	    typename iterator_traits<_InputIterator>::value_type>)
 695:/Library/DaisyToolchain/0.2.0/arm/arm-none-eabi/include/c++/10.3.1/bits/stl_algo.h ****       __glibcxx_function_requires(_UnaryPredicateConcept<_Predicate,
 696:/Library/DaisyToolchain/0.2.0/arm/arm-none-eabi/include/c++/10.3.1/bits/stl_algo.h **** 	    typename iterator_traits<_InputIterator>::value_type>)
 697:/Library/DaisyToolchain/0.2.0/arm/arm-none-eabi/include/c++/10.3.1/bits/stl_algo.h ****       __glibcxx_requires_valid_range(__first, __last);
 698:/Library/DaisyToolchain/0.2.0/arm/arm-none-eabi/include/c++/10.3.1/bits/stl_algo.h **** 
 699:/Library/DaisyToolchain/0.2.0/arm/arm-none-eabi/include/c++/10.3.1/bits/stl_algo.h ****       for (; __first != __last; ++__first)
 700:/Library/DaisyToolchain/0.2.0/arm/arm-none-eabi/include/c++/10.3.1/bits/stl_algo.h **** 	if (__pred(*__first))
 701:/Library/DaisyToolchain/0.2.0/arm/arm-none-eabi/include/c++/10.3.1/bits/stl_algo.h **** 	  {
 702:/Library/DaisyToolchain/0.2.0/arm/arm-none-eabi/include/c++/10.3.1/bits/stl_algo.h **** 	    *__result = *__first;
 703:/Library/DaisyToolchain/0.2.0/arm/arm-none-eabi/include/c++/10.3.1/bits/stl_algo.h **** 	    ++__result;
 704:/Library/DaisyToolchain/0.2.0/arm/arm-none-eabi/include/c++/10.3.1/bits/stl_algo.h **** 	  }
 705:/Library/DaisyToolchain/0.2.0/arm/arm-none-eabi/include/c++/10.3.1/bits/stl_algo.h ****       return __result;
 706:/Library/DaisyToolchain/0.2.0/arm/arm-none-eabi/include/c++/10.3.1/bits/stl_algo.h ****     }
 707:/Library/DaisyToolchain/0.2.0/arm/arm-none-eabi/include/c++/10.3.1/bits/stl_algo.h **** 
 708:/Library/DaisyToolchain/0.2.0/arm/arm-none-eabi/include/c++/10.3.1/bits/stl_algo.h ****   template<typename _InputIterator, typename _Size, typename _OutputIterator>
 709:/Library/DaisyToolchain/0.2.0/arm/arm-none-eabi/include/c++/10.3.1/bits/stl_algo.h ****     _GLIBCXX20_CONSTEXPR
 710:/Library/DaisyToolchain/0.2.0/arm/arm-none-eabi/include/c++/10.3.1/bits/stl_algo.h ****     _OutputIterator
 711:/Library/DaisyToolchain/0.2.0/arm/arm-none-eabi/include/c++/10.3.1/bits/stl_algo.h ****     __copy_n_a(_InputIterator __first, _Size __n, _OutputIterator __result)
 712:/Library/DaisyToolchain/0.2.0/arm/arm-none-eabi/include/c++/10.3.1/bits/stl_algo.h ****     {
 713:/Library/DaisyToolchain/0.2.0/arm/arm-none-eabi/include/c++/10.3.1/bits/stl_algo.h ****       if (__n > 0)
 714:/Library/DaisyToolchain/0.2.0/arm/arm-none-eabi/include/c++/10.3.1/bits/stl_algo.h **** 	{
 715:/Library/DaisyToolchain/0.2.0/arm/arm-none-eabi/include/c++/10.3.1/bits/stl_algo.h **** 	  while (true)
 716:/Library/DaisyToolchain/0.2.0/arm/arm-none-eabi/include/c++/10.3.1/bits/stl_algo.h **** 	    {
 717:/Library/DaisyToolchain/0.2.0/arm/arm-none-eabi/include/c++/10.3.1/bits/stl_algo.h **** 	      *__result = *__first;
 718:/Library/DaisyToolchain/0.2.0/arm/arm-none-eabi/include/c++/10.3.1/bits/stl_algo.h **** 	      ++__result;
 719:/Library/DaisyToolchain/0.2.0/arm/arm-none-eabi/include/c++/10.3.1/bits/stl_algo.h **** 	      if (--__n > 0)
 720:/Library/DaisyToolchain/0.2.0/arm/arm-none-eabi/include/c++/10.3.1/bits/stl_algo.h **** 		++__first;
ARM GAS  /var/folders/9k/zk1mgrrd7wg4__6zvxvr9w8m0000gn/T//cc4BDeRe.s 			page 36


 721:/Library/DaisyToolchain/0.2.0/arm/arm-none-eabi/include/c++/10.3.1/bits/stl_algo.h **** 	      else
 722:/Library/DaisyToolchain/0.2.0/arm/arm-none-eabi/include/c++/10.3.1/bits/stl_algo.h **** 		break;
 723:/Library/DaisyToolchain/0.2.0/arm/arm-none-eabi/include/c++/10.3.1/bits/stl_algo.h **** 	    }
 724:/Library/DaisyToolchain/0.2.0/arm/arm-none-eabi/include/c++/10.3.1/bits/stl_algo.h **** 	}
 725:/Library/DaisyToolchain/0.2.0/arm/arm-none-eabi/include/c++/10.3.1/bits/stl_algo.h ****       return __result;
 726:/Library/DaisyToolchain/0.2.0/arm/arm-none-eabi/include/c++/10.3.1/bits/stl_algo.h ****     }
 727:/Library/DaisyToolchain/0.2.0/arm/arm-none-eabi/include/c++/10.3.1/bits/stl_algo.h ****  
 728:/Library/DaisyToolchain/0.2.0/arm/arm-none-eabi/include/c++/10.3.1/bits/stl_algo.h ****   template<typename _CharT, typename _Size>
 729:/Library/DaisyToolchain/0.2.0/arm/arm-none-eabi/include/c++/10.3.1/bits/stl_algo.h ****     __enable_if_t<__is_char<_CharT>::__value, _CharT*>
 730:/Library/DaisyToolchain/0.2.0/arm/arm-none-eabi/include/c++/10.3.1/bits/stl_algo.h ****     __copy_n_a(istreambuf_iterator<_CharT, char_traits<_CharT>>,
 731:/Library/DaisyToolchain/0.2.0/arm/arm-none-eabi/include/c++/10.3.1/bits/stl_algo.h **** 	       _Size, _CharT*);
 732:/Library/DaisyToolchain/0.2.0/arm/arm-none-eabi/include/c++/10.3.1/bits/stl_algo.h **** 
 733:/Library/DaisyToolchain/0.2.0/arm/arm-none-eabi/include/c++/10.3.1/bits/stl_algo.h ****   template<typename _InputIterator, typename _Size, typename _OutputIterator>
 734:/Library/DaisyToolchain/0.2.0/arm/arm-none-eabi/include/c++/10.3.1/bits/stl_algo.h ****     _GLIBCXX20_CONSTEXPR
 735:/Library/DaisyToolchain/0.2.0/arm/arm-none-eabi/include/c++/10.3.1/bits/stl_algo.h ****     _OutputIterator
 736:/Library/DaisyToolchain/0.2.0/arm/arm-none-eabi/include/c++/10.3.1/bits/stl_algo.h ****     __copy_n(_InputIterator __first, _Size __n,
 737:/Library/DaisyToolchain/0.2.0/arm/arm-none-eabi/include/c++/10.3.1/bits/stl_algo.h **** 	     _OutputIterator __result, input_iterator_tag)
 738:/Library/DaisyToolchain/0.2.0/arm/arm-none-eabi/include/c++/10.3.1/bits/stl_algo.h ****     {
 739:/Library/DaisyToolchain/0.2.0/arm/arm-none-eabi/include/c++/10.3.1/bits/stl_algo.h ****       return std::__niter_wrap(__result,
 740:/Library/DaisyToolchain/0.2.0/arm/arm-none-eabi/include/c++/10.3.1/bits/stl_algo.h **** 			       __copy_n_a(__first, __n,
 741:/Library/DaisyToolchain/0.2.0/arm/arm-none-eabi/include/c++/10.3.1/bits/stl_algo.h **** 					  std::__niter_base(__result)));
 742:/Library/DaisyToolchain/0.2.0/arm/arm-none-eabi/include/c++/10.3.1/bits/stl_algo.h ****     }
 743:/Library/DaisyToolchain/0.2.0/arm/arm-none-eabi/include/c++/10.3.1/bits/stl_algo.h **** 
 744:/Library/DaisyToolchain/0.2.0/arm/arm-none-eabi/include/c++/10.3.1/bits/stl_algo.h ****   template<typename _RandomAccessIterator, typename _Size,
 745:/Library/DaisyToolchain/0.2.0/arm/arm-none-eabi/include/c++/10.3.1/bits/stl_algo.h **** 	   typename _OutputIterator>
 746:/Library/DaisyToolchain/0.2.0/arm/arm-none-eabi/include/c++/10.3.1/bits/stl_algo.h ****     _GLIBCXX20_CONSTEXPR
 747:/Library/DaisyToolchain/0.2.0/arm/arm-none-eabi/include/c++/10.3.1/bits/stl_algo.h ****     inline _OutputIterator
 748:/Library/DaisyToolchain/0.2.0/arm/arm-none-eabi/include/c++/10.3.1/bits/stl_algo.h ****     __copy_n(_RandomAccessIterator __first, _Size __n,
 749:/Library/DaisyToolchain/0.2.0/arm/arm-none-eabi/include/c++/10.3.1/bits/stl_algo.h **** 	     _OutputIterator __result, random_access_iterator_tag)
 750:/Library/DaisyToolchain/0.2.0/arm/arm-none-eabi/include/c++/10.3.1/bits/stl_algo.h ****     { return std::copy(__first, __first + __n, __result); }
 751:/Library/DaisyToolchain/0.2.0/arm/arm-none-eabi/include/c++/10.3.1/bits/stl_algo.h **** 
 752:/Library/DaisyToolchain/0.2.0/arm/arm-none-eabi/include/c++/10.3.1/bits/stl_algo.h ****   /**
 753:/Library/DaisyToolchain/0.2.0/arm/arm-none-eabi/include/c++/10.3.1/bits/stl_algo.h ****    *  @brief Copies the range [first,first+n) into [result,result+n).
 754:/Library/DaisyToolchain/0.2.0/arm/arm-none-eabi/include/c++/10.3.1/bits/stl_algo.h ****    *  @ingroup mutating_algorithms
 755:/Library/DaisyToolchain/0.2.0/arm/arm-none-eabi/include/c++/10.3.1/bits/stl_algo.h ****    *  @param  __first  An input iterator.
 756:/Library/DaisyToolchain/0.2.0/arm/arm-none-eabi/include/c++/10.3.1/bits/stl_algo.h ****    *  @param  __n      The number of elements to copy.
 757:/Library/DaisyToolchain/0.2.0/arm/arm-none-eabi/include/c++/10.3.1/bits/stl_algo.h ****    *  @param  __result An output iterator.
 758:/Library/DaisyToolchain/0.2.0/arm/arm-none-eabi/include/c++/10.3.1/bits/stl_algo.h ****    *  @return  result+n.
 759:/Library/DaisyToolchain/0.2.0/arm/arm-none-eabi/include/c++/10.3.1/bits/stl_algo.h ****    *
 760:/Library/DaisyToolchain/0.2.0/arm/arm-none-eabi/include/c++/10.3.1/bits/stl_algo.h ****    *  This inline function will boil down to a call to @c memmove whenever
 761:/Library/DaisyToolchain/0.2.0/arm/arm-none-eabi/include/c++/10.3.1/bits/stl_algo.h ****    *  possible.  Failing that, if random access iterators are passed, then the
 762:/Library/DaisyToolchain/0.2.0/arm/arm-none-eabi/include/c++/10.3.1/bits/stl_algo.h ****    *  loop count will be known (and therefore a candidate for compiler
 763:/Library/DaisyToolchain/0.2.0/arm/arm-none-eabi/include/c++/10.3.1/bits/stl_algo.h ****    *  optimizations such as unrolling).
 764:/Library/DaisyToolchain/0.2.0/arm/arm-none-eabi/include/c++/10.3.1/bits/stl_algo.h ****   */
 765:/Library/DaisyToolchain/0.2.0/arm/arm-none-eabi/include/c++/10.3.1/bits/stl_algo.h ****   template<typename _InputIterator, typename _Size, typename _OutputIterator>
 766:/Library/DaisyToolchain/0.2.0/arm/arm-none-eabi/include/c++/10.3.1/bits/stl_algo.h ****     _GLIBCXX20_CONSTEXPR
 767:/Library/DaisyToolchain/0.2.0/arm/arm-none-eabi/include/c++/10.3.1/bits/stl_algo.h ****     inline _OutputIterator
 768:/Library/DaisyToolchain/0.2.0/arm/arm-none-eabi/include/c++/10.3.1/bits/stl_algo.h ****     copy_n(_InputIterator __first, _Size __n, _OutputIterator __result)
 769:/Library/DaisyToolchain/0.2.0/arm/arm-none-eabi/include/c++/10.3.1/bits/stl_algo.h ****     {
 770:/Library/DaisyToolchain/0.2.0/arm/arm-none-eabi/include/c++/10.3.1/bits/stl_algo.h ****       // concept requirements
 771:/Library/DaisyToolchain/0.2.0/arm/arm-none-eabi/include/c++/10.3.1/bits/stl_algo.h ****       __glibcxx_function_requires(_InputIteratorConcept<_InputIterator>)
 772:/Library/DaisyToolchain/0.2.0/arm/arm-none-eabi/include/c++/10.3.1/bits/stl_algo.h ****       __glibcxx_function_requires(_OutputIteratorConcept<_OutputIterator,
 773:/Library/DaisyToolchain/0.2.0/arm/arm-none-eabi/include/c++/10.3.1/bits/stl_algo.h **** 	    typename iterator_traits<_InputIterator>::value_type>)
 774:/Library/DaisyToolchain/0.2.0/arm/arm-none-eabi/include/c++/10.3.1/bits/stl_algo.h **** 
 775:/Library/DaisyToolchain/0.2.0/arm/arm-none-eabi/include/c++/10.3.1/bits/stl_algo.h ****       const auto __n2 = std::__size_to_integer(__n);
 776:/Library/DaisyToolchain/0.2.0/arm/arm-none-eabi/include/c++/10.3.1/bits/stl_algo.h ****       if (__n2 <= 0)
 777:/Library/DaisyToolchain/0.2.0/arm/arm-none-eabi/include/c++/10.3.1/bits/stl_algo.h **** 	return __result;
ARM GAS  /var/folders/9k/zk1mgrrd7wg4__6zvxvr9w8m0000gn/T//cc4BDeRe.s 			page 37


 778:/Library/DaisyToolchain/0.2.0/arm/arm-none-eabi/include/c++/10.3.1/bits/stl_algo.h **** 
 779:/Library/DaisyToolchain/0.2.0/arm/arm-none-eabi/include/c++/10.3.1/bits/stl_algo.h ****       __glibcxx_requires_can_increment(__first, __n2);
 780:/Library/DaisyToolchain/0.2.0/arm/arm-none-eabi/include/c++/10.3.1/bits/stl_algo.h ****       __glibcxx_requires_can_increment(__result, __n2);
 781:/Library/DaisyToolchain/0.2.0/arm/arm-none-eabi/include/c++/10.3.1/bits/stl_algo.h **** 
 782:/Library/DaisyToolchain/0.2.0/arm/arm-none-eabi/include/c++/10.3.1/bits/stl_algo.h ****       return std::__copy_n(__first, __n2, __result,
 783:/Library/DaisyToolchain/0.2.0/arm/arm-none-eabi/include/c++/10.3.1/bits/stl_algo.h **** 			   std::__iterator_category(__first));
 784:/Library/DaisyToolchain/0.2.0/arm/arm-none-eabi/include/c++/10.3.1/bits/stl_algo.h ****     }
 785:/Library/DaisyToolchain/0.2.0/arm/arm-none-eabi/include/c++/10.3.1/bits/stl_algo.h **** 
 786:/Library/DaisyToolchain/0.2.0/arm/arm-none-eabi/include/c++/10.3.1/bits/stl_algo.h ****   /**
 787:/Library/DaisyToolchain/0.2.0/arm/arm-none-eabi/include/c++/10.3.1/bits/stl_algo.h ****    *  @brief Copy the elements of a sequence to separate output sequences
 788:/Library/DaisyToolchain/0.2.0/arm/arm-none-eabi/include/c++/10.3.1/bits/stl_algo.h ****    *         depending on the truth value of a predicate.
 789:/Library/DaisyToolchain/0.2.0/arm/arm-none-eabi/include/c++/10.3.1/bits/stl_algo.h ****    *  @ingroup mutating_algorithms
 790:/Library/DaisyToolchain/0.2.0/arm/arm-none-eabi/include/c++/10.3.1/bits/stl_algo.h ****    *  @param  __first   An input iterator.
 791:/Library/DaisyToolchain/0.2.0/arm/arm-none-eabi/include/c++/10.3.1/bits/stl_algo.h ****    *  @param  __last    An input iterator.
 792:/Library/DaisyToolchain/0.2.0/arm/arm-none-eabi/include/c++/10.3.1/bits/stl_algo.h ****    *  @param  __out_true   An output iterator.
 793:/Library/DaisyToolchain/0.2.0/arm/arm-none-eabi/include/c++/10.3.1/bits/stl_algo.h ****    *  @param  __out_false  An output iterator.
 794:/Library/DaisyToolchain/0.2.0/arm/arm-none-eabi/include/c++/10.3.1/bits/stl_algo.h ****    *  @param  __pred    A predicate.
 795:/Library/DaisyToolchain/0.2.0/arm/arm-none-eabi/include/c++/10.3.1/bits/stl_algo.h ****    *  @return   A pair designating the ends of the resulting sequences.
 796:/Library/DaisyToolchain/0.2.0/arm/arm-none-eabi/include/c++/10.3.1/bits/stl_algo.h ****    *
 797:/Library/DaisyToolchain/0.2.0/arm/arm-none-eabi/include/c++/10.3.1/bits/stl_algo.h ****    *  Copies each element in the range @p [__first,__last) for which
 798:/Library/DaisyToolchain/0.2.0/arm/arm-none-eabi/include/c++/10.3.1/bits/stl_algo.h ****    *  @p __pred returns true to the range beginning at @p out_true
 799:/Library/DaisyToolchain/0.2.0/arm/arm-none-eabi/include/c++/10.3.1/bits/stl_algo.h ****    *  and each element for which @p __pred returns false to @p __out_false.
 800:/Library/DaisyToolchain/0.2.0/arm/arm-none-eabi/include/c++/10.3.1/bits/stl_algo.h ****   */
 801:/Library/DaisyToolchain/0.2.0/arm/arm-none-eabi/include/c++/10.3.1/bits/stl_algo.h ****   template<typename _InputIterator, typename _OutputIterator1,
 802:/Library/DaisyToolchain/0.2.0/arm/arm-none-eabi/include/c++/10.3.1/bits/stl_algo.h **** 	   typename _OutputIterator2, typename _Predicate>
 803:/Library/DaisyToolchain/0.2.0/arm/arm-none-eabi/include/c++/10.3.1/bits/stl_algo.h ****     _GLIBCXX20_CONSTEXPR
 804:/Library/DaisyToolchain/0.2.0/arm/arm-none-eabi/include/c++/10.3.1/bits/stl_algo.h ****     pair<_OutputIterator1, _OutputIterator2>
 805:/Library/DaisyToolchain/0.2.0/arm/arm-none-eabi/include/c++/10.3.1/bits/stl_algo.h ****     partition_copy(_InputIterator __first, _InputIterator __last,
 806:/Library/DaisyToolchain/0.2.0/arm/arm-none-eabi/include/c++/10.3.1/bits/stl_algo.h **** 		   _OutputIterator1 __out_true, _OutputIterator2 __out_false,
 807:/Library/DaisyToolchain/0.2.0/arm/arm-none-eabi/include/c++/10.3.1/bits/stl_algo.h **** 		   _Predicate __pred)
 808:/Library/DaisyToolchain/0.2.0/arm/arm-none-eabi/include/c++/10.3.1/bits/stl_algo.h ****     {
 809:/Library/DaisyToolchain/0.2.0/arm/arm-none-eabi/include/c++/10.3.1/bits/stl_algo.h ****       // concept requirements
 810:/Library/DaisyToolchain/0.2.0/arm/arm-none-eabi/include/c++/10.3.1/bits/stl_algo.h ****       __glibcxx_function_requires(_InputIteratorConcept<_InputIterator>)
 811:/Library/DaisyToolchain/0.2.0/arm/arm-none-eabi/include/c++/10.3.1/bits/stl_algo.h ****       __glibcxx_function_requires(_OutputIteratorConcept<_OutputIterator1,
 812:/Library/DaisyToolchain/0.2.0/arm/arm-none-eabi/include/c++/10.3.1/bits/stl_algo.h **** 	    typename iterator_traits<_InputIterator>::value_type>)
 813:/Library/DaisyToolchain/0.2.0/arm/arm-none-eabi/include/c++/10.3.1/bits/stl_algo.h ****       __glibcxx_function_requires(_OutputIteratorConcept<_OutputIterator2,
 814:/Library/DaisyToolchain/0.2.0/arm/arm-none-eabi/include/c++/10.3.1/bits/stl_algo.h **** 	    typename iterator_traits<_InputIterator>::value_type>)
 815:/Library/DaisyToolchain/0.2.0/arm/arm-none-eabi/include/c++/10.3.1/bits/stl_algo.h ****       __glibcxx_function_requires(_UnaryPredicateConcept<_Predicate,
 816:/Library/DaisyToolchain/0.2.0/arm/arm-none-eabi/include/c++/10.3.1/bits/stl_algo.h **** 	    typename iterator_traits<_InputIterator>::value_type>)
 817:/Library/DaisyToolchain/0.2.0/arm/arm-none-eabi/include/c++/10.3.1/bits/stl_algo.h ****       __glibcxx_requires_valid_range(__first, __last);
 818:/Library/DaisyToolchain/0.2.0/arm/arm-none-eabi/include/c++/10.3.1/bits/stl_algo.h ****       
 819:/Library/DaisyToolchain/0.2.0/arm/arm-none-eabi/include/c++/10.3.1/bits/stl_algo.h ****       for (; __first != __last; ++__first)
 820:/Library/DaisyToolchain/0.2.0/arm/arm-none-eabi/include/c++/10.3.1/bits/stl_algo.h **** 	if (__pred(*__first))
 821:/Library/DaisyToolchain/0.2.0/arm/arm-none-eabi/include/c++/10.3.1/bits/stl_algo.h **** 	  {
 822:/Library/DaisyToolchain/0.2.0/arm/arm-none-eabi/include/c++/10.3.1/bits/stl_algo.h **** 	    *__out_true = *__first;
 823:/Library/DaisyToolchain/0.2.0/arm/arm-none-eabi/include/c++/10.3.1/bits/stl_algo.h **** 	    ++__out_true;
 824:/Library/DaisyToolchain/0.2.0/arm/arm-none-eabi/include/c++/10.3.1/bits/stl_algo.h **** 	  }
 825:/Library/DaisyToolchain/0.2.0/arm/arm-none-eabi/include/c++/10.3.1/bits/stl_algo.h **** 	else
 826:/Library/DaisyToolchain/0.2.0/arm/arm-none-eabi/include/c++/10.3.1/bits/stl_algo.h **** 	  {
 827:/Library/DaisyToolchain/0.2.0/arm/arm-none-eabi/include/c++/10.3.1/bits/stl_algo.h **** 	    *__out_false = *__first;
 828:/Library/DaisyToolchain/0.2.0/arm/arm-none-eabi/include/c++/10.3.1/bits/stl_algo.h **** 	    ++__out_false;
 829:/Library/DaisyToolchain/0.2.0/arm/arm-none-eabi/include/c++/10.3.1/bits/stl_algo.h **** 	  }
 830:/Library/DaisyToolchain/0.2.0/arm/arm-none-eabi/include/c++/10.3.1/bits/stl_algo.h **** 
 831:/Library/DaisyToolchain/0.2.0/arm/arm-none-eabi/include/c++/10.3.1/bits/stl_algo.h ****       return pair<_OutputIterator1, _OutputIterator2>(__out_true, __out_false);
 832:/Library/DaisyToolchain/0.2.0/arm/arm-none-eabi/include/c++/10.3.1/bits/stl_algo.h ****     }
 833:/Library/DaisyToolchain/0.2.0/arm/arm-none-eabi/include/c++/10.3.1/bits/stl_algo.h **** #endif // C++11
 834:/Library/DaisyToolchain/0.2.0/arm/arm-none-eabi/include/c++/10.3.1/bits/stl_algo.h **** 
ARM GAS  /var/folders/9k/zk1mgrrd7wg4__6zvxvr9w8m0000gn/T//cc4BDeRe.s 			page 38


 835:/Library/DaisyToolchain/0.2.0/arm/arm-none-eabi/include/c++/10.3.1/bits/stl_algo.h ****   template<typename _ForwardIterator, typename _Predicate>
 836:/Library/DaisyToolchain/0.2.0/arm/arm-none-eabi/include/c++/10.3.1/bits/stl_algo.h ****     _GLIBCXX20_CONSTEXPR
 837:/Library/DaisyToolchain/0.2.0/arm/arm-none-eabi/include/c++/10.3.1/bits/stl_algo.h ****     _ForwardIterator
 838:/Library/DaisyToolchain/0.2.0/arm/arm-none-eabi/include/c++/10.3.1/bits/stl_algo.h ****     __remove_if(_ForwardIterator __first, _ForwardIterator __last,
 839:/Library/DaisyToolchain/0.2.0/arm/arm-none-eabi/include/c++/10.3.1/bits/stl_algo.h **** 		_Predicate __pred)
 840:/Library/DaisyToolchain/0.2.0/arm/arm-none-eabi/include/c++/10.3.1/bits/stl_algo.h ****     {
 841:/Library/DaisyToolchain/0.2.0/arm/arm-none-eabi/include/c++/10.3.1/bits/stl_algo.h ****       __first = std::__find_if(__first, __last, __pred);
 842:/Library/DaisyToolchain/0.2.0/arm/arm-none-eabi/include/c++/10.3.1/bits/stl_algo.h ****       if (__first == __last)
 843:/Library/DaisyToolchain/0.2.0/arm/arm-none-eabi/include/c++/10.3.1/bits/stl_algo.h **** 	return __first;
 844:/Library/DaisyToolchain/0.2.0/arm/arm-none-eabi/include/c++/10.3.1/bits/stl_algo.h ****       _ForwardIterator __result = __first;
 845:/Library/DaisyToolchain/0.2.0/arm/arm-none-eabi/include/c++/10.3.1/bits/stl_algo.h ****       ++__first;
 846:/Library/DaisyToolchain/0.2.0/arm/arm-none-eabi/include/c++/10.3.1/bits/stl_algo.h ****       for (; __first != __last; ++__first)
 847:/Library/DaisyToolchain/0.2.0/arm/arm-none-eabi/include/c++/10.3.1/bits/stl_algo.h **** 	if (!__pred(__first))
 848:/Library/DaisyToolchain/0.2.0/arm/arm-none-eabi/include/c++/10.3.1/bits/stl_algo.h **** 	  {
 849:/Library/DaisyToolchain/0.2.0/arm/arm-none-eabi/include/c++/10.3.1/bits/stl_algo.h **** 	    *__result = _GLIBCXX_MOVE(*__first);
 850:/Library/DaisyToolchain/0.2.0/arm/arm-none-eabi/include/c++/10.3.1/bits/stl_algo.h **** 	    ++__result;
 851:/Library/DaisyToolchain/0.2.0/arm/arm-none-eabi/include/c++/10.3.1/bits/stl_algo.h **** 	  }
 852:/Library/DaisyToolchain/0.2.0/arm/arm-none-eabi/include/c++/10.3.1/bits/stl_algo.h ****       return __result;
 853:/Library/DaisyToolchain/0.2.0/arm/arm-none-eabi/include/c++/10.3.1/bits/stl_algo.h ****     }
 854:/Library/DaisyToolchain/0.2.0/arm/arm-none-eabi/include/c++/10.3.1/bits/stl_algo.h **** 
 855:/Library/DaisyToolchain/0.2.0/arm/arm-none-eabi/include/c++/10.3.1/bits/stl_algo.h ****   /**
 856:/Library/DaisyToolchain/0.2.0/arm/arm-none-eabi/include/c++/10.3.1/bits/stl_algo.h ****    *  @brief Remove elements from a sequence.
 857:/Library/DaisyToolchain/0.2.0/arm/arm-none-eabi/include/c++/10.3.1/bits/stl_algo.h ****    *  @ingroup mutating_algorithms
 858:/Library/DaisyToolchain/0.2.0/arm/arm-none-eabi/include/c++/10.3.1/bits/stl_algo.h ****    *  @param  __first  An input iterator.
 859:/Library/DaisyToolchain/0.2.0/arm/arm-none-eabi/include/c++/10.3.1/bits/stl_algo.h ****    *  @param  __last   An input iterator.
 860:/Library/DaisyToolchain/0.2.0/arm/arm-none-eabi/include/c++/10.3.1/bits/stl_algo.h ****    *  @param  __value  The value to be removed.
 861:/Library/DaisyToolchain/0.2.0/arm/arm-none-eabi/include/c++/10.3.1/bits/stl_algo.h ****    *  @return   An iterator designating the end of the resulting sequence.
 862:/Library/DaisyToolchain/0.2.0/arm/arm-none-eabi/include/c++/10.3.1/bits/stl_algo.h ****    *
 863:/Library/DaisyToolchain/0.2.0/arm/arm-none-eabi/include/c++/10.3.1/bits/stl_algo.h ****    *  All elements equal to @p __value are removed from the range
 864:/Library/DaisyToolchain/0.2.0/arm/arm-none-eabi/include/c++/10.3.1/bits/stl_algo.h ****    *  @p [__first,__last).
 865:/Library/DaisyToolchain/0.2.0/arm/arm-none-eabi/include/c++/10.3.1/bits/stl_algo.h ****    *
 866:/Library/DaisyToolchain/0.2.0/arm/arm-none-eabi/include/c++/10.3.1/bits/stl_algo.h ****    *  remove() is stable, so the relative order of elements that are
 867:/Library/DaisyToolchain/0.2.0/arm/arm-none-eabi/include/c++/10.3.1/bits/stl_algo.h ****    *  not removed is unchanged.
 868:/Library/DaisyToolchain/0.2.0/arm/arm-none-eabi/include/c++/10.3.1/bits/stl_algo.h ****    *
 869:/Library/DaisyToolchain/0.2.0/arm/arm-none-eabi/include/c++/10.3.1/bits/stl_algo.h ****    *  Elements between the end of the resulting sequence and @p __last
 870:/Library/DaisyToolchain/0.2.0/arm/arm-none-eabi/include/c++/10.3.1/bits/stl_algo.h ****    *  are still present, but their value is unspecified.
 871:/Library/DaisyToolchain/0.2.0/arm/arm-none-eabi/include/c++/10.3.1/bits/stl_algo.h ****   */
 872:/Library/DaisyToolchain/0.2.0/arm/arm-none-eabi/include/c++/10.3.1/bits/stl_algo.h ****   template<typename _ForwardIterator, typename _Tp>
 873:/Library/DaisyToolchain/0.2.0/arm/arm-none-eabi/include/c++/10.3.1/bits/stl_algo.h ****     _GLIBCXX20_CONSTEXPR
 874:/Library/DaisyToolchain/0.2.0/arm/arm-none-eabi/include/c++/10.3.1/bits/stl_algo.h ****     inline _ForwardIterator
 875:/Library/DaisyToolchain/0.2.0/arm/arm-none-eabi/include/c++/10.3.1/bits/stl_algo.h ****     remove(_ForwardIterator __first, _ForwardIterator __last,
 876:/Library/DaisyToolchain/0.2.0/arm/arm-none-eabi/include/c++/10.3.1/bits/stl_algo.h **** 	   const _Tp& __value)
 877:/Library/DaisyToolchain/0.2.0/arm/arm-none-eabi/include/c++/10.3.1/bits/stl_algo.h ****     {
 878:/Library/DaisyToolchain/0.2.0/arm/arm-none-eabi/include/c++/10.3.1/bits/stl_algo.h ****       // concept requirements
 879:/Library/DaisyToolchain/0.2.0/arm/arm-none-eabi/include/c++/10.3.1/bits/stl_algo.h ****       __glibcxx_function_requires(_Mutable_ForwardIteratorConcept<
 880:/Library/DaisyToolchain/0.2.0/arm/arm-none-eabi/include/c++/10.3.1/bits/stl_algo.h **** 				  _ForwardIterator>)
 881:/Library/DaisyToolchain/0.2.0/arm/arm-none-eabi/include/c++/10.3.1/bits/stl_algo.h ****       __glibcxx_function_requires(_EqualOpConcept<
 882:/Library/DaisyToolchain/0.2.0/arm/arm-none-eabi/include/c++/10.3.1/bits/stl_algo.h **** 	    typename iterator_traits<_ForwardIterator>::value_type, _Tp>)
 883:/Library/DaisyToolchain/0.2.0/arm/arm-none-eabi/include/c++/10.3.1/bits/stl_algo.h ****       __glibcxx_requires_valid_range(__first, __last);
 884:/Library/DaisyToolchain/0.2.0/arm/arm-none-eabi/include/c++/10.3.1/bits/stl_algo.h **** 
 885:/Library/DaisyToolchain/0.2.0/arm/arm-none-eabi/include/c++/10.3.1/bits/stl_algo.h ****       return std::__remove_if(__first, __last,
 886:/Library/DaisyToolchain/0.2.0/arm/arm-none-eabi/include/c++/10.3.1/bits/stl_algo.h **** 		__gnu_cxx::__ops::__iter_equals_val(__value));
 887:/Library/DaisyToolchain/0.2.0/arm/arm-none-eabi/include/c++/10.3.1/bits/stl_algo.h ****     }
 888:/Library/DaisyToolchain/0.2.0/arm/arm-none-eabi/include/c++/10.3.1/bits/stl_algo.h **** 
 889:/Library/DaisyToolchain/0.2.0/arm/arm-none-eabi/include/c++/10.3.1/bits/stl_algo.h ****   /**
 890:/Library/DaisyToolchain/0.2.0/arm/arm-none-eabi/include/c++/10.3.1/bits/stl_algo.h ****    *  @brief Remove elements from a sequence using a predicate.
 891:/Library/DaisyToolchain/0.2.0/arm/arm-none-eabi/include/c++/10.3.1/bits/stl_algo.h ****    *  @ingroup mutating_algorithms
ARM GAS  /var/folders/9k/zk1mgrrd7wg4__6zvxvr9w8m0000gn/T//cc4BDeRe.s 			page 39


 892:/Library/DaisyToolchain/0.2.0/arm/arm-none-eabi/include/c++/10.3.1/bits/stl_algo.h ****    *  @param  __first  A forward iterator.
 893:/Library/DaisyToolchain/0.2.0/arm/arm-none-eabi/include/c++/10.3.1/bits/stl_algo.h ****    *  @param  __last   A forward iterator.
 894:/Library/DaisyToolchain/0.2.0/arm/arm-none-eabi/include/c++/10.3.1/bits/stl_algo.h ****    *  @param  __pred   A predicate.
 895:/Library/DaisyToolchain/0.2.0/arm/arm-none-eabi/include/c++/10.3.1/bits/stl_algo.h ****    *  @return   An iterator designating the end of the resulting sequence.
 896:/Library/DaisyToolchain/0.2.0/arm/arm-none-eabi/include/c++/10.3.1/bits/stl_algo.h ****    *
 897:/Library/DaisyToolchain/0.2.0/arm/arm-none-eabi/include/c++/10.3.1/bits/stl_algo.h ****    *  All elements for which @p __pred returns true are removed from the range
 898:/Library/DaisyToolchain/0.2.0/arm/arm-none-eabi/include/c++/10.3.1/bits/stl_algo.h ****    *  @p [__first,__last).
 899:/Library/DaisyToolchain/0.2.0/arm/arm-none-eabi/include/c++/10.3.1/bits/stl_algo.h ****    *
 900:/Library/DaisyToolchain/0.2.0/arm/arm-none-eabi/include/c++/10.3.1/bits/stl_algo.h ****    *  remove_if() is stable, so the relative order of elements that are
 901:/Library/DaisyToolchain/0.2.0/arm/arm-none-eabi/include/c++/10.3.1/bits/stl_algo.h ****    *  not removed is unchanged.
 902:/Library/DaisyToolchain/0.2.0/arm/arm-none-eabi/include/c++/10.3.1/bits/stl_algo.h ****    *
 903:/Library/DaisyToolchain/0.2.0/arm/arm-none-eabi/include/c++/10.3.1/bits/stl_algo.h ****    *  Elements between the end of the resulting sequence and @p __last
 904:/Library/DaisyToolchain/0.2.0/arm/arm-none-eabi/include/c++/10.3.1/bits/stl_algo.h ****    *  are still present, but their value is unspecified.
 905:/Library/DaisyToolchain/0.2.0/arm/arm-none-eabi/include/c++/10.3.1/bits/stl_algo.h ****   */
 906:/Library/DaisyToolchain/0.2.0/arm/arm-none-eabi/include/c++/10.3.1/bits/stl_algo.h ****   template<typename _ForwardIterator, typename _Predicate>
 907:/Library/DaisyToolchain/0.2.0/arm/arm-none-eabi/include/c++/10.3.1/bits/stl_algo.h ****     _GLIBCXX20_CONSTEXPR
 908:/Library/DaisyToolchain/0.2.0/arm/arm-none-eabi/include/c++/10.3.1/bits/stl_algo.h ****     inline _ForwardIterator
 909:/Library/DaisyToolchain/0.2.0/arm/arm-none-eabi/include/c++/10.3.1/bits/stl_algo.h ****     remove_if(_ForwardIterator __first, _ForwardIterator __last,
 910:/Library/DaisyToolchain/0.2.0/arm/arm-none-eabi/include/c++/10.3.1/bits/stl_algo.h **** 	      _Predicate __pred)
 911:/Library/DaisyToolchain/0.2.0/arm/arm-none-eabi/include/c++/10.3.1/bits/stl_algo.h ****     {
 912:/Library/DaisyToolchain/0.2.0/arm/arm-none-eabi/include/c++/10.3.1/bits/stl_algo.h ****       // concept requirements
 913:/Library/DaisyToolchain/0.2.0/arm/arm-none-eabi/include/c++/10.3.1/bits/stl_algo.h ****       __glibcxx_function_requires(_Mutable_ForwardIteratorConcept<
 914:/Library/DaisyToolchain/0.2.0/arm/arm-none-eabi/include/c++/10.3.1/bits/stl_algo.h **** 				  _ForwardIterator>)
 915:/Library/DaisyToolchain/0.2.0/arm/arm-none-eabi/include/c++/10.3.1/bits/stl_algo.h ****       __glibcxx_function_requires(_UnaryPredicateConcept<_Predicate,
 916:/Library/DaisyToolchain/0.2.0/arm/arm-none-eabi/include/c++/10.3.1/bits/stl_algo.h **** 	    typename iterator_traits<_ForwardIterator>::value_type>)
 917:/Library/DaisyToolchain/0.2.0/arm/arm-none-eabi/include/c++/10.3.1/bits/stl_algo.h ****       __glibcxx_requires_valid_range(__first, __last);
 918:/Library/DaisyToolchain/0.2.0/arm/arm-none-eabi/include/c++/10.3.1/bits/stl_algo.h **** 
 919:/Library/DaisyToolchain/0.2.0/arm/arm-none-eabi/include/c++/10.3.1/bits/stl_algo.h ****       return std::__remove_if(__first, __last,
 920:/Library/DaisyToolchain/0.2.0/arm/arm-none-eabi/include/c++/10.3.1/bits/stl_algo.h **** 			      __gnu_cxx::__ops::__pred_iter(__pred));
 921:/Library/DaisyToolchain/0.2.0/arm/arm-none-eabi/include/c++/10.3.1/bits/stl_algo.h ****     }
 922:/Library/DaisyToolchain/0.2.0/arm/arm-none-eabi/include/c++/10.3.1/bits/stl_algo.h **** 
 923:/Library/DaisyToolchain/0.2.0/arm/arm-none-eabi/include/c++/10.3.1/bits/stl_algo.h ****   template<typename _ForwardIterator, typename _BinaryPredicate>
 924:/Library/DaisyToolchain/0.2.0/arm/arm-none-eabi/include/c++/10.3.1/bits/stl_algo.h ****     _GLIBCXX20_CONSTEXPR
 925:/Library/DaisyToolchain/0.2.0/arm/arm-none-eabi/include/c++/10.3.1/bits/stl_algo.h ****     _ForwardIterator
 926:/Library/DaisyToolchain/0.2.0/arm/arm-none-eabi/include/c++/10.3.1/bits/stl_algo.h ****     __adjacent_find(_ForwardIterator __first, _ForwardIterator __last,
 927:/Library/DaisyToolchain/0.2.0/arm/arm-none-eabi/include/c++/10.3.1/bits/stl_algo.h **** 		    _BinaryPredicate __binary_pred)
 928:/Library/DaisyToolchain/0.2.0/arm/arm-none-eabi/include/c++/10.3.1/bits/stl_algo.h ****     {
 929:/Library/DaisyToolchain/0.2.0/arm/arm-none-eabi/include/c++/10.3.1/bits/stl_algo.h ****       if (__first == __last)
 930:/Library/DaisyToolchain/0.2.0/arm/arm-none-eabi/include/c++/10.3.1/bits/stl_algo.h **** 	return __last;
 931:/Library/DaisyToolchain/0.2.0/arm/arm-none-eabi/include/c++/10.3.1/bits/stl_algo.h ****       _ForwardIterator __next = __first;
 932:/Library/DaisyToolchain/0.2.0/arm/arm-none-eabi/include/c++/10.3.1/bits/stl_algo.h ****       while (++__next != __last)
 933:/Library/DaisyToolchain/0.2.0/arm/arm-none-eabi/include/c++/10.3.1/bits/stl_algo.h **** 	{
 934:/Library/DaisyToolchain/0.2.0/arm/arm-none-eabi/include/c++/10.3.1/bits/stl_algo.h **** 	  if (__binary_pred(__first, __next))
 935:/Library/DaisyToolchain/0.2.0/arm/arm-none-eabi/include/c++/10.3.1/bits/stl_algo.h **** 	    return __first;
 936:/Library/DaisyToolchain/0.2.0/arm/arm-none-eabi/include/c++/10.3.1/bits/stl_algo.h **** 	  __first = __next;
 937:/Library/DaisyToolchain/0.2.0/arm/arm-none-eabi/include/c++/10.3.1/bits/stl_algo.h **** 	}
 938:/Library/DaisyToolchain/0.2.0/arm/arm-none-eabi/include/c++/10.3.1/bits/stl_algo.h ****       return __last;
 939:/Library/DaisyToolchain/0.2.0/arm/arm-none-eabi/include/c++/10.3.1/bits/stl_algo.h ****     }
 940:/Library/DaisyToolchain/0.2.0/arm/arm-none-eabi/include/c++/10.3.1/bits/stl_algo.h **** 
 941:/Library/DaisyToolchain/0.2.0/arm/arm-none-eabi/include/c++/10.3.1/bits/stl_algo.h ****   template<typename _ForwardIterator, typename _BinaryPredicate>
 942:/Library/DaisyToolchain/0.2.0/arm/arm-none-eabi/include/c++/10.3.1/bits/stl_algo.h ****     _GLIBCXX20_CONSTEXPR
 943:/Library/DaisyToolchain/0.2.0/arm/arm-none-eabi/include/c++/10.3.1/bits/stl_algo.h ****     _ForwardIterator
 944:/Library/DaisyToolchain/0.2.0/arm/arm-none-eabi/include/c++/10.3.1/bits/stl_algo.h ****     __unique(_ForwardIterator __first, _ForwardIterator __last,
 945:/Library/DaisyToolchain/0.2.0/arm/arm-none-eabi/include/c++/10.3.1/bits/stl_algo.h **** 	     _BinaryPredicate __binary_pred)
 946:/Library/DaisyToolchain/0.2.0/arm/arm-none-eabi/include/c++/10.3.1/bits/stl_algo.h ****     {
 947:/Library/DaisyToolchain/0.2.0/arm/arm-none-eabi/include/c++/10.3.1/bits/stl_algo.h ****       // Skip the beginning, if already unique.
 948:/Library/DaisyToolchain/0.2.0/arm/arm-none-eabi/include/c++/10.3.1/bits/stl_algo.h ****       __first = std::__adjacent_find(__first, __last, __binary_pred);
ARM GAS  /var/folders/9k/zk1mgrrd7wg4__6zvxvr9w8m0000gn/T//cc4BDeRe.s 			page 40


 949:/Library/DaisyToolchain/0.2.0/arm/arm-none-eabi/include/c++/10.3.1/bits/stl_algo.h ****       if (__first == __last)
 950:/Library/DaisyToolchain/0.2.0/arm/arm-none-eabi/include/c++/10.3.1/bits/stl_algo.h **** 	return __last;
 951:/Library/DaisyToolchain/0.2.0/arm/arm-none-eabi/include/c++/10.3.1/bits/stl_algo.h **** 
 952:/Library/DaisyToolchain/0.2.0/arm/arm-none-eabi/include/c++/10.3.1/bits/stl_algo.h ****       // Do the real copy work.
 953:/Library/DaisyToolchain/0.2.0/arm/arm-none-eabi/include/c++/10.3.1/bits/stl_algo.h ****       _ForwardIterator __dest = __first;
 954:/Library/DaisyToolchain/0.2.0/arm/arm-none-eabi/include/c++/10.3.1/bits/stl_algo.h ****       ++__first;
 955:/Library/DaisyToolchain/0.2.0/arm/arm-none-eabi/include/c++/10.3.1/bits/stl_algo.h ****       while (++__first != __last)
 956:/Library/DaisyToolchain/0.2.0/arm/arm-none-eabi/include/c++/10.3.1/bits/stl_algo.h **** 	if (!__binary_pred(__dest, __first))
 957:/Library/DaisyToolchain/0.2.0/arm/arm-none-eabi/include/c++/10.3.1/bits/stl_algo.h **** 	  *++__dest = _GLIBCXX_MOVE(*__first);
 958:/Library/DaisyToolchain/0.2.0/arm/arm-none-eabi/include/c++/10.3.1/bits/stl_algo.h ****       return ++__dest;
 959:/Library/DaisyToolchain/0.2.0/arm/arm-none-eabi/include/c++/10.3.1/bits/stl_algo.h ****     }
 960:/Library/DaisyToolchain/0.2.0/arm/arm-none-eabi/include/c++/10.3.1/bits/stl_algo.h **** 
 961:/Library/DaisyToolchain/0.2.0/arm/arm-none-eabi/include/c++/10.3.1/bits/stl_algo.h ****   /**
 962:/Library/DaisyToolchain/0.2.0/arm/arm-none-eabi/include/c++/10.3.1/bits/stl_algo.h ****    *  @brief Remove consecutive duplicate values from a sequence.
 963:/Library/DaisyToolchain/0.2.0/arm/arm-none-eabi/include/c++/10.3.1/bits/stl_algo.h ****    *  @ingroup mutating_algorithms
 964:/Library/DaisyToolchain/0.2.0/arm/arm-none-eabi/include/c++/10.3.1/bits/stl_algo.h ****    *  @param  __first  A forward iterator.
 965:/Library/DaisyToolchain/0.2.0/arm/arm-none-eabi/include/c++/10.3.1/bits/stl_algo.h ****    *  @param  __last   A forward iterator.
 966:/Library/DaisyToolchain/0.2.0/arm/arm-none-eabi/include/c++/10.3.1/bits/stl_algo.h ****    *  @return  An iterator designating the end of the resulting sequence.
 967:/Library/DaisyToolchain/0.2.0/arm/arm-none-eabi/include/c++/10.3.1/bits/stl_algo.h ****    *
 968:/Library/DaisyToolchain/0.2.0/arm/arm-none-eabi/include/c++/10.3.1/bits/stl_algo.h ****    *  Removes all but the first element from each group of consecutive
 969:/Library/DaisyToolchain/0.2.0/arm/arm-none-eabi/include/c++/10.3.1/bits/stl_algo.h ****    *  values that compare equal.
 970:/Library/DaisyToolchain/0.2.0/arm/arm-none-eabi/include/c++/10.3.1/bits/stl_algo.h ****    *  unique() is stable, so the relative order of elements that are
 971:/Library/DaisyToolchain/0.2.0/arm/arm-none-eabi/include/c++/10.3.1/bits/stl_algo.h ****    *  not removed is unchanged.
 972:/Library/DaisyToolchain/0.2.0/arm/arm-none-eabi/include/c++/10.3.1/bits/stl_algo.h ****    *  Elements between the end of the resulting sequence and @p __last
 973:/Library/DaisyToolchain/0.2.0/arm/arm-none-eabi/include/c++/10.3.1/bits/stl_algo.h ****    *  are still present, but their value is unspecified.
 974:/Library/DaisyToolchain/0.2.0/arm/arm-none-eabi/include/c++/10.3.1/bits/stl_algo.h ****   */
 975:/Library/DaisyToolchain/0.2.0/arm/arm-none-eabi/include/c++/10.3.1/bits/stl_algo.h ****   template<typename _ForwardIterator>
 976:/Library/DaisyToolchain/0.2.0/arm/arm-none-eabi/include/c++/10.3.1/bits/stl_algo.h ****     _GLIBCXX20_CONSTEXPR
 977:/Library/DaisyToolchain/0.2.0/arm/arm-none-eabi/include/c++/10.3.1/bits/stl_algo.h ****     inline _ForwardIterator
 978:/Library/DaisyToolchain/0.2.0/arm/arm-none-eabi/include/c++/10.3.1/bits/stl_algo.h ****     unique(_ForwardIterator __first, _ForwardIterator __last)
 979:/Library/DaisyToolchain/0.2.0/arm/arm-none-eabi/include/c++/10.3.1/bits/stl_algo.h ****     {
 980:/Library/DaisyToolchain/0.2.0/arm/arm-none-eabi/include/c++/10.3.1/bits/stl_algo.h ****       // concept requirements
 981:/Library/DaisyToolchain/0.2.0/arm/arm-none-eabi/include/c++/10.3.1/bits/stl_algo.h ****       __glibcxx_function_requires(_Mutable_ForwardIteratorConcept<
 982:/Library/DaisyToolchain/0.2.0/arm/arm-none-eabi/include/c++/10.3.1/bits/stl_algo.h **** 				  _ForwardIterator>)
 983:/Library/DaisyToolchain/0.2.0/arm/arm-none-eabi/include/c++/10.3.1/bits/stl_algo.h ****       __glibcxx_function_requires(_EqualityComparableConcept<
 984:/Library/DaisyToolchain/0.2.0/arm/arm-none-eabi/include/c++/10.3.1/bits/stl_algo.h **** 		     typename iterator_traits<_ForwardIterator>::value_type>)
 985:/Library/DaisyToolchain/0.2.0/arm/arm-none-eabi/include/c++/10.3.1/bits/stl_algo.h ****       __glibcxx_requires_valid_range(__first, __last);
 986:/Library/DaisyToolchain/0.2.0/arm/arm-none-eabi/include/c++/10.3.1/bits/stl_algo.h **** 
 987:/Library/DaisyToolchain/0.2.0/arm/arm-none-eabi/include/c++/10.3.1/bits/stl_algo.h ****       return std::__unique(__first, __last,
 988:/Library/DaisyToolchain/0.2.0/arm/arm-none-eabi/include/c++/10.3.1/bits/stl_algo.h **** 			   __gnu_cxx::__ops::__iter_equal_to_iter());
 989:/Library/DaisyToolchain/0.2.0/arm/arm-none-eabi/include/c++/10.3.1/bits/stl_algo.h ****     }
 990:/Library/DaisyToolchain/0.2.0/arm/arm-none-eabi/include/c++/10.3.1/bits/stl_algo.h **** 
 991:/Library/DaisyToolchain/0.2.0/arm/arm-none-eabi/include/c++/10.3.1/bits/stl_algo.h ****   /**
 992:/Library/DaisyToolchain/0.2.0/arm/arm-none-eabi/include/c++/10.3.1/bits/stl_algo.h ****    *  @brief Remove consecutive values from a sequence using a predicate.
 993:/Library/DaisyToolchain/0.2.0/arm/arm-none-eabi/include/c++/10.3.1/bits/stl_algo.h ****    *  @ingroup mutating_algorithms
 994:/Library/DaisyToolchain/0.2.0/arm/arm-none-eabi/include/c++/10.3.1/bits/stl_algo.h ****    *  @param  __first        A forward iterator.
 995:/Library/DaisyToolchain/0.2.0/arm/arm-none-eabi/include/c++/10.3.1/bits/stl_algo.h ****    *  @param  __last         A forward iterator.
 996:/Library/DaisyToolchain/0.2.0/arm/arm-none-eabi/include/c++/10.3.1/bits/stl_algo.h ****    *  @param  __binary_pred  A binary predicate.
 997:/Library/DaisyToolchain/0.2.0/arm/arm-none-eabi/include/c++/10.3.1/bits/stl_algo.h ****    *  @return  An iterator designating the end of the resulting sequence.
 998:/Library/DaisyToolchain/0.2.0/arm/arm-none-eabi/include/c++/10.3.1/bits/stl_algo.h ****    *
 999:/Library/DaisyToolchain/0.2.0/arm/arm-none-eabi/include/c++/10.3.1/bits/stl_algo.h ****    *  Removes all but the first element from each group of consecutive
1000:/Library/DaisyToolchain/0.2.0/arm/arm-none-eabi/include/c++/10.3.1/bits/stl_algo.h ****    *  values for which @p __binary_pred returns true.
1001:/Library/DaisyToolchain/0.2.0/arm/arm-none-eabi/include/c++/10.3.1/bits/stl_algo.h ****    *  unique() is stable, so the relative order of elements that are
1002:/Library/DaisyToolchain/0.2.0/arm/arm-none-eabi/include/c++/10.3.1/bits/stl_algo.h ****    *  not removed is unchanged.
1003:/Library/DaisyToolchain/0.2.0/arm/arm-none-eabi/include/c++/10.3.1/bits/stl_algo.h ****    *  Elements between the end of the resulting sequence and @p __last
1004:/Library/DaisyToolchain/0.2.0/arm/arm-none-eabi/include/c++/10.3.1/bits/stl_algo.h ****    *  are still present, but their value is unspecified.
1005:/Library/DaisyToolchain/0.2.0/arm/arm-none-eabi/include/c++/10.3.1/bits/stl_algo.h ****   */
ARM GAS  /var/folders/9k/zk1mgrrd7wg4__6zvxvr9w8m0000gn/T//cc4BDeRe.s 			page 41


1006:/Library/DaisyToolchain/0.2.0/arm/arm-none-eabi/include/c++/10.3.1/bits/stl_algo.h ****   template<typename _ForwardIterator, typename _BinaryPredicate>
1007:/Library/DaisyToolchain/0.2.0/arm/arm-none-eabi/include/c++/10.3.1/bits/stl_algo.h ****     _GLIBCXX20_CONSTEXPR
1008:/Library/DaisyToolchain/0.2.0/arm/arm-none-eabi/include/c++/10.3.1/bits/stl_algo.h ****     inline _ForwardIterator
1009:/Library/DaisyToolchain/0.2.0/arm/arm-none-eabi/include/c++/10.3.1/bits/stl_algo.h ****     unique(_ForwardIterator __first, _ForwardIterator __last,
1010:/Library/DaisyToolchain/0.2.0/arm/arm-none-eabi/include/c++/10.3.1/bits/stl_algo.h **** 	   _BinaryPredicate __binary_pred)
1011:/Library/DaisyToolchain/0.2.0/arm/arm-none-eabi/include/c++/10.3.1/bits/stl_algo.h ****     {
1012:/Library/DaisyToolchain/0.2.0/arm/arm-none-eabi/include/c++/10.3.1/bits/stl_algo.h ****       // concept requirements
1013:/Library/DaisyToolchain/0.2.0/arm/arm-none-eabi/include/c++/10.3.1/bits/stl_algo.h ****       __glibcxx_function_requires(_Mutable_ForwardIteratorConcept<
1014:/Library/DaisyToolchain/0.2.0/arm/arm-none-eabi/include/c++/10.3.1/bits/stl_algo.h **** 				  _ForwardIterator>)
1015:/Library/DaisyToolchain/0.2.0/arm/arm-none-eabi/include/c++/10.3.1/bits/stl_algo.h ****       __glibcxx_function_requires(_BinaryPredicateConcept<_BinaryPredicate,
1016:/Library/DaisyToolchain/0.2.0/arm/arm-none-eabi/include/c++/10.3.1/bits/stl_algo.h **** 		typename iterator_traits<_ForwardIterator>::value_type,
1017:/Library/DaisyToolchain/0.2.0/arm/arm-none-eabi/include/c++/10.3.1/bits/stl_algo.h **** 		typename iterator_traits<_ForwardIterator>::value_type>)
1018:/Library/DaisyToolchain/0.2.0/arm/arm-none-eabi/include/c++/10.3.1/bits/stl_algo.h ****       __glibcxx_requires_valid_range(__first, __last);
1019:/Library/DaisyToolchain/0.2.0/arm/arm-none-eabi/include/c++/10.3.1/bits/stl_algo.h **** 
1020:/Library/DaisyToolchain/0.2.0/arm/arm-none-eabi/include/c++/10.3.1/bits/stl_algo.h ****       return std::__unique(__first, __last,
1021:/Library/DaisyToolchain/0.2.0/arm/arm-none-eabi/include/c++/10.3.1/bits/stl_algo.h **** 			   __gnu_cxx::__ops::__iter_comp_iter(__binary_pred));
1022:/Library/DaisyToolchain/0.2.0/arm/arm-none-eabi/include/c++/10.3.1/bits/stl_algo.h ****     }
1023:/Library/DaisyToolchain/0.2.0/arm/arm-none-eabi/include/c++/10.3.1/bits/stl_algo.h **** 
1024:/Library/DaisyToolchain/0.2.0/arm/arm-none-eabi/include/c++/10.3.1/bits/stl_algo.h ****   /**
1025:/Library/DaisyToolchain/0.2.0/arm/arm-none-eabi/include/c++/10.3.1/bits/stl_algo.h ****    *  This is an uglified
1026:/Library/DaisyToolchain/0.2.0/arm/arm-none-eabi/include/c++/10.3.1/bits/stl_algo.h ****    *  unique_copy(_InputIterator, _InputIterator, _OutputIterator,
1027:/Library/DaisyToolchain/0.2.0/arm/arm-none-eabi/include/c++/10.3.1/bits/stl_algo.h ****    *              _BinaryPredicate)
1028:/Library/DaisyToolchain/0.2.0/arm/arm-none-eabi/include/c++/10.3.1/bits/stl_algo.h ****    *  overloaded for forward iterators and output iterator as result.
1029:/Library/DaisyToolchain/0.2.0/arm/arm-none-eabi/include/c++/10.3.1/bits/stl_algo.h ****   */
1030:/Library/DaisyToolchain/0.2.0/arm/arm-none-eabi/include/c++/10.3.1/bits/stl_algo.h ****   template<typename _ForwardIterator, typename _OutputIterator,
1031:/Library/DaisyToolchain/0.2.0/arm/arm-none-eabi/include/c++/10.3.1/bits/stl_algo.h **** 	   typename _BinaryPredicate>
1032:/Library/DaisyToolchain/0.2.0/arm/arm-none-eabi/include/c++/10.3.1/bits/stl_algo.h ****     _GLIBCXX20_CONSTEXPR
1033:/Library/DaisyToolchain/0.2.0/arm/arm-none-eabi/include/c++/10.3.1/bits/stl_algo.h ****     _OutputIterator
1034:/Library/DaisyToolchain/0.2.0/arm/arm-none-eabi/include/c++/10.3.1/bits/stl_algo.h ****     __unique_copy(_ForwardIterator __first, _ForwardIterator __last,
1035:/Library/DaisyToolchain/0.2.0/arm/arm-none-eabi/include/c++/10.3.1/bits/stl_algo.h **** 		  _OutputIterator __result, _BinaryPredicate __binary_pred,
1036:/Library/DaisyToolchain/0.2.0/arm/arm-none-eabi/include/c++/10.3.1/bits/stl_algo.h **** 		  forward_iterator_tag, output_iterator_tag)
1037:/Library/DaisyToolchain/0.2.0/arm/arm-none-eabi/include/c++/10.3.1/bits/stl_algo.h ****     {
1038:/Library/DaisyToolchain/0.2.0/arm/arm-none-eabi/include/c++/10.3.1/bits/stl_algo.h ****       // concept requirements -- iterators already checked
1039:/Library/DaisyToolchain/0.2.0/arm/arm-none-eabi/include/c++/10.3.1/bits/stl_algo.h ****       __glibcxx_function_requires(_BinaryPredicateConcept<_BinaryPredicate,
1040:/Library/DaisyToolchain/0.2.0/arm/arm-none-eabi/include/c++/10.3.1/bits/stl_algo.h **** 	  typename iterator_traits<_ForwardIterator>::value_type,
1041:/Library/DaisyToolchain/0.2.0/arm/arm-none-eabi/include/c++/10.3.1/bits/stl_algo.h **** 	  typename iterator_traits<_ForwardIterator>::value_type>)
1042:/Library/DaisyToolchain/0.2.0/arm/arm-none-eabi/include/c++/10.3.1/bits/stl_algo.h **** 
1043:/Library/DaisyToolchain/0.2.0/arm/arm-none-eabi/include/c++/10.3.1/bits/stl_algo.h ****       _ForwardIterator __next = __first;
1044:/Library/DaisyToolchain/0.2.0/arm/arm-none-eabi/include/c++/10.3.1/bits/stl_algo.h ****       *__result = *__first;
1045:/Library/DaisyToolchain/0.2.0/arm/arm-none-eabi/include/c++/10.3.1/bits/stl_algo.h ****       while (++__next != __last)
1046:/Library/DaisyToolchain/0.2.0/arm/arm-none-eabi/include/c++/10.3.1/bits/stl_algo.h **** 	if (!__binary_pred(__first, __next))
1047:/Library/DaisyToolchain/0.2.0/arm/arm-none-eabi/include/c++/10.3.1/bits/stl_algo.h **** 	  {
1048:/Library/DaisyToolchain/0.2.0/arm/arm-none-eabi/include/c++/10.3.1/bits/stl_algo.h **** 	    __first = __next;
1049:/Library/DaisyToolchain/0.2.0/arm/arm-none-eabi/include/c++/10.3.1/bits/stl_algo.h **** 	    *++__result = *__first;
1050:/Library/DaisyToolchain/0.2.0/arm/arm-none-eabi/include/c++/10.3.1/bits/stl_algo.h **** 	  }
1051:/Library/DaisyToolchain/0.2.0/arm/arm-none-eabi/include/c++/10.3.1/bits/stl_algo.h ****       return ++__result;
1052:/Library/DaisyToolchain/0.2.0/arm/arm-none-eabi/include/c++/10.3.1/bits/stl_algo.h ****     }
1053:/Library/DaisyToolchain/0.2.0/arm/arm-none-eabi/include/c++/10.3.1/bits/stl_algo.h **** 
1054:/Library/DaisyToolchain/0.2.0/arm/arm-none-eabi/include/c++/10.3.1/bits/stl_algo.h ****   /**
1055:/Library/DaisyToolchain/0.2.0/arm/arm-none-eabi/include/c++/10.3.1/bits/stl_algo.h ****    *  This is an uglified
1056:/Library/DaisyToolchain/0.2.0/arm/arm-none-eabi/include/c++/10.3.1/bits/stl_algo.h ****    *  unique_copy(_InputIterator, _InputIterator, _OutputIterator,
1057:/Library/DaisyToolchain/0.2.0/arm/arm-none-eabi/include/c++/10.3.1/bits/stl_algo.h ****    *              _BinaryPredicate)
1058:/Library/DaisyToolchain/0.2.0/arm/arm-none-eabi/include/c++/10.3.1/bits/stl_algo.h ****    *  overloaded for input iterators and output iterator as result.
1059:/Library/DaisyToolchain/0.2.0/arm/arm-none-eabi/include/c++/10.3.1/bits/stl_algo.h ****   */
1060:/Library/DaisyToolchain/0.2.0/arm/arm-none-eabi/include/c++/10.3.1/bits/stl_algo.h ****   template<typename _InputIterator, typename _OutputIterator,
1061:/Library/DaisyToolchain/0.2.0/arm/arm-none-eabi/include/c++/10.3.1/bits/stl_algo.h **** 	   typename _BinaryPredicate>
1062:/Library/DaisyToolchain/0.2.0/arm/arm-none-eabi/include/c++/10.3.1/bits/stl_algo.h ****     _GLIBCXX20_CONSTEXPR
ARM GAS  /var/folders/9k/zk1mgrrd7wg4__6zvxvr9w8m0000gn/T//cc4BDeRe.s 			page 42


1063:/Library/DaisyToolchain/0.2.0/arm/arm-none-eabi/include/c++/10.3.1/bits/stl_algo.h ****     _OutputIterator
1064:/Library/DaisyToolchain/0.2.0/arm/arm-none-eabi/include/c++/10.3.1/bits/stl_algo.h ****     __unique_copy(_InputIterator __first, _InputIterator __last,
1065:/Library/DaisyToolchain/0.2.0/arm/arm-none-eabi/include/c++/10.3.1/bits/stl_algo.h **** 		  _OutputIterator __result, _BinaryPredicate __binary_pred,
1066:/Library/DaisyToolchain/0.2.0/arm/arm-none-eabi/include/c++/10.3.1/bits/stl_algo.h **** 		  input_iterator_tag, output_iterator_tag)
1067:/Library/DaisyToolchain/0.2.0/arm/arm-none-eabi/include/c++/10.3.1/bits/stl_algo.h ****     {
1068:/Library/DaisyToolchain/0.2.0/arm/arm-none-eabi/include/c++/10.3.1/bits/stl_algo.h ****       // concept requirements -- iterators already checked
1069:/Library/DaisyToolchain/0.2.0/arm/arm-none-eabi/include/c++/10.3.1/bits/stl_algo.h ****       __glibcxx_function_requires(_BinaryPredicateConcept<_BinaryPredicate,
1070:/Library/DaisyToolchain/0.2.0/arm/arm-none-eabi/include/c++/10.3.1/bits/stl_algo.h **** 	  typename iterator_traits<_InputIterator>::value_type,
1071:/Library/DaisyToolchain/0.2.0/arm/arm-none-eabi/include/c++/10.3.1/bits/stl_algo.h **** 	  typename iterator_traits<_InputIterator>::value_type>)
1072:/Library/DaisyToolchain/0.2.0/arm/arm-none-eabi/include/c++/10.3.1/bits/stl_algo.h **** 
1073:/Library/DaisyToolchain/0.2.0/arm/arm-none-eabi/include/c++/10.3.1/bits/stl_algo.h ****       typename iterator_traits<_InputIterator>::value_type __value = *__first;
1074:/Library/DaisyToolchain/0.2.0/arm/arm-none-eabi/include/c++/10.3.1/bits/stl_algo.h ****       __decltype(__gnu_cxx::__ops::__iter_comp_val(__binary_pred))
1075:/Library/DaisyToolchain/0.2.0/arm/arm-none-eabi/include/c++/10.3.1/bits/stl_algo.h **** 	__rebound_pred
1076:/Library/DaisyToolchain/0.2.0/arm/arm-none-eabi/include/c++/10.3.1/bits/stl_algo.h **** 	= __gnu_cxx::__ops::__iter_comp_val(__binary_pred);
1077:/Library/DaisyToolchain/0.2.0/arm/arm-none-eabi/include/c++/10.3.1/bits/stl_algo.h ****       *__result = __value;
1078:/Library/DaisyToolchain/0.2.0/arm/arm-none-eabi/include/c++/10.3.1/bits/stl_algo.h ****       while (++__first != __last)
1079:/Library/DaisyToolchain/0.2.0/arm/arm-none-eabi/include/c++/10.3.1/bits/stl_algo.h **** 	if (!__rebound_pred(__first, __value))
1080:/Library/DaisyToolchain/0.2.0/arm/arm-none-eabi/include/c++/10.3.1/bits/stl_algo.h **** 	  {
1081:/Library/DaisyToolchain/0.2.0/arm/arm-none-eabi/include/c++/10.3.1/bits/stl_algo.h **** 	    __value = *__first;
1082:/Library/DaisyToolchain/0.2.0/arm/arm-none-eabi/include/c++/10.3.1/bits/stl_algo.h **** 	    *++__result = __value;
1083:/Library/DaisyToolchain/0.2.0/arm/arm-none-eabi/include/c++/10.3.1/bits/stl_algo.h **** 	  }
1084:/Library/DaisyToolchain/0.2.0/arm/arm-none-eabi/include/c++/10.3.1/bits/stl_algo.h ****       return ++__result;
1085:/Library/DaisyToolchain/0.2.0/arm/arm-none-eabi/include/c++/10.3.1/bits/stl_algo.h ****     }
1086:/Library/DaisyToolchain/0.2.0/arm/arm-none-eabi/include/c++/10.3.1/bits/stl_algo.h **** 
1087:/Library/DaisyToolchain/0.2.0/arm/arm-none-eabi/include/c++/10.3.1/bits/stl_algo.h ****   /**
1088:/Library/DaisyToolchain/0.2.0/arm/arm-none-eabi/include/c++/10.3.1/bits/stl_algo.h ****    *  This is an uglified
1089:/Library/DaisyToolchain/0.2.0/arm/arm-none-eabi/include/c++/10.3.1/bits/stl_algo.h ****    *  unique_copy(_InputIterator, _InputIterator, _OutputIterator,
1090:/Library/DaisyToolchain/0.2.0/arm/arm-none-eabi/include/c++/10.3.1/bits/stl_algo.h ****    *              _BinaryPredicate)
1091:/Library/DaisyToolchain/0.2.0/arm/arm-none-eabi/include/c++/10.3.1/bits/stl_algo.h ****    *  overloaded for input iterators and forward iterator as result.
1092:/Library/DaisyToolchain/0.2.0/arm/arm-none-eabi/include/c++/10.3.1/bits/stl_algo.h ****   */
1093:/Library/DaisyToolchain/0.2.0/arm/arm-none-eabi/include/c++/10.3.1/bits/stl_algo.h ****   template<typename _InputIterator, typename _ForwardIterator,
1094:/Library/DaisyToolchain/0.2.0/arm/arm-none-eabi/include/c++/10.3.1/bits/stl_algo.h **** 	   typename _BinaryPredicate>
1095:/Library/DaisyToolchain/0.2.0/arm/arm-none-eabi/include/c++/10.3.1/bits/stl_algo.h ****     _GLIBCXX20_CONSTEXPR
1096:/Library/DaisyToolchain/0.2.0/arm/arm-none-eabi/include/c++/10.3.1/bits/stl_algo.h ****     _ForwardIterator
1097:/Library/DaisyToolchain/0.2.0/arm/arm-none-eabi/include/c++/10.3.1/bits/stl_algo.h ****     __unique_copy(_InputIterator __first, _InputIterator __last,
1098:/Library/DaisyToolchain/0.2.0/arm/arm-none-eabi/include/c++/10.3.1/bits/stl_algo.h **** 		  _ForwardIterator __result, _BinaryPredicate __binary_pred,
1099:/Library/DaisyToolchain/0.2.0/arm/arm-none-eabi/include/c++/10.3.1/bits/stl_algo.h **** 		  input_iterator_tag, forward_iterator_tag)
1100:/Library/DaisyToolchain/0.2.0/arm/arm-none-eabi/include/c++/10.3.1/bits/stl_algo.h ****     {
1101:/Library/DaisyToolchain/0.2.0/arm/arm-none-eabi/include/c++/10.3.1/bits/stl_algo.h ****       // concept requirements -- iterators already checked
1102:/Library/DaisyToolchain/0.2.0/arm/arm-none-eabi/include/c++/10.3.1/bits/stl_algo.h ****       __glibcxx_function_requires(_BinaryPredicateConcept<_BinaryPredicate,
1103:/Library/DaisyToolchain/0.2.0/arm/arm-none-eabi/include/c++/10.3.1/bits/stl_algo.h **** 	  typename iterator_traits<_ForwardIterator>::value_type,
1104:/Library/DaisyToolchain/0.2.0/arm/arm-none-eabi/include/c++/10.3.1/bits/stl_algo.h **** 	  typename iterator_traits<_InputIterator>::value_type>)
1105:/Library/DaisyToolchain/0.2.0/arm/arm-none-eabi/include/c++/10.3.1/bits/stl_algo.h ****       *__result = *__first;
1106:/Library/DaisyToolchain/0.2.0/arm/arm-none-eabi/include/c++/10.3.1/bits/stl_algo.h ****       while (++__first != __last)
1107:/Library/DaisyToolchain/0.2.0/arm/arm-none-eabi/include/c++/10.3.1/bits/stl_algo.h **** 	if (!__binary_pred(__result, __first))
1108:/Library/DaisyToolchain/0.2.0/arm/arm-none-eabi/include/c++/10.3.1/bits/stl_algo.h **** 	  *++__result = *__first;
1109:/Library/DaisyToolchain/0.2.0/arm/arm-none-eabi/include/c++/10.3.1/bits/stl_algo.h ****       return ++__result;
1110:/Library/DaisyToolchain/0.2.0/arm/arm-none-eabi/include/c++/10.3.1/bits/stl_algo.h ****     }
1111:/Library/DaisyToolchain/0.2.0/arm/arm-none-eabi/include/c++/10.3.1/bits/stl_algo.h **** 
1112:/Library/DaisyToolchain/0.2.0/arm/arm-none-eabi/include/c++/10.3.1/bits/stl_algo.h ****   /**
1113:/Library/DaisyToolchain/0.2.0/arm/arm-none-eabi/include/c++/10.3.1/bits/stl_algo.h ****    *  This is an uglified reverse(_BidirectionalIterator,
1114:/Library/DaisyToolchain/0.2.0/arm/arm-none-eabi/include/c++/10.3.1/bits/stl_algo.h ****    *                              _BidirectionalIterator)
1115:/Library/DaisyToolchain/0.2.0/arm/arm-none-eabi/include/c++/10.3.1/bits/stl_algo.h ****    *  overloaded for bidirectional iterators.
1116:/Library/DaisyToolchain/0.2.0/arm/arm-none-eabi/include/c++/10.3.1/bits/stl_algo.h ****   */
1117:/Library/DaisyToolchain/0.2.0/arm/arm-none-eabi/include/c++/10.3.1/bits/stl_algo.h ****   template<typename _BidirectionalIterator>
1118:/Library/DaisyToolchain/0.2.0/arm/arm-none-eabi/include/c++/10.3.1/bits/stl_algo.h ****     _GLIBCXX20_CONSTEXPR
1119:/Library/DaisyToolchain/0.2.0/arm/arm-none-eabi/include/c++/10.3.1/bits/stl_algo.h ****     void
ARM GAS  /var/folders/9k/zk1mgrrd7wg4__6zvxvr9w8m0000gn/T//cc4BDeRe.s 			page 43


1120:/Library/DaisyToolchain/0.2.0/arm/arm-none-eabi/include/c++/10.3.1/bits/stl_algo.h ****     __reverse(_BidirectionalIterator __first, _BidirectionalIterator __last,
1121:/Library/DaisyToolchain/0.2.0/arm/arm-none-eabi/include/c++/10.3.1/bits/stl_algo.h **** 	      bidirectional_iterator_tag)
1122:/Library/DaisyToolchain/0.2.0/arm/arm-none-eabi/include/c++/10.3.1/bits/stl_algo.h ****     {
1123:/Library/DaisyToolchain/0.2.0/arm/arm-none-eabi/include/c++/10.3.1/bits/stl_algo.h ****       while (true)
1124:/Library/DaisyToolchain/0.2.0/arm/arm-none-eabi/include/c++/10.3.1/bits/stl_algo.h **** 	if (__first == __last || __first == --__last)
1125:/Library/DaisyToolchain/0.2.0/arm/arm-none-eabi/include/c++/10.3.1/bits/stl_algo.h **** 	  return;
1126:/Library/DaisyToolchain/0.2.0/arm/arm-none-eabi/include/c++/10.3.1/bits/stl_algo.h **** 	else
1127:/Library/DaisyToolchain/0.2.0/arm/arm-none-eabi/include/c++/10.3.1/bits/stl_algo.h **** 	  {
1128:/Library/DaisyToolchain/0.2.0/arm/arm-none-eabi/include/c++/10.3.1/bits/stl_algo.h **** 	    std::iter_swap(__first, __last);
1129:/Library/DaisyToolchain/0.2.0/arm/arm-none-eabi/include/c++/10.3.1/bits/stl_algo.h **** 	    ++__first;
1130:/Library/DaisyToolchain/0.2.0/arm/arm-none-eabi/include/c++/10.3.1/bits/stl_algo.h **** 	  }
1131:/Library/DaisyToolchain/0.2.0/arm/arm-none-eabi/include/c++/10.3.1/bits/stl_algo.h ****     }
1132:/Library/DaisyToolchain/0.2.0/arm/arm-none-eabi/include/c++/10.3.1/bits/stl_algo.h **** 
1133:/Library/DaisyToolchain/0.2.0/arm/arm-none-eabi/include/c++/10.3.1/bits/stl_algo.h ****   /**
