ARM GAS  /var/folders/9k/zk1mgrrd7wg4__6zvxvr9w8m0000gn/T//cc9Z2LKb.s 			page 1


   1              		.cpu cortex-m7
   2              		.arch armv7e-m
   3              		.fpu fpv5-d16
   4              		.eabi_attribute 28, 1
   5              		.eabi_attribute 20, 1
   6              		.eabi_attribute 21, 1
   7              		.eabi_attribute 23, 3
   8              		.eabi_attribute 24, 1
   9              		.eabi_attribute 25, 1
  10              		.eabi_attribute 26, 1
  11              		.eabi_attribute 30, 2
  12              		.eabi_attribute 34, 1
  13              		.eabi_attribute 18, 4
  14              		.file	"grain_engine.cpp"
  15              		.text
  16              	.Ltext0:
  17              		.cfi_sections	.debug_frame
  18              		.section	.text._ZN6plaits11GrainEngine12LoadUserDataEPKh,"axG",%progbits,_ZN6plaits11GrainEngine12
  19              		.align	1
  20              		.p2align 2,,3
  21              		.weak	_ZN6plaits11GrainEngine12LoadUserDataEPKh
  22              		.syntax unified
  23              		.thumb
  24              		.thumb_func
  26              	_ZN6plaits11GrainEngine12LoadUserDataEPKh:
  27              	.LVL0:
  28              	.LFB1616:
  29              		.file 1 "mi/plaits/dsp/engine/grain_engine.h"
   1:mi/plaits/dsp/engine/grain_engine.h **** // Copyright 2016 Emilie Gillet.
   2:mi/plaits/dsp/engine/grain_engine.h **** //
   3:mi/plaits/dsp/engine/grain_engine.h **** // Author: Emilie Gillet (emilie.o.gillet@gmail.com)
   4:mi/plaits/dsp/engine/grain_engine.h **** //
   5:mi/plaits/dsp/engine/grain_engine.h **** // Permission is hereby granted, free of charge, to any person obtaining a copy
   6:mi/plaits/dsp/engine/grain_engine.h **** // of this software and associated documentation files (the "Software"), to deal
   7:mi/plaits/dsp/engine/grain_engine.h **** // in the Software without restriction, including without limitation the rights
   8:mi/plaits/dsp/engine/grain_engine.h **** // to use, copy, modify, merge, publish, distribute, sublicense, and/or sell
   9:mi/plaits/dsp/engine/grain_engine.h **** // copies of the Software, and to permit persons to whom the Software is
  10:mi/plaits/dsp/engine/grain_engine.h **** // furnished to do so, subject to the following conditions:
  11:mi/plaits/dsp/engine/grain_engine.h **** // 
  12:mi/plaits/dsp/engine/grain_engine.h **** // The above copyright notice and this permission notice shall be included in
  13:mi/plaits/dsp/engine/grain_engine.h **** // all copies or substantial portions of the Software.
  14:mi/plaits/dsp/engine/grain_engine.h **** // 
  15:mi/plaits/dsp/engine/grain_engine.h **** // THE SOFTWARE IS PROVIDED "AS IS", WITHOUT WARRANTY OF ANY KIND, EXPRESS OR
  16:mi/plaits/dsp/engine/grain_engine.h **** // IMPLIED, INCLUDING BUT NOT LIMITED TO THE WARRANTIES OF MERCHANTABILITY,
  17:mi/plaits/dsp/engine/grain_engine.h **** // FITNESS FOR A PARTICULAR PURPOSE AND NONINFRINGEMENT. IN NO EVENT SHALL THE
  18:mi/plaits/dsp/engine/grain_engine.h **** // AUTHORS OR COPYRIGHT HOLDERS BE LIABLE FOR ANY CLAIM, DAMAGES OR OTHER
  19:mi/plaits/dsp/engine/grain_engine.h **** // LIABILITY, WHETHER IN AN ACTION OF CONTRACT, TORT OR OTHERWISE, ARISING FROM,
  20:mi/plaits/dsp/engine/grain_engine.h **** // OUT OF OR IN CONNECTION WITH THE SOFTWARE OR THE USE OR OTHER DEALINGS IN
  21:mi/plaits/dsp/engine/grain_engine.h **** // THE SOFTWARE.
  22:mi/plaits/dsp/engine/grain_engine.h **** // 
  23:mi/plaits/dsp/engine/grain_engine.h **** // See http://creativecommons.org/licenses/MIT/ for more information.
  24:mi/plaits/dsp/engine/grain_engine.h **** //
  25:mi/plaits/dsp/engine/grain_engine.h **** // -----------------------------------------------------------------------------
  26:mi/plaits/dsp/engine/grain_engine.h **** //
  27:mi/plaits/dsp/engine/grain_engine.h **** // Windowed sine segments.
  28:mi/plaits/dsp/engine/grain_engine.h **** 
  29:mi/plaits/dsp/engine/grain_engine.h **** #ifndef PLAITS_DSP_ENGINE_GRAIN_ENGINE_H_
ARM GAS  /var/folders/9k/zk1mgrrd7wg4__6zvxvr9w8m0000gn/T//cc9Z2LKb.s 			page 2


  30:mi/plaits/dsp/engine/grain_engine.h **** #define PLAITS_DSP_ENGINE_GRAIN_ENGINE_H_
  31:mi/plaits/dsp/engine/grain_engine.h **** 
  32:mi/plaits/dsp/engine/grain_engine.h **** #include "stmlib/dsp/filter.h"
  33:mi/plaits/dsp/engine/grain_engine.h **** 
  34:mi/plaits/dsp/engine/grain_engine.h **** #include "plaits/dsp/engine/engine.h"
  35:mi/plaits/dsp/engine/grain_engine.h **** #include "plaits/dsp/oscillator/grainlet_oscillator.h"
  36:mi/plaits/dsp/engine/grain_engine.h **** #include "plaits/dsp/oscillator/vosim_oscillator.h"
  37:mi/plaits/dsp/engine/grain_engine.h **** #include "plaits/dsp/oscillator/z_oscillator.h"
  38:mi/plaits/dsp/engine/grain_engine.h **** 
  39:mi/plaits/dsp/engine/grain_engine.h **** namespace plaits {
  40:mi/plaits/dsp/engine/grain_engine.h ****   
  41:mi/plaits/dsp/engine/grain_engine.h **** class GrainEngine : public Engine {
  42:mi/plaits/dsp/engine/grain_engine.h ****  public:
  43:mi/plaits/dsp/engine/grain_engine.h ****   GrainEngine() { }
  44:mi/plaits/dsp/engine/grain_engine.h ****   ~GrainEngine() { }
  45:mi/plaits/dsp/engine/grain_engine.h ****   
  46:mi/plaits/dsp/engine/grain_engine.h ****   virtual void Init(stmlib::BufferAllocator* allocator);
  47:mi/plaits/dsp/engine/grain_engine.h ****   virtual void Reset();
  48:mi/plaits/dsp/engine/grain_engine.h ****   virtual void LoadUserData(const uint8_t* user_data) { }
  30              		.loc 1 48 16 view -0
  31              		.cfi_startproc
  32              		@ args = 0, pretend = 0, frame = 0
  33              		@ frame_needed = 0, uses_anonymous_args = 0
  34              		@ link register save eliminated.
  35              		.loc 1 48 57 is_stmt 0 view .LVU1
  36 0000 7047     		bx	lr
  37              		.cfi_endproc
  38              	.LFE1616:
  40 0002 00BF     		.section	.text._ZN6plaits11GrainEngine4InitEPN6stmlib15BufferAllocatorE,"ax",%progbits
  41              		.align	1
  42              		.p2align 2,,3
  43              		.global	_ZN6plaits11GrainEngine4InitEPN6stmlib15BufferAllocatorE
  44              		.syntax unified
  45              		.thumb
  46              		.thumb_func
  48              	_ZN6plaits11GrainEngine4InitEPN6stmlib15BufferAllocatorE:
  49              	.LVL1:
  50              	.LFB1617:
  51              		.file 2 "mi/plaits/dsp/engine/grain_engine.cpp"
   1:mi/plaits/dsp/engine/grain_engine.cpp **** // Copyright 2016 Emilie Gillet.
   2:mi/plaits/dsp/engine/grain_engine.cpp **** //
   3:mi/plaits/dsp/engine/grain_engine.cpp **** // Author: Emilie Gillet (emilie.o.gillet@gmail.com)
   4:mi/plaits/dsp/engine/grain_engine.cpp **** //
   5:mi/plaits/dsp/engine/grain_engine.cpp **** // Permission is hereby granted, free of charge, to any person obtaining a copy
   6:mi/plaits/dsp/engine/grain_engine.cpp **** // of this software and associated documentation files (the "Software"), to deal
   7:mi/plaits/dsp/engine/grain_engine.cpp **** // in the Software without restriction, including without limitation the rights
   8:mi/plaits/dsp/engine/grain_engine.cpp **** // to use, copy, modify, merge, publish, distribute, sublicense, and/or sell
   9:mi/plaits/dsp/engine/grain_engine.cpp **** // copies of the Software, and to permit persons to whom the Software is
  10:mi/plaits/dsp/engine/grain_engine.cpp **** // furnished to do so, subject to the following conditions:
  11:mi/plaits/dsp/engine/grain_engine.cpp **** // 
  12:mi/plaits/dsp/engine/grain_engine.cpp **** // The above copyright notice and this permission notice shall be included in
  13:mi/plaits/dsp/engine/grain_engine.cpp **** // all copies or substantial portions of the Software.
  14:mi/plaits/dsp/engine/grain_engine.cpp **** // 
  15:mi/plaits/dsp/engine/grain_engine.cpp **** // THE SOFTWARE IS PROVIDED "AS IS", WITHOUT WARRANTY OF ANY KIND, EXPRESS OR
  16:mi/plaits/dsp/engine/grain_engine.cpp **** // IMPLIED, INCLUDING BUT NOT LIMITED TO THE WARRANTIES OF MERCHANTABILITY,
  17:mi/plaits/dsp/engine/grain_engine.cpp **** // FITNESS FOR A PARTICULAR PURPOSE AND NONINFRINGEMENT. IN NO EVENT SHALL THE
  18:mi/plaits/dsp/engine/grain_engine.cpp **** // AUTHORS OR COPYRIGHT HOLDERS BE LIABLE FOR ANY CLAIM, DAMAGES OR OTHER
ARM GAS  /var/folders/9k/zk1mgrrd7wg4__6zvxvr9w8m0000gn/T//cc9Z2LKb.s 			page 3


  19:mi/plaits/dsp/engine/grain_engine.cpp **** // LIABILITY, WHETHER IN AN ACTION OF CONTRACT, TORT OR OTHERWISE, ARISING FROM,
  20:mi/plaits/dsp/engine/grain_engine.cpp **** // OUT OF OR IN CONNECTION WITH THE SOFTWARE OR THE USE OR OTHER DEALINGS IN
  21:mi/plaits/dsp/engine/grain_engine.cpp **** // THE SOFTWARE.
  22:mi/plaits/dsp/engine/grain_engine.cpp **** // 
  23:mi/plaits/dsp/engine/grain_engine.cpp **** // See http://creativecommons.org/licenses/MIT/ for more information.
  24:mi/plaits/dsp/engine/grain_engine.cpp **** //
  25:mi/plaits/dsp/engine/grain_engine.cpp **** // -----------------------------------------------------------------------------
  26:mi/plaits/dsp/engine/grain_engine.cpp **** //
  27:mi/plaits/dsp/engine/grain_engine.cpp **** // Windowed sine segments.
  28:mi/plaits/dsp/engine/grain_engine.cpp **** 
  29:mi/plaits/dsp/engine/grain_engine.cpp **** #include <algorithm>
  30:mi/plaits/dsp/engine/grain_engine.cpp **** 
  31:mi/plaits/dsp/engine/grain_engine.cpp **** #include "plaits/dsp/engine/grain_engine.h"
  32:mi/plaits/dsp/engine/grain_engine.cpp **** 
  33:mi/plaits/dsp/engine/grain_engine.cpp **** namespace plaits {
  34:mi/plaits/dsp/engine/grain_engine.cpp **** 
  35:mi/plaits/dsp/engine/grain_engine.cpp **** using namespace std;
  36:mi/plaits/dsp/engine/grain_engine.cpp **** using namespace stmlib;
  37:mi/plaits/dsp/engine/grain_engine.cpp **** 
  38:mi/plaits/dsp/engine/grain_engine.cpp **** void GrainEngine::Init(BufferAllocator* allocator) {
  52              		.loc 2 38 52 is_stmt 1 view -0
  53              		.cfi_startproc
  54              		@ args = 0, pretend = 0, frame = 0
  55              		@ frame_needed = 0, uses_anonymous_args = 0
  56              		@ link register save eliminated.
  39:mi/plaits/dsp/engine/grain_engine.cpp ****   grainlet_[0].Init();
  57              		.loc 2 39 3 view .LVU3
  58              	.LBB183:
  59              	.LBB184:
  60              		.file 3 "mi/plaits/dsp/oscillator/grainlet_oscillator.h"
   1:mi/plaits/dsp/oscillator/grainlet_oscillator.h **** // Copyright 2016 Emilie Gillet.
   2:mi/plaits/dsp/oscillator/grainlet_oscillator.h **** //
   3:mi/plaits/dsp/oscillator/grainlet_oscillator.h **** // Author: Emilie Gillet (emilie.o.gillet@gmail.com)
   4:mi/plaits/dsp/oscillator/grainlet_oscillator.h **** //
   5:mi/plaits/dsp/oscillator/grainlet_oscillator.h **** // Permission is hereby granted, free of charge, to any person obtaining a copy
   6:mi/plaits/dsp/oscillator/grainlet_oscillator.h **** // of this software and associated documentation files (the "Software"), to deal
   7:mi/plaits/dsp/oscillator/grainlet_oscillator.h **** // in the Software without restriction, including without limitation the rights
   8:mi/plaits/dsp/oscillator/grainlet_oscillator.h **** // to use, copy, modify, merge, publish, distribute, sublicense, and/or sell
   9:mi/plaits/dsp/oscillator/grainlet_oscillator.h **** // copies of the Software, and to permit persons to whom the Software is
  10:mi/plaits/dsp/oscillator/grainlet_oscillator.h **** // furnished to do so, subject to the following conditions:
  11:mi/plaits/dsp/oscillator/grainlet_oscillator.h **** // 
  12:mi/plaits/dsp/oscillator/grainlet_oscillator.h **** // The above copyright notice and this permission notice shall be included in
  13:mi/plaits/dsp/oscillator/grainlet_oscillator.h **** // all copies or substantial portions of the Software.
  14:mi/plaits/dsp/oscillator/grainlet_oscillator.h **** // 
  15:mi/plaits/dsp/oscillator/grainlet_oscillator.h **** // THE SOFTWARE IS PROVIDED "AS IS", WITHOUT WARRANTY OF ANY KIND, EXPRESS OR
  16:mi/plaits/dsp/oscillator/grainlet_oscillator.h **** // IMPLIED, INCLUDING BUT NOT LIMITED TO THE WARRANTIES OF MERCHANTABILITY,
  17:mi/plaits/dsp/oscillator/grainlet_oscillator.h **** // FITNESS FOR A PARTICULAR PURPOSE AND NONINFRINGEMENT. IN NO EVENT SHALL THE
  18:mi/plaits/dsp/oscillator/grainlet_oscillator.h **** // AUTHORS OR COPYRIGHT HOLDERS BE LIABLE FOR ANY CLAIM, DAMAGES OR OTHER
  19:mi/plaits/dsp/oscillator/grainlet_oscillator.h **** // LIABILITY, WHETHER IN AN ACTION OF CONTRACT, TORT OR OTHERWISE, ARISING FROM,
  20:mi/plaits/dsp/oscillator/grainlet_oscillator.h **** // OUT OF OR IN CONNECTION WITH THE SOFTWARE OR THE USE OR OTHER DEALINGS IN
  21:mi/plaits/dsp/oscillator/grainlet_oscillator.h **** // THE SOFTWARE.
  22:mi/plaits/dsp/oscillator/grainlet_oscillator.h **** // 
  23:mi/plaits/dsp/oscillator/grainlet_oscillator.h **** // See http://creativecommons.org/licenses/MIT/ for more information.
  24:mi/plaits/dsp/oscillator/grainlet_oscillator.h **** //
  25:mi/plaits/dsp/oscillator/grainlet_oscillator.h **** // -----------------------------------------------------------------------------
  26:mi/plaits/dsp/oscillator/grainlet_oscillator.h **** //
  27:mi/plaits/dsp/oscillator/grainlet_oscillator.h **** // A phase-distortd single cycle sine * another continuously running sine,
ARM GAS  /var/folders/9k/zk1mgrrd7wg4__6zvxvr9w8m0000gn/T//cc9Z2LKb.s 			page 4


  28:mi/plaits/dsp/oscillator/grainlet_oscillator.h **** // the whole thing synced to a main oscillator.
  29:mi/plaits/dsp/oscillator/grainlet_oscillator.h **** 
  30:mi/plaits/dsp/oscillator/grainlet_oscillator.h **** #ifndef PLAITS_DSP_OSCILLATOR_GRAINLET_OSCILLATOR_H_
  31:mi/plaits/dsp/oscillator/grainlet_oscillator.h **** #define PLAITS_DSP_OSCILLATOR_GRAINLET_OSCILLATOR_H_
  32:mi/plaits/dsp/oscillator/grainlet_oscillator.h **** 
  33:mi/plaits/dsp/oscillator/grainlet_oscillator.h **** #include "stmlib/dsp/dsp.h"
  34:mi/plaits/dsp/oscillator/grainlet_oscillator.h **** #include "stmlib/dsp/parameter_interpolator.h"
  35:mi/plaits/dsp/oscillator/grainlet_oscillator.h **** #include "stmlib/dsp/polyblep.h"
  36:mi/plaits/dsp/oscillator/grainlet_oscillator.h **** 
  37:mi/plaits/dsp/oscillator/grainlet_oscillator.h **** #include "plaits/dsp/oscillator/oscillator.h"
  38:mi/plaits/dsp/oscillator/grainlet_oscillator.h **** #include "plaits/dsp/oscillator/sine_oscillator.h"
  39:mi/plaits/dsp/oscillator/grainlet_oscillator.h **** 
  40:mi/plaits/dsp/oscillator/grainlet_oscillator.h **** namespace plaits {
  41:mi/plaits/dsp/oscillator/grainlet_oscillator.h **** 
  42:mi/plaits/dsp/oscillator/grainlet_oscillator.h **** class GrainletOscillator {
  43:mi/plaits/dsp/oscillator/grainlet_oscillator.h ****  public:
  44:mi/plaits/dsp/oscillator/grainlet_oscillator.h ****   GrainletOscillator() { }
  45:mi/plaits/dsp/oscillator/grainlet_oscillator.h ****   ~GrainletOscillator() { }
  46:mi/plaits/dsp/oscillator/grainlet_oscillator.h **** 
  47:mi/plaits/dsp/oscillator/grainlet_oscillator.h ****   void Init() {
  48:mi/plaits/dsp/oscillator/grainlet_oscillator.h ****     carrier_phase_ = 0.0f;
  61              		.loc 3 48 20 is_stmt 0 view .LVU4
  62 0000 0023     		movs	r3, #0
  63              	.LBE184:
  64              	.LBE183:
  65              	.LBB186:
  66              	.LBB187:
  67              	.LBB188:
  68              		.file 4 "mi/stmlib/dsp/filter.h"
   1:mi/stmlib/dsp/filter.h **** // Copyright 2014 Emilie Gillet.
   2:mi/stmlib/dsp/filter.h **** //
   3:mi/stmlib/dsp/filter.h **** // Author: Emilie Gillet (emilie.o.gillet@gmail.com)
   4:mi/stmlib/dsp/filter.h **** //
   5:mi/stmlib/dsp/filter.h **** // Permission is hereby granted, free of charge, to any person obtaining a copy
   6:mi/stmlib/dsp/filter.h **** // of this software and associated documentation files (the "Software"), to deal
   7:mi/stmlib/dsp/filter.h **** // in the Software without restriction, including without limitation the rights
   8:mi/stmlib/dsp/filter.h **** // to use, copy, modify, merge, publish, distribute, sublicense, and/or sell
   9:mi/stmlib/dsp/filter.h **** // copies of the Software, and to permit persons to whom the Software is
  10:mi/stmlib/dsp/filter.h **** // furnished to do so, subject to the following conditions:
  11:mi/stmlib/dsp/filter.h **** // 
  12:mi/stmlib/dsp/filter.h **** // The above copyright notice and this permission notice shall be included in
  13:mi/stmlib/dsp/filter.h **** // all copies or substantial portions of the Software.
  14:mi/stmlib/dsp/filter.h **** // 
  15:mi/stmlib/dsp/filter.h **** // THE SOFTWARE IS PROVIDED "AS IS", WITHOUT WARRANTY OF ANY KIND, EXPRESS OR
  16:mi/stmlib/dsp/filter.h **** // IMPLIED, INCLUDING BUT NOT LIMITED TO THE WARRANTIES OF MERCHANTABILITY,
  17:mi/stmlib/dsp/filter.h **** // FITNESS FOR A PARTICULAR PURPOSE AND NONINFRINGEMENT. IN NO EVENT SHALL THE
  18:mi/stmlib/dsp/filter.h **** // AUTHORS OR COPYRIGHT HOLDERS BE LIABLE FOR ANY CLAIM, DAMAGES OR OTHER
  19:mi/stmlib/dsp/filter.h **** // LIABILITY, WHETHER IN AN ACTION OF CONTRACT, TORT OR OTHERWISE, ARISING FROM,
  20:mi/stmlib/dsp/filter.h **** // OUT OF OR IN CONNECTION WITH THE SOFTWARE OR THE USE OR OTHER DEALINGS IN
  21:mi/stmlib/dsp/filter.h **** // THE SOFTWARE.
  22:mi/stmlib/dsp/filter.h **** // 
  23:mi/stmlib/dsp/filter.h **** // See http://creativecommons.org/licenses/MIT/ for more information.
  24:mi/stmlib/dsp/filter.h **** //
  25:mi/stmlib/dsp/filter.h **** // -----------------------------------------------------------------------------
  26:mi/stmlib/dsp/filter.h **** //
  27:mi/stmlib/dsp/filter.h **** // Zero-delay-feedback filters (one pole and SVF).
  28:mi/stmlib/dsp/filter.h **** // Naive SVF.
ARM GAS  /var/folders/9k/zk1mgrrd7wg4__6zvxvr9w8m0000gn/T//cc9Z2LKb.s 			page 5


  29:mi/stmlib/dsp/filter.h **** 
  30:mi/stmlib/dsp/filter.h **** #ifndef STMLIB_DSP_FILTER_H_
  31:mi/stmlib/dsp/filter.h **** #define STMLIB_DSP_FILTER_H_
  32:mi/stmlib/dsp/filter.h **** 
  33:mi/stmlib/dsp/filter.h **** #include "stmlib/stmlib.h"
  34:mi/stmlib/dsp/filter.h **** 
  35:mi/stmlib/dsp/filter.h **** #include <cmath>
  36:mi/stmlib/dsp/filter.h **** #include <algorithm>
  37:mi/stmlib/dsp/filter.h **** 
  38:mi/stmlib/dsp/filter.h **** namespace stmlib {
  39:mi/stmlib/dsp/filter.h **** 
  40:mi/stmlib/dsp/filter.h **** enum FilterMode {
  41:mi/stmlib/dsp/filter.h ****   FILTER_MODE_LOW_PASS,
  42:mi/stmlib/dsp/filter.h ****   FILTER_MODE_BAND_PASS,
  43:mi/stmlib/dsp/filter.h ****   FILTER_MODE_BAND_PASS_NORMALIZED,
  44:mi/stmlib/dsp/filter.h ****   FILTER_MODE_HIGH_PASS
  45:mi/stmlib/dsp/filter.h **** };
  46:mi/stmlib/dsp/filter.h **** 
  47:mi/stmlib/dsp/filter.h **** enum FrequencyApproximation {
  48:mi/stmlib/dsp/filter.h ****   FREQUENCY_EXACT,
  49:mi/stmlib/dsp/filter.h ****   FREQUENCY_ACCURATE,
  50:mi/stmlib/dsp/filter.h ****   FREQUENCY_FAST,
  51:mi/stmlib/dsp/filter.h ****   FREQUENCY_DIRTY
  52:mi/stmlib/dsp/filter.h **** };
  53:mi/stmlib/dsp/filter.h **** 
  54:mi/stmlib/dsp/filter.h **** #define M_PI_F float(M_PI)
  55:mi/stmlib/dsp/filter.h **** #define M_PI_POW_2 M_PI * M_PI
  56:mi/stmlib/dsp/filter.h **** #define M_PI_POW_3 M_PI_POW_2 * M_PI
  57:mi/stmlib/dsp/filter.h **** #define M_PI_POW_5 M_PI_POW_3 * M_PI_POW_2
  58:mi/stmlib/dsp/filter.h **** #define M_PI_POW_7 M_PI_POW_5 * M_PI_POW_2
  59:mi/stmlib/dsp/filter.h **** #define M_PI_POW_9 M_PI_POW_7 * M_PI_POW_2
  60:mi/stmlib/dsp/filter.h **** #define M_PI_POW_11 M_PI_POW_9 * M_PI_POW_2
  61:mi/stmlib/dsp/filter.h **** 
  62:mi/stmlib/dsp/filter.h **** class DCBlocker {
  63:mi/stmlib/dsp/filter.h ****  public:
  64:mi/stmlib/dsp/filter.h ****   DCBlocker() { }
  65:mi/stmlib/dsp/filter.h ****   ~DCBlocker() { }
  66:mi/stmlib/dsp/filter.h ****   
  67:mi/stmlib/dsp/filter.h ****   void Init(float pole) {
  68:mi/stmlib/dsp/filter.h ****     x_ = 0.0f;
  69:mi/stmlib/dsp/filter.h ****     y_ = 0.0f;
  70:mi/stmlib/dsp/filter.h ****     pole_ = pole;
  71:mi/stmlib/dsp/filter.h ****   }
  72:mi/stmlib/dsp/filter.h ****   
  73:mi/stmlib/dsp/filter.h ****   inline void Process(float* in_out, size_t size) {
  74:mi/stmlib/dsp/filter.h ****     float x = x_;
  75:mi/stmlib/dsp/filter.h ****     float y = y_;
  76:mi/stmlib/dsp/filter.h ****     const float pole = pole_;
  77:mi/stmlib/dsp/filter.h ****     while (size--) {
  78:mi/stmlib/dsp/filter.h ****       float old_x = x;
  79:mi/stmlib/dsp/filter.h ****       x = *in_out;
  80:mi/stmlib/dsp/filter.h ****       *in_out++ = y = y * pole + x - old_x;
  81:mi/stmlib/dsp/filter.h ****     }
  82:mi/stmlib/dsp/filter.h ****     x_ = x;
  83:mi/stmlib/dsp/filter.h ****     y_ = y;
  84:mi/stmlib/dsp/filter.h ****   }
  85:mi/stmlib/dsp/filter.h ****   
ARM GAS  /var/folders/9k/zk1mgrrd7wg4__6zvxvr9w8m0000gn/T//cc9Z2LKb.s 			page 6


  86:mi/stmlib/dsp/filter.h ****  private:
  87:mi/stmlib/dsp/filter.h ****   float pole_;
  88:mi/stmlib/dsp/filter.h ****   float x_;
  89:mi/stmlib/dsp/filter.h ****   float y_;
  90:mi/stmlib/dsp/filter.h **** };
  91:mi/stmlib/dsp/filter.h **** 
  92:mi/stmlib/dsp/filter.h **** class OnePole {
  93:mi/stmlib/dsp/filter.h ****  public:
  94:mi/stmlib/dsp/filter.h ****   OnePole() { }
  95:mi/stmlib/dsp/filter.h ****   ~OnePole() { }
  96:mi/stmlib/dsp/filter.h ****   
  97:mi/stmlib/dsp/filter.h ****   void Init() {
  98:mi/stmlib/dsp/filter.h ****     set_f<FREQUENCY_DIRTY>(0.01f);
  99:mi/stmlib/dsp/filter.h ****     Reset();
 100:mi/stmlib/dsp/filter.h ****   }
 101:mi/stmlib/dsp/filter.h ****   
 102:mi/stmlib/dsp/filter.h ****   void Reset() {
 103:mi/stmlib/dsp/filter.h ****     state_ = 0.0f;
 104:mi/stmlib/dsp/filter.h ****   }
 105:mi/stmlib/dsp/filter.h ****   
 106:mi/stmlib/dsp/filter.h ****   template<FrequencyApproximation approximation>
 107:mi/stmlib/dsp/filter.h ****   static inline float tan(float f) {
 108:mi/stmlib/dsp/filter.h ****     if (approximation == FREQUENCY_EXACT) {
 109:mi/stmlib/dsp/filter.h ****       // Clip coefficient to about 100.
 110:mi/stmlib/dsp/filter.h ****       f = f < 0.497f ? f : 0.497f;
 111:mi/stmlib/dsp/filter.h ****       return tanf(M_PI_F * f);
 112:mi/stmlib/dsp/filter.h ****     } else if (approximation == FREQUENCY_DIRTY) {
 113:mi/stmlib/dsp/filter.h ****       // Optimized for frequencies below 8kHz.
 114:mi/stmlib/dsp/filter.h ****       const float a = 3.736e-01f * M_PI_POW_3;
 115:mi/stmlib/dsp/filter.h ****       return f * (M_PI_F + a * f * f);
 116:mi/stmlib/dsp/filter.h ****     } else if (approximation == FREQUENCY_FAST) {
 117:mi/stmlib/dsp/filter.h ****       // The usual tangent approximation uses 3.1755e-01 and 2.033e-01, but
 118:mi/stmlib/dsp/filter.h ****       // the coefficients used here are optimized to minimize error for the
 119:mi/stmlib/dsp/filter.h ****       // 16Hz to 16kHz range, with a sample rate of 48kHz.
 120:mi/stmlib/dsp/filter.h ****       const float a = 3.260e-01f * M_PI_POW_3;
 121:mi/stmlib/dsp/filter.h ****       const float b = 1.823e-01f * M_PI_POW_5;
 122:mi/stmlib/dsp/filter.h ****       float f2 = f * f;
 123:mi/stmlib/dsp/filter.h ****       return f * (M_PI_F + f2 * (a + b * f2));
 124:mi/stmlib/dsp/filter.h ****     } else if (approximation == FREQUENCY_ACCURATE) {
 125:mi/stmlib/dsp/filter.h ****       // These coefficients don't need to be tweaked for the audio range.
 126:mi/stmlib/dsp/filter.h ****       const float a = 3.333314036e-01f * M_PI_POW_3;
 127:mi/stmlib/dsp/filter.h ****       const float b = 1.333923995e-01f * M_PI_POW_5;
 128:mi/stmlib/dsp/filter.h ****       const float c = 5.33740603e-02f * M_PI_POW_7;
 129:mi/stmlib/dsp/filter.h ****       const float d = 2.900525e-03f * M_PI_POW_9;
 130:mi/stmlib/dsp/filter.h ****       const float e = 9.5168091e-03f * M_PI_POW_11;
 131:mi/stmlib/dsp/filter.h ****       float f2 = f * f;
 132:mi/stmlib/dsp/filter.h ****       return f * (M_PI_F + f2 * (a + f2 * (b + f2 * (c + f2 * (d + f2 * e)))));
 133:mi/stmlib/dsp/filter.h ****     }
 134:mi/stmlib/dsp/filter.h ****   }
 135:mi/stmlib/dsp/filter.h ****   
 136:mi/stmlib/dsp/filter.h ****   // Set frequency and resonance from true units. Various approximations
 137:mi/stmlib/dsp/filter.h ****   // are available to avoid the cost of tanf.
 138:mi/stmlib/dsp/filter.h ****   template<FrequencyApproximation approximation>
 139:mi/stmlib/dsp/filter.h ****   inline void set_f(float f) {
 140:mi/stmlib/dsp/filter.h ****     g_ = tan<approximation>(f);
  69              		.loc 4 140 8 view .LVU5
  70 0002 0F49     		ldr	r1, .L4
ARM GAS  /var/folders/9k/zk1mgrrd7wg4__6zvxvr9w8m0000gn/T//cc9Z2LKb.s 			page 7


  71              	.LVL2:
 141:mi/stmlib/dsp/filter.h ****     gi_ = 1.0f / (1.0f + g_);
  72              		.loc 4 141 9 view .LVU6
  73 0004 0F4A     		ldr	r2, .L4+4
  74              	.LVL3:
  75              		.loc 4 141 9 view .LVU7
  76              	.LBE188:
  77              	.LBE187:
  78              	.LBE186:
  79              	.LBB193:
  80              	.LBI183:
  47:mi/plaits/dsp/oscillator/grainlet_oscillator.h ****     carrier_phase_ = 0.0f;
  81              		.loc 3 47 8 is_stmt 1 view .LVU8
  82              	.LBB185:
  83              		.loc 3 48 5 view .LVU9
  84              		.loc 3 48 20 is_stmt 0 view .LVU10
  85 0006 0361     		str	r3, [r0, #16]	@ float
  49:mi/plaits/dsp/oscillator/grainlet_oscillator.h ****     formant_phase_ = 0.0f;
  86              		.loc 3 49 5 is_stmt 1 view .LVU11
  87              		.loc 3 49 20 is_stmt 0 view .LVU12
  88 0008 4361     		str	r3, [r0, #20]	@ float
  50:mi/plaits/dsp/oscillator/grainlet_oscillator.h ****     next_sample_ = 0.0f;
  89              		.loc 3 50 5 is_stmt 1 view .LVU13
  90              		.loc 3 50 18 is_stmt 0 view .LVU14
  91 000a 8361     		str	r3, [r0, #24]	@ float
  51:mi/plaits/dsp/oscillator/grainlet_oscillator.h ****   
  52:mi/plaits/dsp/oscillator/grainlet_oscillator.h ****     carrier_frequency_ = 0.0f;
  92              		.loc 3 52 5 is_stmt 1 view .LVU15
  93              		.loc 3 52 24 is_stmt 0 view .LVU16
  94 000c C361     		str	r3, [r0, #28]	@ float
  53:mi/plaits/dsp/oscillator/grainlet_oscillator.h ****     formant_frequency_ = 0.0f;
  95              		.loc 3 53 5 is_stmt 1 view .LVU17
  96              		.loc 3 53 24 is_stmt 0 view .LVU18
  97 000e 0362     		str	r3, [r0, #32]	@ float
  54:mi/plaits/dsp/oscillator/grainlet_oscillator.h ****     carrier_shape_ = 0.0f;
  98              		.loc 3 54 5 is_stmt 1 view .LVU19
  99              		.loc 3 54 20 is_stmt 0 view .LVU20
 100 0010 4362     		str	r3, [r0, #36]	@ float
  55:mi/plaits/dsp/oscillator/grainlet_oscillator.h ****     carrier_bleed_ = 0.0f;
 101              		.loc 3 55 5 is_stmt 1 view .LVU21
 102              		.loc 3 55 20 is_stmt 0 view .LVU22
 103 0012 8362     		str	r3, [r0, #40]	@ float
 104              	.LVL4:
 105              		.loc 3 55 20 view .LVU23
 106              	.LBE185:
 107              	.LBE193:
  40:mi/plaits/dsp/engine/grain_engine.cpp ****   grainlet_[1].Init();
 108              		.loc 2 40 3 is_stmt 1 view .LVU24
 109              	.LBB194:
 110              	.LBI194:
  47:mi/plaits/dsp/oscillator/grainlet_oscillator.h ****     carrier_phase_ = 0.0f;
 111              		.loc 3 47 8 view .LVU25
 112              	.LBB195:
  48:mi/plaits/dsp/oscillator/grainlet_oscillator.h ****     formant_phase_ = 0.0f;
 113              		.loc 3 48 5 view .LVU26
  48:mi/plaits/dsp/oscillator/grainlet_oscillator.h ****     formant_phase_ = 0.0f;
 114              		.loc 3 48 20 is_stmt 0 view .LVU27
ARM GAS  /var/folders/9k/zk1mgrrd7wg4__6zvxvr9w8m0000gn/T//cc9Z2LKb.s 			page 8


 115 0014 C362     		str	r3, [r0, #44]	@ float
  49:mi/plaits/dsp/oscillator/grainlet_oscillator.h ****     next_sample_ = 0.0f;
 116              		.loc 3 49 5 is_stmt 1 view .LVU28
  49:mi/plaits/dsp/oscillator/grainlet_oscillator.h ****     next_sample_ = 0.0f;
 117              		.loc 3 49 20 is_stmt 0 view .LVU29
 118 0016 0363     		str	r3, [r0, #48]	@ float
  50:mi/plaits/dsp/oscillator/grainlet_oscillator.h ****   
 119              		.loc 3 50 5 is_stmt 1 view .LVU30
  50:mi/plaits/dsp/oscillator/grainlet_oscillator.h ****   
 120              		.loc 3 50 18 is_stmt 0 view .LVU31
 121 0018 4363     		str	r3, [r0, #52]	@ float
  52:mi/plaits/dsp/oscillator/grainlet_oscillator.h ****     formant_frequency_ = 0.0f;
 122              		.loc 3 52 5 is_stmt 1 view .LVU32
  52:mi/plaits/dsp/oscillator/grainlet_oscillator.h ****     formant_frequency_ = 0.0f;
 123              		.loc 3 52 24 is_stmt 0 view .LVU33
 124 001a 8363     		str	r3, [r0, #56]	@ float
  53:mi/plaits/dsp/oscillator/grainlet_oscillator.h ****     carrier_shape_ = 0.0f;
 125              		.loc 3 53 5 is_stmt 1 view .LVU34
  53:mi/plaits/dsp/oscillator/grainlet_oscillator.h ****     carrier_shape_ = 0.0f;
 126              		.loc 3 53 24 is_stmt 0 view .LVU35
 127 001c C363     		str	r3, [r0, #60]	@ float
  54:mi/plaits/dsp/oscillator/grainlet_oscillator.h ****     carrier_bleed_ = 0.0f;
 128              		.loc 3 54 5 is_stmt 1 view .LVU36
  54:mi/plaits/dsp/oscillator/grainlet_oscillator.h ****     carrier_bleed_ = 0.0f;
 129              		.loc 3 54 20 is_stmt 0 view .LVU37
 130 001e 0364     		str	r3, [r0, #64]	@ float
 131              		.loc 3 55 5 is_stmt 1 view .LVU38
 132              		.loc 3 55 20 is_stmt 0 view .LVU39
 133 0020 4364     		str	r3, [r0, #68]	@ float
 134              	.LVL5:
 135              		.loc 3 55 20 view .LVU40
 136              	.LBE195:
 137              	.LBE194:
  41:mi/plaits/dsp/engine/grain_engine.cpp ****   // vosim_oscillator_.Init();
  42:mi/plaits/dsp/engine/grain_engine.cpp ****   z_oscillator_.Init();
 138              		.loc 2 42 3 is_stmt 1 view .LVU41
 139              	.LBB196:
 140              	.LBI196:
 141              		.file 5 "mi/plaits/dsp/oscillator/z_oscillator.h"
   1:mi/plaits/dsp/oscillator/z_oscillator.h **** // Copyright 2016 Emilie Gillet.
   2:mi/plaits/dsp/oscillator/z_oscillator.h **** //
   3:mi/plaits/dsp/oscillator/z_oscillator.h **** // Author: Emilie Gillet (emilie.o.gillet@gmail.com)
   4:mi/plaits/dsp/oscillator/z_oscillator.h **** //
   5:mi/plaits/dsp/oscillator/z_oscillator.h **** // Permission is hereby granted, free of charge, to any person obtaining a copy
   6:mi/plaits/dsp/oscillator/z_oscillator.h **** // of this software and associated documentation files (the "Software"), to deal
   7:mi/plaits/dsp/oscillator/z_oscillator.h **** // in the Software without restriction, including without limitation the rights
   8:mi/plaits/dsp/oscillator/z_oscillator.h **** // to use, copy, modify, merge, publish, distribute, sublicense, and/or sell
   9:mi/plaits/dsp/oscillator/z_oscillator.h **** // copies of the Software, and to permit persons to whom the Software is
  10:mi/plaits/dsp/oscillator/z_oscillator.h **** // furnished to do so, subject to the following conditions:
  11:mi/plaits/dsp/oscillator/z_oscillator.h **** // 
  12:mi/plaits/dsp/oscillator/z_oscillator.h **** // The above copyright notice and this permission notice shall be included in
  13:mi/plaits/dsp/oscillator/z_oscillator.h **** // all copies or substantial portions of the Software.
  14:mi/plaits/dsp/oscillator/z_oscillator.h **** // 
  15:mi/plaits/dsp/oscillator/z_oscillator.h **** // THE SOFTWARE IS PROVIDED "AS IS", WITHOUT WARRANTY OF ANY KIND, EXPRESS OR
  16:mi/plaits/dsp/oscillator/z_oscillator.h **** // IMPLIED, INCLUDING BUT NOT LIMITED TO THE WARRANTIES OF MERCHANTABILITY,
  17:mi/plaits/dsp/oscillator/z_oscillator.h **** // FITNESS FOR A PARTICULAR PURPOSE AND NONINFRINGEMENT. IN NO EVENT SHALL THE
  18:mi/plaits/dsp/oscillator/z_oscillator.h **** // AUTHORS OR COPYRIGHT HOLDERS BE LIABLE FOR ANY CLAIM, DAMAGES OR OTHER
ARM GAS  /var/folders/9k/zk1mgrrd7wg4__6zvxvr9w8m0000gn/T//cc9Z2LKb.s 			page 9


  19:mi/plaits/dsp/oscillator/z_oscillator.h **** // LIABILITY, WHETHER IN AN ACTION OF CONTRACT, TORT OR OTHERWISE, ARISING FROM,
  20:mi/plaits/dsp/oscillator/z_oscillator.h **** // OUT OF OR IN CONNECTION WITH THE SOFTWARE OR THE USE OR OTHER DEALINGS IN
  21:mi/plaits/dsp/oscillator/z_oscillator.h **** // THE SOFTWARE.
  22:mi/plaits/dsp/oscillator/z_oscillator.h **** // 
  23:mi/plaits/dsp/oscillator/z_oscillator.h **** // See http://creativecommons.org/licenses/MIT/ for more information.
  24:mi/plaits/dsp/oscillator/z_oscillator.h **** //
  25:mi/plaits/dsp/oscillator/z_oscillator.h **** // -----------------------------------------------------------------------------
  26:mi/plaits/dsp/oscillator/z_oscillator.h **** //
  27:mi/plaits/dsp/oscillator/z_oscillator.h **** // Sinewave multiplied by and sync'ed to a carrier.
  28:mi/plaits/dsp/oscillator/z_oscillator.h **** 
  29:mi/plaits/dsp/oscillator/z_oscillator.h **** #ifndef PLAITS_DSP_OSCILLATOR_Z_OSCILLATOR_H_
  30:mi/plaits/dsp/oscillator/z_oscillator.h **** #define PLAITS_DSP_OSCILLATOR_Z_OSCILLATOR_H_
  31:mi/plaits/dsp/oscillator/z_oscillator.h **** 
  32:mi/plaits/dsp/oscillator/z_oscillator.h **** #include <algorithm>
  33:mi/plaits/dsp/oscillator/z_oscillator.h **** 
  34:mi/plaits/dsp/oscillator/z_oscillator.h **** #include "stmlib/dsp/dsp.h"
  35:mi/plaits/dsp/oscillator/z_oscillator.h **** #include "stmlib/dsp/parameter_interpolator.h"
  36:mi/plaits/dsp/oscillator/z_oscillator.h **** #include "stmlib/dsp/polyblep.h"
  37:mi/plaits/dsp/oscillator/z_oscillator.h **** 
  38:mi/plaits/dsp/oscillator/z_oscillator.h **** #include "plaits/dsp/oscillator/sine_oscillator.h"
  39:mi/plaits/dsp/oscillator/z_oscillator.h **** 
  40:mi/plaits/dsp/oscillator/z_oscillator.h **** namespace plaits {
  41:mi/plaits/dsp/oscillator/z_oscillator.h **** 
  42:mi/plaits/dsp/oscillator/z_oscillator.h **** class ZOscillator {
  43:mi/plaits/dsp/oscillator/z_oscillator.h ****  public:
  44:mi/plaits/dsp/oscillator/z_oscillator.h ****   ZOscillator() { }
  45:mi/plaits/dsp/oscillator/z_oscillator.h ****   ~ZOscillator() { }
  46:mi/plaits/dsp/oscillator/z_oscillator.h **** 
  47:mi/plaits/dsp/oscillator/z_oscillator.h ****   void Init() {
 142              		.loc 5 47 8 view .LVU42
 143              	.LBB197:
  48:mi/plaits/dsp/oscillator/z_oscillator.h ****     carrier_phase_ = 0.0f;
 144              		.loc 5 48 5 view .LVU43
 145              		.loc 5 48 20 is_stmt 0 view .LVU44
 146 0022 8364     		str	r3, [r0, #72]	@ float
  49:mi/plaits/dsp/oscillator/z_oscillator.h ****     discontinuity_phase_ = 0.0f;
 147              		.loc 5 49 5 is_stmt 1 view .LVU45
 148              		.loc 5 49 26 is_stmt 0 view .LVU46
 149 0024 C364     		str	r3, [r0, #76]	@ float
  50:mi/plaits/dsp/oscillator/z_oscillator.h ****     formant_phase_ = 0.0f;
 150              		.loc 5 50 5 is_stmt 1 view .LVU47
 151              		.loc 5 50 20 is_stmt 0 view .LVU48
 152 0026 0365     		str	r3, [r0, #80]	@ float
  51:mi/plaits/dsp/oscillator/z_oscillator.h ****     next_sample_ = 0.0f;
 153              		.loc 5 51 5 is_stmt 1 view .LVU49
 154              		.loc 5 51 18 is_stmt 0 view .LVU50
 155 0028 4365     		str	r3, [r0, #84]	@ float
  52:mi/plaits/dsp/oscillator/z_oscillator.h ****   
  53:mi/plaits/dsp/oscillator/z_oscillator.h ****     carrier_frequency_ = 0.0f;
 156              		.loc 5 53 5 is_stmt 1 view .LVU51
 157              		.loc 5 53 24 is_stmt 0 view .LVU52
 158 002a 8365     		str	r3, [r0, #88]	@ float
  54:mi/plaits/dsp/oscillator/z_oscillator.h ****     formant_frequency_ = 0.0f;
 159              		.loc 5 54 5 is_stmt 1 view .LVU53
 160              		.loc 5 54 24 is_stmt 0 view .LVU54
 161 002c C365     		str	r3, [r0, #92]	@ float
  55:mi/plaits/dsp/oscillator/z_oscillator.h ****     carrier_shape_ = 0.0f;
ARM GAS  /var/folders/9k/zk1mgrrd7wg4__6zvxvr9w8m0000gn/T//cc9Z2LKb.s 			page 10


 162              		.loc 5 55 5 is_stmt 1 view .LVU55
 163              		.loc 5 55 20 is_stmt 0 view .LVU56
 164 002e 0366     		str	r3, [r0, #96]	@ float
  56:mi/plaits/dsp/oscillator/z_oscillator.h ****     mode_ = 0.0f;
 165              		.loc 5 56 5 is_stmt 1 view .LVU57
 166              		.loc 5 56 11 is_stmt 0 view .LVU58
 167 0030 4366     		str	r3, [r0, #100]	@ float
 168              	.LVL6:
 169              		.loc 5 56 11 view .LVU59
 170              	.LBE197:
 171              	.LBE196:
  43:mi/plaits/dsp/engine/grain_engine.cpp ****   dc_blocker_[0].Init();
 172              		.loc 2 43 3 is_stmt 1 view .LVU60
 173              	.LBB198:
 174              	.LBI186:
  97:mi/stmlib/dsp/filter.h ****     set_f<FREQUENCY_DIRTY>(0.01f);
 175              		.loc 4 97 8 view .LVU61
 176              	.LBE198:
  98:mi/stmlib/dsp/filter.h ****     Reset();
 177              		.loc 4 98 5 view .LVU62
 178              	.LBB199:
 179              	.LBB190:
 180              	.LBI187:
 139:mi/stmlib/dsp/filter.h ****     g_ = tan<approximation>(f);
 181              		.loc 4 139 15 view .LVU63
 182              	.LBB189:
 140:mi/stmlib/dsp/filter.h ****     gi_ = 1.0f / (1.0f + g_);
 183              		.loc 4 140 8 is_stmt 0 view .LVU64
 184 0032 8166     		str	r1, [r0, #104]	@ float
 185              		.loc 4 141 9 view .LVU65
 186 0034 C266     		str	r2, [r0, #108]	@ float
 187              	.LVL7:
 188              		.loc 4 141 9 view .LVU66
 189              	.LBE189:
 190              	.LBE190:
 191              	.LBE199:
  99:mi/stmlib/dsp/filter.h ****   }
 192              		.loc 4 99 5 is_stmt 1 view .LVU67
 193              	.LBB200:
 194              	.LBB191:
 195              	.LBI191:
 102:mi/stmlib/dsp/filter.h ****     state_ = 0.0f;
 196              		.loc 4 102 8 view .LVU68
 197              	.LBB192:
 103:mi/stmlib/dsp/filter.h ****   }
 198              		.loc 4 103 5 view .LVU69
 103:mi/stmlib/dsp/filter.h ****   }
 199              		.loc 4 103 12 is_stmt 0 view .LVU70
 200 0036 0367     		str	r3, [r0, #112]	@ float
 201              	.LVL8:
 103:mi/stmlib/dsp/filter.h ****   }
 202              		.loc 4 103 12 view .LVU71
 203              	.LBE192:
 204              	.LBE191:
 205              	.LBE200:
  44:mi/plaits/dsp/engine/grain_engine.cpp ****   dc_blocker_[1].Init();
 206              		.loc 2 44 3 is_stmt 1 view .LVU72
ARM GAS  /var/folders/9k/zk1mgrrd7wg4__6zvxvr9w8m0000gn/T//cc9Z2LKb.s 			page 11


 207              	.LBB201:
 208              	.LBI201:
  97:mi/stmlib/dsp/filter.h ****     set_f<FREQUENCY_DIRTY>(0.01f);
 209              		.loc 4 97 8 view .LVU73
 210              	.LBE201:
  98:mi/stmlib/dsp/filter.h ****     Reset();
 211              		.loc 4 98 5 view .LVU74
 212              	.LBB206:
 213              	.LBB202:
 214              	.LBI202:
 139:mi/stmlib/dsp/filter.h ****     g_ = tan<approximation>(f);
 215              		.loc 4 139 15 view .LVU75
 216              	.LBB203:
 140:mi/stmlib/dsp/filter.h ****     gi_ = 1.0f / (1.0f + g_);
 217              		.loc 4 140 8 is_stmt 0 view .LVU76
 218 0038 4167     		str	r1, [r0, #116]	@ float
 219              		.loc 4 141 9 view .LVU77
 220 003a 8267     		str	r2, [r0, #120]	@ float
 221              	.LVL9:
 222              		.loc 4 141 9 view .LVU78
 223              	.LBE203:
 224              	.LBE202:
 225              	.LBE206:
  99:mi/stmlib/dsp/filter.h ****   }
 226              		.loc 4 99 5 is_stmt 1 view .LVU79
 227              	.LBB207:
 228              	.LBB204:
 229              	.LBI204:
 102:mi/stmlib/dsp/filter.h ****     state_ = 0.0f;
 230              		.loc 4 102 8 view .LVU80
 231              	.LBB205:
 103:mi/stmlib/dsp/filter.h ****   }
 232              		.loc 4 103 5 view .LVU81
 103:mi/stmlib/dsp/filter.h ****   }
 233              		.loc 4 103 12 is_stmt 0 view .LVU82
 234 003c C367     		str	r3, [r0, #124]	@ float
 235              	.LVL10:
 103:mi/stmlib/dsp/filter.h ****   }
 236              		.loc 4 103 12 view .LVU83
 237              	.LBE205:
 238              	.LBE204:
 239              	.LBE207:
  45:mi/plaits/dsp/engine/grain_engine.cpp **** }
 240              		.loc 2 45 1 view .LVU84
 241 003e 7047     		bx	lr
 242              	.L5:
 243              		.align	2
 244              	.L4:
 245 0040 22BA003D 		.word	1023457826
 246 0044 2033783F 		.word	1064842016
 247              		.cfi_endproc
 248              	.LFE1617:
 250              		.section	.text._ZN6plaits11GrainEngine5ResetEv,"ax",%progbits
 251              		.align	1
 252              		.p2align 2,,3
 253              		.global	_ZN6plaits11GrainEngine5ResetEv
 254              		.syntax unified
ARM GAS  /var/folders/9k/zk1mgrrd7wg4__6zvxvr9w8m0000gn/T//cc9Z2LKb.s 			page 12


 255              		.thumb
 256              		.thumb_func
 258              	_ZN6plaits11GrainEngine5ResetEv:
 259              	.LVL11:
 260              	.LFB1618:
  46:mi/plaits/dsp/engine/grain_engine.cpp **** 
  47:mi/plaits/dsp/engine/grain_engine.cpp **** void GrainEngine::Reset() {
 261              		.loc 2 47 27 is_stmt 1 view -0
 262              		.cfi_startproc
 263              		@ args = 0, pretend = 0, frame = 0
 264              		@ frame_needed = 0, uses_anonymous_args = 0
 265              		@ link register save eliminated.
  48:mi/plaits/dsp/engine/grain_engine.cpp ****   
  49:mi/plaits/dsp/engine/grain_engine.cpp **** }
 266              		.loc 2 49 1 is_stmt 0 view .LVU86
 267 0000 7047     		bx	lr
 268              		.cfi_endproc
 269              	.LFE1618:
 271 0002 00BF     		.section	.text._ZN6plaits11ZOscillator1ZEfffff.isra.0,"axG",%progbits,_ZN6plaits11ZOscillator6Rend
 272              		.align	1
 273              		.p2align 2,,3
 274              		.syntax unified
 275              		.thumb
 276              		.thumb_func
 278              	_ZN6plaits11ZOscillator1ZEfffff.isra.0:
 279              	.LVL12:
 280              	.LFB1635:
  57:mi/plaits/dsp/oscillator/z_oscillator.h ****   }
  58:mi/plaits/dsp/oscillator/z_oscillator.h ****   
  59:mi/plaits/dsp/oscillator/z_oscillator.h ****   void Render(
  60:mi/plaits/dsp/oscillator/z_oscillator.h ****       float carrier_frequency,
  61:mi/plaits/dsp/oscillator/z_oscillator.h ****       float formant_frequency,
  62:mi/plaits/dsp/oscillator/z_oscillator.h ****       float carrier_shape,
  63:mi/plaits/dsp/oscillator/z_oscillator.h ****       float mode,
  64:mi/plaits/dsp/oscillator/z_oscillator.h ****       float* out,
  65:mi/plaits/dsp/oscillator/z_oscillator.h ****       size_t size) {
  66:mi/plaits/dsp/oscillator/z_oscillator.h ****     if (carrier_frequency >= kMaxFrequency * 0.5f) {
  67:mi/plaits/dsp/oscillator/z_oscillator.h ****       carrier_frequency = kMaxFrequency * 0.5f;
  68:mi/plaits/dsp/oscillator/z_oscillator.h ****     }
  69:mi/plaits/dsp/oscillator/z_oscillator.h ****     if (formant_frequency >= kMaxFrequency) {
  70:mi/plaits/dsp/oscillator/z_oscillator.h ****       formant_frequency = kMaxFrequency;
  71:mi/plaits/dsp/oscillator/z_oscillator.h ****     }
  72:mi/plaits/dsp/oscillator/z_oscillator.h ****     
  73:mi/plaits/dsp/oscillator/z_oscillator.h ****     stmlib::ParameterInterpolator carrier_frequency_modulation(
  74:mi/plaits/dsp/oscillator/z_oscillator.h ****         &carrier_frequency_,
  75:mi/plaits/dsp/oscillator/z_oscillator.h ****         carrier_frequency,
  76:mi/plaits/dsp/oscillator/z_oscillator.h ****         size);
  77:mi/plaits/dsp/oscillator/z_oscillator.h ****     stmlib::ParameterInterpolator formant_frequency_modulation(
  78:mi/plaits/dsp/oscillator/z_oscillator.h ****         &formant_frequency_,
  79:mi/plaits/dsp/oscillator/z_oscillator.h ****         formant_frequency,
  80:mi/plaits/dsp/oscillator/z_oscillator.h ****         size);
  81:mi/plaits/dsp/oscillator/z_oscillator.h ****     stmlib::ParameterInterpolator carrier_shape_modulation(
  82:mi/plaits/dsp/oscillator/z_oscillator.h ****         &carrier_shape_,
  83:mi/plaits/dsp/oscillator/z_oscillator.h ****         carrier_shape,
  84:mi/plaits/dsp/oscillator/z_oscillator.h ****         size);
  85:mi/plaits/dsp/oscillator/z_oscillator.h ****     stmlib::ParameterInterpolator mode_modulation(
  86:mi/plaits/dsp/oscillator/z_oscillator.h ****         &mode_,
ARM GAS  /var/folders/9k/zk1mgrrd7wg4__6zvxvr9w8m0000gn/T//cc9Z2LKb.s 			page 13


  87:mi/plaits/dsp/oscillator/z_oscillator.h ****         mode,
  88:mi/plaits/dsp/oscillator/z_oscillator.h ****         size);
  89:mi/plaits/dsp/oscillator/z_oscillator.h **** 
  90:mi/plaits/dsp/oscillator/z_oscillator.h ****     float next_sample = next_sample_;
  91:mi/plaits/dsp/oscillator/z_oscillator.h ****     
  92:mi/plaits/dsp/oscillator/z_oscillator.h ****     while (size--) {
  93:mi/plaits/dsp/oscillator/z_oscillator.h ****       bool reset = false;
  94:mi/plaits/dsp/oscillator/z_oscillator.h ****       float reset_time = 0.0f;
  95:mi/plaits/dsp/oscillator/z_oscillator.h **** 
  96:mi/plaits/dsp/oscillator/z_oscillator.h ****       float this_sample = next_sample;
  97:mi/plaits/dsp/oscillator/z_oscillator.h ****       next_sample = 0.0f;
  98:mi/plaits/dsp/oscillator/z_oscillator.h ****     
  99:mi/plaits/dsp/oscillator/z_oscillator.h ****       const float f0 = carrier_frequency_modulation.Next();
 100:mi/plaits/dsp/oscillator/z_oscillator.h ****       const float f1 = formant_frequency_modulation.Next();
 101:mi/plaits/dsp/oscillator/z_oscillator.h ****     
 102:mi/plaits/dsp/oscillator/z_oscillator.h ****       discontinuity_phase_ += 2.0f * f0;
 103:mi/plaits/dsp/oscillator/z_oscillator.h ****       carrier_phase_ += f0;
 104:mi/plaits/dsp/oscillator/z_oscillator.h ****       reset = discontinuity_phase_ >= 1.0f;
 105:mi/plaits/dsp/oscillator/z_oscillator.h ****       
 106:mi/plaits/dsp/oscillator/z_oscillator.h ****       if (reset) {
 107:mi/plaits/dsp/oscillator/z_oscillator.h ****         discontinuity_phase_ -= 1.0f;
 108:mi/plaits/dsp/oscillator/z_oscillator.h ****         reset_time = discontinuity_phase_ / (2.0f * f0);
 109:mi/plaits/dsp/oscillator/z_oscillator.h ****         
 110:mi/plaits/dsp/oscillator/z_oscillator.h ****         float carrier_phase_before = carrier_phase_ >= 1.0f ? 1.0f : 0.5f;
 111:mi/plaits/dsp/oscillator/z_oscillator.h ****         float carrier_phase_after = carrier_phase_ >= 1.0f ? 0.0f : 0.5f;
 112:mi/plaits/dsp/oscillator/z_oscillator.h ****         float before = Z(
 113:mi/plaits/dsp/oscillator/z_oscillator.h ****             carrier_phase_before,
 114:mi/plaits/dsp/oscillator/z_oscillator.h ****             1.0f,
 115:mi/plaits/dsp/oscillator/z_oscillator.h ****             formant_phase_ + (1.0f - reset_time) * f1,
 116:mi/plaits/dsp/oscillator/z_oscillator.h ****             carrier_shape_modulation.subsample(1.0f - reset_time),
 117:mi/plaits/dsp/oscillator/z_oscillator.h ****             mode_modulation.subsample(1.0f - reset_time));
 118:mi/plaits/dsp/oscillator/z_oscillator.h **** 
 119:mi/plaits/dsp/oscillator/z_oscillator.h ****         float after = Z(
 120:mi/plaits/dsp/oscillator/z_oscillator.h ****             carrier_phase_after,
 121:mi/plaits/dsp/oscillator/z_oscillator.h ****             0.0f,
 122:mi/plaits/dsp/oscillator/z_oscillator.h ****             0.0f,
 123:mi/plaits/dsp/oscillator/z_oscillator.h ****             carrier_shape_modulation.subsample(1.0f),
 124:mi/plaits/dsp/oscillator/z_oscillator.h ****             mode_modulation.subsample(1.0f));
 125:mi/plaits/dsp/oscillator/z_oscillator.h **** 
 126:mi/plaits/dsp/oscillator/z_oscillator.h ****         float discontinuity = after - before;
 127:mi/plaits/dsp/oscillator/z_oscillator.h ****         this_sample += discontinuity * stmlib::ThisBlepSample(reset_time);
 128:mi/plaits/dsp/oscillator/z_oscillator.h ****         next_sample += discontinuity * stmlib::NextBlepSample(reset_time);
 129:mi/plaits/dsp/oscillator/z_oscillator.h ****         formant_phase_ = reset_time * f1;
 130:mi/plaits/dsp/oscillator/z_oscillator.h ****         
 131:mi/plaits/dsp/oscillator/z_oscillator.h ****         if (carrier_phase_ > 1.0f) {
 132:mi/plaits/dsp/oscillator/z_oscillator.h ****           carrier_phase_ = discontinuity_phase_ * 0.5f;
 133:mi/plaits/dsp/oscillator/z_oscillator.h ****         }
 134:mi/plaits/dsp/oscillator/z_oscillator.h ****       } else {
 135:mi/plaits/dsp/oscillator/z_oscillator.h ****         formant_phase_ += f1;
 136:mi/plaits/dsp/oscillator/z_oscillator.h ****         if (formant_phase_ >= 1.0f) {
 137:mi/plaits/dsp/oscillator/z_oscillator.h ****           formant_phase_ -= 1.0f;
 138:mi/plaits/dsp/oscillator/z_oscillator.h ****         }
 139:mi/plaits/dsp/oscillator/z_oscillator.h ****       }
 140:mi/plaits/dsp/oscillator/z_oscillator.h ****       
 141:mi/plaits/dsp/oscillator/z_oscillator.h ****       if (carrier_phase_ >= 1.0f) {
 142:mi/plaits/dsp/oscillator/z_oscillator.h ****         carrier_phase_ -= 1.0f;
 143:mi/plaits/dsp/oscillator/z_oscillator.h ****       }
ARM GAS  /var/folders/9k/zk1mgrrd7wg4__6zvxvr9w8m0000gn/T//cc9Z2LKb.s 			page 14


 144:mi/plaits/dsp/oscillator/z_oscillator.h ****       
 145:mi/plaits/dsp/oscillator/z_oscillator.h ****       next_sample += Z(
 146:mi/plaits/dsp/oscillator/z_oscillator.h ****           carrier_phase_,
 147:mi/plaits/dsp/oscillator/z_oscillator.h ****           discontinuity_phase_,
 148:mi/plaits/dsp/oscillator/z_oscillator.h ****           formant_phase_,
 149:mi/plaits/dsp/oscillator/z_oscillator.h ****           carrier_shape_modulation.Next(),
 150:mi/plaits/dsp/oscillator/z_oscillator.h ****           mode_modulation.Next());
 151:mi/plaits/dsp/oscillator/z_oscillator.h ****       *out++ = this_sample;
 152:mi/plaits/dsp/oscillator/z_oscillator.h ****     }
 153:mi/plaits/dsp/oscillator/z_oscillator.h ****     
 154:mi/plaits/dsp/oscillator/z_oscillator.h ****     next_sample_ = next_sample;
 155:mi/plaits/dsp/oscillator/z_oscillator.h ****   }
 156:mi/plaits/dsp/oscillator/z_oscillator.h **** 
 157:mi/plaits/dsp/oscillator/z_oscillator.h ****  private:
 158:mi/plaits/dsp/oscillator/z_oscillator.h ****   inline float Z(float c, float d, float f, float shape, float mode) {
 281              		.loc 5 158 16 is_stmt 1 view -0
 282              		.cfi_startproc
 283              		@ args = 0, pretend = 0, frame = 0
 284              		@ frame_needed = 0, uses_anonymous_args = 0
 285              		@ link register save eliminated.
 159:mi/plaits/dsp/oscillator/z_oscillator.h ****     float ramp_down = 0.5f * (1.0f + Sine(0.5f * d + 0.25f));
 286              		.loc 5 159 5 view .LVU88
 287              		.loc 5 159 42 is_stmt 0 view .LVU89
 288 0000 B5EE007A 		vmov.f32	s14, #2.5e-1
 289              	.LBB228:
 290              	.LBB229:
 291              	.LBB230:
 292              	.LBB231:
 293              		.file 6 "mi/stmlib/dsp/dsp.h"
   1:mi/stmlib/dsp/dsp.h **** // Copyright 2012 Emilie Gillet.
   2:mi/stmlib/dsp/dsp.h **** //
   3:mi/stmlib/dsp/dsp.h **** // Author: Emilie Gillet (emilie.o.gillet@gmail.com)
   4:mi/stmlib/dsp/dsp.h **** //
   5:mi/stmlib/dsp/dsp.h **** // Permission is hereby granted, free of charge, to any person obtaining a copy
   6:mi/stmlib/dsp/dsp.h **** // of this software and associated documentation files (the "Software"), to deal
   7:mi/stmlib/dsp/dsp.h **** // in the Software without restriction, including without limitation the rights
   8:mi/stmlib/dsp/dsp.h **** // to use, copy, modify, merge, publish, distribute, sublicense, and/or sell
   9:mi/stmlib/dsp/dsp.h **** // copies of the Software, and to permit persons to whom the Software is
  10:mi/stmlib/dsp/dsp.h **** // furnished to do so, subject to the following conditions:
  11:mi/stmlib/dsp/dsp.h **** // 
  12:mi/stmlib/dsp/dsp.h **** // The above copyright notice and this permission notice shall be included in
  13:mi/stmlib/dsp/dsp.h **** // all copies or substantial portions of the Software.
  14:mi/stmlib/dsp/dsp.h **** // 
  15:mi/stmlib/dsp/dsp.h **** // THE SOFTWARE IS PROVIDED "AS IS", WITHOUT WARRANTY OF ANY KIND, EXPRESS OR
  16:mi/stmlib/dsp/dsp.h **** // IMPLIED, INCLUDING BUT NOT LIMITED TO THE WARRANTIES OF MERCHANTABILITY,
  17:mi/stmlib/dsp/dsp.h **** // FITNESS FOR A PARTICULAR PURPOSE AND NONINFRINGEMENT. IN NO EVENT SHALL THE
  18:mi/stmlib/dsp/dsp.h **** // AUTHORS OR COPYRIGHT HOLDERS BE LIABLE FOR ANY CLAIM, DAMAGES OR OTHER
  19:mi/stmlib/dsp/dsp.h **** // LIABILITY, WHETHER IN AN ACTION OF CONTRACT, TORT OR OTHERWISE, ARISING FROM,
  20:mi/stmlib/dsp/dsp.h **** // OUT OF OR IN CONNECTION WITH THE SOFTWARE OR THE USE OR OTHER DEALINGS IN
  21:mi/stmlib/dsp/dsp.h **** // THE SOFTWARE.
  22:mi/stmlib/dsp/dsp.h **** // 
  23:mi/stmlib/dsp/dsp.h **** // See http://creativecommons.org/licenses/MIT/ for more information.
  24:mi/stmlib/dsp/dsp.h **** //
  25:mi/stmlib/dsp/dsp.h **** // -----------------------------------------------------------------------------
  26:mi/stmlib/dsp/dsp.h **** //
  27:mi/stmlib/dsp/dsp.h **** // DSP utility routines.
  28:mi/stmlib/dsp/dsp.h **** 
ARM GAS  /var/folders/9k/zk1mgrrd7wg4__6zvxvr9w8m0000gn/T//cc9Z2LKb.s 			page 15


  29:mi/stmlib/dsp/dsp.h **** #ifndef STMLIB_UTILS_DSP_DSP_H_
  30:mi/stmlib/dsp/dsp.h **** #define STMLIB_UTILS_DSP_DSP_H_
  31:mi/stmlib/dsp/dsp.h **** 
  32:mi/stmlib/dsp/dsp.h **** #include "stmlib/stmlib.h"
  33:mi/stmlib/dsp/dsp.h **** 
  34:mi/stmlib/dsp/dsp.h **** #include <cmath>
  35:mi/stmlib/dsp/dsp.h **** #include <math.h>
  36:mi/stmlib/dsp/dsp.h **** 
  37:mi/stmlib/dsp/dsp.h **** namespace stmlib {
  38:mi/stmlib/dsp/dsp.h **** 
  39:mi/stmlib/dsp/dsp.h **** #define MAKE_INTEGRAL_FRACTIONAL(x) \
  40:mi/stmlib/dsp/dsp.h ****   int32_t x ## _integral = static_cast<int32_t>(x); \
  41:mi/stmlib/dsp/dsp.h ****   float x ## _fractional = x - static_cast<float>(x ## _integral);
  42:mi/stmlib/dsp/dsp.h **** 
  43:mi/stmlib/dsp/dsp.h **** inline float Interpolate(const float* table, float index, float size) {
  44:mi/stmlib/dsp/dsp.h ****   index *= size;
  45:mi/stmlib/dsp/dsp.h ****   MAKE_INTEGRAL_FRACTIONAL(index)
  46:mi/stmlib/dsp/dsp.h ****   float a = table[index_integral];
  47:mi/stmlib/dsp/dsp.h ****   float b = table[index_integral + 1];
  48:mi/stmlib/dsp/dsp.h ****   return a + (b - a) * index_fractional;
  49:mi/stmlib/dsp/dsp.h **** }
  50:mi/stmlib/dsp/dsp.h **** 
  51:mi/stmlib/dsp/dsp.h **** 
  52:mi/stmlib/dsp/dsp.h **** inline float InterpolateHermite(const float* table, float index, float size) {
  53:mi/stmlib/dsp/dsp.h ****   index *= size;
  54:mi/stmlib/dsp/dsp.h ****   MAKE_INTEGRAL_FRACTIONAL(index)
  55:mi/stmlib/dsp/dsp.h ****   const float xm1 = table[index_integral - 1];
  56:mi/stmlib/dsp/dsp.h ****   const float x0 = table[index_integral + 0];
  57:mi/stmlib/dsp/dsp.h ****   const float x1 = table[index_integral + 1];
  58:mi/stmlib/dsp/dsp.h ****   const float x2 = table[index_integral + 2];
  59:mi/stmlib/dsp/dsp.h ****   const float c = (x1 - xm1) * 0.5f;
  60:mi/stmlib/dsp/dsp.h ****   const float v = x0 - x1;
  61:mi/stmlib/dsp/dsp.h ****   const float w = c + v;
  62:mi/stmlib/dsp/dsp.h ****   const float a = w + v + (x2 - x0) * 0.5f;
  63:mi/stmlib/dsp/dsp.h ****   const float b_neg = w + a;
  64:mi/stmlib/dsp/dsp.h ****   const float f = index_fractional;
  65:mi/stmlib/dsp/dsp.h ****   return (((a * f) - b_neg) * f + c) * f + x0;
  66:mi/stmlib/dsp/dsp.h **** }
  67:mi/stmlib/dsp/dsp.h **** 
  68:mi/stmlib/dsp/dsp.h **** inline float InterpolateWrap(const float* table, float index, float size) {
  69:mi/stmlib/dsp/dsp.h ****   index -= static_cast<float>(static_cast<int32_t>(index));
  70:mi/stmlib/dsp/dsp.h ****   index *= size;
 294              		.loc 6 70 9 view .LVU90
 295 0004 DFED7C3A 		vldr.32	s7, .L25
 296              	.LBE231:
 297              	.LBE230:
 298              	.LBE229:
 299              	.LBE228:
 300              		.loc 5 159 42 view .LVU91
 301 0008 F6EE004A 		vmov.f32	s9, #5.0e-1
 302              	.LBB244:
 303              	.LBB240:
 304              	.LBB236:
 305              	.LBB232:
  71:mi/stmlib/dsp/dsp.h ****   MAKE_INTEGRAL_FRACTIONAL(index)
  72:mi/stmlib/dsp/dsp.h ****   float a = table[index_integral];
 306              		.loc 6 72 9 view .LVU92
ARM GAS  /var/folders/9k/zk1mgrrd7wg4__6zvxvr9w8m0000gn/T//cc9Z2LKb.s 			page 16


 307 000c 7B4B     		ldr	r3, .L25+4
 308              	.LBE232:
 309              	.LBE236:
 310              	.LBE240:
 311              	.LBE244:
 160:mi/plaits/dsp/oscillator/z_oscillator.h ****     
 161:mi/plaits/dsp/oscillator/z_oscillator.h ****     float offset;
 162:mi/plaits/dsp/oscillator/z_oscillator.h ****     float phase_shift;
 163:mi/plaits/dsp/oscillator/z_oscillator.h ****     if (mode < 0.333f) {
 312              		.loc 5 163 5 view .LVU93
 313 000e 9FED7C4A 		vldr.32	s8, .L25+8
 159:mi/plaits/dsp/oscillator/z_oscillator.h ****     
 314              		.loc 5 159 36 view .LVU94
 315 0012 F7EE007A 		vmov.f32	s15, #1.0e+0
 159:mi/plaits/dsp/oscillator/z_oscillator.h ****     
 316              		.loc 5 159 42 view .LVU95
 317 0016 F0EE476A 		vmov.f32	s13, s14
 318              	.LBB245:
 319              	.LBB241:
 320              	.LBB237:
 321              	.LBB233:
  73:mi/stmlib/dsp/dsp.h ****   float b = table[index_integral + 1];
 322              		.loc 6 73 9 view .LVU96
 323 001a 1A1D     		adds	r2, r3, #4
 324              	.LBE233:
 325              	.LBE237:
 326              	.LBE241:
 327              	.LBE245:
 328              		.loc 5 163 5 view .LVU97
 329 001c B4EEC42A 		vcmpe.f32	s4, s8
 159:mi/plaits/dsp/oscillator/z_oscillator.h ****     
 330              		.loc 5 159 42 view .LVU98
 331 0020 E0EEA46A 		vfma.f32	s13, s1, s9
 332              	.LVL13:
 333              	.LBB246:
 334              	.LBI228:
 335              		.file 7 "mi/plaits/dsp/oscillator/sine_oscillator.h"
   1:mi/plaits/dsp/oscillator/sine_oscillator.h **** // Copyright 2016 Emilie Gillet.
   2:mi/plaits/dsp/oscillator/sine_oscillator.h **** //
   3:mi/plaits/dsp/oscillator/sine_oscillator.h **** // Author: Emilie Gillet (emilie.o.gillet@gmail.com)
   4:mi/plaits/dsp/oscillator/sine_oscillator.h **** //
   5:mi/plaits/dsp/oscillator/sine_oscillator.h **** // Permission is hereby granted, free of charge, to any person obtaining a copy
   6:mi/plaits/dsp/oscillator/sine_oscillator.h **** // of this software and associated documentation files (the "Software"), to deal
   7:mi/plaits/dsp/oscillator/sine_oscillator.h **** // in the Software without restriction, including without limitation the rights
   8:mi/plaits/dsp/oscillator/sine_oscillator.h **** // to use, copy, modify, merge, publish, distribute, sublicense, and/or sell
   9:mi/plaits/dsp/oscillator/sine_oscillator.h **** // copies of the Software, and to permit persons to whom the Software is
  10:mi/plaits/dsp/oscillator/sine_oscillator.h **** // furnished to do so, subject to the following conditions:
  11:mi/plaits/dsp/oscillator/sine_oscillator.h **** // 
  12:mi/plaits/dsp/oscillator/sine_oscillator.h **** // The above copyright notice and this permission notice shall be included in
  13:mi/plaits/dsp/oscillator/sine_oscillator.h **** // all copies or substantial portions of the Software.
  14:mi/plaits/dsp/oscillator/sine_oscillator.h **** // 
  15:mi/plaits/dsp/oscillator/sine_oscillator.h **** // THE SOFTWARE IS PROVIDED "AS IS", WITHOUT WARRANTY OF ANY KIND, EXPRESS OR
  16:mi/plaits/dsp/oscillator/sine_oscillator.h **** // IMPLIED, INCLUDING BUT NOT LIMITED TO THE WARRANTIES OF MERCHANTABILITY,
  17:mi/plaits/dsp/oscillator/sine_oscillator.h **** // FITNESS FOR A PARTICULAR PURPOSE AND NONINFRINGEMENT. IN NO EVENT SHALL THE
  18:mi/plaits/dsp/oscillator/sine_oscillator.h **** // AUTHORS OR COPYRIGHT HOLDERS BE LIABLE FOR ANY CLAIM, DAMAGES OR OTHER
  19:mi/plaits/dsp/oscillator/sine_oscillator.h **** // LIABILITY, WHETHER IN AN ACTION OF CONTRACT, TORT OR OTHERWISE, ARISING FROM,
  20:mi/plaits/dsp/oscillator/sine_oscillator.h **** // OUT OF OR IN CONNECTION WITH THE SOFTWARE OR THE USE OR OTHER DEALINGS IN
ARM GAS  /var/folders/9k/zk1mgrrd7wg4__6zvxvr9w8m0000gn/T//cc9Z2LKb.s 			page 17


  21:mi/plaits/dsp/oscillator/sine_oscillator.h **** // THE SOFTWARE.
  22:mi/plaits/dsp/oscillator/sine_oscillator.h **** // 
  23:mi/plaits/dsp/oscillator/sine_oscillator.h **** // See http://creativecommons.org/licenses/MIT/ for more information.
  24:mi/plaits/dsp/oscillator/sine_oscillator.h **** //
  25:mi/plaits/dsp/oscillator/sine_oscillator.h **** // -----------------------------------------------------------------------------
  26:mi/plaits/dsp/oscillator/sine_oscillator.h **** //
  27:mi/plaits/dsp/oscillator/sine_oscillator.h **** // Simple sine oscillator (wavetable) + fast sine oscillator (magic circle).
  28:mi/plaits/dsp/oscillator/sine_oscillator.h **** //
  29:mi/plaits/dsp/oscillator/sine_oscillator.h **** // The fast implementation might glitch a bit under heavy modulations of the
  30:mi/plaits/dsp/oscillator/sine_oscillator.h **** // frequency.
  31:mi/plaits/dsp/oscillator/sine_oscillator.h **** 
  32:mi/plaits/dsp/oscillator/sine_oscillator.h **** #ifndef PLAITS_DSP_OSCILLATOR_SINE_OSCILLATOR_H_
  33:mi/plaits/dsp/oscillator/sine_oscillator.h **** #define PLAITS_DSP_OSCILLATOR_SINE_OSCILLATOR_H_
  34:mi/plaits/dsp/oscillator/sine_oscillator.h **** 
  35:mi/plaits/dsp/oscillator/sine_oscillator.h **** #include "stmlib/dsp/dsp.h"
  36:mi/plaits/dsp/oscillator/sine_oscillator.h **** #include "stmlib/dsp/parameter_interpolator.h"
  37:mi/plaits/dsp/oscillator/sine_oscillator.h **** #include "stmlib/dsp/rsqrt.h"
  38:mi/plaits/dsp/oscillator/sine_oscillator.h **** 
  39:mi/plaits/dsp/oscillator/sine_oscillator.h **** #include "plaits/resources.h"
  40:mi/plaits/dsp/oscillator/sine_oscillator.h **** 
  41:mi/plaits/dsp/oscillator/sine_oscillator.h **** namespace plaits {
  42:mi/plaits/dsp/oscillator/sine_oscillator.h ****   
  43:mi/plaits/dsp/oscillator/sine_oscillator.h **** const float kSineLUTSize = 512.0f;
  44:mi/plaits/dsp/oscillator/sine_oscillator.h **** const size_t kSineLUTQuadrature = 128;
  45:mi/plaits/dsp/oscillator/sine_oscillator.h **** const size_t kSineLUTBits = 9;
  46:mi/plaits/dsp/oscillator/sine_oscillator.h **** 
  47:mi/plaits/dsp/oscillator/sine_oscillator.h **** // Safe for phase >= 0.0f, will wrap.
  48:mi/plaits/dsp/oscillator/sine_oscillator.h **** inline float Sine(float phase) {
 336              		.loc 7 48 14 is_stmt 1 view .LVU99
 337              	.LBB242:
  49:mi/plaits/dsp/oscillator/sine_oscillator.h ****   return stmlib::InterpolateWrap(lut_sine, phase, kSineLUTSize);
 338              		.loc 7 49 3 view .LVU100
 339              	.LBB238:
 340              	.LBI230:
  68:mi/stmlib/dsp/dsp.h ****   index -= static_cast<float>(static_cast<int32_t>(index));
 341              		.loc 6 68 14 view .LVU101
 342              	.LBB234:
  69:mi/stmlib/dsp/dsp.h ****   index *= size;
 343              		.loc 6 69 3 view .LVU102
 344              	.LBE234:
 345              	.LBE238:
 346              	.LBE242:
 347              	.LBE246:
 348              		.loc 5 163 5 is_stmt 0 view .LVU103
 349 0024 F1EE10FA 		vmrs	APSR_nzcv, FPSCR
 350              	.LBB247:
 351              	.LBB243:
 352              	.LBB239:
 353              	.LBB235:
  69:mi/stmlib/dsp/dsp.h ****   index *= size;
 354              		.loc 6 69 31 view .LVU104
 355 0028 FDEEE65A 		vcvt.s32.f32	s11, s13
  69:mi/stmlib/dsp/dsp.h ****   index *= size;
 356              		.loc 6 69 12 view .LVU105
 357 002c F8EEE55A 		vcvt.f32.s32	s11, s11
  69:mi/stmlib/dsp/dsp.h ****   index *= size;
 358              		.loc 6 69 9 view .LVU106
ARM GAS  /var/folders/9k/zk1mgrrd7wg4__6zvxvr9w8m0000gn/T//cc9Z2LKb.s 			page 18


 359 0030 76EEE56A 		vsub.f32	s13, s13, s11
 360              	.LVL14:
  70:mi/stmlib/dsp/dsp.h ****   MAKE_INTEGRAL_FRACTIONAL(index)
 361              		.loc 6 70 3 is_stmt 1 view .LVU107
  70:mi/stmlib/dsp/dsp.h ****   MAKE_INTEGRAL_FRACTIONAL(index)
 362              		.loc 6 70 9 is_stmt 0 view .LVU108
 363 0034 66EEA36A 		vmul.f32	s13, s13, s7
 364              	.LVL15:
  71:mi/stmlib/dsp/dsp.h ****   float a = table[index_integral];
 365              		.loc 6 71 3 is_stmt 1 view .LVU109
 366 0038 BDEEE66A 		vcvt.s32.f32	s12, s13
 367 003c 16EE101A 		vmov	r1, s12	@ int
 368              	.LVL16:
  71:mi/stmlib/dsp/dsp.h ****   float a = table[index_integral];
 369              		.loc 6 71 3 view .LVU110
  72:mi/stmlib/dsp/dsp.h ****   float b = table[index_integral + 1];
 370              		.loc 6 72 3 view .LVU111
  71:mi/stmlib/dsp/dsp.h ****   float a = table[index_integral];
 371              		.loc 6 71 3 is_stmt 0 view .LVU112
 372 0040 F8EEC65A 		vcvt.f32.s32	s11, s12
  72:mi/stmlib/dsp/dsp.h ****   float b = table[index_integral + 1];
 373              		.loc 6 72 9 view .LVU113
 374 0044 03EB810C 		add	ip, r3, r1, lsl #2
 375              		.loc 6 73 9 view .LVU114
 376 0048 02EB8100 		add	r0, r2, r1, lsl #2
  71:mi/stmlib/dsp/dsp.h ****   float a = table[index_integral];
 377              		.loc 6 71 3 view .LVU115
 378 004c 76EEE56A 		vsub.f32	s13, s13, s11
 379              	.LVL17:
  72:mi/stmlib/dsp/dsp.h ****   float b = table[index_integral + 1];
 380              		.loc 6 72 9 view .LVU116
 381 0050 9CED006A 		vldr.32	s12, [ip]
 382              	.LVL18:
 383              		.loc 6 73 3 is_stmt 1 view .LVU117
  74:mi/stmlib/dsp/dsp.h ****   return a + (b - a) * index_fractional;
 384              		.loc 6 74 3 view .LVU118
 385              		.loc 6 74 17 is_stmt 0 view .LVU119
 386 0054 90ED005A 		vldr.32	s10, [r0]
 387 0058 75EE465A 		vsub.f32	s11, s10, s12
 388              		.loc 6 74 24 view .LVU120
 389 005c A6EEA56A 		vfma.f32	s12, s13, s11
 390              	.LVL19:
 391              		.loc 6 74 24 view .LVU121
 392              	.LBE235:
 393              	.LBE239:
 394              	.LBE243:
 395              	.LBE247:
 159:mi/plaits/dsp/oscillator/z_oscillator.h ****     
 396              		.loc 5 159 36 view .LVU122
 397 0060 36EE276A 		vadd.f32	s12, s12, s15
 159:mi/plaits/dsp/oscillator/z_oscillator.h ****     
 398              		.loc 5 159 60 view .LVU123
 399 0064 26EE246A 		vmul.f32	s12, s12, s9
 400              	.LVL20:
 161:mi/plaits/dsp/oscillator/z_oscillator.h ****     float phase_shift;
 401              		.loc 5 161 5 is_stmt 1 view .LVU124
 162:mi/plaits/dsp/oscillator/z_oscillator.h ****     if (mode < 0.333f) {
ARM GAS  /var/folders/9k/zk1mgrrd7wg4__6zvxvr9w8m0000gn/T//cc9Z2LKb.s 			page 19


 402              		.loc 5 162 5 view .LVU125
 403              		.loc 5 163 5 view .LVU126
 404 0068 64D5     		bpl	.L22
 164:mi/plaits/dsp/oscillator/z_oscillator.h ****       offset = 1.0f;
 405              		.loc 5 164 7 view .LVU127
 406              	.LVL21:
 165:mi/plaits/dsp/oscillator/z_oscillator.h ****       phase_shift = 0.25f + mode * 1.50f;
 407              		.loc 5 165 7 view .LVU128
 408              		.loc 5 165 19 is_stmt 0 view .LVU129
 409 006a F7EE085A 		vmov.f32	s11, #1.5e+0
 164:mi/plaits/dsp/oscillator/z_oscillator.h ****       offset = 1.0f;
 410              		.loc 5 164 14 view .LVU130
 411 006e F0EE676A 		vmov.f32	s13, s15
 412              		.loc 5 165 19 view .LVU131
 413 0072 A2EE257A 		vfma.f32	s14, s4, s11
 414              	.LVL22:
 415              	.L10:
 166:mi/plaits/dsp/oscillator/z_oscillator.h ****     } else if (mode < 0.666f) {
 167:mi/plaits/dsp/oscillator/z_oscillator.h ****       phase_shift = 0.7495f - (mode - 0.33f) * 0.75f;
 168:mi/plaits/dsp/oscillator/z_oscillator.h ****       offset = -Sine(phase_shift);
 169:mi/plaits/dsp/oscillator/z_oscillator.h ****     } else {
 170:mi/plaits/dsp/oscillator/z_oscillator.h ****       phase_shift = 0.7495f - (mode - 0.33f) * 0.75f;
 171:mi/plaits/dsp/oscillator/z_oscillator.h ****       offset = 0.001f;
 172:mi/plaits/dsp/oscillator/z_oscillator.h ****     }
 173:mi/plaits/dsp/oscillator/z_oscillator.h ****     
 174:mi/plaits/dsp/oscillator/z_oscillator.h ****     float discontinuity = Sine(f + phase_shift);
 416              		.loc 5 174 5 is_stmt 1 view .LVU132
 417              		.loc 5 174 31 is_stmt 0 view .LVU133
 418 0076 77EE017A 		vadd.f32	s15, s14, s2
 419              	.LVL23:
 420              	.LBB248:
 421              	.LBI248:
  48:mi/plaits/dsp/oscillator/sine_oscillator.h ****   return stmlib::InterpolateWrap(lut_sine, phase, kSineLUTSize);
 422              		.loc 7 48 14 is_stmt 1 view .LVU134
 423              	.LBB249:
 424              		.loc 7 49 3 view .LVU135
 425              	.LBB250:
 426              	.LBI250:
  68:mi/stmlib/dsp/dsp.h ****   index -= static_cast<float>(static_cast<int32_t>(index));
 427              		.loc 6 68 14 view .LVU136
 428              	.LBB251:
  69:mi/stmlib/dsp/dsp.h ****   index *= size;
 429              		.loc 6 69 3 view .LVU137
  70:mi/stmlib/dsp/dsp.h ****   MAKE_INTEGRAL_FRACTIONAL(index)
 430              		.loc 6 70 9 is_stmt 0 view .LVU138
 431 007a 9FED5F4A 		vldr.32	s8, .L25
 432              	.LBE251:
 433              	.LBE250:
 434              	.LBE249:
 435              	.LBE248:
 175:mi/plaits/dsp/oscillator/z_oscillator.h ****     float contour;
 176:mi/plaits/dsp/oscillator/z_oscillator.h ****     if (shape < 0.5f) {
 436              		.loc 5 176 5 view .LVU139
 437 007e B6EE005A 		vmov.f32	s10, #5.0e-1
 438              	.LBB261:
 439              	.LBB258:
 440              	.LBB255:
ARM GAS  /var/folders/9k/zk1mgrrd7wg4__6zvxvr9w8m0000gn/T//cc9Z2LKb.s 			page 20


 441              	.LBB252:
  69:mi/stmlib/dsp/dsp.h ****   index *= size;
 442              		.loc 6 69 31 view .LVU140
 443 0082 BDEEE71A 		vcvt.s32.f32	s2, s15
 444              	.LVL24:
  69:mi/stmlib/dsp/dsp.h ****   index *= size;
 445              		.loc 6 69 31 view .LVU141
 446              	.LBE252:
 447              	.LBE255:
 448              	.LBE258:
 449              	.LBE261:
 450              		.loc 5 176 5 view .LVU142
 451 0086 F4EEC51A 		vcmpe.f32	s3, s10
 452              	.LBB262:
 453              	.LBB259:
 454              	.LBB256:
 455              	.LBB253:
  69:mi/stmlib/dsp/dsp.h ****   index *= size;
 456              		.loc 6 69 12 view .LVU143
 457 008a B8EEC11A 		vcvt.f32.s32	s2, s2
 458              	.LBE253:
 459              	.LBE256:
 460              	.LBE259:
 461              	.LBE262:
 462              		.loc 5 176 5 view .LVU144
 463 008e F1EE10FA 		vmrs	APSR_nzcv, FPSCR
 464              	.LBB263:
 465              	.LBB260:
 466              	.LBB257:
 467              	.LBB254:
  69:mi/stmlib/dsp/dsp.h ****   index *= size;
 468              		.loc 6 69 9 view .LVU145
 469 0092 77EEC17A 		vsub.f32	s15, s15, s2
 470              	.LVL25:
  70:mi/stmlib/dsp/dsp.h ****   MAKE_INTEGRAL_FRACTIONAL(index)
 471              		.loc 6 70 3 is_stmt 1 view .LVU146
  70:mi/stmlib/dsp/dsp.h ****   MAKE_INTEGRAL_FRACTIONAL(index)
 472              		.loc 6 70 9 is_stmt 0 view .LVU147
 473 0096 67EE847A 		vmul.f32	s15, s15, s8
 474              	.LVL26:
  71:mi/stmlib/dsp/dsp.h ****   float a = table[index_integral];
 475              		.loc 6 71 3 is_stmt 1 view .LVU148
 476 009a BDEEE77A 		vcvt.s32.f32	s14, s15
 477              	.LVL27:
  71:mi/stmlib/dsp/dsp.h ****   float a = table[index_integral];
 478              		.loc 6 71 3 is_stmt 0 view .LVU149
 479 009e 17EE101A 		vmov	r1, s14	@ int
 480              	.LVL28:
  71:mi/stmlib/dsp/dsp.h ****   float a = table[index_integral];
 481              		.loc 6 71 3 is_stmt 1 view .LVU150
  72:mi/stmlib/dsp/dsp.h ****   float b = table[index_integral + 1];
 482              		.loc 6 72 3 view .LVU151
  71:mi/stmlib/dsp/dsp.h ****   float a = table[index_integral];
 483              		.loc 6 71 3 is_stmt 0 view .LVU152
 484 00a2 B8EEC77A 		vcvt.f32.s32	s14, s14
  72:mi/stmlib/dsp/dsp.h ****   float b = table[index_integral + 1];
 485              		.loc 6 72 9 view .LVU153
ARM GAS  /var/folders/9k/zk1mgrrd7wg4__6zvxvr9w8m0000gn/T//cc9Z2LKb.s 			page 21


 486 00a6 03EB810C 		add	ip, r3, r1, lsl #2
  73:mi/stmlib/dsp/dsp.h ****   return a + (b - a) * index_fractional;
 487              		.loc 6 73 9 view .LVU154
 488 00aa 02EB8100 		add	r0, r2, r1, lsl #2
  71:mi/stmlib/dsp/dsp.h ****   float a = table[index_integral];
 489              		.loc 6 71 3 view .LVU155
 490 00ae 77EEC77A 		vsub.f32	s15, s15, s14
 491              	.LVL29:
  72:mi/stmlib/dsp/dsp.h ****   float b = table[index_integral + 1];
 492              		.loc 6 72 9 view .LVU156
 493 00b2 DCED004A 		vldr.32	s9, [ip]
 494              	.LVL30:
  73:mi/stmlib/dsp/dsp.h ****   return a + (b - a) * index_fractional;
 495              		.loc 6 73 3 is_stmt 1 view .LVU157
 496              		.loc 6 74 3 view .LVU158
 497              		.loc 6 74 17 is_stmt 0 view .LVU159
 498 00b6 D0ED005A 		vldr.32	s11, [r0]
 499 00ba 35EEE47A 		vsub.f32	s14, s11, s9
 500              		.loc 6 74 24 view .LVU160
 501 00be E7EE874A 		vfma.f32	s9, s15, s14
 502              	.LVL31:
 503              		.loc 6 74 24 view .LVU161
 504              	.LBE254:
 505              	.LBE257:
 506              	.LBE260:
 507              	.LBE263:
 175:mi/plaits/dsp/oscillator/z_oscillator.h ****     if (shape < 0.5f) {
 508              		.loc 5 175 5 is_stmt 1 view .LVU162
 509              		.loc 5 176 5 view .LVU163
 510 00c2 67D5     		bpl	.L24
 177:mi/plaits/dsp/oscillator/z_oscillator.h ****       shape *= 2.0f;
 511              		.loc 5 177 7 view .LVU164
 178:mi/plaits/dsp/oscillator/z_oscillator.h ****       if (c >= 0.5f) {
 179:mi/plaits/dsp/oscillator/z_oscillator.h ****         ramp_down *= shape;
 180:mi/plaits/dsp/oscillator/z_oscillator.h ****       }
 181:mi/plaits/dsp/oscillator/z_oscillator.h ****       contour = 1.0f + (Sine(c + 0.25f) - 1.0f) * shape;
 512              		.loc 5 181 29 is_stmt 0 view .LVU165
 513 00c4 F5EE007A 		vmov.f32	s15, #2.5e-1
 514              	.LBB264:
 515              	.LBB265:
 516              	.LBB266:
 517              	.LBB267:
  70:mi/stmlib/dsp/dsp.h ****   MAKE_INTEGRAL_FRACTIONAL(index)
 518              		.loc 6 70 9 view .LVU166
 519 00c8 DFED4B5A 		vldr.32	s11, .L25
 520              	.LBE267:
 521              	.LBE266:
 522              	.LBE265:
 523              	.LBE264:
 178:mi/plaits/dsp/oscillator/z_oscillator.h ****       if (c >= 0.5f) {
 524              		.loc 5 178 7 view .LVU167
 525 00cc B4EEC50A 		vcmpe.f32	s0, s10
 177:mi/plaits/dsp/oscillator/z_oscillator.h ****       shape *= 2.0f;
 526              		.loc 5 177 13 view .LVU168
 527 00d0 71EEA11A 		vadd.f32	s3, s3, s3
 528              	.LVL32:
 178:mi/plaits/dsp/oscillator/z_oscillator.h ****       if (c >= 0.5f) {
ARM GAS  /var/folders/9k/zk1mgrrd7wg4__6zvxvr9w8m0000gn/T//cc9Z2LKb.s 			page 22


 529              		.loc 5 178 7 is_stmt 1 view .LVU169
 530              		.loc 5 181 29 is_stmt 0 view .LVU170
 531 00d4 30EE270A 		vadd.f32	s0, s0, s15
 532              	.LVL33:
 178:mi/plaits/dsp/oscillator/z_oscillator.h ****       if (c >= 0.5f) {
 533              		.loc 5 178 7 view .LVU171
 534 00d8 F1EE10FA 		vmrs	APSR_nzcv, FPSCR
 179:mi/plaits/dsp/oscillator/z_oscillator.h ****       }
 535              		.loc 5 179 9 is_stmt 1 view .LVU172
 536              		.loc 5 181 41 is_stmt 0 view .LVU173
 537 00dc B7EE007A 		vmov.f32	s14, #1.0e+0
 538              	.LBB274:
 539              	.LBB272:
 540              	.LBB270:
 541              	.LBB268:
  69:mi/stmlib/dsp/dsp.h ****   index *= size;
 542              		.loc 6 69 31 view .LVU174
 543 00e0 FDEEC07A 		vcvt.s32.f32	s15, s0
 544              	.LBE268:
 545              	.LBE270:
 546              	.LBE272:
 547              	.LBE274:
 179:mi/plaits/dsp/oscillator/z_oscillator.h ****       }
 548              		.loc 5 179 19 view .LVU175
 549 00e4 A8BF     		it	ge
 550 00e6 26EE216A 		vmulge.f32	s12, s12, s3
 551              	.LVL34:
 552              		.loc 5 181 7 is_stmt 1 view .LVU176
 553              	.LBB275:
 554              	.LBI264:
  48:mi/plaits/dsp/oscillator/sine_oscillator.h ****   return stmlib::InterpolateWrap(lut_sine, phase, kSineLUTSize);
 555              		.loc 7 48 14 view .LVU177
 556              	.LBB273:
 557              		.loc 7 49 3 view .LVU178
 558              	.LBB271:
 559              	.LBI266:
  68:mi/stmlib/dsp/dsp.h ****   index -= static_cast<float>(static_cast<int32_t>(index));
 560              		.loc 6 68 14 view .LVU179
 561              	.LBB269:
  69:mi/stmlib/dsp/dsp.h ****   index *= size;
 562              		.loc 6 69 3 view .LVU180
  69:mi/stmlib/dsp/dsp.h ****   index *= size;
 563              		.loc 6 69 12 is_stmt 0 view .LVU181
 564 00ea F8EEE77A 		vcvt.f32.s32	s15, s15
  69:mi/stmlib/dsp/dsp.h ****   index *= size;
 565              		.loc 6 69 9 view .LVU182
 566 00ee 30EE670A 		vsub.f32	s0, s0, s15
 567              	.LVL35:
  70:mi/stmlib/dsp/dsp.h ****   MAKE_INTEGRAL_FRACTIONAL(index)
 568              		.loc 6 70 3 is_stmt 1 view .LVU183
  70:mi/stmlib/dsp/dsp.h ****   MAKE_INTEGRAL_FRACTIONAL(index)
 569              		.loc 6 70 9 is_stmt 0 view .LVU184
 570 00f2 60EE257A 		vmul.f32	s15, s0, s11
 571              	.LVL36:
  71:mi/stmlib/dsp/dsp.h ****   float a = table[index_integral];
 572              		.loc 6 71 3 is_stmt 1 view .LVU185
 573 00f6 FDEEE75A 		vcvt.s32.f32	s11, s15
ARM GAS  /var/folders/9k/zk1mgrrd7wg4__6zvxvr9w8m0000gn/T//cc9Z2LKb.s 			page 23


 574 00fa 15EE901A 		vmov	r1, s11	@ int
 575              	.LVL37:
  71:mi/stmlib/dsp/dsp.h ****   float a = table[index_integral];
 576              		.loc 6 71 3 view .LVU186
  72:mi/stmlib/dsp/dsp.h ****   float b = table[index_integral + 1];
 577              		.loc 6 72 3 view .LVU187
  71:mi/stmlib/dsp/dsp.h ****   float a = table[index_integral];
 578              		.loc 6 71 3 is_stmt 0 view .LVU188
 579 00fe B8EEE50A 		vcvt.f32.s32	s0, s11
  72:mi/stmlib/dsp/dsp.h ****   float b = table[index_integral + 1];
 580              		.loc 6 72 9 view .LVU189
 581 0102 03EB8103 		add	r3, r3, r1, lsl #2
  73:mi/stmlib/dsp/dsp.h ****   return a + (b - a) * index_fractional;
 582              		.loc 6 73 9 view .LVU190
 583 0106 02EB8102 		add	r2, r2, r1, lsl #2
  71:mi/stmlib/dsp/dsp.h ****   float a = table[index_integral];
 584              		.loc 6 71 3 view .LVU191
 585 010a 77EEC07A 		vsub.f32	s15, s15, s0
 586              	.LVL38:
  72:mi/stmlib/dsp/dsp.h ****   float b = table[index_integral + 1];
 587              		.loc 6 72 9 view .LVU192
 588 010e D3ED005A 		vldr.32	s11, [r3]
 589              	.LVL39:
  73:mi/stmlib/dsp/dsp.h ****   return a + (b - a) * index_fractional;
 590              		.loc 6 73 3 is_stmt 1 view .LVU193
 591              		.loc 6 74 3 view .LVU194
 592              		.loc 6 74 17 is_stmt 0 view .LVU195
 593 0112 92ED005A 		vldr.32	s10, [r2]
 594 0116 35EE655A 		vsub.f32	s10, s10, s11
 595              		.loc 6 74 24 view .LVU196
 596 011a E7EE855A 		vfma.f32	s11, s15, s10
 597              	.LVL40:
 598              		.loc 6 74 24 view .LVU197
 599              	.LBE269:
 600              	.LBE271:
 601              	.LBE273:
 602              	.LBE275:
 182:mi/plaits/dsp/oscillator/z_oscillator.h ****     } else {
 183:mi/plaits/dsp/oscillator/z_oscillator.h ****       contour = Sine(c + shape * 0.5f);
 184:mi/plaits/dsp/oscillator/z_oscillator.h ****     }
 185:mi/plaits/dsp/oscillator/z_oscillator.h ****     return (ramp_down * (offset + discontinuity) - offset) * contour;
 603              		.loc 5 185 33 view .LVU198
 604 011e 76EEA47A 		vadd.f32	s15, s13, s9
 605              		.loc 5 185 50 view .LVU199
 606 0122 D7EE866A 		vfnms.f32	s13, s15, s12
 607              	.LVL41:
 181:mi/plaits/dsp/oscillator/z_oscillator.h ****     } else {
 608              		.loc 5 181 41 view .LVU200
 609 0126 75EEC75A 		vsub.f32	s11, s11, s14
 181:mi/plaits/dsp/oscillator/z_oscillator.h ****     } else {
 610              		.loc 5 181 15 view .LVU201
 611 012a A1EEA57A 		vfma.f32	s14, s3, s11
 612              	.LVL42:
 613              		.loc 5 185 5 is_stmt 1 view .LVU202
 186:mi/plaits/dsp/oscillator/z_oscillator.h ****   }
 614              		.loc 5 186 3 is_stmt 0 view .LVU203
 615 012e 26EE870A 		vmul.f32	s0, s13, s14
ARM GAS  /var/folders/9k/zk1mgrrd7wg4__6zvxvr9w8m0000gn/T//cc9Z2LKb.s 			page 24


 616 0132 7047     		bx	lr
 617              	.LVL43:
 618              	.L22:
 166:mi/plaits/dsp/oscillator/z_oscillator.h ****       phase_shift = 0.7495f - (mode - 0.33f) * 0.75f;
 619              		.loc 5 166 12 is_stmt 1 view .LVU204
 620 0134 DFED337A 		vldr.32	s15, .L25+12
 621 0138 B4EEE72A 		vcmpe.f32	s4, s15
 622 013c F1EE10FA 		vmrs	APSR_nzcv, FPSCR
 623 0140 4DD5     		bpl	.L23
 167:mi/plaits/dsp/oscillator/z_oscillator.h ****       offset = -Sine(phase_shift);
 624              		.loc 5 167 7 view .LVU205
 167:mi/plaits/dsp/oscillator/z_oscillator.h ****       offset = -Sine(phase_shift);
 625              		.loc 5 167 37 is_stmt 0 view .LVU206
 626 0142 DFED317A 		vldr.32	s15, .L25+16
 167:mi/plaits/dsp/oscillator/z_oscillator.h ****       offset = -Sine(phase_shift);
 627              		.loc 5 167 19 view .LVU207
 628 0146 F6EE086A 		vmov.f32	s13, #7.5e-1
 629 014a 9FED307A 		vldr.32	s14, .L25+20
 167:mi/plaits/dsp/oscillator/z_oscillator.h ****       offset = -Sine(phase_shift);
 630              		.loc 5 167 37 view .LVU208
 631 014e 32EE672A 		vsub.f32	s4, s4, s15
 632              	.LVL44:
 167:mi/plaits/dsp/oscillator/z_oscillator.h ****       offset = -Sine(phase_shift);
 633              		.loc 5 167 19 view .LVU209
 634 0152 A2EE667A 		vfms.f32	s14, s4, s13
 635              	.LVL45:
 168:mi/plaits/dsp/oscillator/z_oscillator.h ****     } else {
 636              		.loc 5 168 7 is_stmt 1 view .LVU210
 637              	.LBB276:
 638              	.LBI276:
  48:mi/plaits/dsp/oscillator/sine_oscillator.h ****   return stmlib::InterpolateWrap(lut_sine, phase, kSineLUTSize);
 639              		.loc 7 48 14 view .LVU211
 640              	.LBB277:
 641              		.loc 7 49 3 view .LVU212
 642              	.LBB278:
 643              	.LBI278:
  68:mi/stmlib/dsp/dsp.h ****   index -= static_cast<float>(static_cast<int32_t>(index));
 644              		.loc 6 68 14 view .LVU213
 645              	.LBB279:
  69:mi/stmlib/dsp/dsp.h ****   index *= size;
 646              		.loc 6 69 3 view .LVU214
  69:mi/stmlib/dsp/dsp.h ****   index *= size;
 647              		.loc 6 69 31 is_stmt 0 view .LVU215
 648 0156 FDEEC75A 		vcvt.s32.f32	s11, s14
  69:mi/stmlib/dsp/dsp.h ****   index *= size;
 649              		.loc 6 69 12 view .LVU216
 650 015a F8EEE55A 		vcvt.f32.s32	s11, s11
  69:mi/stmlib/dsp/dsp.h ****   index *= size;
 651              		.loc 6 69 9 view .LVU217
 652 015e 77EE655A 		vsub.f32	s11, s14, s11
 653              	.LVL46:
  70:mi/stmlib/dsp/dsp.h ****   MAKE_INTEGRAL_FRACTIONAL(index)
 654              		.loc 6 70 3 is_stmt 1 view .LVU218
  70:mi/stmlib/dsp/dsp.h ****   MAKE_INTEGRAL_FRACTIONAL(index)
 655              		.loc 6 70 9 is_stmt 0 view .LVU219
 656 0162 65EEA35A 		vmul.f32	s11, s11, s7
 657              	.LVL47:
ARM GAS  /var/folders/9k/zk1mgrrd7wg4__6zvxvr9w8m0000gn/T//cc9Z2LKb.s 			page 25


  71:mi/stmlib/dsp/dsp.h ****   float a = table[index_integral];
 658              		.loc 6 71 3 is_stmt 1 view .LVU220
 659 0166 FDEEE57A 		vcvt.s32.f32	s15, s11
 660 016a 17EE901A 		vmov	r1, s15	@ int
 661              	.LVL48:
  71:mi/stmlib/dsp/dsp.h ****   float a = table[index_integral];
 662              		.loc 6 71 3 view .LVU221
  72:mi/stmlib/dsp/dsp.h ****   float b = table[index_integral + 1];
 663              		.loc 6 72 3 view .LVU222
  71:mi/stmlib/dsp/dsp.h ****   float a = table[index_integral];
 664              		.loc 6 71 3 is_stmt 0 view .LVU223
 665 016e F8EEE77A 		vcvt.f32.s32	s15, s15
  72:mi/stmlib/dsp/dsp.h ****   float b = table[index_integral + 1];
 666              		.loc 6 72 9 view .LVU224
 667 0172 03EB810C 		add	ip, r3, r1, lsl #2
  73:mi/stmlib/dsp/dsp.h ****   return a + (b - a) * index_fractional;
 668              		.loc 6 73 9 view .LVU225
 669 0176 02EB8100 		add	r0, r2, r1, lsl #2
  71:mi/stmlib/dsp/dsp.h ****   float a = table[index_integral];
 670              		.loc 6 71 3 view .LVU226
 671 017a 75EEE75A 		vsub.f32	s11, s11, s15
 672              	.LVL49:
  72:mi/stmlib/dsp/dsp.h ****   float b = table[index_integral + 1];
 673              		.loc 6 72 9 view .LVU227
 674 017e DCED006A 		vldr.32	s13, [ip]
 675              	.LVL50:
  73:mi/stmlib/dsp/dsp.h ****   return a + (b - a) * index_fractional;
 676              		.loc 6 73 3 is_stmt 1 view .LVU228
 677              		.loc 6 74 3 view .LVU229
 678              		.loc 6 74 17 is_stmt 0 view .LVU230
 679 0182 90ED005A 		vldr.32	s10, [r0]
 680 0186 75EE667A 		vsub.f32	s15, s10, s13
 681              		.loc 6 74 24 view .LVU231
 682 018a E5EEA76A 		vfma.f32	s13, s11, s15
 683              	.LVL51:
 684              		.loc 6 74 24 view .LVU232
 685              	.LBE279:
 686              	.LBE278:
 687              	.LBE277:
 688              	.LBE276:
 168:mi/plaits/dsp/oscillator/z_oscillator.h ****     } else {
 689              		.loc 5 168 14 view .LVU233
 690 018e F1EE666A 		vneg.f32	s13, s13
 691              	.LVL52:
 168:mi/plaits/dsp/oscillator/z_oscillator.h ****     } else {
 692              		.loc 5 168 14 view .LVU234
 693 0192 70E7     		b	.L10
 694              	.LVL53:
 695              	.L24:
 183:mi/plaits/dsp/oscillator/z_oscillator.h ****     }
 696              		.loc 5 183 7 is_stmt 1 view .LVU235
 183:mi/plaits/dsp/oscillator/z_oscillator.h ****     }
 697              		.loc 5 183 21 is_stmt 0 view .LVU236
 698 0194 A1EE850A 		vfma.f32	s0, s3, s10
 699              	.LVL54:
 700              	.LBB280:
 701              	.LBI280:
ARM GAS  /var/folders/9k/zk1mgrrd7wg4__6zvxvr9w8m0000gn/T//cc9Z2LKb.s 			page 26


  48:mi/plaits/dsp/oscillator/sine_oscillator.h ****   return stmlib::InterpolateWrap(lut_sine, phase, kSineLUTSize);
 702              		.loc 7 48 14 is_stmt 1 view .LVU237
 703              	.LBB281:
 704              		.loc 7 49 3 view .LVU238
 705              	.LBB282:
 706              	.LBI282:
  68:mi/stmlib/dsp/dsp.h ****   index -= static_cast<float>(static_cast<int32_t>(index));
 707              		.loc 6 68 14 view .LVU239
 708              	.LBB283:
  69:mi/stmlib/dsp/dsp.h ****   index *= size;
 709              		.loc 6 69 3 view .LVU240
  69:mi/stmlib/dsp/dsp.h ****   index *= size;
 710              		.loc 6 69 31 is_stmt 0 view .LVU241
 711 0198 FDEEC07A 		vcvt.s32.f32	s15, s0
  69:mi/stmlib/dsp/dsp.h ****   index *= size;
 712              		.loc 6 69 12 view .LVU242
 713 019c F8EEE77A 		vcvt.f32.s32	s15, s15
  69:mi/stmlib/dsp/dsp.h ****   index *= size;
 714              		.loc 6 69 9 view .LVU243
 715 01a0 30EE670A 		vsub.f32	s0, s0, s15
 716              	.LVL55:
  70:mi/stmlib/dsp/dsp.h ****   MAKE_INTEGRAL_FRACTIONAL(index)
 717              		.loc 6 70 3 is_stmt 1 view .LVU244
  70:mi/stmlib/dsp/dsp.h ****   MAKE_INTEGRAL_FRACTIONAL(index)
 718              		.loc 6 70 9 is_stmt 0 view .LVU245
 719 01a4 60EE047A 		vmul.f32	s15, s0, s8
 720              	.LVL56:
  71:mi/stmlib/dsp/dsp.h ****   float a = table[index_integral];
 721              		.loc 6 71 3 is_stmt 1 view .LVU246
 722 01a8 BDEEE77A 		vcvt.s32.f32	s14, s15
 723 01ac 17EE101A 		vmov	r1, s14	@ int
 724              	.LVL57:
  71:mi/stmlib/dsp/dsp.h ****   float a = table[index_integral];
 725              		.loc 6 71 3 view .LVU247
  72:mi/stmlib/dsp/dsp.h ****   float b = table[index_integral + 1];
 726              		.loc 6 72 3 view .LVU248
  71:mi/stmlib/dsp/dsp.h ****   float a = table[index_integral];
 727              		.loc 6 71 3 is_stmt 0 view .LVU249
 728 01b0 B8EEC70A 		vcvt.f32.s32	s0, s14
  72:mi/stmlib/dsp/dsp.h ****   float b = table[index_integral + 1];
 729              		.loc 6 72 9 view .LVU250
 730 01b4 03EB8103 		add	r3, r3, r1, lsl #2
  73:mi/stmlib/dsp/dsp.h ****   return a + (b - a) * index_fractional;
 731              		.loc 6 73 9 view .LVU251
 732 01b8 02EB8102 		add	r2, r2, r1, lsl #2
  71:mi/stmlib/dsp/dsp.h ****   float a = table[index_integral];
 733              		.loc 6 71 3 view .LVU252
 734 01bc 77EEC07A 		vsub.f32	s15, s15, s0
 735              	.LVL58:
  72:mi/stmlib/dsp/dsp.h ****   float b = table[index_integral + 1];
 736              		.loc 6 72 9 view .LVU253
 737 01c0 93ED007A 		vldr.32	s14, [r3]
 738              	.LVL59:
  73:mi/stmlib/dsp/dsp.h ****   return a + (b - a) * index_fractional;
 739              		.loc 6 73 3 is_stmt 1 view .LVU254
 740              		.loc 6 74 3 view .LVU255
 741              		.loc 6 74 17 is_stmt 0 view .LVU256
ARM GAS  /var/folders/9k/zk1mgrrd7wg4__6zvxvr9w8m0000gn/T//cc9Z2LKb.s 			page 27


 742 01c4 D2ED005A 		vldr.32	s11, [r2]
 743 01c8 75EEC75A 		vsub.f32	s11, s11, s14
 744              		.loc 6 74 24 view .LVU257
 745 01cc A7EEA57A 		vfma.f32	s14, s15, s11
 746              	.LVL60:
 747              		.loc 6 74 24 view .LVU258
 748              	.LBE283:
 749              	.LBE282:
 750              	.LBE281:
 751              	.LBE280:
 185:mi/plaits/dsp/oscillator/z_oscillator.h ****   }
 752              		.loc 5 185 5 is_stmt 1 view .LVU259
 185:mi/plaits/dsp/oscillator/z_oscillator.h ****   }
 753              		.loc 5 185 33 is_stmt 0 view .LVU260
 754 01d0 76EEA47A 		vadd.f32	s15, s13, s9
 185:mi/plaits/dsp/oscillator/z_oscillator.h ****   }
 755              		.loc 5 185 50 view .LVU261
 756 01d4 D7EE866A 		vfnms.f32	s13, s15, s12
 757              	.LVL61:
 758              		.loc 5 186 3 view .LVU262
 759 01d8 26EE870A 		vmul.f32	s0, s13, s14
 760 01dc 7047     		bx	lr
 761              	.LVL62:
 762              	.L23:
 170:mi/plaits/dsp/oscillator/z_oscillator.h ****       offset = 0.001f;
 763              		.loc 5 170 7 is_stmt 1 view .LVU263
 170:mi/plaits/dsp/oscillator/z_oscillator.h ****       offset = 0.001f;
 764              		.loc 5 170 37 is_stmt 0 view .LVU264
 765 01de DFED0A5A 		vldr.32	s11, .L25+16
 170:mi/plaits/dsp/oscillator/z_oscillator.h ****       offset = 0.001f;
 766              		.loc 5 170 19 view .LVU265
 767 01e2 F6EE087A 		vmov.f32	s15, #7.5e-1
 768 01e6 9FED097A 		vldr.32	s14, .L25+20
 170:mi/plaits/dsp/oscillator/z_oscillator.h ****       offset = 0.001f;
 769              		.loc 5 170 37 view .LVU266
 770 01ea 32EE652A 		vsub.f32	s4, s4, s11
 771              	.LVL63:
 171:mi/plaits/dsp/oscillator/z_oscillator.h ****     }
 772              		.loc 5 171 14 view .LVU267
 773 01ee DFED086A 		vldr.32	s13, .L25+24
 170:mi/plaits/dsp/oscillator/z_oscillator.h ****       offset = 0.001f;
 774              		.loc 5 170 19 view .LVU268
 775 01f2 A2EE677A 		vfms.f32	s14, s4, s15
 776              	.LVL64:
 171:mi/plaits/dsp/oscillator/z_oscillator.h ****     }
 777              		.loc 5 171 7 is_stmt 1 view .LVU269
 171:mi/plaits/dsp/oscillator/z_oscillator.h ****     }
 778              		.loc 5 171 7 is_stmt 0 view .LVU270
 779 01f6 3EE7     		b	.L10
 780              	.L26:
 781              		.align	2
 782              	.L25:
 783 01f8 00000044 		.word	1140850688
 784 01fc 00000000 		.word	_ZN6plaits8lut_sineE
 785 0200 FA7EAA3E 		.word	1051361018
 786 0204 FA7E2A3F 		.word	1059749626
 787 0208 C3F5A83E 		.word	1051260355
ARM GAS  /var/folders/9k/zk1mgrrd7wg4__6zvxvr9w8m0000gn/T//cc9Z2LKb.s 			page 28


 788 020c 3BDF3F3F 		.word	1061150523
 789 0210 6F12833A 		.word	981668463
 790              		.cfi_endproc
 791              	.LFE1635:
 793              		.section	.text._ZN6plaits18GrainletOscillator6RenderEffffPfj,"axG",%progbits,_ZN6plaits18GrainletO
 794              		.align	1
 795              		.p2align 2,,3
 796              		.weak	_ZN6plaits18GrainletOscillator6RenderEffffPfj
 797              		.syntax unified
 798              		.thumb
 799              		.thumb_func
 801              	_ZN6plaits18GrainletOscillator6RenderEffffPfj:
 802              	.LVL65:
 803              	.LFB1590:
  56:mi/plaits/dsp/oscillator/grainlet_oscillator.h ****   }
  57:mi/plaits/dsp/oscillator/grainlet_oscillator.h ****   
  58:mi/plaits/dsp/oscillator/grainlet_oscillator.h ****   void Render(
 804              		.loc 3 58 8 is_stmt 1 view -0
 805              		.cfi_startproc
 806              		@ args = 0, pretend = 0, frame = 0
 807              		@ frame_needed = 0, uses_anonymous_args = 0
  59:mi/plaits/dsp/oscillator/grainlet_oscillator.h ****       float carrier_frequency,
  60:mi/plaits/dsp/oscillator/grainlet_oscillator.h ****       float formant_frequency,
  61:mi/plaits/dsp/oscillator/grainlet_oscillator.h ****       float carrier_shape,
  62:mi/plaits/dsp/oscillator/grainlet_oscillator.h ****       float carrier_bleed,
  63:mi/plaits/dsp/oscillator/grainlet_oscillator.h ****       float* out,
  64:mi/plaits/dsp/oscillator/grainlet_oscillator.h ****       size_t size) {
  65:mi/plaits/dsp/oscillator/grainlet_oscillator.h ****     if (carrier_frequency >= kMaxFrequency * 0.5f) {
 808              		.loc 3 65 5 view .LVU272
 809 0000 F4EE006A 		vmov.f32	s13, #1.25e-1
 810              	.LBB372:
 811              	.LBB373:
 812              	.LBB374:
 813              		.file 8 "mi/stmlib/dsp/parameter_interpolator.h"
   1:mi/stmlib/dsp/parameter_interpolator.h **** // Copyright 2015 Emilie Gillet.
   2:mi/stmlib/dsp/parameter_interpolator.h **** //
   3:mi/stmlib/dsp/parameter_interpolator.h **** // Author: Emilie Gillet (emilie.o.gillet@gmail.com)
   4:mi/stmlib/dsp/parameter_interpolator.h **** //
   5:mi/stmlib/dsp/parameter_interpolator.h **** // Permission is hereby granted, free of charge, to any person obtaining a copy
   6:mi/stmlib/dsp/parameter_interpolator.h **** // of this software and associated documentation files (the "Software"), to deal
   7:mi/stmlib/dsp/parameter_interpolator.h **** // in the Software without restriction, including without limitation the rights
   8:mi/stmlib/dsp/parameter_interpolator.h **** // to use, copy, modify, merge, publish, distribute, sublicense, and/or sell
   9:mi/stmlib/dsp/parameter_interpolator.h **** // copies of the Software, and to permit persons to whom the Software is
  10:mi/stmlib/dsp/parameter_interpolator.h **** // furnished to do so, subject to the following conditions:
  11:mi/stmlib/dsp/parameter_interpolator.h **** // 
  12:mi/stmlib/dsp/parameter_interpolator.h **** // The above copyright notice and this permission notice shall be included in
  13:mi/stmlib/dsp/parameter_interpolator.h **** // all copies or substantial portions of the Software.
  14:mi/stmlib/dsp/parameter_interpolator.h **** // 
  15:mi/stmlib/dsp/parameter_interpolator.h **** // THE SOFTWARE IS PROVIDED "AS IS", WITHOUT WARRANTY OF ANY KIND, EXPRESS OR
  16:mi/stmlib/dsp/parameter_interpolator.h **** // IMPLIED, INCLUDING BUT NOT LIMITED TO THE WARRANTIES OF MERCHANTABILITY,
  17:mi/stmlib/dsp/parameter_interpolator.h **** // FITNESS FOR A PARTICULAR PURPOSE AND NONINFRINGEMENT. IN NO EVENT SHALL THE
  18:mi/stmlib/dsp/parameter_interpolator.h **** // AUTHORS OR COPYRIGHT HOLDERS BE LIABLE FOR ANY CLAIM, DAMAGES OR OTHER
  19:mi/stmlib/dsp/parameter_interpolator.h **** // LIABILITY, WHETHER IN AN ACTION OF CONTRACT, TORT OR OTHERWISE, ARISING FROM,
  20:mi/stmlib/dsp/parameter_interpolator.h **** // OUT OF OR IN CONNECTION WITH THE SOFTWARE OR THE USE OR OTHER DEALINGS IN
  21:mi/stmlib/dsp/parameter_interpolator.h **** // THE SOFTWARE.
  22:mi/stmlib/dsp/parameter_interpolator.h **** // 
  23:mi/stmlib/dsp/parameter_interpolator.h **** // See http://creativecommons.org/licenses/MIT/ for more information.
ARM GAS  /var/folders/9k/zk1mgrrd7wg4__6zvxvr9w8m0000gn/T//cc9Z2LKb.s 			page 29


  24:mi/stmlib/dsp/parameter_interpolator.h **** //
  25:mi/stmlib/dsp/parameter_interpolator.h **** // -----------------------------------------------------------------------------
  26:mi/stmlib/dsp/parameter_interpolator.h **** //
  27:mi/stmlib/dsp/parameter_interpolator.h **** // Linear interpolation of parameters in rendering loops.
  28:mi/stmlib/dsp/parameter_interpolator.h **** 
  29:mi/stmlib/dsp/parameter_interpolator.h **** #ifndef STMLIB_DSP_PARAMETER_INTERPOLATOR_H_
  30:mi/stmlib/dsp/parameter_interpolator.h **** #define STMLIB_DSP_PARAMETER_INTERPOLATOR_H_
  31:mi/stmlib/dsp/parameter_interpolator.h **** 
  32:mi/stmlib/dsp/parameter_interpolator.h **** #include "stmlib/stmlib.h"
  33:mi/stmlib/dsp/parameter_interpolator.h **** 
  34:mi/stmlib/dsp/parameter_interpolator.h **** namespace stmlib {
  35:mi/stmlib/dsp/parameter_interpolator.h **** 
  36:mi/stmlib/dsp/parameter_interpolator.h **** class ParameterInterpolator {
  37:mi/stmlib/dsp/parameter_interpolator.h ****  public:
  38:mi/stmlib/dsp/parameter_interpolator.h ****   ParameterInterpolator() { }
  39:mi/stmlib/dsp/parameter_interpolator.h ****   ParameterInterpolator(float* state, float new_value, size_t size) {
  40:mi/stmlib/dsp/parameter_interpolator.h ****     Init(state, new_value, size);
  41:mi/stmlib/dsp/parameter_interpolator.h ****   }
  42:mi/stmlib/dsp/parameter_interpolator.h **** 
  43:mi/stmlib/dsp/parameter_interpolator.h ****   ParameterInterpolator(float* state, float new_value, float step) {
  44:mi/stmlib/dsp/parameter_interpolator.h ****     state_ = state;
  45:mi/stmlib/dsp/parameter_interpolator.h ****     value_ = *state;
  46:mi/stmlib/dsp/parameter_interpolator.h ****     increment_ = (new_value - *state) * step;
  47:mi/stmlib/dsp/parameter_interpolator.h ****   }
  48:mi/stmlib/dsp/parameter_interpolator.h **** 
  49:mi/stmlib/dsp/parameter_interpolator.h ****   ~ParameterInterpolator() {
  50:mi/stmlib/dsp/parameter_interpolator.h ****     *state_ = value_;
  51:mi/stmlib/dsp/parameter_interpolator.h ****   }
  52:mi/stmlib/dsp/parameter_interpolator.h ****   
  53:mi/stmlib/dsp/parameter_interpolator.h ****   inline void Init(float* state, float new_value, size_t size) {
  54:mi/stmlib/dsp/parameter_interpolator.h ****     state_ = state;
  55:mi/stmlib/dsp/parameter_interpolator.h ****     value_ = *state;
 814              		.loc 8 55 14 is_stmt 0 view .LVU273
 815 0004 D0ED035A 		vldr.32	s11, [r0, #12]
 816              	.LBE374:
 817              	.LBE373:
 818              	.LBE372:
  66:mi/plaits/dsp/oscillator/grainlet_oscillator.h ****       carrier_frequency = kMaxFrequency * 0.5f;
  67:mi/plaits/dsp/oscillator/grainlet_oscillator.h ****     }
  68:mi/plaits/dsp/oscillator/grainlet_oscillator.h ****     if (formant_frequency >= kMaxFrequency) {
 819              		.loc 3 68 5 view .LVU274
 820 0008 F5EE007A 		vmov.f32	s15, #2.5e-1
 821              	.LBB385:
 822              	.LBB386:
 823              	.LBB387:
 824              		.loc 8 55 14 view .LVU275
 825 000c 90ED045A 		vldr.32	s10, [r0, #16]
 826              	.LBE387:
 827              	.LBE386:
 828              	.LBE385:
 829              	.LBB392:
 830              	.LBB393:
 831              	.LBB394:
 832 0010 D0ED054A 		vldr.32	s9, [r0, #20]
 833              	.LBE394:
 834              	.LBE393:
 835              	.LBE392:
ARM GAS  /var/folders/9k/zk1mgrrd7wg4__6zvxvr9w8m0000gn/T//cc9Z2LKb.s 			page 30


 836              	.LBB401:
 837              	.LBB380:
 838              	.LBB375:
  56:mi/stmlib/dsp/parameter_interpolator.h ****     increment_ = (new_value - *state) / static_cast<float>(size);
 839              		.loc 8 56 41 view .LVU276
 840 0014 07EE102A 		vmov	s14, r2	@ int
 841              	.LBE375:
 842              	.LBE380:
 843              	.LBE401:
  66:mi/plaits/dsp/oscillator/grainlet_oscillator.h ****       carrier_frequency = kMaxFrequency * 0.5f;
 844              		.loc 3 66 25 view .LVU277
 845 0018 B4EE660A 		vcmp.f32	s0, s13
 846              	.LBB402:
 847              	.LBB403:
 848              	.LBB404:
  55:mi/stmlib/dsp/parameter_interpolator.h ****     increment_ = (new_value - *state) / static_cast<float>(size);
 849              		.loc 8 55 14 view .LVU278
 850 001c 90ED066A 		vldr.32	s12, [r0, #24]
 851              	.LBE404:
 852              	.LBE403:
 853              	.LBE402:
 854              	.LBB411:
 855              	.LBB381:
 856              	.LBB376:
 857              		.loc 8 56 41 view .LVU279
 858 0020 B8EE477A 		vcvt.f32.u32	s14, s14
 859              	.LBE376:
 860              	.LBE381:
 861              	.LBE411:
 862              	.LBB412:
 863              	.LBB408:
 864              	.LBB405:
 865              		.loc 8 56 29 view .LVU280
 866 0024 71EEC61A 		vsub.f32	s3, s3, s12
 867              	.LVL66:
 868              		.loc 8 56 29 view .LVU281
 869              	.LBE405:
 870              	.LBE408:
 871              	.LBE412:
  66:mi/plaits/dsp/oscillator/grainlet_oscillator.h ****       carrier_frequency = kMaxFrequency * 0.5f;
 872              		.loc 3 66 25 view .LVU282
 873 0028 F1EE10FA 		vmrs	APSR_nzcv, FPSCR
  69:mi/plaits/dsp/oscillator/grainlet_oscillator.h ****       formant_frequency = kMaxFrequency;
 874              		.loc 3 69 25 view .LVU283
 875 002c F4EE670A 		vcmp.f32	s1, s15
 876              	.LBB413:
 877              	.LBB398:
 878              	.LBB395:
 879              		.loc 8 56 29 view .LVU284
 880 0030 31EE641A 		vsub.f32	s2, s2, s9
 881              	.LVL67:
 882              		.loc 8 56 29 view .LVU285
 883              	.LBE395:
 884              	.LBE398:
 885              	.LBE413:
  66:mi/plaits/dsp/oscillator/grainlet_oscillator.h ****     }
 886              		.loc 3 66 25 view .LVU286
ARM GAS  /var/folders/9k/zk1mgrrd7wg4__6zvxvr9w8m0000gn/T//cc9Z2LKb.s 			page 31


 887 0034 26FE800A 		vselge.f32	s0, s13, s0
 888              	.LVL68:
  68:mi/plaits/dsp/oscillator/grainlet_oscillator.h ****       formant_frequency = kMaxFrequency;
 889              		.loc 3 68 5 is_stmt 1 view .LVU287
 890              	.LBB414:
 891              	.LBB382:
 892              	.LBB377:
 893              		.loc 8 56 29 is_stmt 0 view .LVU288
 894 0038 30EE650A 		vsub.f32	s0, s0, s11
 895              	.LVL69:
 896              		.loc 8 56 29 view .LVU289
 897              	.LBE377:
 898              	.LBE382:
 899              	.LBE414:
 900              		.loc 3 69 25 view .LVU290
 901 003c F1EE10FA 		vmrs	APSR_nzcv, FPSCR
 902              	.LVL70:
 903              	.LBB415:
 904              	.LBB409:
 905              	.LBB406:
 906              		.loc 8 56 39 view .LVU291
 907 0040 C1EE872A 		vdiv.f32	s5, s3, s14
 908              	.LBE406:
 909              	.LBE409:
 910              	.LBE415:
  70:mi/plaits/dsp/oscillator/grainlet_oscillator.h ****     }
  71:mi/plaits/dsp/oscillator/grainlet_oscillator.h ****     
  72:mi/plaits/dsp/oscillator/grainlet_oscillator.h ****     stmlib::ParameterInterpolator carrier_frequency_modulation(
  73:mi/plaits/dsp/oscillator/grainlet_oscillator.h ****         &carrier_frequency_,
  74:mi/plaits/dsp/oscillator/grainlet_oscillator.h ****         carrier_frequency,
  75:mi/plaits/dsp/oscillator/grainlet_oscillator.h ****         size);
  76:mi/plaits/dsp/oscillator/grainlet_oscillator.h ****     stmlib::ParameterInterpolator formant_frequency_modulation(
  77:mi/plaits/dsp/oscillator/grainlet_oscillator.h ****         &formant_frequency_,
  78:mi/plaits/dsp/oscillator/grainlet_oscillator.h ****         formant_frequency,
  79:mi/plaits/dsp/oscillator/grainlet_oscillator.h ****         size);
  80:mi/plaits/dsp/oscillator/grainlet_oscillator.h ****     stmlib::ParameterInterpolator carrier_shape_modulation(
  81:mi/plaits/dsp/oscillator/grainlet_oscillator.h ****         &carrier_shape_,
  82:mi/plaits/dsp/oscillator/grainlet_oscillator.h ****         carrier_shape,
  83:mi/plaits/dsp/oscillator/grainlet_oscillator.h ****         size);
  84:mi/plaits/dsp/oscillator/grainlet_oscillator.h ****     stmlib::ParameterInterpolator carrier_bleed_modulation(
  85:mi/plaits/dsp/oscillator/grainlet_oscillator.h ****         &carrier_bleed_,
  86:mi/plaits/dsp/oscillator/grainlet_oscillator.h ****         carrier_bleed,
  87:mi/plaits/dsp/oscillator/grainlet_oscillator.h ****         size);
  88:mi/plaits/dsp/oscillator/grainlet_oscillator.h **** 
  89:mi/plaits/dsp/oscillator/grainlet_oscillator.h ****     float next_sample = next_sample_;
 911              		.loc 3 89 11 view .LVU292
 912 0044 D0ED021A 		vldr.32	s3, [r0, #8]
  69:mi/plaits/dsp/oscillator/grainlet_oscillator.h ****     }
 913              		.loc 3 69 25 view .LVU293
 914 0048 67FEA00A 		vselge.f32	s1, s15, s1
 915              	.LVL71:
  72:mi/plaits/dsp/oscillator/grainlet_oscillator.h ****         &carrier_frequency_,
 916              		.loc 3 72 5 is_stmt 1 view .LVU294
 917              	.LBB416:
 918              	.LBI372:
  39:mi/stmlib/dsp/parameter_interpolator.h ****     Init(state, new_value, size);
 919              		.loc 8 39 3 view .LVU295
ARM GAS  /var/folders/9k/zk1mgrrd7wg4__6zvxvr9w8m0000gn/T//cc9Z2LKb.s 			page 32


 920              	.LBE416:
  40:mi/stmlib/dsp/parameter_interpolator.h ****   }
 921              		.loc 8 40 5 view .LVU296
 922              	.LBB417:
 923              	.LBB383:
 924              	.LBI373:
  53:mi/stmlib/dsp/parameter_interpolator.h ****     state_ = state;
 925              		.loc 8 53 15 view .LVU297
 926              	.LBB378:
  54:mi/stmlib/dsp/parameter_interpolator.h ****     value_ = *state;
 927              		.loc 8 54 5 view .LVU298
  55:mi/stmlib/dsp/parameter_interpolator.h ****     increment_ = (new_value - *state) / static_cast<float>(size);
 928              		.loc 8 55 5 view .LVU299
 929              		.loc 8 56 5 view .LVU300
 930              	.LBE378:
 931              	.LBE383:
 932              	.LBE417:
 933              	.LBB418:
 934              	.LBB390:
 935              	.LBB388:
 936              		.loc 8 56 29 is_stmt 0 view .LVU301
 937 004c 70EEC57A 		vsub.f32	s15, s1, s10
 938              	.LBE388:
 939              	.LBE390:
 940              	.LBE418:
 941              	.LBB419:
 942              	.LBB399:
 943              	.LBB396:
 944              		.loc 8 56 39 view .LVU302
 945 0050 81EE073A 		vdiv.f32	s6, s2, s14
 946              	.LBE396:
 947              	.LBE399:
 948              	.LBE419:
 949              	.LBB420:
 950              	.LBB384:
 951              	.LBB379:
 952 0054 C0EE070A 		vdiv.f32	s1, s0, s14
 953              	.LVL72:
 954              		.loc 8 56 39 view .LVU303
 955              	.LBE379:
 956              	.LBE384:
 957              	.LBE420:
  76:mi/plaits/dsp/oscillator/grainlet_oscillator.h ****         &formant_frequency_,
 958              		.loc 3 76 5 is_stmt 1 view .LVU304
 959              	.LBB421:
 960              	.LBI385:
  39:mi/stmlib/dsp/parameter_interpolator.h ****     Init(state, new_value, size);
 961              		.loc 8 39 3 view .LVU305
 962              	.LBE421:
  40:mi/stmlib/dsp/parameter_interpolator.h ****   }
 963              		.loc 8 40 5 view .LVU306
 964              	.LBB422:
 965              	.LBB391:
 966              	.LBI386:
  53:mi/stmlib/dsp/parameter_interpolator.h ****     state_ = state;
 967              		.loc 8 53 15 view .LVU307
 968              	.LBB389:
ARM GAS  /var/folders/9k/zk1mgrrd7wg4__6zvxvr9w8m0000gn/T//cc9Z2LKb.s 			page 33


  54:mi/stmlib/dsp/parameter_interpolator.h ****     value_ = *state;
 969              		.loc 8 54 5 view .LVU308
  55:mi/stmlib/dsp/parameter_interpolator.h ****     increment_ = (new_value - *state) / static_cast<float>(size);
 970              		.loc 8 55 5 view .LVU309
 971              		.loc 8 56 5 view .LVU310
 972              		.loc 8 56 39 is_stmt 0 view .LVU311
 973 0058 87EE872A 		vdiv.f32	s4, s15, s14
 974              	.LVL73:
 975              		.loc 8 56 39 view .LVU312
 976              	.LBE389:
 977              	.LBE391:
 978              	.LBE422:
  80:mi/plaits/dsp/oscillator/grainlet_oscillator.h ****         &carrier_shape_,
 979              		.loc 3 80 5 is_stmt 1 view .LVU313
 980              	.LBB423:
 981              	.LBI392:
  39:mi/stmlib/dsp/parameter_interpolator.h ****     Init(state, new_value, size);
 982              		.loc 8 39 3 view .LVU314
 983              	.LBE423:
  40:mi/stmlib/dsp/parameter_interpolator.h ****   }
 984              		.loc 8 40 5 view .LVU315
 985              	.LBB424:
 986              	.LBB400:
 987              	.LBI393:
  53:mi/stmlib/dsp/parameter_interpolator.h ****     state_ = state;
 988              		.loc 8 53 15 view .LVU316
 989              	.LBB397:
  54:mi/stmlib/dsp/parameter_interpolator.h ****     value_ = *state;
 990              		.loc 8 54 5 view .LVU317
  55:mi/stmlib/dsp/parameter_interpolator.h ****     increment_ = (new_value - *state) / static_cast<float>(size);
 991              		.loc 8 55 5 view .LVU318
 992              		.loc 8 56 5 view .LVU319
 993              		.loc 8 56 5 is_stmt 0 view .LVU320
 994              	.LBE397:
 995              	.LBE400:
 996              	.LBE424:
  84:mi/plaits/dsp/oscillator/grainlet_oscillator.h ****         &carrier_bleed_,
 997              		.loc 3 84 5 is_stmt 1 view .LVU321
 998              	.LBB425:
 999              	.LBI402:
  39:mi/stmlib/dsp/parameter_interpolator.h ****     Init(state, new_value, size);
 1000              		.loc 8 39 3 view .LVU322
 1001              	.LBE425:
  40:mi/stmlib/dsp/parameter_interpolator.h ****   }
 1002              		.loc 8 40 5 view .LVU323
 1003              	.LBB426:
 1004              	.LBB410:
 1005              	.LBI403:
  53:mi/stmlib/dsp/parameter_interpolator.h ****     state_ = state;
 1006              		.loc 8 53 15 view .LVU324
 1007              	.LBB407:
  54:mi/stmlib/dsp/parameter_interpolator.h ****     value_ = *state;
 1008              		.loc 8 54 5 view .LVU325
  55:mi/stmlib/dsp/parameter_interpolator.h ****     increment_ = (new_value - *state) / static_cast<float>(size);
 1009              		.loc 8 55 5 view .LVU326
 1010              		.loc 8 56 5 view .LVU327
 1011              		.loc 8 56 5 is_stmt 0 view .LVU328
ARM GAS  /var/folders/9k/zk1mgrrd7wg4__6zvxvr9w8m0000gn/T//cc9Z2LKb.s 			page 34


 1012              	.LBE407:
 1013              	.LBE410:
 1014              	.LBE426:
 1015              		.loc 3 89 5 is_stmt 1 view .LVU329
  90:mi/plaits/dsp/oscillator/grainlet_oscillator.h ****     
  91:mi/plaits/dsp/oscillator/grainlet_oscillator.h ****     while (size--) {
 1016              		.loc 3 91 5 view .LVU330
 1017              		.loc 3 91 16 view .LVU331
  58:mi/plaits/dsp/oscillator/grainlet_oscillator.h ****       float carrier_frequency,
 1018              		.loc 3 58 8 is_stmt 0 view .LVU332
 1019 005c 70B5     		push	{r4, r5, r6, lr}
 1020              		.cfi_def_cfa_offset 16
 1021              		.cfi_offset 4, -16
 1022              		.cfi_offset 5, -12
 1023              		.cfi_offset 6, -8
 1024              		.cfi_offset 14, -4
 1025 005e 2DED088B 		vpush.64	{d8, d9, d10, d11}
 1026              		.cfi_def_cfa_offset 48
 1027              		.cfi_offset 80, -48
 1028              		.cfi_offset 81, -44
 1029              		.cfi_offset 82, -40
 1030              		.cfi_offset 83, -36
 1031              		.cfi_offset 84, -32
 1032              		.cfi_offset 85, -28
 1033              		.cfi_offset 86, -24
 1034              		.cfi_offset 87, -20
 1035              		.loc 3 91 16 view .LVU333
 1036 0062 002A     		cmp	r2, #0
 1037 0064 00F04E81 		beq	.L32
 1038              	.LVL74:
 1039              		.loc 3 91 16 view .LVU334
 1040 0068 F24B     		ldr	r3, .L95
 1041 006a 02F1FF3E 		add	lr, r2, #-1
 1042              	.LVL75:
 1043              		.loc 3 91 16 view .LVU335
 1044 006e 1C1D     		adds	r4, r3, #4
 1045              	.LVL76:
 1046              	.L58:
 1047              	.LBB427:
  92:mi/plaits/dsp/oscillator/grainlet_oscillator.h ****       bool reset = false;
 1048              		.loc 3 92 7 is_stmt 1 view .LVU336
  93:mi/plaits/dsp/oscillator/grainlet_oscillator.h ****       float reset_time = 0.0f;
 1049              		.loc 3 93 7 view .LVU337
  94:mi/plaits/dsp/oscillator/grainlet_oscillator.h **** 
  95:mi/plaits/dsp/oscillator/grainlet_oscillator.h ****       float this_sample = next_sample;
 1050              		.loc 3 95 7 view .LVU338
  96:mi/plaits/dsp/oscillator/grainlet_oscillator.h ****       next_sample = 0.0f;
 1051              		.loc 3 96 7 view .LVU339
  97:mi/plaits/dsp/oscillator/grainlet_oscillator.h ****     
  98:mi/plaits/dsp/oscillator/grainlet_oscillator.h ****       const float f0 = carrier_frequency_modulation.Next();
 1052              		.loc 3 98 7 view .LVU340
 1053              	.LBB428:
 1054              	.LBI428:
  57:mi/stmlib/dsp/parameter_interpolator.h ****   }
  58:mi/stmlib/dsp/parameter_interpolator.h **** 
  59:mi/stmlib/dsp/parameter_interpolator.h ****   inline float Next() {
 1055              		.loc 8 59 16 view .LVU341
ARM GAS  /var/folders/9k/zk1mgrrd7wg4__6zvxvr9w8m0000gn/T//cc9Z2LKb.s 			page 35


 1056              	.LBB429:
  60:mi/stmlib/dsp/parameter_interpolator.h ****     value_ += increment_;
 1057              		.loc 8 60 5 view .LVU342
 1058              		.loc 8 60 12 is_stmt 0 view .LVU343
 1059 0070 75EEA05A 		vadd.f32	s11, s11, s1
 1060              	.LVL77:
  61:mi/stmlib/dsp/parameter_interpolator.h ****     return value_;
 1061              		.loc 8 61 5 is_stmt 1 view .LVU344
 1062              		.loc 8 61 5 is_stmt 0 view .LVU345
 1063              	.LBE429:
 1064              	.LBE428:
  99:mi/plaits/dsp/oscillator/grainlet_oscillator.h ****       const float f1 = formant_frequency_modulation.Next();
 1065              		.loc 3 99 7 is_stmt 1 view .LVU346
 1066              	.LBB430:
 1067              	.LBI430:
  59:mi/stmlib/dsp/parameter_interpolator.h ****     value_ += increment_;
 1068              		.loc 8 59 16 view .LVU347
 1069              	.LBB431:
  60:mi/stmlib/dsp/parameter_interpolator.h ****     return value_;
 1070              		.loc 8 60 5 view .LVU348
 1071              	.LBE431:
 1072              	.LBE430:
 100:mi/plaits/dsp/oscillator/grainlet_oscillator.h ****     
 101:mi/plaits/dsp/oscillator/grainlet_oscillator.h ****       carrier_phase_ += f0;
 1073              		.loc 3 101 22 is_stmt 0 view .LVU349
 1074 0074 90ED007A 		vldr.32	s14, [r0]
 1075              	.LBB433:
 102:mi/plaits/dsp/oscillator/grainlet_oscillator.h ****       reset = carrier_phase_ >= 1.0f;
 103:mi/plaits/dsp/oscillator/grainlet_oscillator.h ****       
 104:mi/plaits/dsp/oscillator/grainlet_oscillator.h ****       if (reset) {
 1076              		.loc 3 104 7 view .LVU350
 1077 0078 B7EE000A 		vmov.f32	s0, #1.0e+0
 1078              	.LBE433:
 1079              	.LBB790:
 1080              	.LBB432:
  60:mi/stmlib/dsp/parameter_interpolator.h ****     return value_;
 1081              		.loc 8 60 12 view .LVU351
 1082 007c 35EE025A 		vadd.f32	s10, s10, s4
 1083              	.LVL78:
 1084              		.loc 8 61 5 is_stmt 1 view .LVU352
 1085              		.loc 8 61 5 is_stmt 0 view .LVU353
 1086              	.LBE432:
 1087              	.LBE790:
 101:mi/plaits/dsp/oscillator/grainlet_oscillator.h ****       reset = carrier_phase_ >= 1.0f;
 1088              		.loc 3 101 7 is_stmt 1 view .LVU354
 101:mi/plaits/dsp/oscillator/grainlet_oscillator.h ****       reset = carrier_phase_ >= 1.0f;
 1089              		.loc 3 101 22 is_stmt 0 view .LVU355
 1090 0080 35EE871A 		vadd.f32	s2, s11, s14
 1091              	.LBB791:
 1092              		.loc 3 104 7 view .LVU356
 1093 0084 B4EEC01A 		vcmpe.f32	s2, s0
 1094              	.LBE791:
 101:mi/plaits/dsp/oscillator/grainlet_oscillator.h ****       reset = carrier_phase_ >= 1.0f;
 1095              		.loc 3 101 22 view .LVU357
 1096 0088 80ED001A 		vstr.32	s2, [r0]
 102:mi/plaits/dsp/oscillator/grainlet_oscillator.h ****       reset = carrier_phase_ >= 1.0f;
 1097              		.loc 3 102 7 is_stmt 1 view .LVU358
ARM GAS  /var/folders/9k/zk1mgrrd7wg4__6zvxvr9w8m0000gn/T//cc9Z2LKb.s 			page 36


 1098              	.LVL79:
 1099              		.loc 3 104 7 view .LVU359
 1100              	.LBB792:
 1101 008c F1EE10FA 		vmrs	APSR_nzcv, FPSCR
 1102 0090 C0F27A81 		blt	.L75
 1103              	.LBB434:
 105:mi/plaits/dsp/oscillator/grainlet_oscillator.h ****         carrier_phase_ -= 1.0f;
 1104              		.loc 3 105 9 view .LVU360
 1105              		.loc 3 105 24 is_stmt 0 view .LVU361
 1106 0094 31EE401A 		vsub.f32	s2, s2, s0
 1107              	.LVL80:
 106:mi/plaits/dsp/oscillator/grainlet_oscillator.h ****         reset_time = carrier_phase_ / f0;
 107:mi/plaits/dsp/oscillator/grainlet_oscillator.h ****         float before = Grainlet(
 1108              		.loc 3 107 32 view .LVU362
 1109 0098 D0ED013A 		vldr.32	s7, [r0, #4]
 1110              	.LBB435:
 1111              	.LBB436:
  62:mi/stmlib/dsp/parameter_interpolator.h ****   }
  63:mi/stmlib/dsp/parameter_interpolator.h **** 
  64:mi/stmlib/dsp/parameter_interpolator.h ****   inline float subsample(float t) {
  65:mi/stmlib/dsp/parameter_interpolator.h ****     return value_ + increment_ * t;
 1112              		.loc 8 65 34 view .LVU363
 1113 009c F0EE647A 		vmov.f32	s15, s9
 1114              	.LBE436:
 1115              	.LBE435:
 1116              	.LBB439:
 1117              	.LBB440:
 1118              	.LBB441:
 1119              	.LBB442:
 108:mi/plaits/dsp/oscillator/grainlet_oscillator.h ****             1.0f,
 109:mi/plaits/dsp/oscillator/grainlet_oscillator.h ****             formant_phase_ + (1.0f - reset_time) * f1,
 110:mi/plaits/dsp/oscillator/grainlet_oscillator.h ****             carrier_shape_modulation.subsample(1.0f - reset_time),
 111:mi/plaits/dsp/oscillator/grainlet_oscillator.h ****             carrier_bleed_modulation.subsample(1.0f - reset_time));
 112:mi/plaits/dsp/oscillator/grainlet_oscillator.h **** 
 113:mi/plaits/dsp/oscillator/grainlet_oscillator.h ****         float after = Grainlet(
 114:mi/plaits/dsp/oscillator/grainlet_oscillator.h ****             0.0f,
 115:mi/plaits/dsp/oscillator/grainlet_oscillator.h ****             0.0f,
 116:mi/plaits/dsp/oscillator/grainlet_oscillator.h ****             carrier_shape_modulation.subsample(1.0f),
 117:mi/plaits/dsp/oscillator/grainlet_oscillator.h ****             carrier_bleed_modulation.subsample(1.0f));
 118:mi/plaits/dsp/oscillator/grainlet_oscillator.h **** 
 119:mi/plaits/dsp/oscillator/grainlet_oscillator.h ****         float discontinuity = after - before;
 120:mi/plaits/dsp/oscillator/grainlet_oscillator.h ****         this_sample += discontinuity * stmlib::ThisBlepSample(reset_time);
 121:mi/plaits/dsp/oscillator/grainlet_oscillator.h ****         next_sample += discontinuity * stmlib::NextBlepSample(reset_time);
 122:mi/plaits/dsp/oscillator/grainlet_oscillator.h ****         formant_phase_ = reset_time * f1;
 123:mi/plaits/dsp/oscillator/grainlet_oscillator.h ****       } else {
 124:mi/plaits/dsp/oscillator/grainlet_oscillator.h ****         formant_phase_ += f1;
 125:mi/plaits/dsp/oscillator/grainlet_oscillator.h ****         if (formant_phase_ >= 1.0f) {
 126:mi/plaits/dsp/oscillator/grainlet_oscillator.h ****           formant_phase_ -= 1.0f;
 127:mi/plaits/dsp/oscillator/grainlet_oscillator.h ****         }
 128:mi/plaits/dsp/oscillator/grainlet_oscillator.h ****       }
 129:mi/plaits/dsp/oscillator/grainlet_oscillator.h ****       
 130:mi/plaits/dsp/oscillator/grainlet_oscillator.h ****       next_sample += Grainlet(
 131:mi/plaits/dsp/oscillator/grainlet_oscillator.h ****           carrier_phase_,
 132:mi/plaits/dsp/oscillator/grainlet_oscillator.h ****           formant_phase_,
 133:mi/plaits/dsp/oscillator/grainlet_oscillator.h ****           carrier_shape_modulation.Next(),
 134:mi/plaits/dsp/oscillator/grainlet_oscillator.h ****           carrier_bleed_modulation.Next());
 135:mi/plaits/dsp/oscillator/grainlet_oscillator.h ****       *out++ = this_sample;
ARM GAS  /var/folders/9k/zk1mgrrd7wg4__6zvxvr9w8m0000gn/T//cc9Z2LKb.s 			page 37


 136:mi/plaits/dsp/oscillator/grainlet_oscillator.h ****     }
 137:mi/plaits/dsp/oscillator/grainlet_oscillator.h ****     
 138:mi/plaits/dsp/oscillator/grainlet_oscillator.h ****     next_sample_ = next_sample;
 139:mi/plaits/dsp/oscillator/grainlet_oscillator.h ****   }
 140:mi/plaits/dsp/oscillator/grainlet_oscillator.h **** 
 141:mi/plaits/dsp/oscillator/grainlet_oscillator.h ****  private:
 142:mi/plaits/dsp/oscillator/grainlet_oscillator.h ****   inline float Carrier(float phase, float shape) {
 143:mi/plaits/dsp/oscillator/grainlet_oscillator.h ****     shape *= 3.0f;
 1120              		.loc 3 143 11 view .LVU364
 1121 00a0 B0EE087A 		vmov.f32	s14, #3.0e+0
 1122              	.LBE442:
 1123              	.LBE441:
 1124              	.LBE440:
 1125              	.LBE439:
 106:mi/plaits/dsp/oscillator/grainlet_oscillator.h ****         float before = Grainlet(
 1126              		.loc 3 106 20 view .LVU365
 1127 00a4 C1EE258A 		vdiv.f32	s17, s2, s11
 105:mi/plaits/dsp/oscillator/grainlet_oscillator.h ****         reset_time = carrier_phase_ / f0;
 1128              		.loc 3 105 24 view .LVU366
 1129 00a8 80ED001A 		vstr.32	s2, [r0]
 1130              	.LVL81:
 106:mi/plaits/dsp/oscillator/grainlet_oscillator.h ****         float before = Grainlet(
 1131              		.loc 3 106 9 is_stmt 1 view .LVU367
 107:mi/plaits/dsp/oscillator/grainlet_oscillator.h ****             1.0f,
 1132              		.loc 3 107 9 view .LVU368
 1133              	.LBB575:
 1134              	.LBB576:
 1135              		.loc 8 65 34 is_stmt 0 view .LVU369
 1136 00ac B0EE464A 		vmov.f32	s8, s12
 1137              	.LBE576:
 1138              	.LBE575:
 109:mi/plaits/dsp/oscillator/grainlet_oscillator.h ****             carrier_shape_modulation.subsample(1.0f - reset_time),
 1139              		.loc 3 109 36 view .LVU370
 1140 00b0 30EE688A 		vsub.f32	s16, s0, s17
 1141              	.LBB578:
 1142              	.LBB437:
 1143              		.loc 8 65 34 view .LVU371
 1144 00b4 E8EE037A 		vfma.f32	s15, s16, s6
 1145              	.LBE437:
 1146              	.LBE578:
 107:mi/plaits/dsp/oscillator/grainlet_oscillator.h ****             1.0f,
 1147              		.loc 3 107 32 view .LVU372
 1148 00b8 E8EE053A 		vfma.f32	s7, s16, s10
 1149              	.LVL82:
 1150              	.LBB579:
 1151              	.LBI435:
  64:mi/stmlib/dsp/parameter_interpolator.h ****     return value_ + increment_ * t;
 1152              		.loc 8 64 16 is_stmt 1 view .LVU373
 1153              	.LBB438:
 1154              		.loc 8 65 5 view .LVU374
 1155              		.loc 8 65 5 is_stmt 0 view .LVU375
 1156              	.LBE438:
 1157              	.LBE579:
 1158              	.LBB580:
 1159              	.LBI575:
  64:mi/stmlib/dsp/parameter_interpolator.h ****     return value_ + increment_ * t;
 1160              		.loc 8 64 16 is_stmt 1 view .LVU376
ARM GAS  /var/folders/9k/zk1mgrrd7wg4__6zvxvr9w8m0000gn/T//cc9Z2LKb.s 			page 38


 1161              	.LBB577:
 1162              		.loc 8 65 5 view .LVU377
 1163              		.loc 8 65 34 is_stmt 0 view .LVU378
 1164 00bc A8EE224A 		vfma.f32	s8, s16, s5
 1165              	.LVL83:
 1166              		.loc 8 65 34 view .LVU379
 1167              	.LBE577:
 1168              	.LBE580:
 1169              	.LBB581:
 1170              	.LBI439:
 144:mi/plaits/dsp/oscillator/grainlet_oscillator.h ****     MAKE_INTEGRAL_FRACTIONAL(shape);
 145:mi/plaits/dsp/oscillator/grainlet_oscillator.h ****     float t = 1.0f - shape_fractional;
 146:mi/plaits/dsp/oscillator/grainlet_oscillator.h ****     
 147:mi/plaits/dsp/oscillator/grainlet_oscillator.h ****     if (shape_integral == 0) {
 148:mi/plaits/dsp/oscillator/grainlet_oscillator.h ****       phase = phase * (1.0f + t * t * t * 15.0f);
 149:mi/plaits/dsp/oscillator/grainlet_oscillator.h ****       if (phase >= 1.0f) {
 150:mi/plaits/dsp/oscillator/grainlet_oscillator.h ****         phase = 1.0f;
 151:mi/plaits/dsp/oscillator/grainlet_oscillator.h ****       }
 152:mi/plaits/dsp/oscillator/grainlet_oscillator.h ****       phase += 0.75f;
 153:mi/plaits/dsp/oscillator/grainlet_oscillator.h ****     } else if (shape_integral == 1) {
 154:mi/plaits/dsp/oscillator/grainlet_oscillator.h ****       float breakpoint = 0.001f + 0.499f * t * t * t;
 155:mi/plaits/dsp/oscillator/grainlet_oscillator.h ****       if (phase < breakpoint) {
 156:mi/plaits/dsp/oscillator/grainlet_oscillator.h ****         phase *= (0.5f / breakpoint);
 157:mi/plaits/dsp/oscillator/grainlet_oscillator.h ****       } else {
 158:mi/plaits/dsp/oscillator/grainlet_oscillator.h ****         phase = 0.5f + (phase - breakpoint) * 0.5f / (1.0f - breakpoint);
 159:mi/plaits/dsp/oscillator/grainlet_oscillator.h ****       }
 160:mi/plaits/dsp/oscillator/grainlet_oscillator.h ****       phase += 0.75f;
 161:mi/plaits/dsp/oscillator/grainlet_oscillator.h ****     } else {
 162:mi/plaits/dsp/oscillator/grainlet_oscillator.h ****       t = 1.0f - t;
 163:mi/plaits/dsp/oscillator/grainlet_oscillator.h ****       phase = 0.25f + phase * (0.5f + t * t * t * 14.5f);
 164:mi/plaits/dsp/oscillator/grainlet_oscillator.h ****       if (phase >= 0.75f) phase = 0.75f;
 165:mi/plaits/dsp/oscillator/grainlet_oscillator.h ****     }
 166:mi/plaits/dsp/oscillator/grainlet_oscillator.h ****     return (Sine(phase) + 1.0f) * 0.25f;
 167:mi/plaits/dsp/oscillator/grainlet_oscillator.h ****   }
 168:mi/plaits/dsp/oscillator/grainlet_oscillator.h **** 
 169:mi/plaits/dsp/oscillator/grainlet_oscillator.h ****   inline float Grainlet(
 1171              		.loc 3 169 16 is_stmt 1 view .LVU380
 1172              	.LBB562:
 170:mi/plaits/dsp/oscillator/grainlet_oscillator.h ****       float carrier_phase,
 171:mi/plaits/dsp/oscillator/grainlet_oscillator.h ****       float formant_phase,
 172:mi/plaits/dsp/oscillator/grainlet_oscillator.h ****       float shape,
 173:mi/plaits/dsp/oscillator/grainlet_oscillator.h ****       float bleed) {
 174:mi/plaits/dsp/oscillator/grainlet_oscillator.h ****     float carrier = Carrier(carrier_phase, shape);
 1173              		.loc 3 174 5 view .LVU381
 1174              	.LBB501:
 1175              	.LBI441:
 142:mi/plaits/dsp/oscillator/grainlet_oscillator.h ****     shape *= 3.0f;
 1176              		.loc 3 142 16 view .LVU382
 1177              	.LBB488:
 143:mi/plaits/dsp/oscillator/grainlet_oscillator.h ****     MAKE_INTEGRAL_FRACTIONAL(shape);
 1178              		.loc 3 143 5 view .LVU383
 143:mi/plaits/dsp/oscillator/grainlet_oscillator.h ****     MAKE_INTEGRAL_FRACTIONAL(shape);
 1179              		.loc 3 143 11 is_stmt 0 view .LVU384
 1180 00c0 67EE877A 		vmul.f32	s15, s15, s14
 1181              	.LVL84:
 144:mi/plaits/dsp/oscillator/grainlet_oscillator.h ****     float t = 1.0f - shape_fractional;
 1182              		.loc 3 144 5 is_stmt 1 view .LVU385
ARM GAS  /var/folders/9k/zk1mgrrd7wg4__6zvxvr9w8m0000gn/T//cc9Z2LKb.s 			page 39


 1183 00c4 BDEEE77A 		vcvt.s32.f32	s14, s15
 1184              	.LVL85:
 144:mi/plaits/dsp/oscillator/grainlet_oscillator.h ****     float t = 1.0f - shape_fractional;
 1185              		.loc 3 144 5 view .LVU386
 144:mi/plaits/dsp/oscillator/grainlet_oscillator.h ****     float t = 1.0f - shape_fractional;
 1186              		.loc 3 144 36 view .LVU387
 145:mi/plaits/dsp/oscillator/grainlet_oscillator.h ****     
 1187              		.loc 3 145 5 view .LVU388
 144:mi/plaits/dsp/oscillator/grainlet_oscillator.h ****     float t = 1.0f - shape_fractional;
 1188              		.loc 3 144 5 is_stmt 0 view .LVU389
 1189 00c8 F8EEC76A 		vcvt.f32.s32	s13, s14
 1190              	.LBB443:
 147:mi/plaits/dsp/oscillator/grainlet_oscillator.h ****       phase = phase * (1.0f + t * t * t * 15.0f);
 1191              		.loc 3 147 5 view .LVU390
 1192 00cc 17EE102A 		vmov	r2, s14	@ int
 1193              	.LBE443:
 144:mi/plaits/dsp/oscillator/grainlet_oscillator.h ****     float t = 1.0f - shape_fractional;
 1194              		.loc 3 144 5 view .LVU391
 1195 00d0 77EEE67A 		vsub.f32	s15, s15, s13
 1196              	.LVL86:
 145:mi/plaits/dsp/oscillator/grainlet_oscillator.h ****     
 1197              		.loc 3 145 11 view .LVU392
 1198 00d4 70EE677A 		vsub.f32	s15, s0, s15
 1199              	.LVL87:
 147:mi/plaits/dsp/oscillator/grainlet_oscillator.h ****       phase = phase * (1.0f + t * t * t * 15.0f);
 1200              		.loc 3 147 5 is_stmt 1 view .LVU393
 1201              	.LBB450:
 1202 00d8 002A     		cmp	r2, #0
 1203 00da 40F0B581 		bne	.L35
 148:mi/plaits/dsp/oscillator/grainlet_oscillator.h ****       if (phase >= 1.0f) {
 1204              		.loc 3 148 7 view .LVU394
 148:mi/plaits/dsp/oscillator/grainlet_oscillator.h ****       if (phase >= 1.0f) {
 1205              		.loc 3 148 33 is_stmt 0 view .LVU395
 1206 00de 27EEA77A 		vmul.f32	s14, s15, s15
 1207              	.LVL88:
 148:mi/plaits/dsp/oscillator/grainlet_oscillator.h ****       if (phase >= 1.0f) {
 1208              		.loc 3 148 29 view .LVU396
 1209 00e2 F2EE0E6A 		vmov.f32	s13, #1.5e+1
 148:mi/plaits/dsp/oscillator/grainlet_oscillator.h ****       if (phase >= 1.0f) {
 1210              		.loc 3 148 37 view .LVU397
 1211 00e6 67EE277A 		vmul.f32	s15, s14, s15
 1212              	.LVL89:
 148:mi/plaits/dsp/oscillator/grainlet_oscillator.h ****       if (phase >= 1.0f) {
 1213              		.loc 3 148 29 view .LVU398
 1214 00ea B0EE407A 		vmov.f32	s14, s0
 1215 00ee A7EEA67A 		vfma.f32	s14, s15, s13
 1216              	.LVL90:
 149:mi/plaits/dsp/oscillator/grainlet_oscillator.h ****         phase = 1.0f;
 1217              		.loc 3 149 7 is_stmt 1 view .LVU399
 1218 00f2 B4EEC07A 		vcmpe.f32	s14, s0
 1219 00f6 F1EE10FA 		vmrs	APSR_nzcv, FPSCR
 1220 00fa C0F24682 		blt	.L86
 1221 00fe 40F20465 		movw	r5, #1540
 1222 0102 DFEDCF6A 		vldr.32	s13, .L95+12
 1223 0106 4FF4C062 		mov	r2, #1536
 1224              	.LVL91:
 152:mi/plaits/dsp/oscillator/grainlet_oscillator.h ****     } else if (shape_integral == 1) {
ARM GAS  /var/folders/9k/zk1mgrrd7wg4__6zvxvr9w8m0000gn/T//cc9Z2LKb.s 			page 40


 1225              		.loc 3 152 7 view .LVU400
 1226              	.L37:
 152:mi/plaits/dsp/oscillator/grainlet_oscillator.h ****     } else if (shape_integral == 1) {
 1227              		.loc 3 152 7 is_stmt 0 view .LVU401
 1228              	.LBE450:
 166:mi/plaits/dsp/oscillator/grainlet_oscillator.h ****   }
 1229              		.loc 3 166 5 is_stmt 1 view .LVU402
 1230              	.LBB451:
 1231              	.LBI451:
  48:mi/plaits/dsp/oscillator/sine_oscillator.h ****   return stmlib::InterpolateWrap(lut_sine, phase, kSineLUTSize);
 1232              		.loc 7 48 14 view .LVU403
 1233              	.LBB452:
 1234              		.loc 7 49 3 view .LVU404
 1235              	.LBB453:
 1236              	.LBI453:
  68:mi/stmlib/dsp/dsp.h ****   index -= static_cast<float>(static_cast<int32_t>(index));
 1237              		.loc 6 68 14 view .LVU405
 1238              	.LBB454:
  69:mi/stmlib/dsp/dsp.h ****   index *= size;
 1239              		.loc 6 69 3 view .LVU406
  70:mi/stmlib/dsp/dsp.h ****   MAKE_INTEGRAL_FRACTIONAL(index)
 1240              		.loc 6 70 3 view .LVU407
  71:mi/stmlib/dsp/dsp.h ****   float a = table[index_integral];
 1241              		.loc 6 71 3 view .LVU408
  71:mi/stmlib/dsp/dsp.h ****   float a = table[index_integral];
 1242              		.loc 6 71 3 view .LVU409
  72:mi/stmlib/dsp/dsp.h ****   float b = table[index_integral + 1];
 1243              		.loc 6 72 3 view .LVU410
 1244              	.LBE454:
 1245              	.LBE453:
 1246              	.LBE452:
 1247              	.LBE451:
 1248              	.LBE488:
 1249              	.LBE501:
 1250              	.LBB502:
 1251              	.LBB503:
 1252              	.LBB504:
 1253              	.LBB505:
  69:mi/stmlib/dsp/dsp.h ****   index *= size;
 1254              		.loc 6 69 31 is_stmt 0 view .LVU411
 1255 010a FDEEE3AA 		vcvt.s32.f32	s21, s7
 1256              	.LBE505:
 1257              	.LBE504:
 1258              	.LBE503:
 1259              	.LBE502:
 1260              	.LBB539:
 1261              	.LBB489:
 1262              	.LBB476:
 1263              	.LBB469:
 1264              	.LBB462:
 1265              	.LBB455:
  72:mi/stmlib/dsp/dsp.h ****   float b = table[index_integral + 1];
 1266              		.loc 6 72 9 view .LVU412
 1267 010e 1A44     		add	r2, r2, r3
  73:mi/stmlib/dsp/dsp.h ****   return a + (b - a) * index_fractional;
 1268              		.loc 6 73 9 view .LVU413
 1269 0110 1D44     		add	r5, r5, r3
ARM GAS  /var/folders/9k/zk1mgrrd7wg4__6zvxvr9w8m0000gn/T//cc9Z2LKb.s 			page 41


 1270              	.LBE455:
 1271              	.LBE462:
 1272              	.LBE469:
 1273              	.LBE476:
 1274              	.LBE489:
 1275              	.LBE539:
 1276              	.LBE562:
 1277              	.LBE581:
 1278              	.LBB582:
 1279              	.LBB583:
 1280              		.loc 8 65 34 view .LVU414
 1281 0112 74EE834A 		vadd.f32	s9, s9, s6
 1282              	.LVL92:
 1283              		.loc 8 65 34 view .LVU415
 1284              	.LBE583:
 1285              	.LBE582:
 1286              	.LBB586:
 1287              	.LBB563:
 1288              	.LBB540:
 1289              	.LBB490:
 1290              	.LBB477:
 1291              	.LBB470:
 1292              	.LBB463:
 1293              	.LBB456:
  72:mi/stmlib/dsp/dsp.h ****   float b = table[index_integral + 1];
 1294              		.loc 6 72 9 view .LVU416
 1295 0116 92ED007A 		vldr.32	s14, [r2]
 1296              	.LVL93:
  73:mi/stmlib/dsp/dsp.h ****   return a + (b - a) * index_fractional;
 1297              		.loc 6 73 3 is_stmt 1 view .LVU417
 1298              		.loc 6 74 3 view .LVU418
 1299              	.LBE456:
 1300              	.LBE463:
 1301              	.LBE470:
 1302              	.LBE477:
 1303              	.LBE490:
 1304              	.LBE540:
 1305              	.LBE563:
 1306              	.LBE586:
 1307              	.LBB587:
 1308              	.LBB588:
 1309              	.LBB589:
 1310              	.LBB590:
 143:mi/plaits/dsp/oscillator/grainlet_oscillator.h ****     MAKE_INTEGRAL_FRACTIONAL(shape);
 1311              		.loc 3 143 11 is_stmt 0 view .LVU419
 1312 011a B0EE080A 		vmov.f32	s0, #3.0e+0
 1313              	.LBE590:
 1314              	.LBE589:
 1315              	.LBE588:
 1316              	.LBE587:
 1317              	.LBB722:
 1318              	.LBB564:
 1319              	.LBB541:
 1320              	.LBB528:
 1321              	.LBB517:
 1322              	.LBB506:
  69:mi/stmlib/dsp/dsp.h ****   index *= size;
ARM GAS  /var/folders/9k/zk1mgrrd7wg4__6zvxvr9w8m0000gn/T//cc9Z2LKb.s 			page 42


 1323              		.loc 6 69 12 view .LVU420
 1324 011e F8EEEAAA 		vcvt.f32.s32	s21, s21
 1325              	.LBE506:
 1326              	.LBE517:
 1327              	.LBE528:
 1328              	.LBE541:
 1329              	.LBB542:
 1330              	.LBB491:
 1331              	.LBB478:
 1332              	.LBB471:
 1333              	.LBB464:
 1334              	.LBB457:
 1335              		.loc 6 74 17 view .LVU421
 1336 0122 95ED009A 		vldr.32	s18, [r5]
 1337              	.LBE457:
 1338              	.LBE464:
 1339              	.LBE471:
 1340              	.LBE478:
 1341              	.LBE491:
 1342              	.LBE542:
 1343              	.LBB543:
 1344              	.LBB529:
 1345              	.LBB518:
 1346              	.LBB507:
  70:mi/stmlib/dsp/dsp.h ****   MAKE_INTEGRAL_FRACTIONAL(index)
 1347              		.loc 6 70 9 view .LVU422
 1348 0126 DFEDC77A 		vldr.32	s15, .L95+16
 1349              	.LBE507:
 1350              	.LBE518:
 1351              	.LBE529:
 1352              	.LBE543:
 1353              	.LBB544:
 1354              	.LBB492:
 166:mi/plaits/dsp/oscillator/grainlet_oscillator.h ****   }
 1355              		.loc 3 166 25 view .LVU423
 1356 012a F7EE009A 		vmov.f32	s19, #1.0e+0
 1357              	.LBB479:
 1358              	.LBB472:
 1359              	.LBB465:
 1360              	.LBB458:
 1361              		.loc 6 74 17 view .LVU424
 1362 012e 39EE479A 		vsub.f32	s18, s18, s14
 1363              	.LBE458:
 1364              	.LBE465:
 1365              	.LBE472:
 1366              	.LBE479:
 1367              	.LBE492:
 1368              	.LBE544:
 1369              	.LBB545:
 1370              	.LBB530:
 1371              	.LBB519:
 1372              	.LBB508:
  69:mi/stmlib/dsp/dsp.h ****   index *= size;
 1373              		.loc 6 69 9 view .LVU425
 1374 0132 73EEEA3A 		vsub.f32	s7, s7, s21
 1375              	.LVL94:
  69:mi/stmlib/dsp/dsp.h ****   index *= size;
ARM GAS  /var/folders/9k/zk1mgrrd7wg4__6zvxvr9w8m0000gn/T//cc9Z2LKb.s 			page 43


 1376              		.loc 6 69 9 view .LVU426
 1377              	.LBE508:
 1378              	.LBE519:
 1379              	.LBE530:
 1380              	.LBE545:
 1381              	.LBE564:
 1382              	.LBE722:
 1383              	.LBB723:
 1384              	.LBB700:
 1385              	.LBB656:
 1386              	.LBB636:
 143:mi/plaits/dsp/oscillator/grainlet_oscillator.h ****     MAKE_INTEGRAL_FRACTIONAL(shape);
 1387              		.loc 3 143 11 view .LVU427
 1388 0136 24EE800A 		vmul.f32	s0, s9, s0
 1389              	.LBE636:
 1390              	.LBE656:
 1391              	.LBE700:
 1392              	.LBE723:
 1393              	.LBB724:
 1394              	.LBB565:
 1395              	.LBB546:
 1396              	.LBB493:
 1397              	.LBB480:
 1398              	.LBB473:
 1399              	.LBB466:
 1400              	.LBB459:
 1401              		.loc 6 74 24 view .LVU428
 1402 013a A9EE267A 		vfma.f32	s14, s18, s13
 1403              	.LVL95:
 1404              		.loc 6 74 24 view .LVU429
 1405              	.LBE459:
 1406              	.LBE466:
 1407              	.LBE473:
 1408              	.LBE480:
 1409              	.LBE493:
 1410              	.LBE546:
 1411              	.LBB547:
 1412              	.LBB531:
 1413              	.LBB520:
 1414              	.LBB509:
  70:mi/stmlib/dsp/dsp.h ****   MAKE_INTEGRAL_FRACTIONAL(index)
 1415              		.loc 6 70 9 view .LVU430
 1416 013e 63EEA73A 		vmul.f32	s7, s7, s15
 1417              	.LBE509:
 1418              	.LBE520:
 1419              	.LBE531:
 1420              	.LBE547:
 1421              	.LBE565:
 1422              	.LBE724:
 1423              	.LBB725:
 1424              	.LBB701:
 1425              	.LBB657:
 1426              	.LBB637:
 144:mi/plaits/dsp/oscillator/grainlet_oscillator.h ****     float t = 1.0f - shape_fractional;
 1427              		.loc 3 144 5 view .LVU431
 1428 0142 BDEEC0BA 		vcvt.s32.f32	s22, s0
 1429              	.LBE637:
ARM GAS  /var/folders/9k/zk1mgrrd7wg4__6zvxvr9w8m0000gn/T//cc9Z2LKb.s 			page 44


 1430              	.LBE657:
 1431              	.LBE701:
 1432              	.LBE725:
 1433              	.LBB726:
 1434              	.LBB566:
 1435              	.LBB548:
 1436              	.LBB494:
 166:mi/plaits/dsp/oscillator/grainlet_oscillator.h ****   }
 1437              		.loc 3 166 35 view .LVU432
 1438 0146 B5EE00AA 		vmov.f32	s20, #2.5e-1
 1439              	.LVL96:
 166:mi/plaits/dsp/oscillator/grainlet_oscillator.h ****   }
 1440              		.loc 3 166 35 view .LVU433
 1441              	.LBE494:
 1442              	.LBE548:
 1443              	.LBB549:
 1444              	.LBB532:
 1445              	.LBB521:
 1446              	.LBB510:
  71:mi/stmlib/dsp/dsp.h ****   float a = table[index_integral];
 1447              		.loc 6 71 3 view .LVU434
 1448 014a BDEEE39A 		vcvt.s32.f32	s18, s7
 1449              	.LBE510:
 1450              	.LBE521:
 1451              	.LBE532:
 1452              	.LBE549:
 1453              	.LBE566:
 1454              	.LBE726:
 1455              	.LBB727:
 1456              	.LBB702:
 1457              	.LBB658:
 1458              	.LBB638:
 144:mi/plaits/dsp/oscillator/grainlet_oscillator.h ****     float t = 1.0f - shape_fractional;
 1459              		.loc 3 144 5 view .LVU435
 1460 014e F8EECB6A 		vcvt.f32.s32	s13, s22
 1461 0152 1BEE102A 		vmov	r2, s22	@ int
 1462              	.LVL97:
 144:mi/plaits/dsp/oscillator/grainlet_oscillator.h ****     float t = 1.0f - shape_fractional;
 1463              		.loc 3 144 5 view .LVU436
 1464              	.LBE638:
 1465              	.LBE658:
 1466              	.LBE702:
 1467              	.LBE727:
 1468              	.LBB728:
 1469              	.LBB567:
 175:mi/plaits/dsp/oscillator/grainlet_oscillator.h ****     float formant = Sine(formant_phase);
 1470              		.loc 3 175 5 is_stmt 1 view .LVU437
 1471              	.LBB550:
 1472              	.LBI502:
  48:mi/plaits/dsp/oscillator/sine_oscillator.h ****   return stmlib::InterpolateWrap(lut_sine, phase, kSineLUTSize);
 1473              		.loc 7 48 14 view .LVU438
 1474              	.LBB533:
 1475              		.loc 7 49 3 view .LVU439
 1476              	.LBB522:
 1477              	.LBI504:
  68:mi/stmlib/dsp/dsp.h ****   index -= static_cast<float>(static_cast<int32_t>(index));
 1478              		.loc 6 68 14 view .LVU440
ARM GAS  /var/folders/9k/zk1mgrrd7wg4__6zvxvr9w8m0000gn/T//cc9Z2LKb.s 			page 45


 1479              	.LBB511:
  69:mi/stmlib/dsp/dsp.h ****   index *= size;
 1480              		.loc 6 69 3 view .LVU441
  70:mi/stmlib/dsp/dsp.h ****   MAKE_INTEGRAL_FRACTIONAL(index)
 1481              		.loc 6 70 3 view .LVU442
  71:mi/stmlib/dsp/dsp.h ****   float a = table[index_integral];
 1482              		.loc 6 71 3 view .LVU443
 1483              	.LBE511:
 1484              	.LBE522:
 1485              	.LBE533:
 1486              	.LBE550:
 176:mi/plaits/dsp/oscillator/grainlet_oscillator.h ****     return carrier * (formant + bleed) / (1.0f + bleed);
 1487              		.loc 3 176 48 is_stmt 0 view .LVU444
 1488 0156 74EE29AA 		vadd.f32	s21, s8, s19
 1489              	.LBB551:
 1490              	.LBB534:
 1491              	.LBB523:
 1492              	.LBB512:
  71:mi/stmlib/dsp/dsp.h ****   float a = table[index_integral];
 1493              		.loc 6 71 3 view .LVU445
 1494 015a 19EE10CA 		vmov	ip, s18	@ int
 1495              	.LVL98:
  71:mi/stmlib/dsp/dsp.h ****   float a = table[index_integral];
 1496              		.loc 6 71 3 is_stmt 1 view .LVU446
  72:mi/stmlib/dsp/dsp.h ****   float b = table[index_integral + 1];
 1497              		.loc 6 72 3 view .LVU447
  71:mi/stmlib/dsp/dsp.h ****   float a = table[index_integral];
 1498              		.loc 6 71 3 is_stmt 0 view .LVU448
 1499 015e B8EEC99A 		vcvt.f32.s32	s18, s18
 1500              	.LBE512:
 1501              	.LBE523:
 1502              	.LBE534:
 1503              	.LBE551:
 1504              	.LBE567:
 1505              	.LBE728:
 1506              	.LBB729:
 1507              	.LBB703:
 1508              	.LBB659:
 1509              	.LBB639:
 144:mi/plaits/dsp/oscillator/grainlet_oscillator.h ****     float t = 1.0f - shape_fractional;
 1510              		.loc 3 144 5 view .LVU449
 1511 0162 30EE660A 		vsub.f32	s0, s0, s13
 1512              	.LBE639:
 1513              	.LBE659:
 1514              	.LBE703:
 1515              	.LBE729:
 1516              	.LBB730:
 1517              	.LBB568:
 1518              	.LBB552:
 1519              	.LBB535:
 1520              	.LBB524:
 1521              	.LBB513:
  72:mi/stmlib/dsp/dsp.h ****   float b = table[index_integral + 1];
 1522              		.loc 6 72 9 view .LVU450
 1523 0166 03EB8C06 		add	r6, r3, ip, lsl #2
 1524              	.LBE513:
 1525              	.LBE524:
ARM GAS  /var/folders/9k/zk1mgrrd7wg4__6zvxvr9w8m0000gn/T//cc9Z2LKb.s 			page 46


 1526              	.LBE535:
 1527              	.LBE552:
 1528              	.LBB553:
 1529              	.LBB495:
 166:mi/plaits/dsp/oscillator/grainlet_oscillator.h ****   }
 1530              		.loc 3 166 25 view .LVU451
 1531 016a 77EE296A 		vadd.f32	s13, s14, s19
 1532              	.LBE495:
 1533              	.LBE553:
 1534              	.LBB554:
 1535              	.LBB536:
 1536              	.LBB525:
 1537              	.LBB514:
  73:mi/stmlib/dsp/dsp.h ****   return a + (b - a) * index_fractional;
 1538              		.loc 6 73 9 view .LVU452
 1539 016e 04EB8C05 		add	r5, r4, ip, lsl #2
  71:mi/stmlib/dsp/dsp.h ****   float a = table[index_integral];
 1540              		.loc 6 71 3 view .LVU453
 1541 0172 73EEC93A 		vsub.f32	s7, s7, s18
 1542              	.LVL99:
  72:mi/stmlib/dsp/dsp.h ****   float b = table[index_integral + 1];
 1543              		.loc 6 72 9 view .LVU454
 1544 0176 96ED007A 		vldr.32	s14, [r6]
 1545              	.LVL100:
  73:mi/stmlib/dsp/dsp.h ****   return a + (b - a) * index_fractional;
 1546              		.loc 6 73 3 is_stmt 1 view .LVU455
 1547              		.loc 6 74 3 view .LVU456
 1548              	.LBE514:
 1549              	.LBE525:
 1550              	.LBE536:
 1551              	.LBE554:
 1552              	.LBE568:
 1553              	.LBE730:
 1554              	.LBB731:
 1555              	.LBB732:
 1556              		.loc 8 65 34 is_stmt 0 view .LVU457
 1557 017a 36EE226A 		vadd.f32	s12, s12, s5
 1558              	.LVL101:
 1559              		.loc 8 65 34 view .LVU458
 1560              	.LBE732:
 1561              	.LBE731:
 1562              	.LBB735:
 1563              	.LBB569:
 1564              	.LBB555:
 1565              	.LBB537:
 1566              	.LBB526:
 1567              	.LBB515:
 1568              		.loc 6 74 17 view .LVU459
 1569 017e 95ED00BA 		vldr.32	s22, [r5]
 1570              	.LBE515:
 1571              	.LBE526:
 1572              	.LBE537:
 1573              	.LBE555:
 1574              	.LBB556:
 1575              	.LBB496:
 166:mi/plaits/dsp/oscillator/grainlet_oscillator.h ****   }
 1576              		.loc 3 166 35 view .LVU460
ARM GAS  /var/folders/9k/zk1mgrrd7wg4__6zvxvr9w8m0000gn/T//cc9Z2LKb.s 			page 47


 1577 0182 66EE8A6A 		vmul.f32	s13, s13, s20
 1578              	.LVL102:
 166:mi/plaits/dsp/oscillator/grainlet_oscillator.h ****   }
 1579              		.loc 3 166 35 view .LVU461
 1580              	.LBE496:
 1581              	.LBE556:
 1582              	.LBE569:
 1583              	.LBE735:
 1584              	.LBB736:
 1585              	.LBB704:
 1586              	.LBB660:
 1587              	.LBB640:
 145:mi/plaits/dsp/oscillator/grainlet_oscillator.h ****     
 1588              		.loc 3 145 11 view .LVU462
 1589 0186 39EEC00A 		vsub.f32	s0, s19, s0
 1590              	.LBE640:
 1591              	.LBE660:
 1592              	.LBE704:
 1593              	.LBE736:
 1594              	.LBB737:
 1595              	.LBB570:
 1596              	.LBB557:
 1597              	.LBB538:
 1598              	.LBB527:
 1599              	.LBB516:
 1600              		.loc 6 74 17 view .LVU463
 1601 018a 3BEE479A 		vsub.f32	s18, s22, s14
 1602              		.loc 6 74 24 view .LVU464
 1603 018e A3EE897A 		vfma.f32	s14, s7, s18
 1604              	.LVL103:
 1605              		.loc 6 74 24 view .LVU465
 1606              	.LBE516:
 1607              	.LBE527:
 1608              	.LBE538:
 1609              	.LBE557:
 1610              		.loc 3 176 5 is_stmt 1 view .LVU466
 1611              		.loc 3 176 31 is_stmt 0 view .LVU467
 1612 0192 34EE077A 		vadd.f32	s14, s8, s14
 1613              	.LVL104:
 1614              		.loc 3 176 20 view .LVU468
 1615 0196 26EE877A 		vmul.f32	s14, s13, s14
 1616              		.loc 3 176 55 view .LVU469
 1617 019a 87EE2A9A 		vdiv.f32	s18, s14, s21
 1618              	.LVL105:
 1619              		.loc 3 176 55 view .LVU470
 1620              	.LBE570:
 1621              	.LBE737:
 113:mi/plaits/dsp/oscillator/grainlet_oscillator.h ****             0.0f,
 1622              		.loc 3 113 9 is_stmt 1 view .LVU471
 1623              	.LBB738:
 1624              	.LBI582:
  64:mi/stmlib/dsp/parameter_interpolator.h ****     return value_ + increment_ * t;
 1625              		.loc 8 64 16 view .LVU472
 1626              	.LBB584:
 1627              		.loc 8 65 5 view .LVU473
 1628              		.loc 8 65 5 is_stmt 0 view .LVU474
 1629              	.LBE584:
ARM GAS  /var/folders/9k/zk1mgrrd7wg4__6zvxvr9w8m0000gn/T//cc9Z2LKb.s 			page 48


 1630              	.LBE738:
 1631              	.LBB739:
 1632              	.LBI731:
  64:mi/stmlib/dsp/parameter_interpolator.h ****     return value_ + increment_ * t;
 1633              		.loc 8 64 16 is_stmt 1 view .LVU475
 1634              	.LBB733:
 1635              		.loc 8 65 5 view .LVU476
 1636              		.loc 8 65 5 is_stmt 0 view .LVU477
 1637              	.LBE733:
 1638              	.LBE739:
 1639              	.LBB740:
 1640              	.LBI587:
 169:mi/plaits/dsp/oscillator/grainlet_oscillator.h ****       float carrier_phase,
 1641              		.loc 3 169 16 is_stmt 1 view .LVU478
 1642              	.LBB705:
 174:mi/plaits/dsp/oscillator/grainlet_oscillator.h ****     float formant = Sine(formant_phase);
 1643              		.loc 3 174 5 view .LVU479
 1644              	.LBB661:
 1645              	.LBI589:
 142:mi/plaits/dsp/oscillator/grainlet_oscillator.h ****     shape *= 3.0f;
 1646              		.loc 3 142 16 view .LVU480
 1647              	.LBB641:
 143:mi/plaits/dsp/oscillator/grainlet_oscillator.h ****     MAKE_INTEGRAL_FRACTIONAL(shape);
 1648              		.loc 3 143 5 view .LVU481
 144:mi/plaits/dsp/oscillator/grainlet_oscillator.h ****     float t = 1.0f - shape_fractional;
 1649              		.loc 3 144 5 view .LVU482
 144:mi/plaits/dsp/oscillator/grainlet_oscillator.h ****     float t = 1.0f - shape_fractional;
 1650              		.loc 3 144 5 view .LVU483
 144:mi/plaits/dsp/oscillator/grainlet_oscillator.h ****     float t = 1.0f - shape_fractional;
 1651              		.loc 3 144 36 view .LVU484
 145:mi/plaits/dsp/oscillator/grainlet_oscillator.h ****     
 1652              		.loc 3 145 5 view .LVU485
 147:mi/plaits/dsp/oscillator/grainlet_oscillator.h ****       phase = phase * (1.0f + t * t * t * 15.0f);
 1653              		.loc 3 147 5 view .LVU486
 1654              	.LBB591:
 1655 019e 002A     		cmp	r2, #0
 1656 01a0 40F01781 		bne	.L42
 148:mi/plaits/dsp/oscillator/grainlet_oscillator.h ****       if (phase >= 1.0f) {
 1657              		.loc 3 148 7 view .LVU487
 148:mi/plaits/dsp/oscillator/grainlet_oscillator.h ****       if (phase >= 1.0f) {
 1658              		.loc 3 148 13 is_stmt 0 view .LVU488
 1659 01a4 DFEDA63A 		vldr.32	s7, .L95+12
 1660              	.LVL106:
 148:mi/plaits/dsp/oscillator/grainlet_oscillator.h ****       if (phase >= 1.0f) {
 1661              		.loc 3 148 33 view .LVU489
 1662 01a8 60EE006A 		vmul.f32	s13, s0, s0
 148:mi/plaits/dsp/oscillator/grainlet_oscillator.h ****       if (phase >= 1.0f) {
 1663              		.loc 3 148 29 view .LVU490
 1664 01ac B2EE0E4A 		vmov.f32	s8, #1.5e+1
 1665 01b0 B0EE697A 		vmov.f32	s14, s19
 148:mi/plaits/dsp/oscillator/grainlet_oscillator.h ****       if (phase >= 1.0f) {
 1666              		.loc 3 148 37 view .LVU491
 1667 01b4 66EE806A 		vmul.f32	s13, s13, s0
 148:mi/plaits/dsp/oscillator/grainlet_oscillator.h ****       if (phase >= 1.0f) {
 1668              		.loc 3 148 29 view .LVU492
 1669 01b8 A6EE847A 		vfma.f32	s14, s13, s8
 148:mi/plaits/dsp/oscillator/grainlet_oscillator.h ****       if (phase >= 1.0f) {
ARM GAS  /var/folders/9k/zk1mgrrd7wg4__6zvxvr9w8m0000gn/T//cc9Z2LKb.s 			page 49


 1670              		.loc 3 148 13 view .LVU493
 1671 01bc 27EE237A 		vmul.f32	s14, s14, s7
 1672              	.LVL107:
 149:mi/plaits/dsp/oscillator/grainlet_oscillator.h ****         phase = 1.0f;
 1673              		.loc 3 149 7 is_stmt 1 view .LVU494
 1674 01c0 B4EEE97A 		vcmpe.f32	s14, s19
 1675 01c4 F1EE10FA 		vmrs	APSR_nzcv, FPSCR
 1676 01c8 C0F2D281 		blt	.L87
 1677              	.LVL108:
 1678              	.L62:
 1679              	.LBB592:
 149:mi/plaits/dsp/oscillator/grainlet_oscillator.h ****         phase = 1.0f;
 1680              		.loc 3 149 7 is_stmt 0 view .LVU495
 1681 01cc 40F20465 		movw	r5, #1540
 1682 01d0 4FF4C06C 		mov	ip, #1536
 1683              	.LVL109:
 1684              	.L44:
 149:mi/plaits/dsp/oscillator/grainlet_oscillator.h ****         phase = 1.0f;
 1685              		.loc 3 149 7 view .LVU496
 1686              	.LBE592:
 1687              	.LBE591:
 166:mi/plaits/dsp/oscillator/grainlet_oscillator.h ****   }
 1688              		.loc 3 166 5 is_stmt 1 view .LVU497
 1689              	.LBB599:
 1690              	.LBI599:
  48:mi/plaits/dsp/oscillator/sine_oscillator.h ****   return stmlib::InterpolateWrap(lut_sine, phase, kSineLUTSize);
 1691              		.loc 7 48 14 view .LVU498
 1692              	.LBB600:
 1693              		.loc 7 49 3 view .LVU499
 1694              	.LBB601:
 1695              	.LBI601:
  68:mi/stmlib/dsp/dsp.h ****   index -= static_cast<float>(static_cast<int32_t>(index));
 1696              		.loc 6 68 14 view .LVU500
 1697              	.LBB602:
  69:mi/stmlib/dsp/dsp.h ****   index *= size;
 1698              		.loc 6 69 3 view .LVU501
  70:mi/stmlib/dsp/dsp.h ****   MAKE_INTEGRAL_FRACTIONAL(index)
 1699              		.loc 6 70 3 view .LVU502
  71:mi/stmlib/dsp/dsp.h ****   float a = table[index_integral];
 1700              		.loc 6 71 3 view .LVU503
  71:mi/stmlib/dsp/dsp.h ****   float a = table[index_integral];
 1701              		.loc 6 71 3 view .LVU504
  72:mi/stmlib/dsp/dsp.h ****   float b = table[index_integral + 1];
 1702              		.loc 6 72 3 view .LVU505
  72:mi/stmlib/dsp/dsp.h ****   float b = table[index_integral + 1];
 1703              		.loc 6 72 9 is_stmt 0 view .LVU506
 1704 01d4 9C44     		add	ip, ip, r3
  73:mi/stmlib/dsp/dsp.h ****   return a + (b - a) * index_fractional;
 1705              		.loc 6 73 9 view .LVU507
 1706 01d6 1D44     		add	r5, r5, r3
 1707              	.LBE602:
 1708              	.LBE601:
 1709              	.LBE600:
 1710              	.LBE599:
 1711              	.LBE641:
 1712              	.LBE661:
 1713              	.LBB662:
ARM GAS  /var/folders/9k/zk1mgrrd7wg4__6zvxvr9w8m0000gn/T//cc9Z2LKb.s 			page 50


 1714              	.LBB663:
 1715              	.LBB664:
 1716              	.LBB665:
  72:mi/stmlib/dsp/dsp.h ****   float b = table[index_integral + 1];
 1717              		.loc 6 72 9 view .LVU508
 1718 01d8 D3ED007A 		vldr.32	s15, [r3]
 1719              	.LBE665:
 1720              	.LBE664:
 1721              	.LBE663:
 1722              	.LBE662:
 1723              		.loc 3 176 48 view .LVU509
 1724 01dc B7EE00BA 		vmov.f32	s22, #1.0e+0
 1725              	.LVL110:
 1726              	.LBB681:
 1727              	.LBB642:
 1728              	.LBB624:
 1729              	.LBB617:
 1730              	.LBB610:
 1731              	.LBB603:
  72:mi/stmlib/dsp/dsp.h ****   float b = table[index_integral + 1];
 1732              		.loc 6 72 9 view .LVU510
 1733 01e0 9CED007A 		vldr.32	s14, [ip]
 1734              	.LVL111:
  73:mi/stmlib/dsp/dsp.h ****   return a + (b - a) * index_fractional;
 1735              		.loc 6 73 3 is_stmt 1 view .LVU511
 1736              		.loc 6 74 3 view .LVU512
 1737              	.LBE603:
 1738              	.LBE610:
 1739              	.LBE617:
 1740              	.LBE624:
 166:mi/plaits/dsp/oscillator/grainlet_oscillator.h ****   }
 1741              		.loc 3 166 35 is_stmt 0 view .LVU513
 1742 01e4 F5EE00AA 		vmov.f32	s21, #2.5e-1
 1743              	.LVL112:
 166:mi/plaits/dsp/oscillator/grainlet_oscillator.h ****   }
 1744              		.loc 3 166 35 view .LVU514
 1745              	.LBE642:
 1746              	.LBE681:
 1747              	.LBB682:
 1748              	.LBB676:
 1749              	.LBB671:
 1750              	.LBB666:
 1751              		.loc 6 74 17 view .LVU515
 1752 01e8 D3ED019A 		vldr.32	s19, [r3, #4]
 1753              	.LBE666:
 1754              	.LBE671:
 1755              	.LBE676:
 1756              	.LBE682:
 1757              	.LBE705:
 1758              	.LBE740:
 1759              	.LBB741:
 1760              	.LBB742:
 1761              		.file 9 "mi/stmlib/dsp/polyblep.h"
   1:mi/stmlib/dsp/polyblep.h **** // Copyright 2017 Emilie Gillet.
   2:mi/stmlib/dsp/polyblep.h **** //
   3:mi/stmlib/dsp/polyblep.h **** // Author: Emilie Gillet (emilie.o.gillet@gmail.com)
   4:mi/stmlib/dsp/polyblep.h **** //
ARM GAS  /var/folders/9k/zk1mgrrd7wg4__6zvxvr9w8m0000gn/T//cc9Z2LKb.s 			page 51


   5:mi/stmlib/dsp/polyblep.h **** // Permission is hereby granted, free of charge, to any person obtaining a copy
   6:mi/stmlib/dsp/polyblep.h **** // of this software and associated documentation files (the "Software"), to deal
   7:mi/stmlib/dsp/polyblep.h **** // in the Software without restriction, including without limitation the rights
   8:mi/stmlib/dsp/polyblep.h **** // to use, copy, modify, merge, publish, distribute, sublicense, and/or sell
   9:mi/stmlib/dsp/polyblep.h **** // copies of the Software, and to permit persons to whom the Software is
  10:mi/stmlib/dsp/polyblep.h **** // furnished to do so, subject to the following conditions:
  11:mi/stmlib/dsp/polyblep.h **** // 
  12:mi/stmlib/dsp/polyblep.h **** // The above copyright notice and this permission notice shall be included in
  13:mi/stmlib/dsp/polyblep.h **** // all copies or substantial portions of the Software.
  14:mi/stmlib/dsp/polyblep.h **** // 
  15:mi/stmlib/dsp/polyblep.h **** // THE SOFTWARE IS PROVIDED "AS IS", WITHOUT WARRANTY OF ANY KIND, EXPRESS OR
  16:mi/stmlib/dsp/polyblep.h **** // IMPLIED, INCLUDING BUT NOT LIMITED TO THE WARRANTIES OF MERCHANTABILITY,
  17:mi/stmlib/dsp/polyblep.h **** // FITNESS FOR A PARTICULAR PURPOSE AND NONINFRINGEMENT. IN NO EVENT SHALL THE
  18:mi/stmlib/dsp/polyblep.h **** // AUTHORS OR COPYRIGHT HOLDERS BE LIABLE FOR ANY CLAIM, DAMAGES OR OTHER
  19:mi/stmlib/dsp/polyblep.h **** // LIABILITY, WHETHER IN AN ACTION OF CONTRACT, TORT OR OTHERWISE, ARISING FROM,
  20:mi/stmlib/dsp/polyblep.h **** // OUT OF OR IN CONNECTION WITH THE SOFTWARE OR THE USE OR OTHER DEALINGS IN
  21:mi/stmlib/dsp/polyblep.h **** // THE SOFTWARE.
  22:mi/stmlib/dsp/polyblep.h **** // 
  23:mi/stmlib/dsp/polyblep.h **** // See http://creativecommons.org/licenses/MIT/ for more information.
  24:mi/stmlib/dsp/polyblep.h **** //
  25:mi/stmlib/dsp/polyblep.h **** // -----------------------------------------------------------------------------
  26:mi/stmlib/dsp/polyblep.h **** //
  27:mi/stmlib/dsp/polyblep.h **** // Polynomial approximation of band-limited step for band-limited waveform
  28:mi/stmlib/dsp/polyblep.h **** // synthesis.
  29:mi/stmlib/dsp/polyblep.h **** 
  30:mi/stmlib/dsp/polyblep.h **** #ifndef STMLIB_DSP_POLYBLEP_H_
  31:mi/stmlib/dsp/polyblep.h **** #define STMLIB_DSP_POLYBLEP_H_
  32:mi/stmlib/dsp/polyblep.h **** 
  33:mi/stmlib/dsp/polyblep.h **** #include "stmlib/stmlib.h"
  34:mi/stmlib/dsp/polyblep.h **** 
  35:mi/stmlib/dsp/polyblep.h **** namespace stmlib {
  36:mi/stmlib/dsp/polyblep.h **** 
  37:mi/stmlib/dsp/polyblep.h **** inline float ThisBlepSample(float t) {
  38:mi/stmlib/dsp/polyblep.h ****   return 0.5f * t * t;
 1762              		.loc 9 38 15 view .LVU516
 1763 01ec B6EE00AA 		vmov.f32	s20, #5.0e-1
 1764              	.LBE742:
 1765              	.LBE741:
 1766              	.LBB746:
 1767              	.LBB706:
 1768              	.LBB683:
 1769              	.LBB643:
 1770              	.LBB625:
 1771              	.LBB618:
 1772              	.LBB611:
 1773              	.LBB604:
 1774              		.loc 6 74 17 view .LVU517
 1775 01f0 D5ED00BA 		vldr.32	s23, [r5]
 1776              	.LBE604:
 1777              	.LBE611:
 1778              	.LBE618:
 1779              	.LBE625:
 1780              	.LBE643:
 1781              	.LBE683:
 1782              	.LBB684:
 1783              	.LBB677:
 1784              	.LBB672:
ARM GAS  /var/folders/9k/zk1mgrrd7wg4__6zvxvr9w8m0000gn/T//cc9Z2LKb.s 			page 52


 1785              	.LBB667:
 1786 01f4 79EEE79A 		vsub.f32	s19, s19, s15
 1787              		.loc 6 74 24 view .LVU518
 1788 01f8 9FED914A 		vldr.32	s8, .L95+12
 1789              	.LBE667:
 1790              	.LBE672:
 1791              	.LBE677:
 1792              	.LBE684:
 1793              	.LBB685:
 1794              	.LBB644:
 1795              	.LBB626:
 1796              	.LBB619:
 1797              	.LBB612:
 1798              	.LBB605:
 1799              		.loc 6 74 17 view .LVU519
 1800 01fc 7BEEC7BA 		vsub.f32	s23, s23, s14
 1801              	.LBE605:
 1802              	.LBE612:
 1803              	.LBE619:
 1804              	.LBE626:
 1805              	.LBE644:
 1806              	.LBE685:
 1807              	.LBE706:
 1808              	.LBE746:
 1809              	.LBB747:
 1810              	.LBB743:
 1811              		.loc 9 38 15 view .LVU520
 1812 0200 28EE8AAA 		vmul.f32	s20, s17, s20
 1813              	.LBE743:
 1814              	.LBE747:
 1815              	.LBB748:
 1816              	.LBB707:
 1817              	.LBB686:
 1818              	.LBB678:
 1819              	.LBB673:
 1820              	.LBB668:
 1821              		.loc 6 74 24 view .LVU521
 1822 0204 E9EE847A 		vfma.f32	s15, s19, s8
 1823              	.LBE668:
 1824              	.LBE673:
 1825              	.LBE678:
 1826              	.LBE686:
 1827              	.LBB687:
 1828              	.LBB645:
 1829              	.LBB627:
 1830              	.LBB620:
 1831              	.LBB613:
 1832              	.LBB606:
 1833 0208 ABEEA37A 		vfma.f32	s14, s23, s7
 1834              	.LVL113:
 1835              		.loc 6 74 24 view .LVU522
 1836              	.LBE606:
 1837              	.LBE613:
 1838              	.LBE620:
 1839              	.LBE627:
 1840              	.LBE645:
 1841              	.LBE687:
ARM GAS  /var/folders/9k/zk1mgrrd7wg4__6zvxvr9w8m0000gn/T//cc9Z2LKb.s 			page 53


 175:mi/plaits/dsp/oscillator/grainlet_oscillator.h ****     return carrier * (formant + bleed) / (1.0f + bleed);
 1842              		.loc 3 175 5 is_stmt 1 view .LVU523
 1843              	.LBB688:
 1844              	.LBI662:
  48:mi/plaits/dsp/oscillator/sine_oscillator.h ****   return stmlib::InterpolateWrap(lut_sine, phase, kSineLUTSize);
 1845              		.loc 7 48 14 view .LVU524
 1846              	.LBB679:
 1847              		.loc 7 49 3 view .LVU525
 1848              	.LBB674:
 1849              	.LBI664:
  68:mi/stmlib/dsp/dsp.h ****   index -= static_cast<float>(static_cast<int32_t>(index));
 1850              		.loc 6 68 14 view .LVU526
 1851              	.LBB669:
  69:mi/stmlib/dsp/dsp.h ****   index *= size;
 1852              		.loc 6 69 3 view .LVU527
  70:mi/stmlib/dsp/dsp.h ****   MAKE_INTEGRAL_FRACTIONAL(index)
 1853              		.loc 6 70 3 view .LVU528
  71:mi/stmlib/dsp/dsp.h ****   float a = table[index_integral];
 1854              		.loc 6 71 3 view .LVU529
  71:mi/stmlib/dsp/dsp.h ****   float a = table[index_integral];
 1855              		.loc 6 71 3 view .LVU530
  72:mi/stmlib/dsp/dsp.h ****   float b = table[index_integral + 1];
 1856              		.loc 6 72 3 view .LVU531
  73:mi/stmlib/dsp/dsp.h ****   return a + (b - a) * index_fractional;
 1857              		.loc 6 73 3 view .LVU532
 1858              		.loc 6 74 3 view .LVU533
 1859              		.loc 6 74 3 is_stmt 0 view .LVU534
 1860              	.LBE669:
 1861              	.LBE674:
 1862              	.LBE679:
 1863              	.LBE688:
 1864              		.loc 3 176 48 view .LVU535
 1865 020c 76EE0B3A 		vadd.f32	s7, s12, s22
 1866              	.LBE707:
 1867              	.LBE748:
 1868              	.LBB749:
 1869              	.LBB750:
  39:mi/stmlib/dsp/polyblep.h **** }
  40:mi/stmlib/dsp/polyblep.h **** 
  41:mi/stmlib/dsp/polyblep.h **** inline float NextBlepSample(float t) {
  42:mi/stmlib/dsp/polyblep.h ****   t = 1.0f - t;
  43:mi/stmlib/dsp/polyblep.h ****   return -0.5f * t * t;
 1870              		.loc 9 43 16 view .LVU536
 1871 0210 FEEE009A 		vmov.f32	s19, #-5.0e-1
 1872              	.LBE750:
 1873              	.LBE749:
 1874              	.LBB754:
 1875              	.LBB708:
 1876              	.LBB689:
 1877              	.LBB680:
 1878              	.LBB675:
 1879              	.LBB670:
 1880              		.loc 6 74 24 view .LVU537
 1881 0214 F0EE676A 		vmov.f32	s13, s15
 1882              	.LVL114:
 1883              		.loc 6 74 24 view .LVU538
 1884              	.LBE670:
ARM GAS  /var/folders/9k/zk1mgrrd7wg4__6zvxvr9w8m0000gn/T//cc9Z2LKb.s 			page 54


 1885              	.LBE675:
 1886              	.LBE680:
 1887              	.LBE689:
 1888              		.loc 3 176 5 is_stmt 1 view .LVU539
 1889              		.loc 3 176 5 is_stmt 0 view .LVU540
 1890              	.LBE708:
 1891              	.LBE754:
 119:mi/plaits/dsp/oscillator/grainlet_oscillator.h ****         this_sample += discontinuity * stmlib::ThisBlepSample(reset_time);
 1892              		.loc 3 119 9 is_stmt 1 view .LVU541
 1893              	.LBB755:
 1894              	.LBB709:
 1895              	.LBB690:
 1896              	.LBB646:
 166:mi/plaits/dsp/oscillator/grainlet_oscillator.h ****   }
 1897              		.loc 3 166 25 is_stmt 0 view .LVU542
 1898 0218 37EE0B7A 		vadd.f32	s14, s14, s22
 1899              	.LVL115:
 166:mi/plaits/dsp/oscillator/grainlet_oscillator.h ****   }
 1900              		.loc 3 166 25 view .LVU543
 1901              	.LBE646:
 1902              	.LBE690:
 1903              	.LBE709:
 1904              	.LBE755:
 1905              	.LBB756:
 1906              	.LBB751:
 1907              		.loc 9 43 16 view .LVU544
 1908 021c 68EE299A 		vmul.f32	s19, s16, s19
 1909              	.LBE751:
 1910              	.LBE756:
 1911              	.LBB757:
 1912              	.LBB710:
 1913              		.loc 3 176 31 view .LVU545
 1914 0220 76EE266A 		vadd.f32	s13, s12, s13
 1915              	.LVL116:
 1916              	.LBB691:
 1917              	.LBB647:
 166:mi/plaits/dsp/oscillator/grainlet_oscillator.h ****   }
 1918              		.loc 3 166 35 view .LVU546
 1919 0224 27EE2A7A 		vmul.f32	s14, s14, s21
 1920              	.LBE647:
 1921              	.LBE691:
 1922              	.LBE710:
 1923              	.LBE757:
 122:mi/plaits/dsp/oscillator/grainlet_oscillator.h ****       } else {
 1924              		.loc 3 122 37 view .LVU547
 1925 0228 68EE857A 		vmul.f32	s15, s17, s10
 1926              	.LVL117:
 1927              	.LBB758:
 1928              	.LBB752:
 1929              		.loc 9 43 22 view .LVU548
 1930 022c 29EE888A 		vmul.f32	s16, s19, s16
 1931              	.LVL118:
 1932              		.loc 9 43 22 view .LVU549
 1933              	.LBE752:
 1934              	.LBE758:
 1935              	.LBB759:
 1936              	.LBB711:
ARM GAS  /var/folders/9k/zk1mgrrd7wg4__6zvxvr9w8m0000gn/T//cc9Z2LKb.s 			page 55


 1937              		.loc 3 176 20 view .LVU550
 1938 0230 27EE267A 		vmul.f32	s14, s14, s13
 1939              	.LBE711:
 1940              	.LBE759:
 1941              	.LBB760:
 1942              	.LBB744:
  38:mi/stmlib/dsp/polyblep.h **** }
 1943              		.loc 9 38 21 view .LVU551
 1944 0234 6AEE288A 		vmul.f32	s17, s20, s17
 1945              	.LVL119:
  38:mi/stmlib/dsp/polyblep.h **** }
 1946              		.loc 9 38 21 view .LVU552
 1947              	.LBE744:
 1948              	.LBE760:
 122:mi/plaits/dsp/oscillator/grainlet_oscillator.h ****       } else {
 1949              		.loc 3 122 24 view .LVU553
 1950 0238 C0ED017A 		vstr.32	s15, [r0, #4]
 1951              	.LVL120:
 1952              	.LBB761:
 1953              	.LBB712:
 1954              		.loc 3 176 55 view .LVU554
 1955 023c C7EE236A 		vdiv.f32	s13, s14, s7
 1956              	.LVL121:
 1957              		.loc 3 176 55 view .LVU555
 1958              	.LBE712:
 1959              	.LBE761:
 119:mi/plaits/dsp/oscillator/grainlet_oscillator.h ****         this_sample += discontinuity * stmlib::ThisBlepSample(reset_time);
 1960              		.loc 3 119 15 view .LVU556
 1961 0240 36EEC99A 		vsub.f32	s18, s13, s18
 1962              	.LVL122:
 120:mi/plaits/dsp/oscillator/grainlet_oscillator.h ****         next_sample += discontinuity * stmlib::NextBlepSample(reset_time);
 1963              		.loc 3 120 9 is_stmt 1 view .LVU557
 1964              	.LBB762:
 1965              	.LBI741:
  37:mi/stmlib/dsp/polyblep.h ****   return 0.5f * t * t;
 1966              		.loc 9 37 14 view .LVU558
 1967              	.LBB745:
  38:mi/stmlib/dsp/polyblep.h **** }
 1968              		.loc 9 38 3 view .LVU559
  38:mi/stmlib/dsp/polyblep.h **** }
 1969              		.loc 9 38 3 is_stmt 0 view .LVU560
 1970              	.LBE745:
 1971              	.LBE762:
 120:mi/plaits/dsp/oscillator/grainlet_oscillator.h ****         next_sample += discontinuity * stmlib::NextBlepSample(reset_time);
 1972              		.loc 3 120 21 view .LVU561
 1973 0244 E9EE281A 		vfma.f32	s3, s18, s17
 1974              	.LVL123:
 121:mi/plaits/dsp/oscillator/grainlet_oscillator.h ****         formant_phase_ = reset_time * f1;
 1975              		.loc 3 121 9 is_stmt 1 view .LVU562
 1976              	.LBB763:
 1977              	.LBI749:
  41:mi/stmlib/dsp/polyblep.h ****   t = 1.0f - t;
 1978              		.loc 9 41 14 view .LVU563
 1979              	.LBB753:
  42:mi/stmlib/dsp/polyblep.h ****   return -0.5f * t * t;
 1980              		.loc 9 42 3 view .LVU564
 1981              		.loc 9 43 3 view .LVU565
ARM GAS  /var/folders/9k/zk1mgrrd7wg4__6zvxvr9w8m0000gn/T//cc9Z2LKb.s 			page 56


 1982              		.loc 9 43 3 is_stmt 0 view .LVU566
 1983              	.LBE753:
 1984              	.LBE763:
 121:mi/plaits/dsp/oscillator/grainlet_oscillator.h ****         formant_phase_ = reset_time * f1;
 1985              		.loc 3 121 21 view .LVU567
 1986 0248 A9EE084A 		vfma.f32	s8, s18, s16
 1987              	.LVL124:
 122:mi/plaits/dsp/oscillator/grainlet_oscillator.h ****       } else {
 1988              		.loc 3 122 9 is_stmt 1 view .LVU568
 1989              	.L49:
 122:mi/plaits/dsp/oscillator/grainlet_oscillator.h ****       } else {
 1990              		.loc 3 122 9 is_stmt 0 view .LVU569
 1991              	.LBE434:
 1992              	.LBE792:
 130:mi/plaits/dsp/oscillator/grainlet_oscillator.h ****           carrier_phase_,
 1993              		.loc 3 130 7 is_stmt 1 view .LVU570
 1994              	.LBB793:
 1995              	.LBI793:
  59:mi/stmlib/dsp/parameter_interpolator.h ****     value_ += increment_;
 1996              		.loc 8 59 16 view .LVU571
 1997              	.LBB794:
  60:mi/stmlib/dsp/parameter_interpolator.h ****     return value_;
 1998              		.loc 8 60 5 view .LVU572
  61:mi/stmlib/dsp/parameter_interpolator.h ****   }
 1999              		.loc 8 61 5 view .LVU573
  61:mi/stmlib/dsp/parameter_interpolator.h ****   }
 2000              		.loc 8 61 5 is_stmt 0 view .LVU574
 2001              	.LBE794:
 2002              	.LBE793:
 2003              	.LBB795:
 2004              	.LBI795:
  59:mi/stmlib/dsp/parameter_interpolator.h ****     value_ += increment_;
 2005              		.loc 8 59 16 is_stmt 1 view .LVU575
 2006              	.LBB796:
  60:mi/stmlib/dsp/parameter_interpolator.h ****     return value_;
 2007              		.loc 8 60 5 view .LVU576
  61:mi/stmlib/dsp/parameter_interpolator.h ****   }
 2008              		.loc 8 61 5 view .LVU577
  61:mi/stmlib/dsp/parameter_interpolator.h ****   }
 2009              		.loc 8 61 5 is_stmt 0 view .LVU578
 2010              	.LBE796:
 2011              	.LBE795:
 2012              	.LBB797:
 2013              	.LBI797:
 169:mi/plaits/dsp/oscillator/grainlet_oscillator.h ****       float carrier_phase,
 2014              		.loc 3 169 16 is_stmt 1 view .LVU579
 2015              	.LBB798:
 174:mi/plaits/dsp/oscillator/grainlet_oscillator.h ****     float formant = Sine(formant_phase);
 2016              		.loc 3 174 5 view .LVU580
 2017              	.LBB799:
 2018              	.LBI799:
 142:mi/plaits/dsp/oscillator/grainlet_oscillator.h ****     shape *= 3.0f;
 2019              		.loc 3 142 16 view .LVU581
 2020              	.LBB800:
 143:mi/plaits/dsp/oscillator/grainlet_oscillator.h ****     MAKE_INTEGRAL_FRACTIONAL(shape);
 2021              		.loc 3 143 5 view .LVU582
 144:mi/plaits/dsp/oscillator/grainlet_oscillator.h ****     float t = 1.0f - shape_fractional;
ARM GAS  /var/folders/9k/zk1mgrrd7wg4__6zvxvr9w8m0000gn/T//cc9Z2LKb.s 			page 57


 2022              		.loc 3 144 5 view .LVU583
 144:mi/plaits/dsp/oscillator/grainlet_oscillator.h ****     float t = 1.0f - shape_fractional;
 2023              		.loc 3 144 5 view .LVU584
 144:mi/plaits/dsp/oscillator/grainlet_oscillator.h ****     float t = 1.0f - shape_fractional;
 2024              		.loc 3 144 36 view .LVU585
 145:mi/plaits/dsp/oscillator/grainlet_oscillator.h ****     
 2025              		.loc 3 145 5 view .LVU586
 147:mi/plaits/dsp/oscillator/grainlet_oscillator.h ****       phase = phase * (1.0f + t * t * t * 15.0f);
 2026              		.loc 3 147 5 view .LVU587
 2027              	.LBB801:
 2028 024c 002A     		cmp	r2, #0
 2029 024e 66D1     		bne	.L51
 148:mi/plaits/dsp/oscillator/grainlet_oscillator.h ****       if (phase >= 1.0f) {
 2030              		.loc 3 148 7 view .LVU588
 148:mi/plaits/dsp/oscillator/grainlet_oscillator.h ****       if (phase >= 1.0f) {
 2031              		.loc 3 148 33 is_stmt 0 view .LVU589
 2032 0250 20EE007A 		vmul.f32	s14, s0, s0
 148:mi/plaits/dsp/oscillator/grainlet_oscillator.h ****       if (phase >= 1.0f) {
 2033              		.loc 3 148 29 view .LVU590
 2034 0254 F7EE006A 		vmov.f32	s13, #1.0e+0
 2035 0258 B2EE0E8A 		vmov.f32	s16, #1.5e+1
 148:mi/plaits/dsp/oscillator/grainlet_oscillator.h ****       if (phase >= 1.0f) {
 2036              		.loc 3 148 37 view .LVU591
 2037 025c 27EE000A 		vmul.f32	s0, s14, s0
 148:mi/plaits/dsp/oscillator/grainlet_oscillator.h ****       if (phase >= 1.0f) {
 2038              		.loc 3 148 29 view .LVU592
 2039 0260 B0EE667A 		vmov.f32	s14, s13
 2040 0264 A0EE087A 		vfma.f32	s14, s0, s16
 148:mi/plaits/dsp/oscillator/grainlet_oscillator.h ****       if (phase >= 1.0f) {
 2041              		.loc 3 148 13 view .LVU593
 2042 0268 27EE017A 		vmul.f32	s14, s14, s2
 2043              	.LVL125:
 149:mi/plaits/dsp/oscillator/grainlet_oscillator.h ****         phase = 1.0f;
 2044              		.loc 3 149 7 is_stmt 1 view .LVU594
 2045 026c B4EEE67A 		vcmpe.f32	s14, s13
 2046 0270 F1EE10FA 		vmrs	APSR_nzcv, FPSCR
 2047 0274 C0F20881 		blt	.L88
 2048 0278 40F2046C 		movw	ip, #1540
 2049 027c DFED706A 		vldr.32	s13, .L95+12
 2050 0280 4FF4C062 		mov	r2, #1536
 2051              	.LVL126:
 152:mi/plaits/dsp/oscillator/grainlet_oscillator.h ****     } else if (shape_integral == 1) {
 2052              		.loc 3 152 7 view .LVU595
 2053              	.L53:
 152:mi/plaits/dsp/oscillator/grainlet_oscillator.h ****     } else if (shape_integral == 1) {
 2054              		.loc 3 152 7 is_stmt 0 view .LVU596
 2055              	.LBE801:
 166:mi/plaits/dsp/oscillator/grainlet_oscillator.h ****   }
 2056              		.loc 3 166 5 is_stmt 1 view .LVU597
 2057              	.LBB811:
 2058              	.LBI811:
  48:mi/plaits/dsp/oscillator/sine_oscillator.h ****   return stmlib::InterpolateWrap(lut_sine, phase, kSineLUTSize);
 2059              		.loc 7 48 14 view .LVU598
 2060              	.LBB812:
 2061              		.loc 7 49 3 view .LVU599
 2062              	.LBB813:
 2063              	.LBI813:
ARM GAS  /var/folders/9k/zk1mgrrd7wg4__6zvxvr9w8m0000gn/T//cc9Z2LKb.s 			page 58


  68:mi/stmlib/dsp/dsp.h ****   index -= static_cast<float>(static_cast<int32_t>(index));
 2064              		.loc 6 68 14 view .LVU600
 2065              	.LBB814:
  69:mi/stmlib/dsp/dsp.h ****   index *= size;
 2066              		.loc 6 69 3 view .LVU601
  70:mi/stmlib/dsp/dsp.h ****   MAKE_INTEGRAL_FRACTIONAL(index)
 2067              		.loc 6 70 3 view .LVU602
  71:mi/stmlib/dsp/dsp.h ****   float a = table[index_integral];
 2068              		.loc 6 71 3 view .LVU603
  71:mi/stmlib/dsp/dsp.h ****   float a = table[index_integral];
 2069              		.loc 6 71 3 view .LVU604
  72:mi/stmlib/dsp/dsp.h ****   float b = table[index_integral + 1];
 2070              		.loc 6 72 3 view .LVU605
 2071              	.LBE814:
 2072              	.LBE813:
 2073              	.LBE812:
 2074              	.LBE811:
 2075              	.LBE800:
 2076              	.LBE799:
 2077              	.LBB875:
 2078              	.LBB876:
 2079              	.LBB877:
 2080              	.LBB878:
  69:mi/stmlib/dsp/dsp.h ****   index *= size;
 2081              		.loc 6 69 31 is_stmt 0 view .LVU606
 2082 0284 BDEEE70A 		vcvt.s32.f32	s0, s15
 2083              	.LBE878:
 2084              	.LBE877:
 2085              	.LBE876:
 2086              	.LBE875:
 2087              	.LBB900:
 2088              	.LBB863:
 2089              	.LBB845:
 2090              	.LBB835:
 2091              	.LBB825:
 2092              	.LBB815:
  72:mi/stmlib/dsp/dsp.h ****   float b = table[index_integral + 1];
 2093              		.loc 6 72 9 view .LVU607
 2094 0288 1A44     		add	r2, r2, r3
  73:mi/stmlib/dsp/dsp.h ****   return a + (b - a) * index_fractional;
 2095              		.loc 6 73 9 view .LVU608
 2096 028a 9C44     		add	ip, ip, r3
 2097              	.LBE815:
 2098              	.LBE825:
 2099              	.LBE835:
 2100              	.LBE845:
 2101              	.LBE863:
 2102              	.LBE900:
 2103              	.LBB901:
 2104              	.LBB893:
 2105              	.LBB886:
 2106              	.LBB879:
  70:mi/stmlib/dsp/dsp.h ****   MAKE_INTEGRAL_FRACTIONAL(index)
 2107              		.loc 6 70 9 view .LVU609
 2108 028c 9FED6D9A 		vldr.32	s18, .L95+16
 2109              	.LBE879:
 2110              	.LBE886:
ARM GAS  /var/folders/9k/zk1mgrrd7wg4__6zvxvr9w8m0000gn/T//cc9Z2LKb.s 			page 59


 2111              	.LBE893:
 2112              	.LBE901:
 2113              	.LBB902:
 2114              	.LBB864:
 2115              	.LBB846:
 2116              	.LBB836:
 2117              	.LBB826:
 2118              	.LBB816:
  72:mi/stmlib/dsp/dsp.h ****   float b = table[index_integral + 1];
 2119              		.loc 6 72 9 view .LVU610
 2120 0290 92ED007A 		vldr.32	s14, [r2]
 2121              	.LVL127:
  73:mi/stmlib/dsp/dsp.h ****   return a + (b - a) * index_fractional;
 2122              		.loc 6 73 3 is_stmt 1 view .LVU611
 2123              		.loc 6 74 3 view .LVU612
 2124              	.LBE816:
 2125              	.LBE826:
 2126              	.LBE836:
 2127              	.LBE846:
 166:mi/plaits/dsp/oscillator/grainlet_oscillator.h ****   }
 2128              		.loc 3 166 25 is_stmt 0 view .LVU613
 2129 0294 F7EE008A 		vmov.f32	s17, #1.0e+0
 2130              	.LBE864:
 2131              	.LBE902:
 2132              	.LBB903:
 2133              	.LBB894:
 2134              	.LBB887:
 2135              	.LBB880:
  69:mi/stmlib/dsp/dsp.h ****   index *= size;
 2136              		.loc 6 69 12 view .LVU614
 2137 0298 B8EEC00A 		vcvt.f32.s32	s0, s0
 2138              	.LBE880:
 2139              	.LBE887:
 2140              	.LBE894:
 2141              	.LBE903:
 2142              	.LBB904:
 2143              	.LBB865:
 2144              	.LBB847:
 2145              	.LBB837:
 2146              	.LBB827:
 2147              	.LBB817:
 2148              		.loc 6 74 17 view .LVU615
 2149 029c 9CED001A 		vldr.32	s2, [ip]
 2150              	.LBE817:
 2151              	.LBE827:
 2152              	.LBE837:
 2153              	.LBE847:
 166:mi/plaits/dsp/oscillator/grainlet_oscillator.h ****   }
 2154              		.loc 3 166 35 view .LVU616
 2155 02a0 B5EE008A 		vmov.f32	s16, #2.5e-1
 2156              	.LVL128:
 166:mi/plaits/dsp/oscillator/grainlet_oscillator.h ****   }
 2157              		.loc 3 166 35 view .LVU617
 2158              	.LBE865:
 2159              	.LBE904:
 2160              	.LBE798:
 2161              	.LBE797:
ARM GAS  /var/folders/9k/zk1mgrrd7wg4__6zvxvr9w8m0000gn/T//cc9Z2LKb.s 			page 60


 2162              	.LBE427:
  91:mi/plaits/dsp/oscillator/grainlet_oscillator.h ****       bool reset = false;
 2163              		.loc 3 91 16 view .LVU618
 2164 02a4 0EF1FF3E 		add	lr, lr, #-1
 2165              	.LVL129:
 2166              	.LBB944:
 2167              	.LBB927:
 2168              	.LBB919:
 2169              	.LBB905:
 2170              	.LBB866:
 2171              	.LBB848:
 2172              	.LBB838:
 2173              	.LBB828:
 2174              	.LBB818:
 2175              		.loc 6 74 17 view .LVU619
 2176 02a8 31EE471A 		vsub.f32	s2, s2, s14
 2177              	.LBE818:
 2178              	.LBE828:
 2179              	.LBE838:
 2180              	.LBE848:
 2181              	.LBE866:
 2182              	.LBE905:
 2183              	.LBB906:
 2184              	.LBB895:
 2185              	.LBB888:
 2186              	.LBB881:
  69:mi/stmlib/dsp/dsp.h ****   index *= size;
 2187              		.loc 6 69 9 view .LVU620
 2188 02ac 77EEC07A 		vsub.f32	s15, s15, s0
 2189              	.LBE881:
 2190              	.LBE888:
 2191              	.LBE895:
 2192              	.LBE906:
 2193              	.LBE919:
 2194              	.LBE927:
 2195              	.LBE944:
  91:mi/plaits/dsp/oscillator/grainlet_oscillator.h ****       bool reset = false;
 2196              		.loc 3 91 16 view .LVU621
 2197 02b0 BEF1FF3F 		cmp	lr, #-1
 2198              	.LBB945:
 2199              	.LBB928:
 2200              	.LBB920:
 2201              	.LBB907:
 2202              	.LBB867:
 2203              	.LBB849:
 2204              	.LBB839:
 2205              	.LBB829:
 2206              	.LBB819:
 2207              		.loc 6 74 24 view .LVU622
 2208 02b4 A1EE267A 		vfma.f32	s14, s2, s13
 2209              	.LVL130:
 2210              		.loc 6 74 24 view .LVU623
 2211              	.LBE819:
 2212              	.LBE829:
 2213              	.LBE839:
 2214              	.LBE849:
 2215              	.LBE867:
ARM GAS  /var/folders/9k/zk1mgrrd7wg4__6zvxvr9w8m0000gn/T//cc9Z2LKb.s 			page 61


 2216              	.LBE907:
 175:mi/plaits/dsp/oscillator/grainlet_oscillator.h ****     return carrier * (formant + bleed) / (1.0f + bleed);
 2217              		.loc 3 175 5 is_stmt 1 view .LVU624
 2218              	.LBB908:
 2219              	.LBI875:
  48:mi/plaits/dsp/oscillator/sine_oscillator.h ****   return stmlib::InterpolateWrap(lut_sine, phase, kSineLUTSize);
 2220              		.loc 7 48 14 view .LVU625
 2221              	.LBB896:
 2222              		.loc 7 49 3 view .LVU626
 2223              	.LBB889:
 2224              	.LBI877:
  68:mi/stmlib/dsp/dsp.h ****   index -= static_cast<float>(static_cast<int32_t>(index));
 2225              		.loc 6 68 14 view .LVU627
 2226              	.LBB882:
  69:mi/stmlib/dsp/dsp.h ****   index *= size;
 2227              		.loc 6 69 3 view .LVU628
  70:mi/stmlib/dsp/dsp.h ****   MAKE_INTEGRAL_FRACTIONAL(index)
 2228              		.loc 6 70 3 view .LVU629
  70:mi/stmlib/dsp/dsp.h ****   MAKE_INTEGRAL_FRACTIONAL(index)
 2229              		.loc 6 70 9 is_stmt 0 view .LVU630
 2230 02b8 67EE897A 		vmul.f32	s15, s15, s18
 2231              	.LVL131:
  71:mi/stmlib/dsp/dsp.h ****   float a = table[index_integral];
 2232              		.loc 6 71 3 is_stmt 1 view .LVU631
 2233 02bc FDEEE76A 		vcvt.s32.f32	s13, s15
 2234              	.LBE882:
 2235              	.LBE889:
 2236              	.LBE896:
 2237              	.LBE908:
 2238              	.LBB909:
 2239              	.LBB868:
 166:mi/plaits/dsp/oscillator/grainlet_oscillator.h ****   }
 2240              		.loc 3 166 25 is_stmt 0 view .LVU632
 2241 02c0 37EE287A 		vadd.f32	s14, s14, s17
 2242              	.LVL132:
 166:mi/plaits/dsp/oscillator/grainlet_oscillator.h ****   }
 2243              		.loc 3 166 25 view .LVU633
 2244              	.LBE868:
 2245              	.LBE909:
 2246              	.LBB910:
 2247              	.LBB897:
 2248              	.LBB890:
 2249              	.LBB883:
  71:mi/stmlib/dsp/dsp.h ****   float a = table[index_integral];
 2250              		.loc 6 71 3 view .LVU634
 2251 02c4 16EE902A 		vmov	r2, s13	@ int
 2252              	.LVL133:
  71:mi/stmlib/dsp/dsp.h ****   float a = table[index_integral];
 2253              		.loc 6 71 3 is_stmt 1 view .LVU635
  72:mi/stmlib/dsp/dsp.h ****   float b = table[index_integral + 1];
 2254              		.loc 6 72 3 view .LVU636
  71:mi/stmlib/dsp/dsp.h ****   float a = table[index_integral];
 2255              		.loc 6 71 3 is_stmt 0 view .LVU637
 2256 02c8 B8EEE61A 		vcvt.f32.s32	s2, s13
  72:mi/stmlib/dsp/dsp.h ****   float b = table[index_integral + 1];
 2257              		.loc 6 72 9 view .LVU638
 2258 02cc 03EB820C 		add	ip, r3, r2, lsl #2
ARM GAS  /var/folders/9k/zk1mgrrd7wg4__6zvxvr9w8m0000gn/T//cc9Z2LKb.s 			page 62


  72:mi/stmlib/dsp/dsp.h ****   float b = table[index_integral + 1];
 2259              		.loc 6 72 9 view .LVU639
 2260              	.LBE883:
 2261              	.LBE890:
 2262              	.LBE897:
 2263              	.LBE910:
 2264              	.LBB911:
 2265              	.LBB869:
 166:mi/plaits/dsp/oscillator/grainlet_oscillator.h ****   }
 2266              		.loc 3 166 35 view .LVU640
 2267 02d0 27EE087A 		vmul.f32	s14, s14, s16
 2268              	.LVL134:
 166:mi/plaits/dsp/oscillator/grainlet_oscillator.h ****   }
 2269              		.loc 3 166 35 view .LVU641
 2270              	.LBE869:
 2271              	.LBE911:
 2272              	.LBB912:
 2273              	.LBB898:
 2274              	.LBB891:
 2275              	.LBB884:
  73:mi/stmlib/dsp/dsp.h ****   return a + (b - a) * index_fractional;
 2276              		.loc 6 73 9 view .LVU642
 2277 02d4 04EB8205 		add	r5, r4, r2, lsl #2
  71:mi/stmlib/dsp/dsp.h ****   float a = table[index_integral];
 2278              		.loc 6 71 3 view .LVU643
 2279 02d8 77EEC17A 		vsub.f32	s15, s15, s2
 2280              	.LVL135:
  72:mi/stmlib/dsp/dsp.h ****   float b = table[index_integral + 1];
 2281              		.loc 6 72 9 view .LVU644
 2282 02dc DCED006A 		vldr.32	s13, [ip]
 2283              	.LVL136:
  73:mi/stmlib/dsp/dsp.h ****   return a + (b - a) * index_fractional;
 2284              		.loc 6 73 3 is_stmt 1 view .LVU645
 2285              		.loc 6 74 3 view .LVU646
 2286              		.loc 6 74 17 is_stmt 0 view .LVU647
 2287 02e0 95ED000A 		vldr.32	s0, [r5]
 2288              	.LBE884:
 2289              	.LBE891:
 2290              	.LBE898:
 2291              	.LBE912:
 2292              	.LBE920:
 2293              	.LBE928:
 135:mi/plaits/dsp/oscillator/grainlet_oscillator.h ****     }
 2294              		.loc 3 135 14 view .LVU648
 2295 02e4 E1EC011A 		vstmia.32	r1!, {s3}
 2296              	.LVL137:
 2297              	.LBB929:
 2298              	.LBB921:
 2299              	.LBB913:
 2300              	.LBB899:
 2301              	.LBB892:
 2302              	.LBB885:
 2303              		.loc 6 74 17 view .LVU649
 2304 02e8 70EE661A 		vsub.f32	s3, s0, s13
 2305              	.LVL138:
 2306              		.loc 6 74 24 view .LVU650
 2307 02ec E7EEA16A 		vfma.f32	s13, s15, s3
ARM GAS  /var/folders/9k/zk1mgrrd7wg4__6zvxvr9w8m0000gn/T//cc9Z2LKb.s 			page 63


 2308              	.LVL139:
 2309              		.loc 6 74 24 view .LVU651
 2310              	.LBE885:
 2311              	.LBE892:
 2312              	.LBE899:
 2313              	.LBE913:
 2314              		.loc 3 176 5 is_stmt 1 view .LVU652
 2315              		.loc 3 176 31 is_stmt 0 view .LVU653
 2316 02f0 76EE866A 		vadd.f32	s13, s13, s12
 2317              	.LVL140:
 2318              		.loc 3 176 20 view .LVU654
 2319 02f4 27EE267A 		vmul.f32	s14, s14, s13
 2320              		.loc 3 176 55 view .LVU655
 2321 02f8 C7EE231A 		vdiv.f32	s3, s14, s7
 2322              		.loc 3 176 55 view .LVU656
 2323              	.LBE921:
 2324              	.LBE929:
 130:mi/plaits/dsp/oscillator/grainlet_oscillator.h ****           carrier_phase_,
 2325              		.loc 3 130 19 view .LVU657
 2326 02fc 71EE841A 		vadd.f32	s3, s3, s8
 2327              	.LVL141:
 135:mi/plaits/dsp/oscillator/grainlet_oscillator.h ****     }
 2328              		.loc 3 135 7 is_stmt 1 view .LVU658
 135:mi/plaits/dsp/oscillator/grainlet_oscillator.h ****     }
 2329              		.loc 3 135 7 is_stmt 0 view .LVU659
 2330              	.LBE945:
  91:mi/plaits/dsp/oscillator/grainlet_oscillator.h ****       bool reset = false;
 2331              		.loc 3 91 5 is_stmt 1 view .LVU660
  91:mi/plaits/dsp/oscillator/grainlet_oscillator.h ****       bool reset = false;
 2332              		.loc 3 91 16 view .LVU661
  91:mi/plaits/dsp/oscillator/grainlet_oscillator.h ****       bool reset = false;
 2333              		.loc 3 91 16 is_stmt 0 view .LVU662
 2334 0300 7FF4B6AE 		bne	.L58
 2335              	.LVL142:
 2336              	.L32:
 138:mi/plaits/dsp/oscillator/grainlet_oscillator.h ****   }
 2337              		.loc 3 138 5 is_stmt 1 view .LVU663
 138:mi/plaits/dsp/oscillator/grainlet_oscillator.h ****   }
 2338              		.loc 3 138 18 is_stmt 0 view .LVU664
 2339 0304 C0ED021A 		vstr.32	s3, [r0, #8]
 2340              	.LVL143:
 2341              	.LBB946:
 2342              	.LBI946:
  49:mi/stmlib/dsp/parameter_interpolator.h ****     *state_ = value_;
 2343              		.loc 8 49 3 is_stmt 1 view .LVU665
 2344              	.LBB947:
  50:mi/stmlib/dsp/parameter_interpolator.h ****   }
 2345              		.loc 8 50 5 view .LVU666
  50:mi/stmlib/dsp/parameter_interpolator.h ****   }
 2346              		.loc 8 50 13 is_stmt 0 view .LVU667
 2347 0308 80ED066A 		vstr.32	s12, [r0, #24]
 2348              	.LVL144:
  50:mi/stmlib/dsp/parameter_interpolator.h ****   }
 2349              		.loc 8 50 13 view .LVU668
 2350              	.LBE947:
 2351              	.LBE946:
 2352              	.LBB948:
ARM GAS  /var/folders/9k/zk1mgrrd7wg4__6zvxvr9w8m0000gn/T//cc9Z2LKb.s 			page 64


 2353              	.LBI948:
  49:mi/stmlib/dsp/parameter_interpolator.h ****     *state_ = value_;
 2354              		.loc 8 49 3 is_stmt 1 view .LVU669
 2355              	.LBB949:
  50:mi/stmlib/dsp/parameter_interpolator.h ****   }
 2356              		.loc 8 50 5 view .LVU670
  50:mi/stmlib/dsp/parameter_interpolator.h ****   }
 2357              		.loc 8 50 13 is_stmt 0 view .LVU671
 2358 030c C0ED054A 		vstr.32	s9, [r0, #20]
 2359              	.LVL145:
  50:mi/stmlib/dsp/parameter_interpolator.h ****   }
 2360              		.loc 8 50 13 view .LVU672
 2361              	.LBE949:
 2362              	.LBE948:
 2363              	.LBB950:
 2364              	.LBI950:
  49:mi/stmlib/dsp/parameter_interpolator.h ****     *state_ = value_;
 2365              		.loc 8 49 3 is_stmt 1 view .LVU673
 2366              	.LBB951:
  50:mi/stmlib/dsp/parameter_interpolator.h ****   }
 2367              		.loc 8 50 5 view .LVU674
  50:mi/stmlib/dsp/parameter_interpolator.h ****   }
 2368              		.loc 8 50 13 is_stmt 0 view .LVU675
 2369 0310 80ED045A 		vstr.32	s10, [r0, #16]
 2370              	.LVL146:
  50:mi/stmlib/dsp/parameter_interpolator.h ****   }
 2371              		.loc 8 50 13 view .LVU676
 2372              	.LBE951:
 2373              	.LBE950:
 2374              	.LBB952:
 2375              	.LBI952:
  49:mi/stmlib/dsp/parameter_interpolator.h ****     *state_ = value_;
 2376              		.loc 8 49 3 is_stmt 1 view .LVU677
 2377              	.LBB953:
  50:mi/stmlib/dsp/parameter_interpolator.h ****   }
 2378              		.loc 8 50 5 view .LVU678
  50:mi/stmlib/dsp/parameter_interpolator.h ****   }
 2379              		.loc 8 50 13 is_stmt 0 view .LVU679
 2380 0314 C0ED035A 		vstr.32	s11, [r0, #12]
 2381              	.LVL147:
  50:mi/stmlib/dsp/parameter_interpolator.h ****   }
 2382              		.loc 8 50 13 view .LVU680
 2383              	.LBE953:
 2384              	.LBE952:
 139:mi/plaits/dsp/oscillator/grainlet_oscillator.h **** 
 2385              		.loc 3 139 3 view .LVU681
 2386 0318 BDEC088B 		vldm	sp!, {d8-d11}
 2387              		.cfi_remember_state
 2388              		.cfi_restore 86
 2389              		.cfi_restore 87
 2390              		.cfi_restore 84
 2391              		.cfi_restore 85
 2392              		.cfi_restore 82
 2393              		.cfi_restore 83
 2394              		.cfi_restore 80
 2395              		.cfi_restore 81
 2396              		.cfi_def_cfa_offset 16
ARM GAS  /var/folders/9k/zk1mgrrd7wg4__6zvxvr9w8m0000gn/T//cc9Z2LKb.s 			page 65


 2397 031c 70BD     		pop	{r4, r5, r6, pc}
 2398              	.LVL148:
 2399              	.L51:
 2400              		.cfi_restore_state
 153:mi/plaits/dsp/oscillator/grainlet_oscillator.h ****       float breakpoint = 0.001f + 0.499f * t * t * t;
 2401              		.loc 3 153 12 is_stmt 1 view .LVU682
 2402              	.LBB954:
 2403              	.LBB930:
 2404              	.LBB922:
 2405              	.LBB914:
 2406              	.LBB870:
 2407              	.LBB850:
 2408              	.LBB802:
 2409 031e 012A     		cmp	r2, #1
 2410 0320 00F0F480 		beq	.L89
 162:mi/plaits/dsp/oscillator/grainlet_oscillator.h ****       phase = 0.25f + phase * (0.5f + t * t * t * 14.5f);
 2411              		.loc 3 162 7 view .LVU683
 162:mi/plaits/dsp/oscillator/grainlet_oscillator.h ****       phase = 0.25f + phase * (0.5f + t * t * t * 14.5f);
 2412              		.loc 3 162 9 is_stmt 0 view .LVU684
 2413 0324 B7EE007A 		vmov.f32	s14, #1.0e+0
 163:mi/plaits/dsp/oscillator/grainlet_oscillator.h ****       if (phase >= 0.75f) phase = 0.75f;
 2414              		.loc 3 163 37 view .LVU685
 2415 0328 B6EE008A 		vmov.f32	s16, #5.0e-1
 2416 032c B2EE0D9A 		vmov.f32	s18, #1.45e+1
 162:mi/plaits/dsp/oscillator/grainlet_oscillator.h ****       phase = 0.25f + phase * (0.5f + t * t * t * 14.5f);
 2417              		.loc 3 162 9 view .LVU686
 2418 0330 37EE400A 		vsub.f32	s0, s14, s0
 2419              	.LVL149:
 163:mi/plaits/dsp/oscillator/grainlet_oscillator.h ****       if (phase >= 0.75f) phase = 0.75f;
 2420              		.loc 3 163 7 is_stmt 1 view .LVU687
 163:mi/plaits/dsp/oscillator/grainlet_oscillator.h ****       if (phase >= 0.75f) phase = 0.75f;
 2421              		.loc 3 163 13 is_stmt 0 view .LVU688
 2422 0334 F5EE006A 		vmov.f32	s13, #2.5e-1
 2423              	.LVL150:
 164:mi/plaits/dsp/oscillator/grainlet_oscillator.h ****     }
 2424              		.loc 3 164 7 view .LVU689
 2425 0338 F6EE088A 		vmov.f32	s17, #7.5e-1
 163:mi/plaits/dsp/oscillator/grainlet_oscillator.h ****       if (phase >= 0.75f) phase = 0.75f;
 2426              		.loc 3 163 41 view .LVU690
 2427 033c 20EE007A 		vmul.f32	s14, s0, s0
 163:mi/plaits/dsp/oscillator/grainlet_oscillator.h ****       if (phase >= 0.75f) phase = 0.75f;
 2428              		.loc 3 163 45 view .LVU691
 2429 0340 27EE000A 		vmul.f32	s0, s14, s0
 2430              	.LVL151:
 163:mi/plaits/dsp/oscillator/grainlet_oscillator.h ****       if (phase >= 0.75f) phase = 0.75f;
 2431              		.loc 3 163 37 view .LVU692
 2432 0344 B0EE487A 		vmov.f32	s14, s16
 2433 0348 A0EE097A 		vfma.f32	s14, s0, s18
 163:mi/plaits/dsp/oscillator/grainlet_oscillator.h ****       if (phase >= 0.75f) phase = 0.75f;
 2434              		.loc 3 163 13 view .LVU693
 2435 034c E7EE016A 		vfma.f32	s13, s14, s2
 2436              	.LVL152:
 164:mi/plaits/dsp/oscillator/grainlet_oscillator.h ****     }
 2437              		.loc 3 164 7 is_stmt 1 view .LVU694
 2438 0350 F4EEE86A 		vcmpe.f32	s13, s17
 2439 0354 F1EE10FA 		vmrs	APSR_nzcv, FPSCR
 2440 0358 80F20381 		bge	.L64
ARM GAS  /var/folders/9k/zk1mgrrd7wg4__6zvxvr9w8m0000gn/T//cc9Z2LKb.s 			page 66


 2441              	.LBE802:
 2442              	.LBE850:
 2443              	.LBB851:
 2444              	.LBB840:
 2445              	.LBB830:
 2446              	.LBB820:
  69:mi/stmlib/dsp/dsp.h ****   index *= size;
 2447              		.loc 6 69 31 is_stmt 0 view .LVU695
 2448 035c BDEEE67A 		vcvt.s32.f32	s14, s13
  70:mi/stmlib/dsp/dsp.h ****   MAKE_INTEGRAL_FRACTIONAL(index)
 2449              		.loc 6 70 9 view .LVU696
 2450 0360 9FED381A 		vldr.32	s2, .L95+16
  69:mi/stmlib/dsp/dsp.h ****   index *= size;
 2451              		.loc 6 69 12 view .LVU697
 2452 0364 B8EEC77A 		vcvt.f32.s32	s14, s14
  69:mi/stmlib/dsp/dsp.h ****   index *= size;
 2453              		.loc 6 69 9 view .LVU698
 2454 0368 76EEC76A 		vsub.f32	s13, s13, s14
 2455              	.LVL153:
 2456              	.L85:
  70:mi/stmlib/dsp/dsp.h ****   MAKE_INTEGRAL_FRACTIONAL(index)
 2457              		.loc 6 70 9 view .LVU699
 2458 036c 66EE816A 		vmul.f32	s13, s13, s2
 2459              	.L84:
  71:mi/stmlib/dsp/dsp.h ****   float a = table[index_integral];
 2460              		.loc 6 71 3 view .LVU700
 2461 0370 BDEEE67A 		vcvt.s32.f32	s14, s13
  72:mi/stmlib/dsp/dsp.h ****   float b = table[index_integral + 1];
 2462              		.loc 6 72 33 view .LVU701
 2463 0374 17EE102A 		vmov	r2, s14	@ int
  71:mi/stmlib/dsp/dsp.h ****   float a = table[index_integral];
 2464              		.loc 6 71 3 view .LVU702
 2465 0378 B8EEC71A 		vcvt.f32.s32	s2, s14
  72:mi/stmlib/dsp/dsp.h ****   float b = table[index_integral + 1];
 2466              		.loc 6 72 33 view .LVU703
 2467 037c 9200     		lsls	r2, r2, #2
  71:mi/stmlib/dsp/dsp.h ****   float a = table[index_integral];
 2468              		.loc 6 71 3 view .LVU704
 2469 037e 76EEC16A 		vsub.f32	s13, s13, s2
  73:mi/stmlib/dsp/dsp.h ****   return a + (b - a) * index_fractional;
 2470              		.loc 6 73 37 view .LVU705
 2471 0382 02F1040C 		add	ip, r2, #4
 2472              	.LBE820:
 2473              	.LBE830:
 2474              	.LBE840:
 2475              	.LBE851:
 2476              	.LBB852:
 2477              	.LBB806:
 2478 0386 7DE7     		b	.L53
 2479              	.LVL154:
 2480              	.L75:
  73:mi/stmlib/dsp/dsp.h ****   return a + (b - a) * index_fractional;
 2481              		.loc 6 73 37 view .LVU706
 2482              	.LBE806:
 2483              	.LBE852:
 2484              	.LBE870:
 2485              	.LBE914:
ARM GAS  /var/folders/9k/zk1mgrrd7wg4__6zvxvr9w8m0000gn/T//cc9Z2LKb.s 			page 67


 2486              	.LBE922:
 2487              	.LBE930:
 2488              	.LBB931:
 124:mi/plaits/dsp/oscillator/grainlet_oscillator.h ****         if (formant_phase_ >= 1.0f) {
 2489              		.loc 3 124 9 is_stmt 1 view .LVU707
 124:mi/plaits/dsp/oscillator/grainlet_oscillator.h ****         if (formant_phase_ >= 1.0f) {
 2490              		.loc 3 124 24 is_stmt 0 view .LVU708
 2491 0388 D0ED017A 		vldr.32	s15, [r0, #4]
 2492              	.LBB779:
 2493              	.LBB764:
 2494              	.LBB585:
 2495              		.loc 8 65 34 view .LVU709
 2496 038c 74EE834A 		vadd.f32	s9, s9, s6
 2497              	.LVL155:
 2498              		.loc 8 65 34 view .LVU710
 2499              	.LBE585:
 2500              	.LBE764:
 2501              	.LBB765:
 2502              	.LBB713:
 2503              	.LBB692:
 2504              	.LBB648:
 143:mi/plaits/dsp/oscillator/grainlet_oscillator.h ****     MAKE_INTEGRAL_FRACTIONAL(shape);
 2505              		.loc 3 143 11 view .LVU711
 2506 0390 B0EE087A 		vmov.f32	s14, #3.0e+0
 2507              	.LBE648:
 2508              	.LBE692:
 2509              	.LBE713:
 2510              	.LBE765:
 2511              	.LBE779:
 124:mi/plaits/dsp/oscillator/grainlet_oscillator.h ****         if (formant_phase_ >= 1.0f) {
 2512              		.loc 3 124 24 view .LVU712
 2513 0394 75EE277A 		vadd.f32	s15, s10, s15
 125:mi/plaits/dsp/oscillator/grainlet_oscillator.h ****           formant_phase_ -= 1.0f;
 2514              		.loc 3 125 9 is_stmt 1 view .LVU713
 2515              	.LBB780:
 2516              	.LBB766:
 2517              	.LBB734:
 2518              		.loc 8 65 34 is_stmt 0 view .LVU714
 2519 0398 36EE226A 		vadd.f32	s12, s12, s5
 2520              	.LVL156:
 2521              		.loc 8 65 34 view .LVU715
 2522              	.LBE734:
 2523              	.LBE766:
 2524              	.LBE780:
 125:mi/plaits/dsp/oscillator/grainlet_oscillator.h ****           formant_phase_ -= 1.0f;
 2525              		.loc 3 125 9 view .LVU716
 2526 039c F4EEC07A 		vcmpe.f32	s15, s0
 2527 03a0 F1EE10FA 		vmrs	APSR_nzcv, FPSCR
 2528 03a4 C0F2D480 		blt	.L90
 126:mi/plaits/dsp/oscillator/grainlet_oscillator.h ****         }
 2529              		.loc 3 126 11 is_stmt 1 view .LVU717
 126:mi/plaits/dsp/oscillator/grainlet_oscillator.h ****         }
 2530              		.loc 3 126 26 is_stmt 0 view .LVU718
 2531 03a8 77EEC07A 		vsub.f32	s15, s15, s0
 2532              	.LBE931:
  96:mi/plaits/dsp/oscillator/grainlet_oscillator.h ****     
 2533              		.loc 3 96 19 view .LVU719
ARM GAS  /var/folders/9k/zk1mgrrd7wg4__6zvxvr9w8m0000gn/T//cc9Z2LKb.s 			page 68


 2534 03ac 9FED244A 		vldr.32	s8, .L95+12
 2535              	.LBB932:
 2536              	.LBB781:
 2537              	.LBB767:
 2538              	.LBB714:
 2539              	.LBB693:
 2540              	.LBB649:
 143:mi/plaits/dsp/oscillator/grainlet_oscillator.h ****     MAKE_INTEGRAL_FRACTIONAL(shape);
 2541              		.loc 3 143 11 view .LVU720
 2542 03b0 24EE877A 		vmul.f32	s14, s9, s14
 2543              	.LBE649:
 2544              	.LBE693:
 2545              		.loc 3 176 48 view .LVU721
 2546 03b4 76EE003A 		vadd.f32	s7, s12, s0
 2547              	.LBE714:
 2548              	.LBE767:
 2549              	.LBE781:
 126:mi/plaits/dsp/oscillator/grainlet_oscillator.h ****         }
 2550              		.loc 3 126 26 view .LVU722
 2551 03b8 C0ED017A 		vstr.32	s15, [r0, #4]
 2552              	.L83:
 2553              	.LBB782:
 2554              	.LBB768:
 2555              	.LBB715:
 2556              	.LBB694:
 2557              	.LBB650:
 144:mi/plaits/dsp/oscillator/grainlet_oscillator.h ****     float t = 1.0f - shape_fractional;
 2558              		.loc 3 144 5 view .LVU723
 2559 03bc FDEEC76A 		vcvt.s32.f32	s13, s14
 2560 03c0 16EE902A 		vmov	r2, s13	@ int
 2561 03c4 F8EEE66A 		vcvt.f32.s32	s13, s13
 2562 03c8 37EE667A 		vsub.f32	s14, s14, s13
 145:mi/plaits/dsp/oscillator/grainlet_oscillator.h ****     
 2563              		.loc 3 145 11 view .LVU724
 2564 03cc 30EE470A 		vsub.f32	s0, s0, s14
 2565              	.LBE650:
 2566              	.LBE694:
 2567              	.LBE715:
 2568              	.LBE768:
 2569              	.LBE782:
 2570 03d0 3CE7     		b	.L49
 2571              	.LVL157:
 2572              	.L42:
 145:mi/plaits/dsp/oscillator/grainlet_oscillator.h ****     
 2573              		.loc 3 145 11 view .LVU725
 2574              	.LBE932:
 2575              	.LBE954:
 153:mi/plaits/dsp/oscillator/grainlet_oscillator.h ****       float breakpoint = 0.001f + 0.499f * t * t * t;
 2576              		.loc 3 153 12 is_stmt 1 view .LVU726
 2577              	.LBB955:
 2578              	.LBB933:
 2579              	.LBB783:
 2580              	.LBB769:
 2581              	.LBB716:
 2582              	.LBB695:
 2583              	.LBB651:
 2584              	.LBB628:
ARM GAS  /var/folders/9k/zk1mgrrd7wg4__6zvxvr9w8m0000gn/T//cc9Z2LKb.s 			page 69


 2585              	.LBB595:
 2586 03d2 012A     		cmp	r2, #1
 2587 03d4 00F0E880 		beq	.L91
 162:mi/plaits/dsp/oscillator/grainlet_oscillator.h ****       phase = 0.25f + phase * (0.5f + t * t * t * 14.5f);
 2588              		.loc 3 162 7 view .LVU727
 162:mi/plaits/dsp/oscillator/grainlet_oscillator.h ****       phase = 0.25f + phase * (0.5f + t * t * t * 14.5f);
 2589              		.loc 3 162 9 is_stmt 0 view .LVU728
 2590 03d8 79EEC09A 		vsub.f32	s19, s19, s0
 2591              	.LVL158:
 163:mi/plaits/dsp/oscillator/grainlet_oscillator.h ****       if (phase >= 0.75f) phase = 0.75f;
 2592              		.loc 3 163 7 is_stmt 1 view .LVU729
 163:mi/plaits/dsp/oscillator/grainlet_oscillator.h ****       if (phase >= 0.75f) phase = 0.75f;
 2593              		.loc 3 163 13 is_stmt 0 view .LVU730
 2594 03dc DFED183A 		vldr.32	s7, .L95+12
 2595              	.LVL159:
 163:mi/plaits/dsp/oscillator/grainlet_oscillator.h ****       if (phase >= 0.75f) phase = 0.75f;
 2596              		.loc 3 163 37 view .LVU731
 2597 03e0 F2EE0DAA 		vmov.f32	s21, #1.45e+1
 2598 03e4 B6EE007A 		vmov.f32	s14, #5.0e-1
 163:mi/plaits/dsp/oscillator/grainlet_oscillator.h ****       if (phase >= 0.75f) phase = 0.75f;
 2599              		.loc 3 163 41 view .LVU732
 2600 03e8 69EEA96A 		vmul.f32	s13, s19, s19
 164:mi/plaits/dsp/oscillator/grainlet_oscillator.h ****     }
 2601              		.loc 3 164 7 view .LVU733
 2602 03ec B6EE084A 		vmov.f32	s8, #7.5e-1
 163:mi/plaits/dsp/oscillator/grainlet_oscillator.h ****       if (phase >= 0.75f) phase = 0.75f;
 2603              		.loc 3 163 45 view .LVU734
 2604 03f0 66EEA99A 		vmul.f32	s19, s13, s19
 2605              	.LVL160:
 163:mi/plaits/dsp/oscillator/grainlet_oscillator.h ****       if (phase >= 0.75f) phase = 0.75f;
 2606              		.loc 3 163 37 view .LVU735
 2607 03f4 A9EEAA7A 		vfma.f32	s14, s19, s21
 163:mi/plaits/dsp/oscillator/grainlet_oscillator.h ****       if (phase >= 0.75f) phase = 0.75f;
 2608              		.loc 3 163 13 view .LVU736
 2609 03f8 A7EE23AA 		vfma.f32	s20, s14, s7
 2610              	.LVL161:
 164:mi/plaits/dsp/oscillator/grainlet_oscillator.h ****     }
 2611              		.loc 3 164 7 is_stmt 1 view .LVU737
 2612 03fc B4EEC4AA 		vcmpe.f32	s20, s8
 2613 0400 F1EE10FA 		vmrs	APSR_nzcv, FPSCR
 2614 0404 BFF6E2AE 		bge	.L62
 2615              	.LBE595:
 2616              	.LBE628:
 2617              	.LBB629:
 2618              	.LBB621:
 2619              	.LBB614:
 2620              	.LBB607:
  69:mi/stmlib/dsp/dsp.h ****   index *= size;
 2621              		.loc 6 69 31 is_stmt 0 view .LVU738
 2622 0408 FDEECA3A 		vcvt.s32.f32	s7, s20
  69:mi/stmlib/dsp/dsp.h ****   index *= size;
 2623              		.loc 6 69 12 view .LVU739
 2624 040c F8EEE33A 		vcvt.f32.s32	s7, s7
  69:mi/stmlib/dsp/dsp.h ****   index *= size;
 2625              		.loc 6 69 9 view .LVU740
 2626 0410 3AEE63AA 		vsub.f32	s20, s20, s7
 2627              	.LVL162:
ARM GAS  /var/folders/9k/zk1mgrrd7wg4__6zvxvr9w8m0000gn/T//cc9Z2LKb.s 			page 70


  70:mi/stmlib/dsp/dsp.h ****   MAKE_INTEGRAL_FRACTIONAL(index)
 2628              		.loc 6 70 9 view .LVU741
 2629 0414 6AEE277A 		vmul.f32	s15, s20, s15
 2630              	.LVL163:
 2631              	.L82:
  71:mi/stmlib/dsp/dsp.h ****   float a = table[index_integral];
 2632              		.loc 6 71 3 view .LVU742
 2633 0418 BDEEE77A 		vcvt.s32.f32	s14, s15
  72:mi/stmlib/dsp/dsp.h ****   float b = table[index_integral + 1];
 2634              		.loc 6 72 33 view .LVU743
 2635 041c 17EE105A 		vmov	r5, s14	@ int
  71:mi/stmlib/dsp/dsp.h ****   float a = table[index_integral];
 2636              		.loc 6 71 3 view .LVU744
 2637 0420 F8EEC73A 		vcvt.f32.s32	s7, s14
  72:mi/stmlib/dsp/dsp.h ****   float b = table[index_integral + 1];
 2638              		.loc 6 72 33 view .LVU745
 2639 0424 4FEA850C 		lsl	ip, r5, #2
 2640              	.LVL164:
  71:mi/stmlib/dsp/dsp.h ****   float a = table[index_integral];
 2641              		.loc 6 71 3 view .LVU746
 2642 0428 77EEE33A 		vsub.f32	s7, s15, s7
  73:mi/stmlib/dsp/dsp.h ****   return a + (b - a) * index_fractional;
 2643              		.loc 6 73 37 view .LVU747
 2644 042c 0CF10405 		add	r5, ip, #4
 2645 0430 D0E6     		b	.L44
 2646              	.L96:
 2647 0432 00BF     		.align	2
 2648              	.L95:
 2649 0434 00000000 		.word	_ZN6plaits8lut_sineE
 2650 0438 EE7CFF3E 		.word	1056931054
 2651 043c 6F12833A 		.word	981668463
 2652 0440 00000000 		.word	0
 2653 0444 00000044 		.word	1140850688
 2654              	.LVL165:
 2655              	.L35:
  73:mi/stmlib/dsp/dsp.h ****   return a + (b - a) * index_fractional;
 2656              		.loc 6 73 37 view .LVU748
 2657              	.LBE607:
 2658              	.LBE614:
 2659              	.LBE621:
 2660              	.LBE629:
 2661              	.LBE651:
 2662              	.LBE695:
 2663              	.LBE716:
 2664              	.LBE769:
 2665              	.LBE783:
 2666              	.LBE933:
 2667              	.LBE955:
 153:mi/plaits/dsp/oscillator/grainlet_oscillator.h ****       float breakpoint = 0.001f + 0.499f * t * t * t;
 2668              		.loc 3 153 12 is_stmt 1 view .LVU749
 2669              	.LBB956:
 2670              	.LBB934:
 2671              	.LBB784:
 2672              	.LBB770:
 2673              	.LBB571:
 2674              	.LBB558:
 2675              	.LBB497:
ARM GAS  /var/folders/9k/zk1mgrrd7wg4__6zvxvr9w8m0000gn/T//cc9Z2LKb.s 			page 71


 2676              	.LBB481:
 2677              	.LBB444:
 2678 0448 012A     		cmp	r2, #1
 2679 044a 2CD0     		beq	.L92
 162:mi/plaits/dsp/oscillator/grainlet_oscillator.h ****       phase = 0.25f + phase * (0.5f + t * t * t * 14.5f);
 2680              		.loc 3 162 7 view .LVU750
 162:mi/plaits/dsp/oscillator/grainlet_oscillator.h ****       phase = 0.25f + phase * (0.5f + t * t * t * 14.5f);
 2681              		.loc 3 162 9 is_stmt 0 view .LVU751
 2682 044c 70EE677A 		vsub.f32	s15, s0, s15
 2683              	.LVL166:
 163:mi/plaits/dsp/oscillator/grainlet_oscillator.h ****       if (phase >= 0.75f) phase = 0.75f;
 2684              		.loc 3 163 7 is_stmt 1 view .LVU752
 163:mi/plaits/dsp/oscillator/grainlet_oscillator.h ****       if (phase >= 0.75f) phase = 0.75f;
 2685              		.loc 3 163 37 is_stmt 0 view .LVU753
 2686 0450 F2EE0D9A 		vmov.f32	s19, #1.45e+1
 2687 0454 F6EE006A 		vmov.f32	s13, #5.0e-1
 163:mi/plaits/dsp/oscillator/grainlet_oscillator.h ****       if (phase >= 0.75f) phase = 0.75f;
 2688              		.loc 3 163 41 view .LVU754
 2689 0458 27EEA77A 		vmul.f32	s14, s15, s15
 163:mi/plaits/dsp/oscillator/grainlet_oscillator.h ****       if (phase >= 0.75f) phase = 0.75f;
 2690              		.loc 3 163 13 view .LVU755
 2691 045c B5EE009A 		vmov.f32	s18, #2.5e-1
 2692              	.LVL167:
 164:mi/plaits/dsp/oscillator/grainlet_oscillator.h ****     }
 2693              		.loc 3 164 7 view .LVU756
 2694 0460 B6EE080A 		vmov.f32	s0, #7.5e-1
 163:mi/plaits/dsp/oscillator/grainlet_oscillator.h ****       if (phase >= 0.75f) phase = 0.75f;
 2695              		.loc 3 163 45 view .LVU757
 2696 0464 67EE277A 		vmul.f32	s15, s14, s15
 2697              	.LVL168:
 163:mi/plaits/dsp/oscillator/grainlet_oscillator.h ****       if (phase >= 0.75f) phase = 0.75f;
 2698              		.loc 3 163 37 view .LVU758
 2699 0468 E7EEA96A 		vfma.f32	s13, s15, s19
 163:mi/plaits/dsp/oscillator/grainlet_oscillator.h ****       if (phase >= 0.75f) phase = 0.75f;
 2700              		.loc 3 163 13 view .LVU759
 2701 046c 76EE896A 		vadd.f32	s13, s13, s18
 2702              	.LVL169:
 164:mi/plaits/dsp/oscillator/grainlet_oscillator.h ****     }
 2703              		.loc 3 164 7 is_stmt 1 view .LVU760
 2704 0470 F4EEC06A 		vcmpe.f32	s13, s0
 2705 0474 F1EE10FA 		vmrs	APSR_nzcv, FPSCR
 2706 0478 33DB     		blt	.L81
 2707 047a 5FED0F6A 		vldr.32	s13, .L95+12
 2708              	.LVL170:
 164:mi/plaits/dsp/oscillator/grainlet_oscillator.h ****     }
 2709              		.loc 3 164 7 is_stmt 0 view .LVU761
 2710 047e 40F20465 		movw	r5, #1540
 2711 0482 4FF4C062 		mov	r2, #1536
 2712              	.LVL171:
 164:mi/plaits/dsp/oscillator/grainlet_oscillator.h ****     }
 2713              		.loc 3 164 7 view .LVU762
 2714 0486 40E6     		b	.L37
 2715              	.LVL172:
 2716              	.L88:
 164:mi/plaits/dsp/oscillator/grainlet_oscillator.h ****     }
 2717              		.loc 3 164 7 view .LVU763
 2718              	.LBE444:
ARM GAS  /var/folders/9k/zk1mgrrd7wg4__6zvxvr9w8m0000gn/T//cc9Z2LKb.s 			page 72


 2719              	.LBE481:
 2720              	.LBE497:
 2721              	.LBE558:
 2722              	.LBE571:
 2723              	.LBE770:
 2724              	.LBE784:
 2725              	.LBE934:
 2726              	.LBB935:
 2727              	.LBB923:
 2728              	.LBB915:
 2729              	.LBB871:
 2730              	.LBB853:
 152:mi/plaits/dsp/oscillator/grainlet_oscillator.h ****     } else if (shape_integral == 1) {
 2731              		.loc 3 152 13 view .LVU764
 2732 0488 F6EE086A 		vmov.f32	s13, #7.5e-1
 2733              	.LBE853:
 2734              	.LBB854:
 2735              	.LBB841:
 2736              	.LBB831:
 2737              	.LBB821:
  70:mi/stmlib/dsp/dsp.h ****   MAKE_INTEGRAL_FRACTIONAL(index)
 2738              		.loc 6 70 9 view .LVU765
 2739 048c 1FED131A 		vldr.32	s2, .L95+16
 2740              	.LBE821:
 2741              	.LBE831:
 2742              	.LBE841:
 2743              	.LBE854:
 2744              	.LBB855:
 152:mi/plaits/dsp/oscillator/grainlet_oscillator.h ****     } else if (shape_integral == 1) {
 2745              		.loc 3 152 13 view .LVU766
 2746 0490 37EE267A 		vadd.f32	s14, s14, s13
 2747              	.LVL173:
 152:mi/plaits/dsp/oscillator/grainlet_oscillator.h ****     } else if (shape_integral == 1) {
 2748              		.loc 3 152 13 view .LVU767
 2749              	.LBE855:
 2750              	.LBB856:
 2751              	.LBB842:
 2752              	.LBB832:
 2753              	.LBB822:
  69:mi/stmlib/dsp/dsp.h ****   index *= size;
 2754              		.loc 6 69 31 view .LVU768
 2755 0494 FDEEC76A 		vcvt.s32.f32	s13, s14
  69:mi/stmlib/dsp/dsp.h ****   index *= size;
 2756              		.loc 6 69 12 view .LVU769
 2757 0498 F8EEE66A 		vcvt.f32.s32	s13, s13
  69:mi/stmlib/dsp/dsp.h ****   index *= size;
 2758              		.loc 6 69 9 view .LVU770
 2759 049c 37EE667A 		vsub.f32	s14, s14, s13
  70:mi/stmlib/dsp/dsp.h ****   MAKE_INTEGRAL_FRACTIONAL(index)
 2760              		.loc 6 70 9 view .LVU771
 2761 04a0 67EE016A 		vmul.f32	s13, s14, s2
 2762 04a4 64E7     		b	.L84
 2763              	.LVL174:
 2764              	.L92:
  70:mi/stmlib/dsp/dsp.h ****   MAKE_INTEGRAL_FRACTIONAL(index)
 2765              		.loc 6 70 9 view .LVU772
 2766              	.LBE822:
ARM GAS  /var/folders/9k/zk1mgrrd7wg4__6zvxvr9w8m0000gn/T//cc9Z2LKb.s 			page 73


 2767              	.LBE832:
 2768              	.LBE842:
 2769              	.LBE856:
 2770              	.LBE871:
 2771              	.LBE915:
 2772              	.LBE923:
 2773              	.LBE935:
 2774              	.LBB936:
 2775              	.LBB785:
 2776              	.LBB771:
 2777              	.LBB572:
 2778              	.LBB559:
 2779              	.LBB498:
 2780              	.LBB482:
 2781              	.LBB447:
 2782              	.LBB445:
 154:mi/plaits/dsp/oscillator/grainlet_oscillator.h ****       if (phase < breakpoint) {
 2783              		.loc 3 154 7 is_stmt 1 view .LVU773
 154:mi/plaits/dsp/oscillator/grainlet_oscillator.h ****       if (phase < breakpoint) {
 2784              		.loc 3 154 42 is_stmt 0 view .LVU774
 2785 04a6 5FED1C6A 		vldr.32	s13, .L95+4
 154:mi/plaits/dsp/oscillator/grainlet_oscillator.h ****       if (phase < breakpoint) {
 2786              		.loc 3 154 13 view .LVU775
 2787 04aa 1FED1C7A 		vldr.32	s14, .L95+8
 154:mi/plaits/dsp/oscillator/grainlet_oscillator.h ****       if (phase < breakpoint) {
 2788              		.loc 3 154 42 view .LVU776
 2789 04ae 67EEA66A 		vmul.f32	s13, s15, s13
 154:mi/plaits/dsp/oscillator/grainlet_oscillator.h ****       if (phase < breakpoint) {
 2790              		.loc 3 154 46 view .LVU777
 2791 04b2 66EEA76A 		vmul.f32	s13, s13, s15
 154:mi/plaits/dsp/oscillator/grainlet_oscillator.h ****       if (phase < breakpoint) {
 2792              		.loc 3 154 13 view .LVU778
 2793 04b6 A7EEA67A 		vfma.f32	s14, s15, s13
 2794              	.LVL175:
 155:mi/plaits/dsp/oscillator/grainlet_oscillator.h ****         phase *= (0.5f / breakpoint);
 2795              		.loc 3 155 7 is_stmt 1 view .LVU779
 2796 04ba B4EEC07A 		vcmpe.f32	s14, s0
 2797 04be F1EE10FA 		vmrs	APSR_nzcv, FPSCR
 2798 04c2 00F3B880 		bgt	.L93
 158:mi/plaits/dsp/oscillator/grainlet_oscillator.h ****       }
 2799              		.loc 3 158 9 view .LVU780
 158:mi/plaits/dsp/oscillator/grainlet_oscillator.h ****       }
 2800              		.loc 3 158 31 is_stmt 0 view .LVU781
 2801 04c6 70EE477A 		vsub.f32	s15, s0, s14
 2802              	.LVL176:
 158:mi/plaits/dsp/oscillator/grainlet_oscillator.h ****       }
 2803              		.loc 3 158 45 view .LVU782
 2804 04ca B6EE007A 		vmov.f32	s14, #5.0e-1
 2805              	.LVL177:
 158:mi/plaits/dsp/oscillator/grainlet_oscillator.h ****       }
 2806              		.loc 3 158 45 view .LVU783
 2807 04ce 27EE870A 		vmul.f32	s0, s15, s14
 2808              	.LVL178:
 158:mi/plaits/dsp/oscillator/grainlet_oscillator.h ****       }
 2809              		.loc 3 158 52 view .LVU784
 2810 04d2 C0EE276A 		vdiv.f32	s13, s0, s15
 2811              	.LVL179:
ARM GAS  /var/folders/9k/zk1mgrrd7wg4__6zvxvr9w8m0000gn/T//cc9Z2LKb.s 			page 74


 158:mi/plaits/dsp/oscillator/grainlet_oscillator.h ****       }
 2812              		.loc 3 158 15 view .LVU785
 2813 04d6 76EE876A 		vadd.f32	s13, s13, s14
 2814              	.LVL180:
 2815              	.L41:
 160:mi/plaits/dsp/oscillator/grainlet_oscillator.h ****     } else {
 2816              		.loc 3 160 7 is_stmt 1 view .LVU786
 160:mi/plaits/dsp/oscillator/grainlet_oscillator.h ****     } else {
 2817              		.loc 3 160 13 is_stmt 0 view .LVU787
 2818 04da F6EE087A 		vmov.f32	s15, #7.5e-1
 2819 04de 76EEA76A 		vadd.f32	s13, s13, s15
 2820              	.LVL181:
 2821              	.L81:
 160:mi/plaits/dsp/oscillator/grainlet_oscillator.h ****     } else {
 2822              		.loc 3 160 13 view .LVU788
 2823              	.LBE445:
 2824              	.LBE447:
 2825              	.LBE482:
 2826              	.LBB483:
 2827              	.LBB474:
 2828              	.LBB467:
 2829              	.LBB460:
  69:mi/stmlib/dsp/dsp.h ****   index *= size;
 2830              		.loc 6 69 31 view .LVU789
 2831 04e2 FDEEE67A 		vcvt.s32.f32	s15, s13
  69:mi/stmlib/dsp/dsp.h ****   index *= size;
 2832              		.loc 6 69 12 view .LVU790
 2833 04e6 F8EEE77A 		vcvt.f32.s32	s15, s15
  69:mi/stmlib/dsp/dsp.h ****   index *= size;
 2834              		.loc 6 69 9 view .LVU791
 2835 04ea 76EEE76A 		vsub.f32	s13, s13, s15
 2836              	.LVL182:
  70:mi/stmlib/dsp/dsp.h ****   MAKE_INTEGRAL_FRACTIONAL(index)
 2837              		.loc 6 70 9 view .LVU792
 2838 04ee 5FED2B7A 		vldr.32	s15, .L95+16
 2839 04f2 66EEA76A 		vmul.f32	s13, s13, s15
 2840              	.L80:
  71:mi/stmlib/dsp/dsp.h ****   float a = table[index_integral];
 2841              		.loc 6 71 3 view .LVU793
 2842 04f6 FDEEE67A 		vcvt.s32.f32	s15, s13
  72:mi/stmlib/dsp/dsp.h ****   float b = table[index_integral + 1];
 2843              		.loc 6 72 33 view .LVU794
 2844 04fa 17EE902A 		vmov	r2, s15	@ int
 2845              	.LVL183:
  71:mi/stmlib/dsp/dsp.h ****   float a = table[index_integral];
 2846              		.loc 6 71 3 view .LVU795
 2847 04fe B8EEE77A 		vcvt.f32.s32	s14, s15
  72:mi/stmlib/dsp/dsp.h ****   float b = table[index_integral + 1];
 2848              		.loc 6 72 33 view .LVU796
 2849 0502 9200     		lsls	r2, r2, #2
  71:mi/stmlib/dsp/dsp.h ****   float a = table[index_integral];
 2850              		.loc 6 71 3 view .LVU797
 2851 0504 76EEC76A 		vsub.f32	s13, s13, s14
  73:mi/stmlib/dsp/dsp.h ****   return a + (b - a) * index_fractional;
 2852              		.loc 6 73 37 view .LVU798
 2853 0508 151D     		adds	r5, r2, #4
 2854              	.LBE460:
ARM GAS  /var/folders/9k/zk1mgrrd7wg4__6zvxvr9w8m0000gn/T//cc9Z2LKb.s 			page 75


 2855              	.LBE467:
 2856              	.LBE474:
 2857              	.LBE483:
 2858              	.LBB484:
 2859              	.LBB448:
 2860 050a FEE5     		b	.L37
 2861              	.LVL184:
 2862              	.L89:
  73:mi/stmlib/dsp/dsp.h ****   return a + (b - a) * index_fractional;
 2863              		.loc 6 73 37 view .LVU799
 2864              	.LBE448:
 2865              	.LBE484:
 2866              	.LBE498:
 2867              	.LBE559:
 2868              	.LBE572:
 2869              	.LBE771:
 2870              	.LBE785:
 2871              	.LBE936:
 2872              	.LBB937:
 2873              	.LBB924:
 2874              	.LBB916:
 2875              	.LBB872:
 2876              	.LBB857:
 2877              	.LBB807:
 2878              	.LBB803:
 154:mi/plaits/dsp/oscillator/grainlet_oscillator.h ****       if (phase < breakpoint) {
 2879              		.loc 3 154 7 is_stmt 1 view .LVU800
 154:mi/plaits/dsp/oscillator/grainlet_oscillator.h ****       if (phase < breakpoint) {
 2880              		.loc 3 154 42 is_stmt 0 view .LVU801
 2881 050c 1FED367A 		vldr.32	s14, .L95+4
 154:mi/plaits/dsp/oscillator/grainlet_oscillator.h ****       if (phase < breakpoint) {
 2882              		.loc 3 154 13 view .LVU802
 2883 0510 5FED366A 		vldr.32	s13, .L95+8
 154:mi/plaits/dsp/oscillator/grainlet_oscillator.h ****       if (phase < breakpoint) {
 2884              		.loc 3 154 42 view .LVU803
 2885 0514 20EE077A 		vmul.f32	s14, s0, s14
 154:mi/plaits/dsp/oscillator/grainlet_oscillator.h ****       if (phase < breakpoint) {
 2886              		.loc 3 154 46 view .LVU804
 2887 0518 27EE007A 		vmul.f32	s14, s14, s0
 154:mi/plaits/dsp/oscillator/grainlet_oscillator.h ****       if (phase < breakpoint) {
 2888              		.loc 3 154 13 view .LVU805
 2889 051c E7EE006A 		vfma.f32	s13, s14, s0
 2890              	.LVL185:
 155:mi/plaits/dsp/oscillator/grainlet_oscillator.h ****         phase *= (0.5f / breakpoint);
 2891              		.loc 3 155 7 is_stmt 1 view .LVU806
 2892 0520 F4EEC16A 		vcmpe.f32	s13, s2
 2893 0524 F1EE10FA 		vmrs	APSR_nzcv, FPSCR
 2894 0528 76DD     		ble	.L78
 156:mi/plaits/dsp/oscillator/grainlet_oscillator.h ****       } else {
 2895              		.loc 3 156 9 view .LVU807
 156:mi/plaits/dsp/oscillator/grainlet_oscillator.h ****       } else {
 2896              		.loc 3 156 24 is_stmt 0 view .LVU808
 2897 052a B6EE000A 		vmov.f32	s0, #5.0e-1
 2898 052e 80EE267A 		vdiv.f32	s14, s0, s13
 156:mi/plaits/dsp/oscillator/grainlet_oscillator.h ****       } else {
 2899              		.loc 3 156 15 view .LVU809
 2900 0532 27EE017A 		vmul.f32	s14, s14, s2
ARM GAS  /var/folders/9k/zk1mgrrd7wg4__6zvxvr9w8m0000gn/T//cc9Z2LKb.s 			page 76


 2901              	.LVL186:
 2902              	.L57:
 160:mi/plaits/dsp/oscillator/grainlet_oscillator.h ****     } else {
 2903              		.loc 3 160 7 is_stmt 1 view .LVU810
 160:mi/plaits/dsp/oscillator/grainlet_oscillator.h ****     } else {
 2904              		.loc 3 160 13 is_stmt 0 view .LVU811
 2905 0536 F6EE086A 		vmov.f32	s13, #7.5e-1
 2906              	.LBE803:
 2907              	.LBE807:
 2908              	.LBE857:
 2909              	.LBB858:
 2910              	.LBB843:
 2911              	.LBB833:
 2912              	.LBB823:
  70:mi/stmlib/dsp/dsp.h ****   MAKE_INTEGRAL_FRACTIONAL(index)
 2913              		.loc 6 70 9 view .LVU812
 2914 053a 1FED3E1A 		vldr.32	s2, .L95+16
 2915              	.LBE823:
 2916              	.LBE833:
 2917              	.LBE843:
 2918              	.LBE858:
 2919              	.LBB859:
 2920              	.LBB808:
 2921              	.LBB804:
 160:mi/plaits/dsp/oscillator/grainlet_oscillator.h ****     } else {
 2922              		.loc 3 160 13 view .LVU813
 2923 053e 37EE267A 		vadd.f32	s14, s14, s13
 2924              	.LVL187:
 160:mi/plaits/dsp/oscillator/grainlet_oscillator.h ****     } else {
 2925              		.loc 3 160 13 view .LVU814
 2926              	.LBE804:
 2927              	.LBE808:
 2928              	.LBE859:
 2929              	.LBB860:
 2930              	.LBB844:
 2931              	.LBB834:
 2932              	.LBB824:
  69:mi/stmlib/dsp/dsp.h ****   index *= size;
 2933              		.loc 6 69 31 view .LVU815
 2934 0542 FDEEC76A 		vcvt.s32.f32	s13, s14
  69:mi/stmlib/dsp/dsp.h ****   index *= size;
 2935              		.loc 6 69 12 view .LVU816
 2936 0546 F8EEE66A 		vcvt.f32.s32	s13, s13
  69:mi/stmlib/dsp/dsp.h ****   index *= size;
 2937              		.loc 6 69 9 view .LVU817
 2938 054a 77EE666A 		vsub.f32	s13, s14, s13
 2939 054e 0DE7     		b	.L85
 2940              	.LVL188:
 2941              	.L90:
  69:mi/stmlib/dsp/dsp.h ****   index *= size;
 2942              		.loc 6 69 9 view .LVU818
 2943              	.LBE824:
 2944              	.LBE834:
 2945              	.LBE844:
 2946              	.LBE860:
 2947              	.LBE872:
 2948              	.LBE916:
ARM GAS  /var/folders/9k/zk1mgrrd7wg4__6zvxvr9w8m0000gn/T//cc9Z2LKb.s 			page 77


 2949              	.LBE924:
 2950              	.LBE937:
 2951              	.LBB938:
 2952              	.LBB786:
 2953              	.LBB772:
 2954              	.LBB717:
 2955              	.LBB696:
 2956              	.LBB652:
 143:mi/plaits/dsp/oscillator/grainlet_oscillator.h ****     MAKE_INTEGRAL_FRACTIONAL(shape);
 2957              		.loc 3 143 11 view .LVU819
 2958 0550 24EE877A 		vmul.f32	s14, s9, s14
 2959              	.LBE652:
 2960              	.LBE696:
 2961              	.LBE717:
 2962              	.LBE772:
 2963              	.LBE786:
 2964              	.LBE938:
  96:mi/plaits/dsp/oscillator/grainlet_oscillator.h ****     
 2965              		.loc 3 96 19 view .LVU820
 2966 0554 1FED464A 		vldr.32	s8, .L95+12
 2967              	.LBB939:
 2968              	.LBB787:
 2969              	.LBB773:
 2970              	.LBB718:
 2971              		.loc 3 176 48 view .LVU821
 2972 0558 76EE003A 		vadd.f32	s7, s12, s0
 2973              	.LBE718:
 2974              	.LBE773:
 2975              	.LBE787:
 124:mi/plaits/dsp/oscillator/grainlet_oscillator.h ****         if (formant_phase_ >= 1.0f) {
 2976              		.loc 3 124 24 view .LVU822
 2977 055c C0ED017A 		vstr.32	s15, [r0, #4]
 2978 0560 2CE7     		b	.L83
 2979              	.LVL189:
 2980              	.L64:
 124:mi/plaits/dsp/oscillator/grainlet_oscillator.h ****         if (formant_phase_ >= 1.0f) {
 2981              		.loc 3 124 24 view .LVU823
 2982              	.LBE939:
 2983              	.LBB940:
 2984              	.LBB925:
 2985              	.LBB917:
 2986              	.LBB873:
 2987              	.LBB861:
 2988              	.LBB809:
 2989 0562 40F2046C 		movw	ip, #1540
 2990 0566 4FF4C062 		mov	r2, #1536
 2991 056a 5FED4B6A 		vldr.32	s13, .L95+12
 2992              	.LVL190:
 124:mi/plaits/dsp/oscillator/grainlet_oscillator.h ****         if (formant_phase_ >= 1.0f) {
 2993              		.loc 3 124 24 view .LVU824
 2994 056e 89E6     		b	.L53
 2995              	.LVL191:
 2996              	.L87:
 124:mi/plaits/dsp/oscillator/grainlet_oscillator.h ****         if (formant_phase_ >= 1.0f) {
 2997              		.loc 3 124 24 view .LVU825
 2998              	.LBE809:
 2999              	.LBE861:
ARM GAS  /var/folders/9k/zk1mgrrd7wg4__6zvxvr9w8m0000gn/T//cc9Z2LKb.s 			page 78


 3000              	.LBE873:
 3001              	.LBE917:
 3002              	.LBE925:
 3003              	.LBE940:
 3004              	.LBB941:
 3005              	.LBB788:
 3006              	.LBB774:
 3007              	.LBB719:
 3008              	.LBB697:
 3009              	.LBB653:
 3010              	.LBB630:
 152:mi/plaits/dsp/oscillator/grainlet_oscillator.h ****     } else if (shape_integral == 1) {
 3011              		.loc 3 152 13 view .LVU826
 3012 0570 F6EE083A 		vmov.f32	s7, #7.5e-1
 3013 0574 37EE237A 		vadd.f32	s14, s14, s7
 3014              	.LVL192:
 152:mi/plaits/dsp/oscillator/grainlet_oscillator.h ****     } else if (shape_integral == 1) {
 3015              		.loc 3 152 13 view .LVU827
 3016              	.LBE630:
 3017              	.LBB631:
 3018              	.LBB622:
 3019              	.LBB615:
 3020              	.LBB608:
  69:mi/stmlib/dsp/dsp.h ****   index *= size;
 3021              		.loc 6 69 31 view .LVU828
 3022 0578 FDEEC73A 		vcvt.s32.f32	s7, s14
  69:mi/stmlib/dsp/dsp.h ****   index *= size;
 3023              		.loc 6 69 12 view .LVU829
 3024 057c F8EEE33A 		vcvt.f32.s32	s7, s7
  69:mi/stmlib/dsp/dsp.h ****   index *= size;
 3025              		.loc 6 69 9 view .LVU830
 3026 0580 37EE637A 		vsub.f32	s14, s14, s7
  70:mi/stmlib/dsp/dsp.h ****   MAKE_INTEGRAL_FRACTIONAL(index)
 3027              		.loc 6 70 9 view .LVU831
 3028 0584 67EE277A 		vmul.f32	s15, s14, s15
 3029              	.LVL193:
  70:mi/stmlib/dsp/dsp.h ****   MAKE_INTEGRAL_FRACTIONAL(index)
 3030              		.loc 6 70 9 view .LVU832
 3031 0588 46E7     		b	.L82
 3032              	.LVL194:
 3033              	.L86:
  70:mi/stmlib/dsp/dsp.h ****   MAKE_INTEGRAL_FRACTIONAL(index)
 3034              		.loc 6 70 9 view .LVU833
 3035              	.LBE608:
 3036              	.LBE615:
 3037              	.LBE622:
 3038              	.LBE631:
 3039              	.LBE653:
 3040              	.LBE697:
 3041              	.LBE719:
 3042              	.LBE774:
 3043              	.LBB775:
 3044              	.LBB573:
 3045              	.LBB560:
 3046              	.LBB499:
 3047              	.LBB485:
 152:mi/plaits/dsp/oscillator/grainlet_oscillator.h ****     } else if (shape_integral == 1) {
ARM GAS  /var/folders/9k/zk1mgrrd7wg4__6zvxvr9w8m0000gn/T//cc9Z2LKb.s 			page 79


 3048              		.loc 3 152 13 view .LVU834
 3049 058a F6EE086A 		vmov.f32	s13, #7.5e-1
 3050 058e 37EE267A 		vadd.f32	s14, s14, s13
 3051              	.LVL195:
 152:mi/plaits/dsp/oscillator/grainlet_oscillator.h ****     } else if (shape_integral == 1) {
 3052              		.loc 3 152 13 view .LVU835
 3053              	.LBE485:
 3054              	.LBB486:
 3055              	.LBB475:
 3056              	.LBB468:
 3057              	.LBB461:
  69:mi/stmlib/dsp/dsp.h ****   index *= size;
 3058              		.loc 6 69 31 view .LVU836
 3059 0592 FDEEC76A 		vcvt.s32.f32	s13, s14
  69:mi/stmlib/dsp/dsp.h ****   index *= size;
 3060              		.loc 6 69 12 view .LVU837
 3061 0596 F8EEE66A 		vcvt.f32.s32	s13, s13
  69:mi/stmlib/dsp/dsp.h ****   index *= size;
 3062              		.loc 6 69 9 view .LVU838
 3063 059a 37EE667A 		vsub.f32	s14, s14, s13
  70:mi/stmlib/dsp/dsp.h ****   MAKE_INTEGRAL_FRACTIONAL(index)
 3064              		.loc 6 70 9 view .LVU839
 3065 059e 5FED576A 		vldr.32	s13, .L95+16
 3066 05a2 67EE266A 		vmul.f32	s13, s14, s13
 3067 05a6 A6E7     		b	.L80
 3068              	.LVL196:
 3069              	.L91:
  70:mi/stmlib/dsp/dsp.h ****   MAKE_INTEGRAL_FRACTIONAL(index)
 3070              		.loc 6 70 9 view .LVU840
 3071              	.LBE461:
 3072              	.LBE468:
 3073              	.LBE475:
 3074              	.LBE486:
 3075              	.LBE499:
 3076              	.LBE560:
 3077              	.LBE573:
 3078              	.LBE775:
 3079              	.LBB776:
 3080              	.LBB720:
 3081              	.LBB698:
 3082              	.LBB654:
 3083              	.LBB632:
 3084              	.LBB596:
 3085              	.LBB593:
 154:mi/plaits/dsp/oscillator/grainlet_oscillator.h ****       if (phase < breakpoint) {
 3086              		.loc 3 154 7 is_stmt 1 view .LVU841
 154:mi/plaits/dsp/oscillator/grainlet_oscillator.h ****       if (phase < breakpoint) {
 3087              		.loc 3 154 42 is_stmt 0 view .LVU842
 3088 05a8 1FED5D7A 		vldr.32	s14, .L95+4
 154:mi/plaits/dsp/oscillator/grainlet_oscillator.h ****       if (phase < breakpoint) {
 3089              		.loc 3 154 13 view .LVU843
 3090 05ac 5FED5D7A 		vldr.32	s15, .L95+8
 154:mi/plaits/dsp/oscillator/grainlet_oscillator.h ****       if (phase < breakpoint) {
 3091              		.loc 3 154 42 view .LVU844
 3092 05b0 20EE077A 		vmul.f32	s14, s0, s14
 154:mi/plaits/dsp/oscillator/grainlet_oscillator.h ****       if (phase < breakpoint) {
 3093              		.loc 3 154 46 view .LVU845
ARM GAS  /var/folders/9k/zk1mgrrd7wg4__6zvxvr9w8m0000gn/T//cc9Z2LKb.s 			page 80


 3094 05b4 27EE007A 		vmul.f32	s14, s14, s0
 154:mi/plaits/dsp/oscillator/grainlet_oscillator.h ****       if (phase < breakpoint) {
 3095              		.loc 3 154 13 view .LVU846
 3096 05b8 E0EE077A 		vfma.f32	s15, s0, s14
 3097              	.LVL197:
 155:mi/plaits/dsp/oscillator/grainlet_oscillator.h ****         phase *= (0.5f / breakpoint);
 3098              		.loc 3 155 7 is_stmt 1 view .LVU847
 3099 05bc 1FED607A 		vldr.32	s14, .L95+12
 3100 05c0 F4EEC77A 		vcmpe.f32	s15, s14
 3101 05c4 F1EE10FA 		vmrs	APSR_nzcv, FPSCR
 3102 05c8 3ADC     		bgt	.L94
 158:mi/plaits/dsp/oscillator/grainlet_oscillator.h ****       }
 3103              		.loc 3 158 9 view .LVU848
 158:mi/plaits/dsp/oscillator/grainlet_oscillator.h ****       }
 3104              		.loc 3 158 31 is_stmt 0 view .LVU849
 3105 05ca 37EE677A 		vsub.f32	s14, s14, s15
 158:mi/plaits/dsp/oscillator/grainlet_oscillator.h ****       }
 3106              		.loc 3 158 45 view .LVU850
 3107 05ce F6EE006A 		vmov.f32	s13, #5.0e-1
 158:mi/plaits/dsp/oscillator/grainlet_oscillator.h ****       }
 3108              		.loc 3 158 60 view .LVU851
 3109 05d2 79EEE77A 		vsub.f32	s15, s19, s15
 3110              	.LVL198:
 158:mi/plaits/dsp/oscillator/grainlet_oscillator.h ****       }
 3111              		.loc 3 158 45 view .LVU852
 3112 05d6 27EE267A 		vmul.f32	s14, s14, s13
 158:mi/plaits/dsp/oscillator/grainlet_oscillator.h ****       }
 3113              		.loc 3 158 52 view .LVU853
 3114 05da C7EE273A 		vdiv.f32	s7, s14, s15
 3115              	.LVL199:
 158:mi/plaits/dsp/oscillator/grainlet_oscillator.h ****       }
 3116              		.loc 3 158 15 view .LVU854
 3117 05de 73EEA63A 		vadd.f32	s7, s7, s13
 3118              	.LVL200:
 3119              	.L48:
 160:mi/plaits/dsp/oscillator/grainlet_oscillator.h ****     } else {
 3120              		.loc 3 160 7 is_stmt 1 view .LVU855
 160:mi/plaits/dsp/oscillator/grainlet_oscillator.h ****     } else {
 3121              		.loc 3 160 13 is_stmt 0 view .LVU856
 3122 05e2 F6EE087A 		vmov.f32	s15, #7.5e-1
 3123 05e6 73EEA73A 		vadd.f32	s7, s7, s15
 3124              	.LVL201:
 160:mi/plaits/dsp/oscillator/grainlet_oscillator.h ****     } else {
 3125              		.loc 3 160 13 view .LVU857
 3126              	.LBE593:
 3127              	.LBE596:
 3128              	.LBE632:
 3129              	.LBB633:
 3130              	.LBB623:
 3131              	.LBB616:
 3132              	.LBB609:
  69:mi/stmlib/dsp/dsp.h ****   index *= size;
 3133              		.loc 6 69 31 view .LVU858
 3134 05ea FDEEE37A 		vcvt.s32.f32	s15, s7
  69:mi/stmlib/dsp/dsp.h ****   index *= size;
 3135              		.loc 6 69 12 view .LVU859
 3136 05ee F8EEE77A 		vcvt.f32.s32	s15, s15
ARM GAS  /var/folders/9k/zk1mgrrd7wg4__6zvxvr9w8m0000gn/T//cc9Z2LKb.s 			page 81


  69:mi/stmlib/dsp/dsp.h ****   index *= size;
 3137              		.loc 6 69 9 view .LVU860
 3138 05f2 73EEE73A 		vsub.f32	s7, s7, s15
 3139              	.LVL202:
  70:mi/stmlib/dsp/dsp.h ****   MAKE_INTEGRAL_FRACTIONAL(index)
 3140              		.loc 6 70 9 view .LVU861
 3141 05f6 5FED6D7A 		vldr.32	s15, .L95+16
 3142              	.LVL203:
  70:mi/stmlib/dsp/dsp.h ****   MAKE_INTEGRAL_FRACTIONAL(index)
 3143              		.loc 6 70 9 view .LVU862
 3144 05fa 63EEA73A 		vmul.f32	s7, s7, s15
  71:mi/stmlib/dsp/dsp.h ****   float a = table[index_integral];
 3145              		.loc 6 71 3 view .LVU863
 3146 05fe FDEEE37A 		vcvt.s32.f32	s15, s7
 3147              	.LVL204:
  72:mi/stmlib/dsp/dsp.h ****   float b = table[index_integral + 1];
 3148              		.loc 6 72 33 view .LVU864
 3149 0602 17EE905A 		vmov	r5, s15	@ int
  71:mi/stmlib/dsp/dsp.h ****   float a = table[index_integral];
 3150              		.loc 6 71 3 view .LVU865
 3151 0606 B8EEE77A 		vcvt.f32.s32	s14, s15
  72:mi/stmlib/dsp/dsp.h ****   float b = table[index_integral + 1];
 3152              		.loc 6 72 33 view .LVU866
 3153 060a 4FEA850C 		lsl	ip, r5, #2
 3154              	.LVL205:
  71:mi/stmlib/dsp/dsp.h ****   float a = table[index_integral];
 3155              		.loc 6 71 3 view .LVU867
 3156 060e 73EEC73A 		vsub.f32	s7, s7, s14
  73:mi/stmlib/dsp/dsp.h ****   return a + (b - a) * index_fractional;
 3157              		.loc 6 73 37 view .LVU868
 3158 0612 0CF10405 		add	r5, ip, #4
 3159              	.LBE609:
 3160              	.LBE616:
 3161              	.LBE623:
 3162              	.LBE633:
 3163              	.LBB634:
 3164              	.LBB597:
 3165 0616 DDE5     		b	.L44
 3166              	.LVL206:
 3167              	.L78:
  73:mi/stmlib/dsp/dsp.h ****   return a + (b - a) * index_fractional;
 3168              		.loc 6 73 37 view .LVU869
 3169              	.LBE597:
 3170              	.LBE634:
 3171              	.LBE654:
 3172              	.LBE698:
 3173              	.LBE720:
 3174              	.LBE776:
 3175              	.LBE788:
 3176              	.LBE941:
 3177              	.LBB942:
 3178              	.LBB926:
 3179              	.LBB918:
 3180              	.LBB874:
 3181              	.LBB862:
 3182              	.LBB810:
 3183              	.LBB805:
ARM GAS  /var/folders/9k/zk1mgrrd7wg4__6zvxvr9w8m0000gn/T//cc9Z2LKb.s 			page 82


 158:mi/plaits/dsp/oscillator/grainlet_oscillator.h ****       }
 3184              		.loc 3 158 9 is_stmt 1 view .LVU870
 158:mi/plaits/dsp/oscillator/grainlet_oscillator.h ****       }
 3185              		.loc 3 158 31 is_stmt 0 view .LVU871
 3186 0618 31EE667A 		vsub.f32	s14, s2, s13
 158:mi/plaits/dsp/oscillator/grainlet_oscillator.h ****       }
 3187              		.loc 3 158 45 view .LVU872
 3188 061c B6EE008A 		vmov.f32	s16, #5.0e-1
 158:mi/plaits/dsp/oscillator/grainlet_oscillator.h ****       }
 3189              		.loc 3 158 60 view .LVU873
 3190 0620 B7EE000A 		vmov.f32	s0, #1.0e+0
 158:mi/plaits/dsp/oscillator/grainlet_oscillator.h ****       }
 3191              		.loc 3 158 45 view .LVU874
 3192 0624 27EE081A 		vmul.f32	s2, s14, s16
 158:mi/plaits/dsp/oscillator/grainlet_oscillator.h ****       }
 3193              		.loc 3 158 60 view .LVU875
 3194 0628 70EE666A 		vsub.f32	s13, s0, s13
 3195              	.LVL207:
 158:mi/plaits/dsp/oscillator/grainlet_oscillator.h ****       }
 3196              		.loc 3 158 52 view .LVU876
 3197 062c 81EE267A 		vdiv.f32	s14, s2, s13
 158:mi/plaits/dsp/oscillator/grainlet_oscillator.h ****       }
 3198              		.loc 3 158 15 view .LVU877
 3199 0630 37EE087A 		vadd.f32	s14, s14, s16
 3200              	.LVL208:
 158:mi/plaits/dsp/oscillator/grainlet_oscillator.h ****       }
 3201              		.loc 3 158 15 view .LVU878
 3202 0634 7FE7     		b	.L57
 3203              	.LVL209:
 3204              	.L93:
 158:mi/plaits/dsp/oscillator/grainlet_oscillator.h ****       }
 3205              		.loc 3 158 15 view .LVU879
 3206              	.LBE805:
 3207              	.LBE810:
 3208              	.LBE862:
 3209              	.LBE874:
 3210              	.LBE918:
 3211              	.LBE926:
 3212              	.LBE942:
 3213              	.LBB943:
 3214              	.LBB789:
 3215              	.LBB777:
 3216              	.LBB574:
 3217              	.LBB561:
 3218              	.LBB500:
 3219              	.LBB487:
 3220              	.LBB449:
 3221              	.LBB446:
 156:mi/plaits/dsp/oscillator/grainlet_oscillator.h ****       } else {
 3222              		.loc 3 156 9 is_stmt 1 view .LVU880
 156:mi/plaits/dsp/oscillator/grainlet_oscillator.h ****       } else {
 3223              		.loc 3 156 24 is_stmt 0 view .LVU881
 3224 0636 F6EE007A 		vmov.f32	s15, #5.0e-1
 3225              	.LVL210:
 156:mi/plaits/dsp/oscillator/grainlet_oscillator.h ****       } else {
 3226              		.loc 3 156 24 view .LVU882
 3227 063a C7EE876A 		vdiv.f32	s13, s15, s14
ARM GAS  /var/folders/9k/zk1mgrrd7wg4__6zvxvr9w8m0000gn/T//cc9Z2LKb.s 			page 83


 3228              	.LVL211:
 156:mi/plaits/dsp/oscillator/grainlet_oscillator.h ****       } else {
 3229              		.loc 3 156 24 view .LVU883
 3230 063e 4CE7     		b	.L41
 3231              	.LVL212:
 3232              	.L94:
 156:mi/plaits/dsp/oscillator/grainlet_oscillator.h ****       } else {
 3233              		.loc 3 156 24 view .LVU884
 3234              	.LBE446:
 3235              	.LBE449:
 3236              	.LBE487:
 3237              	.LBE500:
 3238              	.LBE561:
 3239              	.LBE574:
 3240              	.LBE777:
 3241              	.LBB778:
 3242              	.LBB721:
 3243              	.LBB699:
 3244              	.LBB655:
 3245              	.LBB635:
 3246              	.LBB598:
 3247              	.LBB594:
 156:mi/plaits/dsp/oscillator/grainlet_oscillator.h ****       } else {
 3248              		.loc 3 156 9 is_stmt 1 view .LVU885
 156:mi/plaits/dsp/oscillator/grainlet_oscillator.h ****       } else {
 3249              		.loc 3 156 24 is_stmt 0 view .LVU886
 3250 0640 F6EE006A 		vmov.f32	s13, #5.0e-1
 3251 0644 C6EEA73A 		vdiv.f32	s7, s13, s15
 3252              	.LVL213:
 156:mi/plaits/dsp/oscillator/grainlet_oscillator.h ****       } else {
 3253              		.loc 3 156 15 view .LVU887
 3254 0648 63EE873A 		vmul.f32	s7, s7, s14
 3255              	.LVL214:
 156:mi/plaits/dsp/oscillator/grainlet_oscillator.h ****       } else {
 3256              		.loc 3 156 15 view .LVU888
 3257 064c C9E7     		b	.L48
 3258              	.LBE594:
 3259              	.LBE598:
 3260              	.LBE635:
 3261              	.LBE655:
 3262              	.LBE699:
 3263              	.LBE721:
 3264              	.LBE778:
 3265              	.LBE789:
 3266              	.LBE943:
 3267              	.LBE956:
 3268              		.cfi_endproc
 3269              	.LFE1590:
 3271 064e 00BF     		.section	.text._ZN6plaits11ZOscillator6RenderEffffPfj,"axG",%progbits,_ZN6plaits11ZOscillator6Rend
 3272              		.align	1
 3273              		.p2align 2,,3
 3274              		.weak	_ZN6plaits11ZOscillator6RenderEffffPfj
 3275              		.syntax unified
 3276              		.thumb
 3277              		.thumb_func
 3279              	_ZN6plaits11ZOscillator6RenderEffffPfj:
 3280              	.LVL215:
ARM GAS  /var/folders/9k/zk1mgrrd7wg4__6zvxvr9w8m0000gn/T//cc9Z2LKb.s 			page 84


 3281              	.LFB1608:
  59:mi/plaits/dsp/oscillator/z_oscillator.h ****       float carrier_frequency,
 3282              		.loc 5 59 8 is_stmt 1 view -0
 3283              		.cfi_startproc
 3284              		@ args = 0, pretend = 0, frame = 0
 3285              		@ frame_needed = 0, uses_anonymous_args = 0
  66:mi/plaits/dsp/oscillator/z_oscillator.h ****       carrier_frequency = kMaxFrequency * 0.5f;
 3286              		.loc 5 66 5 view .LVU890
 3287 0000 F4EE006A 		vmov.f32	s13, #1.25e-1
 3288              	.LBB957:
 3289              	.LBB958:
 3290              	.LBB959:
  56:mi/stmlib/dsp/parameter_interpolator.h ****   }
 3291              		.loc 8 56 41 is_stmt 0 view .LVU891
 3292 0004 07EE902A 		vmov	s15, r2	@ int
 3293              	.LBE959:
 3294              	.LBE958:
 3295              	.LBE957:
  69:mi/plaits/dsp/oscillator/z_oscillator.h ****       formant_frequency = kMaxFrequency;
 3296              		.loc 5 69 5 view .LVU892
 3297 0008 B5EE007A 		vmov.f32	s14, #2.5e-1
 3298              	.LBB970:
 3299              	.LBB965:
 3300              	.LBB960:
  56:mi/stmlib/dsp/parameter_interpolator.h ****   }
 3301              		.loc 8 56 41 view .LVU893
 3302 000c F8EE677A 		vcvt.f32.u32	s15, s15
 3303              	.LBE960:
 3304              	.LBE965:
 3305              	.LBE970:
  67:mi/plaits/dsp/oscillator/z_oscillator.h ****     }
 3306              		.loc 5 67 25 view .LVU894
 3307 0010 B4EE660A 		vcmp.f32	s0, s13
  59:mi/plaits/dsp/oscillator/z_oscillator.h ****       float carrier_frequency,
 3308              		.loc 5 59 8 view .LVU895
 3309 0014 70B5     		push	{r4, r5, r6, lr}
 3310              		.cfi_def_cfa_offset 16
 3311              		.cfi_offset 4, -16
 3312              		.cfi_offset 5, -12
 3313              		.cfi_offset 6, -8
 3314              		.cfi_offset 14, -4
  67:mi/plaits/dsp/oscillator/z_oscillator.h ****     }
 3315              		.loc 5 67 25 view .LVU896
 3316 0016 F1EE10FA 		vmrs	APSR_nzcv, FPSCR
  59:mi/plaits/dsp/oscillator/z_oscillator.h ****       float carrier_frequency,
 3317              		.loc 5 59 8 view .LVU897
 3318 001a 0446     		mov	r4, r0
  70:mi/plaits/dsp/oscillator/z_oscillator.h ****     }
 3319              		.loc 5 70 25 view .LVU898
 3320 001c F4EE470A 		vcmp.f32	s1, s14
  67:mi/plaits/dsp/oscillator/z_oscillator.h ****     }
 3321              		.loc 5 67 25 view .LVU899
 3322 0020 26FE800A 		vselge.f32	s0, s13, s0
 3323              	.LVL216:
  69:mi/plaits/dsp/oscillator/z_oscillator.h ****       formant_frequency = kMaxFrequency;
 3324              		.loc 5 69 5 is_stmt 1 view .LVU900
  59:mi/plaits/dsp/oscillator/z_oscillator.h ****       float carrier_frequency,
ARM GAS  /var/folders/9k/zk1mgrrd7wg4__6zvxvr9w8m0000gn/T//cc9Z2LKb.s 			page 85


 3325              		.loc 5 59 8 is_stmt 0 view .LVU901
 3326 0024 2DED108B 		vpush.64	{d8, d9, d10, d11, d12, d13, d14, d15}
 3327              		.cfi_def_cfa_offset 80
 3328              		.cfi_offset 80, -80
 3329              		.cfi_offset 81, -76
 3330              		.cfi_offset 82, -72
 3331              		.cfi_offset 83, -68
 3332              		.cfi_offset 84, -64
 3333              		.cfi_offset 85, -60
 3334              		.cfi_offset 86, -56
 3335              		.cfi_offset 87, -52
 3336              		.cfi_offset 88, -48
 3337              		.cfi_offset 89, -44
 3338              		.cfi_offset 90, -40
 3339              		.cfi_offset 91, -36
 3340              		.cfi_offset 92, -32
 3341              		.cfi_offset 93, -28
 3342              		.cfi_offset 94, -24
 3343              		.cfi_offset 95, -20
  70:mi/plaits/dsp/oscillator/z_oscillator.h ****     }
 3344              		.loc 5 70 25 view .LVU902
 3345 0028 F1EE10FA 		vmrs	APSR_nzcv, FPSCR
 3346              	.LBB971:
 3347              	.LBB966:
 3348              	.LBB961:
  55:mi/stmlib/dsp/parameter_interpolator.h ****     increment_ = (new_value - *state) / static_cast<float>(size);
 3349              		.loc 8 55 14 view .LVU903
 3350 002c 90ED048A 		vldr.32	s16, [r0, #16]
 3351              	.LBE961:
 3352              	.LBE966:
 3353              	.LBE971:
 3354              	.LBB972:
 3355              	.LBB973:
 3356              	.LBB974:
 3357 0030 90ED05AA 		vldr.32	s20, [r0, #20]
 3358              	.LBE974:
 3359              	.LBE973:
 3360              	.LBE972:
 3361              	.LBB981:
 3362              	.LBB982:
 3363              	.LBB983:
 3364 0034 D0ED068A 		vldr.32	s17, [r0, #24]
 3365              	.LBE983:
 3366              	.LBE982:
 3367              	.LBE981:
 3368              	.LBB990:
 3369              	.LBB967:
 3370              	.LBB962:
  56:mi/stmlib/dsp/parameter_interpolator.h ****   }
 3371              		.loc 8 56 29 view .LVU904
 3372 0038 30EE480A 		vsub.f32	s0, s0, s16
 3373              	.LVL217:
  56:mi/stmlib/dsp/parameter_interpolator.h ****   }
 3374              		.loc 8 56 29 view .LVU905
 3375              	.LBE962:
 3376              	.LBE967:
 3377              	.LBE990:
ARM GAS  /var/folders/9k/zk1mgrrd7wg4__6zvxvr9w8m0000gn/T//cc9Z2LKb.s 			page 86


 3378              	.LBB991:
 3379              	.LBB992:
 3380              	.LBB993:
  55:mi/stmlib/dsp/parameter_interpolator.h ****     increment_ = (new_value - *state) / static_cast<float>(size);
 3381              		.loc 8 55 14 view .LVU906
 3382 003c 90ED079A 		vldr.32	s18, [r0, #28]
 3383              	.LBE993:
 3384              	.LBE992:
 3385              	.LBE991:
  70:mi/plaits/dsp/oscillator/z_oscillator.h ****     }
 3386              		.loc 5 70 25 view .LVU907
 3387 0040 67FE200A 		vselge.f32	s1, s14, s1
 3388              	.LVL218:
 3389              	.LBB1000:
 3390              	.LBB987:
 3391              	.LBB984:
  56:mi/stmlib/dsp/parameter_interpolator.h ****   }
 3392              		.loc 8 56 29 view .LVU908
 3393 0044 31EE681A 		vsub.f32	s2, s2, s17
 3394              	.LVL219:
  56:mi/stmlib/dsp/parameter_interpolator.h ****   }
 3395              		.loc 8 56 29 view .LVU909
 3396              	.LBE984:
 3397              	.LBE987:
 3398              	.LBE1000:
  73:mi/plaits/dsp/oscillator/z_oscillator.h ****         &carrier_frequency_,
 3399              		.loc 5 73 5 is_stmt 1 view .LVU910
 3400              	.LBB1001:
 3401              	.LBI957:
  39:mi/stmlib/dsp/parameter_interpolator.h ****     Init(state, new_value, size);
 3402              		.loc 8 39 3 view .LVU911
 3403              	.LBE1001:
  40:mi/stmlib/dsp/parameter_interpolator.h ****   }
 3404              		.loc 8 40 5 view .LVU912
 3405              	.LBB1002:
 3406              	.LBB968:
 3407              	.LBI958:
  53:mi/stmlib/dsp/parameter_interpolator.h ****     state_ = state;
 3408              		.loc 8 53 15 view .LVU913
 3409              	.LBB963:
  54:mi/stmlib/dsp/parameter_interpolator.h ****     value_ = *state;
 3410              		.loc 8 54 5 view .LVU914
  55:mi/stmlib/dsp/parameter_interpolator.h ****     increment_ = (new_value - *state) / static_cast<float>(size);
 3411              		.loc 8 55 5 view .LVU915
  56:mi/stmlib/dsp/parameter_interpolator.h ****   }
 3412              		.loc 8 56 5 view .LVU916
 3413              	.LBE963:
 3414              	.LBE968:
 3415              	.LBE1002:
  90:mi/plaits/dsp/oscillator/z_oscillator.h ****     
 3416              		.loc 5 90 11 is_stmt 0 view .LVU917
 3417 0048 D0ED039A 		vldr.32	s19, [r0, #12]
 3418              	.LBB1003:
 3419              	.LBB997:
 3420              	.LBB994:
  56:mi/stmlib/dsp/parameter_interpolator.h ****   }
 3421              		.loc 8 56 29 view .LVU918
ARM GAS  /var/folders/9k/zk1mgrrd7wg4__6zvxvr9w8m0000gn/T//cc9Z2LKb.s 			page 87


 3422 004c 71EEC91A 		vsub.f32	s3, s3, s18
 3423              	.LVL220:
  56:mi/stmlib/dsp/parameter_interpolator.h ****   }
 3424              		.loc 8 56 29 view .LVU919
 3425              	.LBE994:
 3426              	.LBE997:
 3427              	.LBE1003:
 3428              	.LBB1004:
 3429              	.LBB978:
 3430              	.LBB975:
 3431 0050 70EECA0A 		vsub.f32	s1, s1, s20
 3432              	.LVL221:
  56:mi/stmlib/dsp/parameter_interpolator.h ****   }
 3433              		.loc 8 56 29 view .LVU920
 3434              	.LBE975:
 3435              	.LBE978:
 3436              	.LBE1004:
 3437              	.LBB1005:
 3438              	.LBB969:
 3439              	.LBB964:
  56:mi/stmlib/dsp/parameter_interpolator.h ****   }
 3440              		.loc 8 56 39 view .LVU921
 3441 0054 80EE27CA 		vdiv.f32	s24, s0, s15
 3442              	.LVL222:
  56:mi/stmlib/dsp/parameter_interpolator.h ****   }
 3443              		.loc 8 56 39 view .LVU922
 3444              	.LBE964:
