ARM GAS  /var/folders/9k/zk1mgrrd7wg4__6zvxvr9w8m0000gn/T//ccNsiQFA.s 			page 1


   1              		.cpu cortex-m7
   2              		.arch armv7e-m
   3              		.fpu fpv5-d16
   4              		.eabi_attribute 28, 1
   5              		.eabi_attribute 20, 1
   6              		.eabi_attribute 21, 1
   7              		.eabi_attribute 23, 3
   8              		.eabi_attribute 24, 1
   9              		.eabi_attribute 25, 1
  10              		.eabi_attribute 26, 1
  11              		.eabi_attribute 30, 2
  12              		.eabi_attribute 34, 1
  13              		.eabi_attribute 18, 4
  14              		.file	"lpc_speech_synth.cpp"
  15              		.text
  16              	.Ltext0:
  17              		.cfi_sections	.debug_frame
  18              		.section	.text._ZN6plaits14LPCSpeechSynth4InitEv,"ax",%progbits
  19              		.align	1
  20              		.p2align 2,,3
  21              		.global	_ZN6plaits14LPCSpeechSynth4InitEv
  22              		.syntax unified
  23              		.thumb
  24              		.thumb_func
  26              	_ZN6plaits14LPCSpeechSynth4InitEv:
  27              	.LVL0:
  28              	.LFB1454:
  29              		.file 1 "mi/plaits/dsp/speech/lpc_speech_synth.cpp"
   1:mi/plaits/dsp/speech/lpc_speech_synth.cpp **** // Copyright 2016 Emilie Gillet.
   2:mi/plaits/dsp/speech/lpc_speech_synth.cpp **** //
   3:mi/plaits/dsp/speech/lpc_speech_synth.cpp **** // Author: Emilie Gillet (emilie.o.gillet@gmail.com)
   4:mi/plaits/dsp/speech/lpc_speech_synth.cpp **** //
   5:mi/plaits/dsp/speech/lpc_speech_synth.cpp **** // Permission is hereby granted, free of charge, to any person obtaining a copy
   6:mi/plaits/dsp/speech/lpc_speech_synth.cpp **** // of this software and associated documentation files (the "Software"), to deal
   7:mi/plaits/dsp/speech/lpc_speech_synth.cpp **** // in the Software without restriction, including without limitation the rights
   8:mi/plaits/dsp/speech/lpc_speech_synth.cpp **** // to use, copy, modify, merge, publish, distribute, sublicense, and/or sell
   9:mi/plaits/dsp/speech/lpc_speech_synth.cpp **** // copies of the Software, and to permit persons to whom the Software is
  10:mi/plaits/dsp/speech/lpc_speech_synth.cpp **** // furnished to do so, subject to the following conditions:
  11:mi/plaits/dsp/speech/lpc_speech_synth.cpp **** // 
  12:mi/plaits/dsp/speech/lpc_speech_synth.cpp **** // The above copyright notice and this permission notice shall be included in
  13:mi/plaits/dsp/speech/lpc_speech_synth.cpp **** // all copies or substantial portions of the Software.
  14:mi/plaits/dsp/speech/lpc_speech_synth.cpp **** // 
  15:mi/plaits/dsp/speech/lpc_speech_synth.cpp **** // THE SOFTWARE IS PROVIDED "AS IS", WITHOUT WARRANTY OF ANY KIND, EXPRESS OR
  16:mi/plaits/dsp/speech/lpc_speech_synth.cpp **** // IMPLIED, INCLUDING BUT NOT LIMITED TO THE WARRANTIES OF MERCHANTABILITY,
  17:mi/plaits/dsp/speech/lpc_speech_synth.cpp **** // FITNESS FOR A PARTICULAR PURPOSE AND NONINFRINGEMENT. IN NO EVENT SHALL THE
  18:mi/plaits/dsp/speech/lpc_speech_synth.cpp **** // AUTHORS OR COPYRIGHT HOLDERS BE LIABLE FOR ANY CLAIM, DAMAGES OR OTHER
  19:mi/plaits/dsp/speech/lpc_speech_synth.cpp **** // LIABILITY, WHETHER IN AN ACTION OF CONTRACT, TORT OR OTHERWISE, ARISING FROM,
  20:mi/plaits/dsp/speech/lpc_speech_synth.cpp **** // OUT OF OR IN CONNECTION WITH THE SOFTWARE OR THE USE OR OTHER DEALINGS IN
  21:mi/plaits/dsp/speech/lpc_speech_synth.cpp **** // THE SOFTWARE.
  22:mi/plaits/dsp/speech/lpc_speech_synth.cpp **** // 
  23:mi/plaits/dsp/speech/lpc_speech_synth.cpp **** // See http://creativecommons.org/licenses/MIT/ for more information.
  24:mi/plaits/dsp/speech/lpc_speech_synth.cpp **** //
  25:mi/plaits/dsp/speech/lpc_speech_synth.cpp **** // -----------------------------------------------------------------------------
  26:mi/plaits/dsp/speech/lpc_speech_synth.cpp **** //
  27:mi/plaits/dsp/speech/lpc_speech_synth.cpp **** // LPC10 speech synth.
  28:mi/plaits/dsp/speech/lpc_speech_synth.cpp **** 
  29:mi/plaits/dsp/speech/lpc_speech_synth.cpp **** #include "plaits/dsp/speech/lpc_speech_synth.h"
ARM GAS  /var/folders/9k/zk1mgrrd7wg4__6zvxvr9w8m0000gn/T//ccNsiQFA.s 			page 2


  30:mi/plaits/dsp/speech/lpc_speech_synth.cpp **** 
  31:mi/plaits/dsp/speech/lpc_speech_synth.cpp **** #include <algorithm>
  32:mi/plaits/dsp/speech/lpc_speech_synth.cpp **** 
  33:mi/plaits/dsp/speech/lpc_speech_synth.cpp **** #include "stmlib/utils/random.h"
  34:mi/plaits/dsp/speech/lpc_speech_synth.cpp **** 
  35:mi/plaits/dsp/speech/lpc_speech_synth.cpp **** #include "plaits/dsp/oscillator/oscillator.h"
  36:mi/plaits/dsp/speech/lpc_speech_synth.cpp **** #include "plaits/resources.h"
  37:mi/plaits/dsp/speech/lpc_speech_synth.cpp **** 
  38:mi/plaits/dsp/speech/lpc_speech_synth.cpp **** namespace plaits {
  39:mi/plaits/dsp/speech/lpc_speech_synth.cpp **** 
  40:mi/plaits/dsp/speech/lpc_speech_synth.cpp **** using namespace std;
  41:mi/plaits/dsp/speech/lpc_speech_synth.cpp **** using namespace stmlib;
  42:mi/plaits/dsp/speech/lpc_speech_synth.cpp **** 
  43:mi/plaits/dsp/speech/lpc_speech_synth.cpp **** void LPCSpeechSynth::Init() {
  30              		.loc 1 43 29 view -0
  31              		.cfi_startproc
  32              		@ args = 0, pretend = 0, frame = 0
  33              		@ frame_needed = 0, uses_anonymous_args = 0
  44:mi/plaits/dsp/speech/lpc_speech_synth.cpp ****   phase_ = 0.0f;
  34              		.loc 1 44 3 view .LVU1
  43:mi/plaits/dsp/speech/lpc_speech_synth.cpp ****   phase_ = 0.0f;
  35              		.loc 1 43 29 is_stmt 0 view .LVU2
  36 0000 10B5     		push	{r4, lr}
  37              		.cfi_def_cfa_offset 8
  38              		.cfi_offset 4, -8
  39              		.cfi_offset 14, -4
  40              		.loc 1 44 10 view .LVU3
  41 0002 0023     		movs	r3, #0
  43:mi/plaits/dsp/speech/lpc_speech_synth.cpp ****   phase_ = 0.0f;
  42              		.loc 1 43 29 view .LVU4
  43 0004 0446     		mov	r4, r0
  45:mi/plaits/dsp/speech/lpc_speech_synth.cpp ****   frequency_ = 0.0125f;
  46:mi/plaits/dsp/speech/lpc_speech_synth.cpp ****   noise_energy_ = 0.0f;
  47:mi/plaits/dsp/speech/lpc_speech_synth.cpp ****   pulse_energy_ = 0.0f;
  48:mi/plaits/dsp/speech/lpc_speech_synth.cpp **** 
  49:mi/plaits/dsp/speech/lpc_speech_synth.cpp ****   next_sample_ = 0.0f;
  50:mi/plaits/dsp/speech/lpc_speech_synth.cpp ****   excitation_pulse_sample_index_ = 0;
  44              		.loc 1 50 34 view .LVU5
  45 0006 0021     		movs	r1, #0
  45:mi/plaits/dsp/speech/lpc_speech_synth.cpp ****   frequency_ = 0.0125f;
  46              		.loc 1 45 14 view .LVU6
  47 0008 DFF82CC0 		ldr	ip, .L4
  44:mi/plaits/dsp/speech/lpc_speech_synth.cpp ****   frequency_ = 0.0125f;
  48              		.loc 1 44 10 view .LVU7
  49 000c 0360     		str	r3, [r0]	@ float
  45:mi/plaits/dsp/speech/lpc_speech_synth.cpp ****   frequency_ = 0.0125f;
  50              		.loc 1 45 3 is_stmt 1 view .LVU8
  51              	.LBB57:
  52              	.LBB58:
  53              	.LBB59:
  54              	.LBB60:
  55              		.file 2 "/Library/DaisyToolchain/0.2.0/arm/arm-none-eabi/include/c++/10.3.1/bits/stl_algobase.h"
   1:/Library/DaisyToolchain/0.2.0/arm/arm-none-eabi/include/c++/10.3.1/bits/stl_algobase.h **** // Core algorithmic facilities -*- C++ -*-
   2:/Library/DaisyToolchain/0.2.0/arm/arm-none-eabi/include/c++/10.3.1/bits/stl_algobase.h **** 
   3:/Library/DaisyToolchain/0.2.0/arm/arm-none-eabi/include/c++/10.3.1/bits/stl_algobase.h **** // Copyright (C) 2001-2020 Free Software Foundation, Inc.
   4:/Library/DaisyToolchain/0.2.0/arm/arm-none-eabi/include/c++/10.3.1/bits/stl_algobase.h **** //
   5:/Library/DaisyToolchain/0.2.0/arm/arm-none-eabi/include/c++/10.3.1/bits/stl_algobase.h **** // This file is part of the GNU ISO C++ Library.  This library is free
ARM GAS  /var/folders/9k/zk1mgrrd7wg4__6zvxvr9w8m0000gn/T//ccNsiQFA.s 			page 3


   6:/Library/DaisyToolchain/0.2.0/arm/arm-none-eabi/include/c++/10.3.1/bits/stl_algobase.h **** // software; you can redistribute it and/or modify it under the
   7:/Library/DaisyToolchain/0.2.0/arm/arm-none-eabi/include/c++/10.3.1/bits/stl_algobase.h **** // terms of the GNU General Public License as published by the
   8:/Library/DaisyToolchain/0.2.0/arm/arm-none-eabi/include/c++/10.3.1/bits/stl_algobase.h **** // Free Software Foundation; either version 3, or (at your option)
   9:/Library/DaisyToolchain/0.2.0/arm/arm-none-eabi/include/c++/10.3.1/bits/stl_algobase.h **** // any later version.
  10:/Library/DaisyToolchain/0.2.0/arm/arm-none-eabi/include/c++/10.3.1/bits/stl_algobase.h **** 
  11:/Library/DaisyToolchain/0.2.0/arm/arm-none-eabi/include/c++/10.3.1/bits/stl_algobase.h **** // This library is distributed in the hope that it will be useful,
  12:/Library/DaisyToolchain/0.2.0/arm/arm-none-eabi/include/c++/10.3.1/bits/stl_algobase.h **** // but WITHOUT ANY WARRANTY; without even the implied warranty of
  13:/Library/DaisyToolchain/0.2.0/arm/arm-none-eabi/include/c++/10.3.1/bits/stl_algobase.h **** // MERCHANTABILITY or FITNESS FOR A PARTICULAR PURPOSE.  See the
  14:/Library/DaisyToolchain/0.2.0/arm/arm-none-eabi/include/c++/10.3.1/bits/stl_algobase.h **** // GNU General Public License for more details.
  15:/Library/DaisyToolchain/0.2.0/arm/arm-none-eabi/include/c++/10.3.1/bits/stl_algobase.h **** 
  16:/Library/DaisyToolchain/0.2.0/arm/arm-none-eabi/include/c++/10.3.1/bits/stl_algobase.h **** // Under Section 7 of GPL version 3, you are granted additional
  17:/Library/DaisyToolchain/0.2.0/arm/arm-none-eabi/include/c++/10.3.1/bits/stl_algobase.h **** // permissions described in the GCC Runtime Library Exception, version
  18:/Library/DaisyToolchain/0.2.0/arm/arm-none-eabi/include/c++/10.3.1/bits/stl_algobase.h **** // 3.1, as published by the Free Software Foundation.
  19:/Library/DaisyToolchain/0.2.0/arm/arm-none-eabi/include/c++/10.3.1/bits/stl_algobase.h **** 
  20:/Library/DaisyToolchain/0.2.0/arm/arm-none-eabi/include/c++/10.3.1/bits/stl_algobase.h **** // You should have received a copy of the GNU General Public License and
  21:/Library/DaisyToolchain/0.2.0/arm/arm-none-eabi/include/c++/10.3.1/bits/stl_algobase.h **** // a copy of the GCC Runtime Library Exception along with this program;
  22:/Library/DaisyToolchain/0.2.0/arm/arm-none-eabi/include/c++/10.3.1/bits/stl_algobase.h **** // see the files COPYING3 and COPYING.RUNTIME respectively.  If not, see
  23:/Library/DaisyToolchain/0.2.0/arm/arm-none-eabi/include/c++/10.3.1/bits/stl_algobase.h **** // <http://www.gnu.org/licenses/>.
  24:/Library/DaisyToolchain/0.2.0/arm/arm-none-eabi/include/c++/10.3.1/bits/stl_algobase.h **** 
  25:/Library/DaisyToolchain/0.2.0/arm/arm-none-eabi/include/c++/10.3.1/bits/stl_algobase.h **** /*
  26:/Library/DaisyToolchain/0.2.0/arm/arm-none-eabi/include/c++/10.3.1/bits/stl_algobase.h ****  *
  27:/Library/DaisyToolchain/0.2.0/arm/arm-none-eabi/include/c++/10.3.1/bits/stl_algobase.h ****  * Copyright (c) 1994
  28:/Library/DaisyToolchain/0.2.0/arm/arm-none-eabi/include/c++/10.3.1/bits/stl_algobase.h ****  * Hewlett-Packard Company
  29:/Library/DaisyToolchain/0.2.0/arm/arm-none-eabi/include/c++/10.3.1/bits/stl_algobase.h ****  *
  30:/Library/DaisyToolchain/0.2.0/arm/arm-none-eabi/include/c++/10.3.1/bits/stl_algobase.h ****  * Permission to use, copy, modify, distribute and sell this software
  31:/Library/DaisyToolchain/0.2.0/arm/arm-none-eabi/include/c++/10.3.1/bits/stl_algobase.h ****  * and its documentation for any purpose is hereby granted without fee,
  32:/Library/DaisyToolchain/0.2.0/arm/arm-none-eabi/include/c++/10.3.1/bits/stl_algobase.h ****  * provided that the above copyright notice appear in all copies and
  33:/Library/DaisyToolchain/0.2.0/arm/arm-none-eabi/include/c++/10.3.1/bits/stl_algobase.h ****  * that both that copyright notice and this permission notice appear
  34:/Library/DaisyToolchain/0.2.0/arm/arm-none-eabi/include/c++/10.3.1/bits/stl_algobase.h ****  * in supporting documentation.  Hewlett-Packard Company makes no
  35:/Library/DaisyToolchain/0.2.0/arm/arm-none-eabi/include/c++/10.3.1/bits/stl_algobase.h ****  * representations about the suitability of this software for any
  36:/Library/DaisyToolchain/0.2.0/arm/arm-none-eabi/include/c++/10.3.1/bits/stl_algobase.h ****  * purpose.  It is provided "as is" without express or implied warranty.
  37:/Library/DaisyToolchain/0.2.0/arm/arm-none-eabi/include/c++/10.3.1/bits/stl_algobase.h ****  *
  38:/Library/DaisyToolchain/0.2.0/arm/arm-none-eabi/include/c++/10.3.1/bits/stl_algobase.h ****  *
  39:/Library/DaisyToolchain/0.2.0/arm/arm-none-eabi/include/c++/10.3.1/bits/stl_algobase.h ****  * Copyright (c) 1996-1998
  40:/Library/DaisyToolchain/0.2.0/arm/arm-none-eabi/include/c++/10.3.1/bits/stl_algobase.h ****  * Silicon Graphics Computer Systems, Inc.
  41:/Library/DaisyToolchain/0.2.0/arm/arm-none-eabi/include/c++/10.3.1/bits/stl_algobase.h ****  *
  42:/Library/DaisyToolchain/0.2.0/arm/arm-none-eabi/include/c++/10.3.1/bits/stl_algobase.h ****  * Permission to use, copy, modify, distribute and sell this software
  43:/Library/DaisyToolchain/0.2.0/arm/arm-none-eabi/include/c++/10.3.1/bits/stl_algobase.h ****  * and its documentation for any purpose is hereby granted without fee,
  44:/Library/DaisyToolchain/0.2.0/arm/arm-none-eabi/include/c++/10.3.1/bits/stl_algobase.h ****  * provided that the above copyright notice appear in all copies and
  45:/Library/DaisyToolchain/0.2.0/arm/arm-none-eabi/include/c++/10.3.1/bits/stl_algobase.h ****  * that both that copyright notice and this permission notice appear
  46:/Library/DaisyToolchain/0.2.0/arm/arm-none-eabi/include/c++/10.3.1/bits/stl_algobase.h ****  * in supporting documentation.  Silicon Graphics makes no
  47:/Library/DaisyToolchain/0.2.0/arm/arm-none-eabi/include/c++/10.3.1/bits/stl_algobase.h ****  * representations about the suitability of this software for any
  48:/Library/DaisyToolchain/0.2.0/arm/arm-none-eabi/include/c++/10.3.1/bits/stl_algobase.h ****  * purpose.  It is provided "as is" without express or implied warranty.
  49:/Library/DaisyToolchain/0.2.0/arm/arm-none-eabi/include/c++/10.3.1/bits/stl_algobase.h ****  */
  50:/Library/DaisyToolchain/0.2.0/arm/arm-none-eabi/include/c++/10.3.1/bits/stl_algobase.h **** 
  51:/Library/DaisyToolchain/0.2.0/arm/arm-none-eabi/include/c++/10.3.1/bits/stl_algobase.h **** /** @file bits/stl_algobase.h
  52:/Library/DaisyToolchain/0.2.0/arm/arm-none-eabi/include/c++/10.3.1/bits/stl_algobase.h ****  *  This is an internal header file, included by other library headers.
  53:/Library/DaisyToolchain/0.2.0/arm/arm-none-eabi/include/c++/10.3.1/bits/stl_algobase.h ****  *  Do not attempt to use it directly. @headername{algorithm}
  54:/Library/DaisyToolchain/0.2.0/arm/arm-none-eabi/include/c++/10.3.1/bits/stl_algobase.h ****  */
  55:/Library/DaisyToolchain/0.2.0/arm/arm-none-eabi/include/c++/10.3.1/bits/stl_algobase.h **** 
  56:/Library/DaisyToolchain/0.2.0/arm/arm-none-eabi/include/c++/10.3.1/bits/stl_algobase.h **** #ifndef _STL_ALGOBASE_H
  57:/Library/DaisyToolchain/0.2.0/arm/arm-none-eabi/include/c++/10.3.1/bits/stl_algobase.h **** #define _STL_ALGOBASE_H 1
  58:/Library/DaisyToolchain/0.2.0/arm/arm-none-eabi/include/c++/10.3.1/bits/stl_algobase.h **** 
  59:/Library/DaisyToolchain/0.2.0/arm/arm-none-eabi/include/c++/10.3.1/bits/stl_algobase.h **** #include <bits/c++config.h>
  60:/Library/DaisyToolchain/0.2.0/arm/arm-none-eabi/include/c++/10.3.1/bits/stl_algobase.h **** #include <bits/functexcept.h>
  61:/Library/DaisyToolchain/0.2.0/arm/arm-none-eabi/include/c++/10.3.1/bits/stl_algobase.h **** #include <bits/cpp_type_traits.h>
  62:/Library/DaisyToolchain/0.2.0/arm/arm-none-eabi/include/c++/10.3.1/bits/stl_algobase.h **** #include <ext/type_traits.h>
ARM GAS  /var/folders/9k/zk1mgrrd7wg4__6zvxvr9w8m0000gn/T//ccNsiQFA.s 			page 4


  63:/Library/DaisyToolchain/0.2.0/arm/arm-none-eabi/include/c++/10.3.1/bits/stl_algobase.h **** #include <ext/numeric_traits.h>
  64:/Library/DaisyToolchain/0.2.0/arm/arm-none-eabi/include/c++/10.3.1/bits/stl_algobase.h **** #include <bits/stl_pair.h>
  65:/Library/DaisyToolchain/0.2.0/arm/arm-none-eabi/include/c++/10.3.1/bits/stl_algobase.h **** #include <bits/stl_iterator_base_types.h>
  66:/Library/DaisyToolchain/0.2.0/arm/arm-none-eabi/include/c++/10.3.1/bits/stl_algobase.h **** #include <bits/stl_iterator_base_funcs.h>
  67:/Library/DaisyToolchain/0.2.0/arm/arm-none-eabi/include/c++/10.3.1/bits/stl_algobase.h **** #include <bits/stl_iterator.h>
  68:/Library/DaisyToolchain/0.2.0/arm/arm-none-eabi/include/c++/10.3.1/bits/stl_algobase.h **** #include <bits/concept_check.h>
  69:/Library/DaisyToolchain/0.2.0/arm/arm-none-eabi/include/c++/10.3.1/bits/stl_algobase.h **** #include <debug/debug.h>
  70:/Library/DaisyToolchain/0.2.0/arm/arm-none-eabi/include/c++/10.3.1/bits/stl_algobase.h **** #include <bits/move.h> // For std::swap
  71:/Library/DaisyToolchain/0.2.0/arm/arm-none-eabi/include/c++/10.3.1/bits/stl_algobase.h **** #include <bits/predefined_ops.h>
  72:/Library/DaisyToolchain/0.2.0/arm/arm-none-eabi/include/c++/10.3.1/bits/stl_algobase.h **** #if __cplusplus >= 201103L
  73:/Library/DaisyToolchain/0.2.0/arm/arm-none-eabi/include/c++/10.3.1/bits/stl_algobase.h **** # include <type_traits>
  74:/Library/DaisyToolchain/0.2.0/arm/arm-none-eabi/include/c++/10.3.1/bits/stl_algobase.h **** #endif
  75:/Library/DaisyToolchain/0.2.0/arm/arm-none-eabi/include/c++/10.3.1/bits/stl_algobase.h **** #if __cplusplus > 201703L
  76:/Library/DaisyToolchain/0.2.0/arm/arm-none-eabi/include/c++/10.3.1/bits/stl_algobase.h **** # include <compare>
  77:/Library/DaisyToolchain/0.2.0/arm/arm-none-eabi/include/c++/10.3.1/bits/stl_algobase.h **** #endif
  78:/Library/DaisyToolchain/0.2.0/arm/arm-none-eabi/include/c++/10.3.1/bits/stl_algobase.h **** 
  79:/Library/DaisyToolchain/0.2.0/arm/arm-none-eabi/include/c++/10.3.1/bits/stl_algobase.h **** namespace std _GLIBCXX_VISIBILITY(default)
  80:/Library/DaisyToolchain/0.2.0/arm/arm-none-eabi/include/c++/10.3.1/bits/stl_algobase.h **** {
  81:/Library/DaisyToolchain/0.2.0/arm/arm-none-eabi/include/c++/10.3.1/bits/stl_algobase.h **** _GLIBCXX_BEGIN_NAMESPACE_VERSION
  82:/Library/DaisyToolchain/0.2.0/arm/arm-none-eabi/include/c++/10.3.1/bits/stl_algobase.h **** 
  83:/Library/DaisyToolchain/0.2.0/arm/arm-none-eabi/include/c++/10.3.1/bits/stl_algobase.h ****   /*
  84:/Library/DaisyToolchain/0.2.0/arm/arm-none-eabi/include/c++/10.3.1/bits/stl_algobase.h ****    * A constexpr wrapper for __builtin_memcmp.
  85:/Library/DaisyToolchain/0.2.0/arm/arm-none-eabi/include/c++/10.3.1/bits/stl_algobase.h ****    * @param __num The number of elements of type _Tp (not bytes).
  86:/Library/DaisyToolchain/0.2.0/arm/arm-none-eabi/include/c++/10.3.1/bits/stl_algobase.h ****    */
  87:/Library/DaisyToolchain/0.2.0/arm/arm-none-eabi/include/c++/10.3.1/bits/stl_algobase.h ****   template<typename _Tp, typename _Up>
  88:/Library/DaisyToolchain/0.2.0/arm/arm-none-eabi/include/c++/10.3.1/bits/stl_algobase.h ****     _GLIBCXX14_CONSTEXPR
  89:/Library/DaisyToolchain/0.2.0/arm/arm-none-eabi/include/c++/10.3.1/bits/stl_algobase.h ****     inline int
  90:/Library/DaisyToolchain/0.2.0/arm/arm-none-eabi/include/c++/10.3.1/bits/stl_algobase.h ****     __memcmp(const _Tp* __first1, const _Up* __first2, size_t __num)
  91:/Library/DaisyToolchain/0.2.0/arm/arm-none-eabi/include/c++/10.3.1/bits/stl_algobase.h ****     {
  92:/Library/DaisyToolchain/0.2.0/arm/arm-none-eabi/include/c++/10.3.1/bits/stl_algobase.h **** #if __cplusplus >= 201103L
  93:/Library/DaisyToolchain/0.2.0/arm/arm-none-eabi/include/c++/10.3.1/bits/stl_algobase.h ****       static_assert(sizeof(_Tp) == sizeof(_Up), "can be compared with memcmp");
  94:/Library/DaisyToolchain/0.2.0/arm/arm-none-eabi/include/c++/10.3.1/bits/stl_algobase.h **** #endif
  95:/Library/DaisyToolchain/0.2.0/arm/arm-none-eabi/include/c++/10.3.1/bits/stl_algobase.h **** #ifdef __cpp_lib_is_constant_evaluated
  96:/Library/DaisyToolchain/0.2.0/arm/arm-none-eabi/include/c++/10.3.1/bits/stl_algobase.h ****       if (std::is_constant_evaluated())
  97:/Library/DaisyToolchain/0.2.0/arm/arm-none-eabi/include/c++/10.3.1/bits/stl_algobase.h **** 	{
  98:/Library/DaisyToolchain/0.2.0/arm/arm-none-eabi/include/c++/10.3.1/bits/stl_algobase.h **** 	  for(; __num > 0; ++__first1, ++__first2, --__num)
  99:/Library/DaisyToolchain/0.2.0/arm/arm-none-eabi/include/c++/10.3.1/bits/stl_algobase.h **** 	    if (*__first1 != *__first2)
 100:/Library/DaisyToolchain/0.2.0/arm/arm-none-eabi/include/c++/10.3.1/bits/stl_algobase.h **** 	      return *__first1 < *__first2 ? -1 : 1;
 101:/Library/DaisyToolchain/0.2.0/arm/arm-none-eabi/include/c++/10.3.1/bits/stl_algobase.h **** 	  return 0;
 102:/Library/DaisyToolchain/0.2.0/arm/arm-none-eabi/include/c++/10.3.1/bits/stl_algobase.h **** 	}
 103:/Library/DaisyToolchain/0.2.0/arm/arm-none-eabi/include/c++/10.3.1/bits/stl_algobase.h ****       else
 104:/Library/DaisyToolchain/0.2.0/arm/arm-none-eabi/include/c++/10.3.1/bits/stl_algobase.h **** #endif
 105:/Library/DaisyToolchain/0.2.0/arm/arm-none-eabi/include/c++/10.3.1/bits/stl_algobase.h **** 	return __builtin_memcmp(__first1, __first2, sizeof(_Tp) * __num);
 106:/Library/DaisyToolchain/0.2.0/arm/arm-none-eabi/include/c++/10.3.1/bits/stl_algobase.h ****     }
 107:/Library/DaisyToolchain/0.2.0/arm/arm-none-eabi/include/c++/10.3.1/bits/stl_algobase.h **** 
 108:/Library/DaisyToolchain/0.2.0/arm/arm-none-eabi/include/c++/10.3.1/bits/stl_algobase.h **** #if __cplusplus < 201103L
 109:/Library/DaisyToolchain/0.2.0/arm/arm-none-eabi/include/c++/10.3.1/bits/stl_algobase.h ****   // See http://gcc.gnu.org/ml/libstdc++/2004-08/msg00167.html: in a
 110:/Library/DaisyToolchain/0.2.0/arm/arm-none-eabi/include/c++/10.3.1/bits/stl_algobase.h ****   // nutshell, we are partially implementing the resolution of DR 187,
 111:/Library/DaisyToolchain/0.2.0/arm/arm-none-eabi/include/c++/10.3.1/bits/stl_algobase.h ****   // when it's safe, i.e., the value_types are equal.
 112:/Library/DaisyToolchain/0.2.0/arm/arm-none-eabi/include/c++/10.3.1/bits/stl_algobase.h ****   template<bool _BoolType>
 113:/Library/DaisyToolchain/0.2.0/arm/arm-none-eabi/include/c++/10.3.1/bits/stl_algobase.h ****     struct __iter_swap
 114:/Library/DaisyToolchain/0.2.0/arm/arm-none-eabi/include/c++/10.3.1/bits/stl_algobase.h ****     {
 115:/Library/DaisyToolchain/0.2.0/arm/arm-none-eabi/include/c++/10.3.1/bits/stl_algobase.h ****       template<typename _ForwardIterator1, typename _ForwardIterator2>
 116:/Library/DaisyToolchain/0.2.0/arm/arm-none-eabi/include/c++/10.3.1/bits/stl_algobase.h **** 	static void
 117:/Library/DaisyToolchain/0.2.0/arm/arm-none-eabi/include/c++/10.3.1/bits/stl_algobase.h **** 	iter_swap(_ForwardIterator1 __a, _ForwardIterator2 __b)
 118:/Library/DaisyToolchain/0.2.0/arm/arm-none-eabi/include/c++/10.3.1/bits/stl_algobase.h **** 	{
 119:/Library/DaisyToolchain/0.2.0/arm/arm-none-eabi/include/c++/10.3.1/bits/stl_algobase.h **** 	  typedef typename iterator_traits<_ForwardIterator1>::value_type
ARM GAS  /var/folders/9k/zk1mgrrd7wg4__6zvxvr9w8m0000gn/T//ccNsiQFA.s 			page 5


 120:/Library/DaisyToolchain/0.2.0/arm/arm-none-eabi/include/c++/10.3.1/bits/stl_algobase.h **** 	    _ValueType1;
 121:/Library/DaisyToolchain/0.2.0/arm/arm-none-eabi/include/c++/10.3.1/bits/stl_algobase.h **** 	  _ValueType1 __tmp = *__a;
 122:/Library/DaisyToolchain/0.2.0/arm/arm-none-eabi/include/c++/10.3.1/bits/stl_algobase.h **** 	  *__a = *__b;
 123:/Library/DaisyToolchain/0.2.0/arm/arm-none-eabi/include/c++/10.3.1/bits/stl_algobase.h **** 	  *__b = __tmp;
 124:/Library/DaisyToolchain/0.2.0/arm/arm-none-eabi/include/c++/10.3.1/bits/stl_algobase.h **** 	}
 125:/Library/DaisyToolchain/0.2.0/arm/arm-none-eabi/include/c++/10.3.1/bits/stl_algobase.h ****     };
 126:/Library/DaisyToolchain/0.2.0/arm/arm-none-eabi/include/c++/10.3.1/bits/stl_algobase.h **** 
 127:/Library/DaisyToolchain/0.2.0/arm/arm-none-eabi/include/c++/10.3.1/bits/stl_algobase.h ****   template<>
 128:/Library/DaisyToolchain/0.2.0/arm/arm-none-eabi/include/c++/10.3.1/bits/stl_algobase.h ****     struct __iter_swap<true>
 129:/Library/DaisyToolchain/0.2.0/arm/arm-none-eabi/include/c++/10.3.1/bits/stl_algobase.h ****     {
 130:/Library/DaisyToolchain/0.2.0/arm/arm-none-eabi/include/c++/10.3.1/bits/stl_algobase.h ****       template<typename _ForwardIterator1, typename _ForwardIterator2>
 131:/Library/DaisyToolchain/0.2.0/arm/arm-none-eabi/include/c++/10.3.1/bits/stl_algobase.h **** 	static void
 132:/Library/DaisyToolchain/0.2.0/arm/arm-none-eabi/include/c++/10.3.1/bits/stl_algobase.h **** 	iter_swap(_ForwardIterator1 __a, _ForwardIterator2 __b)
 133:/Library/DaisyToolchain/0.2.0/arm/arm-none-eabi/include/c++/10.3.1/bits/stl_algobase.h **** 	{
 134:/Library/DaisyToolchain/0.2.0/arm/arm-none-eabi/include/c++/10.3.1/bits/stl_algobase.h **** 	  swap(*__a, *__b);
 135:/Library/DaisyToolchain/0.2.0/arm/arm-none-eabi/include/c++/10.3.1/bits/stl_algobase.h **** 	}
 136:/Library/DaisyToolchain/0.2.0/arm/arm-none-eabi/include/c++/10.3.1/bits/stl_algobase.h ****     };
 137:/Library/DaisyToolchain/0.2.0/arm/arm-none-eabi/include/c++/10.3.1/bits/stl_algobase.h **** #endif // C++03
 138:/Library/DaisyToolchain/0.2.0/arm/arm-none-eabi/include/c++/10.3.1/bits/stl_algobase.h **** 
 139:/Library/DaisyToolchain/0.2.0/arm/arm-none-eabi/include/c++/10.3.1/bits/stl_algobase.h ****   /**
 140:/Library/DaisyToolchain/0.2.0/arm/arm-none-eabi/include/c++/10.3.1/bits/stl_algobase.h ****    *  @brief Swaps the contents of two iterators.
 141:/Library/DaisyToolchain/0.2.0/arm/arm-none-eabi/include/c++/10.3.1/bits/stl_algobase.h ****    *  @ingroup mutating_algorithms
 142:/Library/DaisyToolchain/0.2.0/arm/arm-none-eabi/include/c++/10.3.1/bits/stl_algobase.h ****    *  @param  __a  An iterator.
 143:/Library/DaisyToolchain/0.2.0/arm/arm-none-eabi/include/c++/10.3.1/bits/stl_algobase.h ****    *  @param  __b  Another iterator.
 144:/Library/DaisyToolchain/0.2.0/arm/arm-none-eabi/include/c++/10.3.1/bits/stl_algobase.h ****    *  @return   Nothing.
 145:/Library/DaisyToolchain/0.2.0/arm/arm-none-eabi/include/c++/10.3.1/bits/stl_algobase.h ****    *
 146:/Library/DaisyToolchain/0.2.0/arm/arm-none-eabi/include/c++/10.3.1/bits/stl_algobase.h ****    *  This function swaps the values pointed to by two iterators, not the
 147:/Library/DaisyToolchain/0.2.0/arm/arm-none-eabi/include/c++/10.3.1/bits/stl_algobase.h ****    *  iterators themselves.
 148:/Library/DaisyToolchain/0.2.0/arm/arm-none-eabi/include/c++/10.3.1/bits/stl_algobase.h ****   */
 149:/Library/DaisyToolchain/0.2.0/arm/arm-none-eabi/include/c++/10.3.1/bits/stl_algobase.h ****   template<typename _ForwardIterator1, typename _ForwardIterator2>
 150:/Library/DaisyToolchain/0.2.0/arm/arm-none-eabi/include/c++/10.3.1/bits/stl_algobase.h ****     _GLIBCXX20_CONSTEXPR
 151:/Library/DaisyToolchain/0.2.0/arm/arm-none-eabi/include/c++/10.3.1/bits/stl_algobase.h ****     inline void
 152:/Library/DaisyToolchain/0.2.0/arm/arm-none-eabi/include/c++/10.3.1/bits/stl_algobase.h ****     iter_swap(_ForwardIterator1 __a, _ForwardIterator2 __b)
 153:/Library/DaisyToolchain/0.2.0/arm/arm-none-eabi/include/c++/10.3.1/bits/stl_algobase.h ****     {
 154:/Library/DaisyToolchain/0.2.0/arm/arm-none-eabi/include/c++/10.3.1/bits/stl_algobase.h ****       // concept requirements
 155:/Library/DaisyToolchain/0.2.0/arm/arm-none-eabi/include/c++/10.3.1/bits/stl_algobase.h ****       __glibcxx_function_requires(_Mutable_ForwardIteratorConcept<
 156:/Library/DaisyToolchain/0.2.0/arm/arm-none-eabi/include/c++/10.3.1/bits/stl_algobase.h **** 				  _ForwardIterator1>)
 157:/Library/DaisyToolchain/0.2.0/arm/arm-none-eabi/include/c++/10.3.1/bits/stl_algobase.h ****       __glibcxx_function_requires(_Mutable_ForwardIteratorConcept<
 158:/Library/DaisyToolchain/0.2.0/arm/arm-none-eabi/include/c++/10.3.1/bits/stl_algobase.h **** 				  _ForwardIterator2>)
 159:/Library/DaisyToolchain/0.2.0/arm/arm-none-eabi/include/c++/10.3.1/bits/stl_algobase.h **** 
 160:/Library/DaisyToolchain/0.2.0/arm/arm-none-eabi/include/c++/10.3.1/bits/stl_algobase.h **** #if __cplusplus < 201103L
 161:/Library/DaisyToolchain/0.2.0/arm/arm-none-eabi/include/c++/10.3.1/bits/stl_algobase.h ****       typedef typename iterator_traits<_ForwardIterator1>::value_type
 162:/Library/DaisyToolchain/0.2.0/arm/arm-none-eabi/include/c++/10.3.1/bits/stl_algobase.h **** 	_ValueType1;
 163:/Library/DaisyToolchain/0.2.0/arm/arm-none-eabi/include/c++/10.3.1/bits/stl_algobase.h ****       typedef typename iterator_traits<_ForwardIterator2>::value_type
 164:/Library/DaisyToolchain/0.2.0/arm/arm-none-eabi/include/c++/10.3.1/bits/stl_algobase.h **** 	_ValueType2;
 165:/Library/DaisyToolchain/0.2.0/arm/arm-none-eabi/include/c++/10.3.1/bits/stl_algobase.h **** 
 166:/Library/DaisyToolchain/0.2.0/arm/arm-none-eabi/include/c++/10.3.1/bits/stl_algobase.h ****       __glibcxx_function_requires(_ConvertibleConcept<_ValueType1,
 167:/Library/DaisyToolchain/0.2.0/arm/arm-none-eabi/include/c++/10.3.1/bits/stl_algobase.h **** 				  _ValueType2>)
 168:/Library/DaisyToolchain/0.2.0/arm/arm-none-eabi/include/c++/10.3.1/bits/stl_algobase.h ****       __glibcxx_function_requires(_ConvertibleConcept<_ValueType2,
 169:/Library/DaisyToolchain/0.2.0/arm/arm-none-eabi/include/c++/10.3.1/bits/stl_algobase.h **** 				  _ValueType1>)
 170:/Library/DaisyToolchain/0.2.0/arm/arm-none-eabi/include/c++/10.3.1/bits/stl_algobase.h **** 
 171:/Library/DaisyToolchain/0.2.0/arm/arm-none-eabi/include/c++/10.3.1/bits/stl_algobase.h ****       typedef typename iterator_traits<_ForwardIterator1>::reference
 172:/Library/DaisyToolchain/0.2.0/arm/arm-none-eabi/include/c++/10.3.1/bits/stl_algobase.h **** 	_ReferenceType1;
 173:/Library/DaisyToolchain/0.2.0/arm/arm-none-eabi/include/c++/10.3.1/bits/stl_algobase.h ****       typedef typename iterator_traits<_ForwardIterator2>::reference
 174:/Library/DaisyToolchain/0.2.0/arm/arm-none-eabi/include/c++/10.3.1/bits/stl_algobase.h **** 	_ReferenceType2;
 175:/Library/DaisyToolchain/0.2.0/arm/arm-none-eabi/include/c++/10.3.1/bits/stl_algobase.h ****       std::__iter_swap<__are_same<_ValueType1, _ValueType2>::__value
 176:/Library/DaisyToolchain/0.2.0/arm/arm-none-eabi/include/c++/10.3.1/bits/stl_algobase.h **** 	&& __are_same<_ValueType1&, _ReferenceType1>::__value
ARM GAS  /var/folders/9k/zk1mgrrd7wg4__6zvxvr9w8m0000gn/T//ccNsiQFA.s 			page 6


 177:/Library/DaisyToolchain/0.2.0/arm/arm-none-eabi/include/c++/10.3.1/bits/stl_algobase.h **** 	&& __are_same<_ValueType2&, _ReferenceType2>::__value>::
 178:/Library/DaisyToolchain/0.2.0/arm/arm-none-eabi/include/c++/10.3.1/bits/stl_algobase.h **** 	iter_swap(__a, __b);
 179:/Library/DaisyToolchain/0.2.0/arm/arm-none-eabi/include/c++/10.3.1/bits/stl_algobase.h **** #else
 180:/Library/DaisyToolchain/0.2.0/arm/arm-none-eabi/include/c++/10.3.1/bits/stl_algobase.h ****       // _GLIBCXX_RESOLVE_LIB_DEFECTS
 181:/Library/DaisyToolchain/0.2.0/arm/arm-none-eabi/include/c++/10.3.1/bits/stl_algobase.h ****       // 187. iter_swap underspecified
 182:/Library/DaisyToolchain/0.2.0/arm/arm-none-eabi/include/c++/10.3.1/bits/stl_algobase.h ****       swap(*__a, *__b);
 183:/Library/DaisyToolchain/0.2.0/arm/arm-none-eabi/include/c++/10.3.1/bits/stl_algobase.h **** #endif
 184:/Library/DaisyToolchain/0.2.0/arm/arm-none-eabi/include/c++/10.3.1/bits/stl_algobase.h ****     }
 185:/Library/DaisyToolchain/0.2.0/arm/arm-none-eabi/include/c++/10.3.1/bits/stl_algobase.h **** 
 186:/Library/DaisyToolchain/0.2.0/arm/arm-none-eabi/include/c++/10.3.1/bits/stl_algobase.h ****   /**
 187:/Library/DaisyToolchain/0.2.0/arm/arm-none-eabi/include/c++/10.3.1/bits/stl_algobase.h ****    *  @brief Swap the elements of two sequences.
 188:/Library/DaisyToolchain/0.2.0/arm/arm-none-eabi/include/c++/10.3.1/bits/stl_algobase.h ****    *  @ingroup mutating_algorithms
 189:/Library/DaisyToolchain/0.2.0/arm/arm-none-eabi/include/c++/10.3.1/bits/stl_algobase.h ****    *  @param  __first1  A forward iterator.
 190:/Library/DaisyToolchain/0.2.0/arm/arm-none-eabi/include/c++/10.3.1/bits/stl_algobase.h ****    *  @param  __last1   A forward iterator.
 191:/Library/DaisyToolchain/0.2.0/arm/arm-none-eabi/include/c++/10.3.1/bits/stl_algobase.h ****    *  @param  __first2  A forward iterator.
 192:/Library/DaisyToolchain/0.2.0/arm/arm-none-eabi/include/c++/10.3.1/bits/stl_algobase.h ****    *  @return   An iterator equal to @p first2+(last1-first1).
 193:/Library/DaisyToolchain/0.2.0/arm/arm-none-eabi/include/c++/10.3.1/bits/stl_algobase.h ****    *
 194:/Library/DaisyToolchain/0.2.0/arm/arm-none-eabi/include/c++/10.3.1/bits/stl_algobase.h ****    *  Swaps each element in the range @p [first1,last1) with the
 195:/Library/DaisyToolchain/0.2.0/arm/arm-none-eabi/include/c++/10.3.1/bits/stl_algobase.h ****    *  corresponding element in the range @p [first2,(last1-first1)).
 196:/Library/DaisyToolchain/0.2.0/arm/arm-none-eabi/include/c++/10.3.1/bits/stl_algobase.h ****    *  The ranges must not overlap.
 197:/Library/DaisyToolchain/0.2.0/arm/arm-none-eabi/include/c++/10.3.1/bits/stl_algobase.h ****   */
 198:/Library/DaisyToolchain/0.2.0/arm/arm-none-eabi/include/c++/10.3.1/bits/stl_algobase.h ****   template<typename _ForwardIterator1, typename _ForwardIterator2>
 199:/Library/DaisyToolchain/0.2.0/arm/arm-none-eabi/include/c++/10.3.1/bits/stl_algobase.h ****     _GLIBCXX20_CONSTEXPR
 200:/Library/DaisyToolchain/0.2.0/arm/arm-none-eabi/include/c++/10.3.1/bits/stl_algobase.h ****     _ForwardIterator2
 201:/Library/DaisyToolchain/0.2.0/arm/arm-none-eabi/include/c++/10.3.1/bits/stl_algobase.h ****     swap_ranges(_ForwardIterator1 __first1, _ForwardIterator1 __last1,
 202:/Library/DaisyToolchain/0.2.0/arm/arm-none-eabi/include/c++/10.3.1/bits/stl_algobase.h **** 		_ForwardIterator2 __first2)
 203:/Library/DaisyToolchain/0.2.0/arm/arm-none-eabi/include/c++/10.3.1/bits/stl_algobase.h ****     {
 204:/Library/DaisyToolchain/0.2.0/arm/arm-none-eabi/include/c++/10.3.1/bits/stl_algobase.h ****       // concept requirements
 205:/Library/DaisyToolchain/0.2.0/arm/arm-none-eabi/include/c++/10.3.1/bits/stl_algobase.h ****       __glibcxx_function_requires(_Mutable_ForwardIteratorConcept<
 206:/Library/DaisyToolchain/0.2.0/arm/arm-none-eabi/include/c++/10.3.1/bits/stl_algobase.h **** 				  _ForwardIterator1>)
 207:/Library/DaisyToolchain/0.2.0/arm/arm-none-eabi/include/c++/10.3.1/bits/stl_algobase.h ****       __glibcxx_function_requires(_Mutable_ForwardIteratorConcept<
 208:/Library/DaisyToolchain/0.2.0/arm/arm-none-eabi/include/c++/10.3.1/bits/stl_algobase.h **** 				  _ForwardIterator2>)
 209:/Library/DaisyToolchain/0.2.0/arm/arm-none-eabi/include/c++/10.3.1/bits/stl_algobase.h ****       __glibcxx_requires_valid_range(__first1, __last1);
 210:/Library/DaisyToolchain/0.2.0/arm/arm-none-eabi/include/c++/10.3.1/bits/stl_algobase.h **** 
 211:/Library/DaisyToolchain/0.2.0/arm/arm-none-eabi/include/c++/10.3.1/bits/stl_algobase.h ****       for (; __first1 != __last1; ++__first1, (void)++__first2)
 212:/Library/DaisyToolchain/0.2.0/arm/arm-none-eabi/include/c++/10.3.1/bits/stl_algobase.h **** 	std::iter_swap(__first1, __first2);
 213:/Library/DaisyToolchain/0.2.0/arm/arm-none-eabi/include/c++/10.3.1/bits/stl_algobase.h ****       return __first2;
 214:/Library/DaisyToolchain/0.2.0/arm/arm-none-eabi/include/c++/10.3.1/bits/stl_algobase.h ****     }
 215:/Library/DaisyToolchain/0.2.0/arm/arm-none-eabi/include/c++/10.3.1/bits/stl_algobase.h **** 
 216:/Library/DaisyToolchain/0.2.0/arm/arm-none-eabi/include/c++/10.3.1/bits/stl_algobase.h ****   /**
 217:/Library/DaisyToolchain/0.2.0/arm/arm-none-eabi/include/c++/10.3.1/bits/stl_algobase.h ****    *  @brief This does what you think it does.
 218:/Library/DaisyToolchain/0.2.0/arm/arm-none-eabi/include/c++/10.3.1/bits/stl_algobase.h ****    *  @ingroup sorting_algorithms
 219:/Library/DaisyToolchain/0.2.0/arm/arm-none-eabi/include/c++/10.3.1/bits/stl_algobase.h ****    *  @param  __a  A thing of arbitrary type.
 220:/Library/DaisyToolchain/0.2.0/arm/arm-none-eabi/include/c++/10.3.1/bits/stl_algobase.h ****    *  @param  __b  Another thing of arbitrary type.
 221:/Library/DaisyToolchain/0.2.0/arm/arm-none-eabi/include/c++/10.3.1/bits/stl_algobase.h ****    *  @return   The lesser of the parameters.
 222:/Library/DaisyToolchain/0.2.0/arm/arm-none-eabi/include/c++/10.3.1/bits/stl_algobase.h ****    *
 223:/Library/DaisyToolchain/0.2.0/arm/arm-none-eabi/include/c++/10.3.1/bits/stl_algobase.h ****    *  This is the simple classic generic implementation.  It will work on
 224:/Library/DaisyToolchain/0.2.0/arm/arm-none-eabi/include/c++/10.3.1/bits/stl_algobase.h ****    *  temporary expressions, since they are only evaluated once, unlike a
 225:/Library/DaisyToolchain/0.2.0/arm/arm-none-eabi/include/c++/10.3.1/bits/stl_algobase.h ****    *  preprocessor macro.
 226:/Library/DaisyToolchain/0.2.0/arm/arm-none-eabi/include/c++/10.3.1/bits/stl_algobase.h ****   */
 227:/Library/DaisyToolchain/0.2.0/arm/arm-none-eabi/include/c++/10.3.1/bits/stl_algobase.h ****   template<typename _Tp>
 228:/Library/DaisyToolchain/0.2.0/arm/arm-none-eabi/include/c++/10.3.1/bits/stl_algobase.h ****     _GLIBCXX14_CONSTEXPR
 229:/Library/DaisyToolchain/0.2.0/arm/arm-none-eabi/include/c++/10.3.1/bits/stl_algobase.h ****     inline const _Tp&
 230:/Library/DaisyToolchain/0.2.0/arm/arm-none-eabi/include/c++/10.3.1/bits/stl_algobase.h ****     min(const _Tp& __a, const _Tp& __b)
 231:/Library/DaisyToolchain/0.2.0/arm/arm-none-eabi/include/c++/10.3.1/bits/stl_algobase.h ****     {
 232:/Library/DaisyToolchain/0.2.0/arm/arm-none-eabi/include/c++/10.3.1/bits/stl_algobase.h ****       // concept requirements
 233:/Library/DaisyToolchain/0.2.0/arm/arm-none-eabi/include/c++/10.3.1/bits/stl_algobase.h ****       __glibcxx_function_requires(_LessThanComparableConcept<_Tp>)
ARM GAS  /var/folders/9k/zk1mgrrd7wg4__6zvxvr9w8m0000gn/T//ccNsiQFA.s 			page 7


 234:/Library/DaisyToolchain/0.2.0/arm/arm-none-eabi/include/c++/10.3.1/bits/stl_algobase.h ****       //return __b < __a ? __b : __a;
 235:/Library/DaisyToolchain/0.2.0/arm/arm-none-eabi/include/c++/10.3.1/bits/stl_algobase.h ****       if (__b < __a)
 236:/Library/DaisyToolchain/0.2.0/arm/arm-none-eabi/include/c++/10.3.1/bits/stl_algobase.h **** 	return __b;
 237:/Library/DaisyToolchain/0.2.0/arm/arm-none-eabi/include/c++/10.3.1/bits/stl_algobase.h ****       return __a;
 238:/Library/DaisyToolchain/0.2.0/arm/arm-none-eabi/include/c++/10.3.1/bits/stl_algobase.h ****     }
 239:/Library/DaisyToolchain/0.2.0/arm/arm-none-eabi/include/c++/10.3.1/bits/stl_algobase.h **** 
 240:/Library/DaisyToolchain/0.2.0/arm/arm-none-eabi/include/c++/10.3.1/bits/stl_algobase.h ****   /**
 241:/Library/DaisyToolchain/0.2.0/arm/arm-none-eabi/include/c++/10.3.1/bits/stl_algobase.h ****    *  @brief This does what you think it does.
 242:/Library/DaisyToolchain/0.2.0/arm/arm-none-eabi/include/c++/10.3.1/bits/stl_algobase.h ****    *  @ingroup sorting_algorithms
 243:/Library/DaisyToolchain/0.2.0/arm/arm-none-eabi/include/c++/10.3.1/bits/stl_algobase.h ****    *  @param  __a  A thing of arbitrary type.
 244:/Library/DaisyToolchain/0.2.0/arm/arm-none-eabi/include/c++/10.3.1/bits/stl_algobase.h ****    *  @param  __b  Another thing of arbitrary type.
 245:/Library/DaisyToolchain/0.2.0/arm/arm-none-eabi/include/c++/10.3.1/bits/stl_algobase.h ****    *  @return   The greater of the parameters.
 246:/Library/DaisyToolchain/0.2.0/arm/arm-none-eabi/include/c++/10.3.1/bits/stl_algobase.h ****    *
 247:/Library/DaisyToolchain/0.2.0/arm/arm-none-eabi/include/c++/10.3.1/bits/stl_algobase.h ****    *  This is the simple classic generic implementation.  It will work on
 248:/Library/DaisyToolchain/0.2.0/arm/arm-none-eabi/include/c++/10.3.1/bits/stl_algobase.h ****    *  temporary expressions, since they are only evaluated once, unlike a
 249:/Library/DaisyToolchain/0.2.0/arm/arm-none-eabi/include/c++/10.3.1/bits/stl_algobase.h ****    *  preprocessor macro.
 250:/Library/DaisyToolchain/0.2.0/arm/arm-none-eabi/include/c++/10.3.1/bits/stl_algobase.h ****   */
 251:/Library/DaisyToolchain/0.2.0/arm/arm-none-eabi/include/c++/10.3.1/bits/stl_algobase.h ****   template<typename _Tp>
 252:/Library/DaisyToolchain/0.2.0/arm/arm-none-eabi/include/c++/10.3.1/bits/stl_algobase.h ****     _GLIBCXX14_CONSTEXPR
 253:/Library/DaisyToolchain/0.2.0/arm/arm-none-eabi/include/c++/10.3.1/bits/stl_algobase.h ****     inline const _Tp&
 254:/Library/DaisyToolchain/0.2.0/arm/arm-none-eabi/include/c++/10.3.1/bits/stl_algobase.h ****     max(const _Tp& __a, const _Tp& __b)
 255:/Library/DaisyToolchain/0.2.0/arm/arm-none-eabi/include/c++/10.3.1/bits/stl_algobase.h ****     {
 256:/Library/DaisyToolchain/0.2.0/arm/arm-none-eabi/include/c++/10.3.1/bits/stl_algobase.h ****       // concept requirements
 257:/Library/DaisyToolchain/0.2.0/arm/arm-none-eabi/include/c++/10.3.1/bits/stl_algobase.h ****       __glibcxx_function_requires(_LessThanComparableConcept<_Tp>)
 258:/Library/DaisyToolchain/0.2.0/arm/arm-none-eabi/include/c++/10.3.1/bits/stl_algobase.h ****       //return  __a < __b ? __b : __a;
 259:/Library/DaisyToolchain/0.2.0/arm/arm-none-eabi/include/c++/10.3.1/bits/stl_algobase.h ****       if (__a < __b)
 260:/Library/DaisyToolchain/0.2.0/arm/arm-none-eabi/include/c++/10.3.1/bits/stl_algobase.h **** 	return __b;
 261:/Library/DaisyToolchain/0.2.0/arm/arm-none-eabi/include/c++/10.3.1/bits/stl_algobase.h ****       return __a;
 262:/Library/DaisyToolchain/0.2.0/arm/arm-none-eabi/include/c++/10.3.1/bits/stl_algobase.h ****     }
 263:/Library/DaisyToolchain/0.2.0/arm/arm-none-eabi/include/c++/10.3.1/bits/stl_algobase.h **** 
 264:/Library/DaisyToolchain/0.2.0/arm/arm-none-eabi/include/c++/10.3.1/bits/stl_algobase.h ****   /**
 265:/Library/DaisyToolchain/0.2.0/arm/arm-none-eabi/include/c++/10.3.1/bits/stl_algobase.h ****    *  @brief This does what you think it does.
 266:/Library/DaisyToolchain/0.2.0/arm/arm-none-eabi/include/c++/10.3.1/bits/stl_algobase.h ****    *  @ingroup sorting_algorithms
 267:/Library/DaisyToolchain/0.2.0/arm/arm-none-eabi/include/c++/10.3.1/bits/stl_algobase.h ****    *  @param  __a  A thing of arbitrary type.
 268:/Library/DaisyToolchain/0.2.0/arm/arm-none-eabi/include/c++/10.3.1/bits/stl_algobase.h ****    *  @param  __b  Another thing of arbitrary type.
 269:/Library/DaisyToolchain/0.2.0/arm/arm-none-eabi/include/c++/10.3.1/bits/stl_algobase.h ****    *  @param  __comp  A @link comparison_functors comparison functor@endlink.
 270:/Library/DaisyToolchain/0.2.0/arm/arm-none-eabi/include/c++/10.3.1/bits/stl_algobase.h ****    *  @return   The lesser of the parameters.
 271:/Library/DaisyToolchain/0.2.0/arm/arm-none-eabi/include/c++/10.3.1/bits/stl_algobase.h ****    *
 272:/Library/DaisyToolchain/0.2.0/arm/arm-none-eabi/include/c++/10.3.1/bits/stl_algobase.h ****    *  This will work on temporary expressions, since they are only evaluated
 273:/Library/DaisyToolchain/0.2.0/arm/arm-none-eabi/include/c++/10.3.1/bits/stl_algobase.h ****    *  once, unlike a preprocessor macro.
 274:/Library/DaisyToolchain/0.2.0/arm/arm-none-eabi/include/c++/10.3.1/bits/stl_algobase.h ****   */
 275:/Library/DaisyToolchain/0.2.0/arm/arm-none-eabi/include/c++/10.3.1/bits/stl_algobase.h ****   template<typename _Tp, typename _Compare>
 276:/Library/DaisyToolchain/0.2.0/arm/arm-none-eabi/include/c++/10.3.1/bits/stl_algobase.h ****     _GLIBCXX14_CONSTEXPR
 277:/Library/DaisyToolchain/0.2.0/arm/arm-none-eabi/include/c++/10.3.1/bits/stl_algobase.h ****     inline const _Tp&
 278:/Library/DaisyToolchain/0.2.0/arm/arm-none-eabi/include/c++/10.3.1/bits/stl_algobase.h ****     min(const _Tp& __a, const _Tp& __b, _Compare __comp)
 279:/Library/DaisyToolchain/0.2.0/arm/arm-none-eabi/include/c++/10.3.1/bits/stl_algobase.h ****     {
 280:/Library/DaisyToolchain/0.2.0/arm/arm-none-eabi/include/c++/10.3.1/bits/stl_algobase.h ****       //return __comp(__b, __a) ? __b : __a;
 281:/Library/DaisyToolchain/0.2.0/arm/arm-none-eabi/include/c++/10.3.1/bits/stl_algobase.h ****       if (__comp(__b, __a))
 282:/Library/DaisyToolchain/0.2.0/arm/arm-none-eabi/include/c++/10.3.1/bits/stl_algobase.h **** 	return __b;
 283:/Library/DaisyToolchain/0.2.0/arm/arm-none-eabi/include/c++/10.3.1/bits/stl_algobase.h ****       return __a;
 284:/Library/DaisyToolchain/0.2.0/arm/arm-none-eabi/include/c++/10.3.1/bits/stl_algobase.h ****     }
 285:/Library/DaisyToolchain/0.2.0/arm/arm-none-eabi/include/c++/10.3.1/bits/stl_algobase.h **** 
 286:/Library/DaisyToolchain/0.2.0/arm/arm-none-eabi/include/c++/10.3.1/bits/stl_algobase.h ****   /**
 287:/Library/DaisyToolchain/0.2.0/arm/arm-none-eabi/include/c++/10.3.1/bits/stl_algobase.h ****    *  @brief This does what you think it does.
 288:/Library/DaisyToolchain/0.2.0/arm/arm-none-eabi/include/c++/10.3.1/bits/stl_algobase.h ****    *  @ingroup sorting_algorithms
 289:/Library/DaisyToolchain/0.2.0/arm/arm-none-eabi/include/c++/10.3.1/bits/stl_algobase.h ****    *  @param  __a  A thing of arbitrary type.
 290:/Library/DaisyToolchain/0.2.0/arm/arm-none-eabi/include/c++/10.3.1/bits/stl_algobase.h ****    *  @param  __b  Another thing of arbitrary type.
ARM GAS  /var/folders/9k/zk1mgrrd7wg4__6zvxvr9w8m0000gn/T//ccNsiQFA.s 			page 8


 291:/Library/DaisyToolchain/0.2.0/arm/arm-none-eabi/include/c++/10.3.1/bits/stl_algobase.h ****    *  @param  __comp  A @link comparison_functors comparison functor@endlink.
 292:/Library/DaisyToolchain/0.2.0/arm/arm-none-eabi/include/c++/10.3.1/bits/stl_algobase.h ****    *  @return   The greater of the parameters.
 293:/Library/DaisyToolchain/0.2.0/arm/arm-none-eabi/include/c++/10.3.1/bits/stl_algobase.h ****    *
 294:/Library/DaisyToolchain/0.2.0/arm/arm-none-eabi/include/c++/10.3.1/bits/stl_algobase.h ****    *  This will work on temporary expressions, since they are only evaluated
 295:/Library/DaisyToolchain/0.2.0/arm/arm-none-eabi/include/c++/10.3.1/bits/stl_algobase.h ****    *  once, unlike a preprocessor macro.
 296:/Library/DaisyToolchain/0.2.0/arm/arm-none-eabi/include/c++/10.3.1/bits/stl_algobase.h ****   */
 297:/Library/DaisyToolchain/0.2.0/arm/arm-none-eabi/include/c++/10.3.1/bits/stl_algobase.h ****   template<typename _Tp, typename _Compare>
 298:/Library/DaisyToolchain/0.2.0/arm/arm-none-eabi/include/c++/10.3.1/bits/stl_algobase.h ****     _GLIBCXX14_CONSTEXPR
 299:/Library/DaisyToolchain/0.2.0/arm/arm-none-eabi/include/c++/10.3.1/bits/stl_algobase.h ****     inline const _Tp&
 300:/Library/DaisyToolchain/0.2.0/arm/arm-none-eabi/include/c++/10.3.1/bits/stl_algobase.h ****     max(const _Tp& __a, const _Tp& __b, _Compare __comp)
 301:/Library/DaisyToolchain/0.2.0/arm/arm-none-eabi/include/c++/10.3.1/bits/stl_algobase.h ****     {
 302:/Library/DaisyToolchain/0.2.0/arm/arm-none-eabi/include/c++/10.3.1/bits/stl_algobase.h ****       //return __comp(__a, __b) ? __b : __a;
 303:/Library/DaisyToolchain/0.2.0/arm/arm-none-eabi/include/c++/10.3.1/bits/stl_algobase.h ****       if (__comp(__a, __b))
 304:/Library/DaisyToolchain/0.2.0/arm/arm-none-eabi/include/c++/10.3.1/bits/stl_algobase.h **** 	return __b;
 305:/Library/DaisyToolchain/0.2.0/arm/arm-none-eabi/include/c++/10.3.1/bits/stl_algobase.h ****       return __a;
 306:/Library/DaisyToolchain/0.2.0/arm/arm-none-eabi/include/c++/10.3.1/bits/stl_algobase.h ****     }
 307:/Library/DaisyToolchain/0.2.0/arm/arm-none-eabi/include/c++/10.3.1/bits/stl_algobase.h **** 
 308:/Library/DaisyToolchain/0.2.0/arm/arm-none-eabi/include/c++/10.3.1/bits/stl_algobase.h ****   // Fallback implementation of the function in bits/stl_iterator.h used to
 309:/Library/DaisyToolchain/0.2.0/arm/arm-none-eabi/include/c++/10.3.1/bits/stl_algobase.h ****   // remove the __normal_iterator wrapper. See copy, fill, ...
 310:/Library/DaisyToolchain/0.2.0/arm/arm-none-eabi/include/c++/10.3.1/bits/stl_algobase.h ****   template<typename _Iterator>
 311:/Library/DaisyToolchain/0.2.0/arm/arm-none-eabi/include/c++/10.3.1/bits/stl_algobase.h ****     _GLIBCXX20_CONSTEXPR
 312:/Library/DaisyToolchain/0.2.0/arm/arm-none-eabi/include/c++/10.3.1/bits/stl_algobase.h ****     inline _Iterator
 313:/Library/DaisyToolchain/0.2.0/arm/arm-none-eabi/include/c++/10.3.1/bits/stl_algobase.h ****     __niter_base(_Iterator __it)
 314:/Library/DaisyToolchain/0.2.0/arm/arm-none-eabi/include/c++/10.3.1/bits/stl_algobase.h ****     _GLIBCXX_NOEXCEPT_IF(std::is_nothrow_copy_constructible<_Iterator>::value)
 315:/Library/DaisyToolchain/0.2.0/arm/arm-none-eabi/include/c++/10.3.1/bits/stl_algobase.h ****     { return __it; }
 316:/Library/DaisyToolchain/0.2.0/arm/arm-none-eabi/include/c++/10.3.1/bits/stl_algobase.h **** 
 317:/Library/DaisyToolchain/0.2.0/arm/arm-none-eabi/include/c++/10.3.1/bits/stl_algobase.h ****   // Reverse the __niter_base transformation to get a
 318:/Library/DaisyToolchain/0.2.0/arm/arm-none-eabi/include/c++/10.3.1/bits/stl_algobase.h ****   // __normal_iterator back again (this assumes that __normal_iterator
 319:/Library/DaisyToolchain/0.2.0/arm/arm-none-eabi/include/c++/10.3.1/bits/stl_algobase.h ****   // is only used to wrap random access iterators, like pointers).
 320:/Library/DaisyToolchain/0.2.0/arm/arm-none-eabi/include/c++/10.3.1/bits/stl_algobase.h ****   template<typename _From, typename _To>
 321:/Library/DaisyToolchain/0.2.0/arm/arm-none-eabi/include/c++/10.3.1/bits/stl_algobase.h ****     _GLIBCXX20_CONSTEXPR
 322:/Library/DaisyToolchain/0.2.0/arm/arm-none-eabi/include/c++/10.3.1/bits/stl_algobase.h ****     inline _From
 323:/Library/DaisyToolchain/0.2.0/arm/arm-none-eabi/include/c++/10.3.1/bits/stl_algobase.h ****     __niter_wrap(_From __from, _To __res)
 324:/Library/DaisyToolchain/0.2.0/arm/arm-none-eabi/include/c++/10.3.1/bits/stl_algobase.h ****     { return __from + (__res - std::__niter_base(__from)); }
 325:/Library/DaisyToolchain/0.2.0/arm/arm-none-eabi/include/c++/10.3.1/bits/stl_algobase.h **** 
 326:/Library/DaisyToolchain/0.2.0/arm/arm-none-eabi/include/c++/10.3.1/bits/stl_algobase.h ****   // No need to wrap, iterator already has the right type.
 327:/Library/DaisyToolchain/0.2.0/arm/arm-none-eabi/include/c++/10.3.1/bits/stl_algobase.h ****   template<typename _Iterator>
 328:/Library/DaisyToolchain/0.2.0/arm/arm-none-eabi/include/c++/10.3.1/bits/stl_algobase.h ****     _GLIBCXX20_CONSTEXPR
 329:/Library/DaisyToolchain/0.2.0/arm/arm-none-eabi/include/c++/10.3.1/bits/stl_algobase.h ****     inline _Iterator
 330:/Library/DaisyToolchain/0.2.0/arm/arm-none-eabi/include/c++/10.3.1/bits/stl_algobase.h ****     __niter_wrap(const _Iterator&, _Iterator __res)
 331:/Library/DaisyToolchain/0.2.0/arm/arm-none-eabi/include/c++/10.3.1/bits/stl_algobase.h ****     { return __res; }
 332:/Library/DaisyToolchain/0.2.0/arm/arm-none-eabi/include/c++/10.3.1/bits/stl_algobase.h **** 
 333:/Library/DaisyToolchain/0.2.0/arm/arm-none-eabi/include/c++/10.3.1/bits/stl_algobase.h ****   // All of these auxiliary structs serve two purposes.  (1) Replace
 334:/Library/DaisyToolchain/0.2.0/arm/arm-none-eabi/include/c++/10.3.1/bits/stl_algobase.h ****   // calls to copy with memmove whenever possible.  (Memmove, not memcpy,
 335:/Library/DaisyToolchain/0.2.0/arm/arm-none-eabi/include/c++/10.3.1/bits/stl_algobase.h ****   // because the input and output ranges are permitted to overlap.)
 336:/Library/DaisyToolchain/0.2.0/arm/arm-none-eabi/include/c++/10.3.1/bits/stl_algobase.h ****   // (2) If we're using random access iterators, then write the loop as
 337:/Library/DaisyToolchain/0.2.0/arm/arm-none-eabi/include/c++/10.3.1/bits/stl_algobase.h ****   // a for loop with an explicit count.
 338:/Library/DaisyToolchain/0.2.0/arm/arm-none-eabi/include/c++/10.3.1/bits/stl_algobase.h **** 
 339:/Library/DaisyToolchain/0.2.0/arm/arm-none-eabi/include/c++/10.3.1/bits/stl_algobase.h ****   template<bool _IsMove, bool _IsSimple, typename _Category>
 340:/Library/DaisyToolchain/0.2.0/arm/arm-none-eabi/include/c++/10.3.1/bits/stl_algobase.h ****     struct __copy_move
 341:/Library/DaisyToolchain/0.2.0/arm/arm-none-eabi/include/c++/10.3.1/bits/stl_algobase.h ****     {
 342:/Library/DaisyToolchain/0.2.0/arm/arm-none-eabi/include/c++/10.3.1/bits/stl_algobase.h ****       template<typename _II, typename _OI>
 343:/Library/DaisyToolchain/0.2.0/arm/arm-none-eabi/include/c++/10.3.1/bits/stl_algobase.h **** 	_GLIBCXX20_CONSTEXPR
 344:/Library/DaisyToolchain/0.2.0/arm/arm-none-eabi/include/c++/10.3.1/bits/stl_algobase.h **** 	static _OI
 345:/Library/DaisyToolchain/0.2.0/arm/arm-none-eabi/include/c++/10.3.1/bits/stl_algobase.h **** 	__copy_m(_II __first, _II __last, _OI __result)
 346:/Library/DaisyToolchain/0.2.0/arm/arm-none-eabi/include/c++/10.3.1/bits/stl_algobase.h **** 	{
 347:/Library/DaisyToolchain/0.2.0/arm/arm-none-eabi/include/c++/10.3.1/bits/stl_algobase.h **** 	  for (; __first != __last; ++__result, (void)++__first)
ARM GAS  /var/folders/9k/zk1mgrrd7wg4__6zvxvr9w8m0000gn/T//ccNsiQFA.s 			page 9


 348:/Library/DaisyToolchain/0.2.0/arm/arm-none-eabi/include/c++/10.3.1/bits/stl_algobase.h **** 	    *__result = *__first;
 349:/Library/DaisyToolchain/0.2.0/arm/arm-none-eabi/include/c++/10.3.1/bits/stl_algobase.h **** 	  return __result;
 350:/Library/DaisyToolchain/0.2.0/arm/arm-none-eabi/include/c++/10.3.1/bits/stl_algobase.h **** 	}
 351:/Library/DaisyToolchain/0.2.0/arm/arm-none-eabi/include/c++/10.3.1/bits/stl_algobase.h ****     };
 352:/Library/DaisyToolchain/0.2.0/arm/arm-none-eabi/include/c++/10.3.1/bits/stl_algobase.h **** 
 353:/Library/DaisyToolchain/0.2.0/arm/arm-none-eabi/include/c++/10.3.1/bits/stl_algobase.h **** #if __cplusplus >= 201103L
 354:/Library/DaisyToolchain/0.2.0/arm/arm-none-eabi/include/c++/10.3.1/bits/stl_algobase.h ****   template<typename _Category>
 355:/Library/DaisyToolchain/0.2.0/arm/arm-none-eabi/include/c++/10.3.1/bits/stl_algobase.h ****     struct __copy_move<true, false, _Category>
 356:/Library/DaisyToolchain/0.2.0/arm/arm-none-eabi/include/c++/10.3.1/bits/stl_algobase.h ****     {
 357:/Library/DaisyToolchain/0.2.0/arm/arm-none-eabi/include/c++/10.3.1/bits/stl_algobase.h ****       template<typename _II, typename _OI>
 358:/Library/DaisyToolchain/0.2.0/arm/arm-none-eabi/include/c++/10.3.1/bits/stl_algobase.h **** 	_GLIBCXX20_CONSTEXPR
 359:/Library/DaisyToolchain/0.2.0/arm/arm-none-eabi/include/c++/10.3.1/bits/stl_algobase.h **** 	static _OI
 360:/Library/DaisyToolchain/0.2.0/arm/arm-none-eabi/include/c++/10.3.1/bits/stl_algobase.h **** 	__copy_m(_II __first, _II __last, _OI __result)
 361:/Library/DaisyToolchain/0.2.0/arm/arm-none-eabi/include/c++/10.3.1/bits/stl_algobase.h **** 	{
 362:/Library/DaisyToolchain/0.2.0/arm/arm-none-eabi/include/c++/10.3.1/bits/stl_algobase.h **** 	  for (; __first != __last; ++__result, (void)++__first)
 363:/Library/DaisyToolchain/0.2.0/arm/arm-none-eabi/include/c++/10.3.1/bits/stl_algobase.h **** 	    *__result = std::move(*__first);
 364:/Library/DaisyToolchain/0.2.0/arm/arm-none-eabi/include/c++/10.3.1/bits/stl_algobase.h **** 	  return __result;
 365:/Library/DaisyToolchain/0.2.0/arm/arm-none-eabi/include/c++/10.3.1/bits/stl_algobase.h **** 	}
 366:/Library/DaisyToolchain/0.2.0/arm/arm-none-eabi/include/c++/10.3.1/bits/stl_algobase.h ****     };
 367:/Library/DaisyToolchain/0.2.0/arm/arm-none-eabi/include/c++/10.3.1/bits/stl_algobase.h **** #endif
 368:/Library/DaisyToolchain/0.2.0/arm/arm-none-eabi/include/c++/10.3.1/bits/stl_algobase.h **** 
 369:/Library/DaisyToolchain/0.2.0/arm/arm-none-eabi/include/c++/10.3.1/bits/stl_algobase.h ****   template<>
 370:/Library/DaisyToolchain/0.2.0/arm/arm-none-eabi/include/c++/10.3.1/bits/stl_algobase.h ****     struct __copy_move<false, false, random_access_iterator_tag>
 371:/Library/DaisyToolchain/0.2.0/arm/arm-none-eabi/include/c++/10.3.1/bits/stl_algobase.h ****     {
 372:/Library/DaisyToolchain/0.2.0/arm/arm-none-eabi/include/c++/10.3.1/bits/stl_algobase.h ****       template<typename _II, typename _OI>
 373:/Library/DaisyToolchain/0.2.0/arm/arm-none-eabi/include/c++/10.3.1/bits/stl_algobase.h **** 	_GLIBCXX20_CONSTEXPR
 374:/Library/DaisyToolchain/0.2.0/arm/arm-none-eabi/include/c++/10.3.1/bits/stl_algobase.h **** 	static _OI
 375:/Library/DaisyToolchain/0.2.0/arm/arm-none-eabi/include/c++/10.3.1/bits/stl_algobase.h **** 	__copy_m(_II __first, _II __last, _OI __result)
 376:/Library/DaisyToolchain/0.2.0/arm/arm-none-eabi/include/c++/10.3.1/bits/stl_algobase.h **** 	{
 377:/Library/DaisyToolchain/0.2.0/arm/arm-none-eabi/include/c++/10.3.1/bits/stl_algobase.h **** 	  typedef typename iterator_traits<_II>::difference_type _Distance;
 378:/Library/DaisyToolchain/0.2.0/arm/arm-none-eabi/include/c++/10.3.1/bits/stl_algobase.h **** 	  for(_Distance __n = __last - __first; __n > 0; --__n)
 379:/Library/DaisyToolchain/0.2.0/arm/arm-none-eabi/include/c++/10.3.1/bits/stl_algobase.h **** 	    {
 380:/Library/DaisyToolchain/0.2.0/arm/arm-none-eabi/include/c++/10.3.1/bits/stl_algobase.h **** 	      *__result = *__first;
 381:/Library/DaisyToolchain/0.2.0/arm/arm-none-eabi/include/c++/10.3.1/bits/stl_algobase.h **** 	      ++__first;
 382:/Library/DaisyToolchain/0.2.0/arm/arm-none-eabi/include/c++/10.3.1/bits/stl_algobase.h **** 	      ++__result;
 383:/Library/DaisyToolchain/0.2.0/arm/arm-none-eabi/include/c++/10.3.1/bits/stl_algobase.h **** 	    }
 384:/Library/DaisyToolchain/0.2.0/arm/arm-none-eabi/include/c++/10.3.1/bits/stl_algobase.h **** 	  return __result;
 385:/Library/DaisyToolchain/0.2.0/arm/arm-none-eabi/include/c++/10.3.1/bits/stl_algobase.h **** 	}
 386:/Library/DaisyToolchain/0.2.0/arm/arm-none-eabi/include/c++/10.3.1/bits/stl_algobase.h ****     };
 387:/Library/DaisyToolchain/0.2.0/arm/arm-none-eabi/include/c++/10.3.1/bits/stl_algobase.h **** 
 388:/Library/DaisyToolchain/0.2.0/arm/arm-none-eabi/include/c++/10.3.1/bits/stl_algobase.h **** #if __cplusplus >= 201103L
 389:/Library/DaisyToolchain/0.2.0/arm/arm-none-eabi/include/c++/10.3.1/bits/stl_algobase.h ****   template<>
 390:/Library/DaisyToolchain/0.2.0/arm/arm-none-eabi/include/c++/10.3.1/bits/stl_algobase.h ****     struct __copy_move<true, false, random_access_iterator_tag>
 391:/Library/DaisyToolchain/0.2.0/arm/arm-none-eabi/include/c++/10.3.1/bits/stl_algobase.h ****     {
 392:/Library/DaisyToolchain/0.2.0/arm/arm-none-eabi/include/c++/10.3.1/bits/stl_algobase.h ****       template<typename _II, typename _OI>
 393:/Library/DaisyToolchain/0.2.0/arm/arm-none-eabi/include/c++/10.3.1/bits/stl_algobase.h **** 	_GLIBCXX20_CONSTEXPR
 394:/Library/DaisyToolchain/0.2.0/arm/arm-none-eabi/include/c++/10.3.1/bits/stl_algobase.h **** 	static _OI
 395:/Library/DaisyToolchain/0.2.0/arm/arm-none-eabi/include/c++/10.3.1/bits/stl_algobase.h **** 	__copy_m(_II __first, _II __last, _OI __result)
 396:/Library/DaisyToolchain/0.2.0/arm/arm-none-eabi/include/c++/10.3.1/bits/stl_algobase.h **** 	{
 397:/Library/DaisyToolchain/0.2.0/arm/arm-none-eabi/include/c++/10.3.1/bits/stl_algobase.h **** 	  typedef typename iterator_traits<_II>::difference_type _Distance;
 398:/Library/DaisyToolchain/0.2.0/arm/arm-none-eabi/include/c++/10.3.1/bits/stl_algobase.h **** 	  for(_Distance __n = __last - __first; __n > 0; --__n)
 399:/Library/DaisyToolchain/0.2.0/arm/arm-none-eabi/include/c++/10.3.1/bits/stl_algobase.h **** 	    {
 400:/Library/DaisyToolchain/0.2.0/arm/arm-none-eabi/include/c++/10.3.1/bits/stl_algobase.h **** 	      *__result = std::move(*__first);
 401:/Library/DaisyToolchain/0.2.0/arm/arm-none-eabi/include/c++/10.3.1/bits/stl_algobase.h **** 	      ++__first;
 402:/Library/DaisyToolchain/0.2.0/arm/arm-none-eabi/include/c++/10.3.1/bits/stl_algobase.h **** 	      ++__result;
 403:/Library/DaisyToolchain/0.2.0/arm/arm-none-eabi/include/c++/10.3.1/bits/stl_algobase.h **** 	    }
 404:/Library/DaisyToolchain/0.2.0/arm/arm-none-eabi/include/c++/10.3.1/bits/stl_algobase.h **** 	  return __result;
ARM GAS  /var/folders/9k/zk1mgrrd7wg4__6zvxvr9w8m0000gn/T//ccNsiQFA.s 			page 10


 405:/Library/DaisyToolchain/0.2.0/arm/arm-none-eabi/include/c++/10.3.1/bits/stl_algobase.h **** 	}
 406:/Library/DaisyToolchain/0.2.0/arm/arm-none-eabi/include/c++/10.3.1/bits/stl_algobase.h ****     };
 407:/Library/DaisyToolchain/0.2.0/arm/arm-none-eabi/include/c++/10.3.1/bits/stl_algobase.h **** #endif
 408:/Library/DaisyToolchain/0.2.0/arm/arm-none-eabi/include/c++/10.3.1/bits/stl_algobase.h **** 
 409:/Library/DaisyToolchain/0.2.0/arm/arm-none-eabi/include/c++/10.3.1/bits/stl_algobase.h ****   template<bool _IsMove>
 410:/Library/DaisyToolchain/0.2.0/arm/arm-none-eabi/include/c++/10.3.1/bits/stl_algobase.h ****     struct __copy_move<_IsMove, true, random_access_iterator_tag>
 411:/Library/DaisyToolchain/0.2.0/arm/arm-none-eabi/include/c++/10.3.1/bits/stl_algobase.h ****     {
 412:/Library/DaisyToolchain/0.2.0/arm/arm-none-eabi/include/c++/10.3.1/bits/stl_algobase.h ****       template<typename _Tp>
 413:/Library/DaisyToolchain/0.2.0/arm/arm-none-eabi/include/c++/10.3.1/bits/stl_algobase.h **** 	_GLIBCXX20_CONSTEXPR
 414:/Library/DaisyToolchain/0.2.0/arm/arm-none-eabi/include/c++/10.3.1/bits/stl_algobase.h **** 	static _Tp*
 415:/Library/DaisyToolchain/0.2.0/arm/arm-none-eabi/include/c++/10.3.1/bits/stl_algobase.h **** 	__copy_m(const _Tp* __first, const _Tp* __last, _Tp* __result)
 416:/Library/DaisyToolchain/0.2.0/arm/arm-none-eabi/include/c++/10.3.1/bits/stl_algobase.h **** 	{
 417:/Library/DaisyToolchain/0.2.0/arm/arm-none-eabi/include/c++/10.3.1/bits/stl_algobase.h **** #if __cplusplus >= 201103L
 418:/Library/DaisyToolchain/0.2.0/arm/arm-none-eabi/include/c++/10.3.1/bits/stl_algobase.h **** 	  using __assignable = conditional<_IsMove,
 419:/Library/DaisyToolchain/0.2.0/arm/arm-none-eabi/include/c++/10.3.1/bits/stl_algobase.h **** 					   is_move_assignable<_Tp>,
 420:/Library/DaisyToolchain/0.2.0/arm/arm-none-eabi/include/c++/10.3.1/bits/stl_algobase.h **** 					   is_copy_assignable<_Tp>>;
 421:/Library/DaisyToolchain/0.2.0/arm/arm-none-eabi/include/c++/10.3.1/bits/stl_algobase.h **** 	  // trivial types can have deleted assignment
 422:/Library/DaisyToolchain/0.2.0/arm/arm-none-eabi/include/c++/10.3.1/bits/stl_algobase.h **** 	  static_assert( __assignable::type::value, "type is not assignable" );
 423:/Library/DaisyToolchain/0.2.0/arm/arm-none-eabi/include/c++/10.3.1/bits/stl_algobase.h **** #endif
 424:/Library/DaisyToolchain/0.2.0/arm/arm-none-eabi/include/c++/10.3.1/bits/stl_algobase.h **** 	  const ptrdiff_t _Num = __last - __first;
 425:/Library/DaisyToolchain/0.2.0/arm/arm-none-eabi/include/c++/10.3.1/bits/stl_algobase.h **** 	  if (_Num)
 426:/Library/DaisyToolchain/0.2.0/arm/arm-none-eabi/include/c++/10.3.1/bits/stl_algobase.h **** 	    __builtin_memmove(__result, __first, sizeof(_Tp) * _Num);
 427:/Library/DaisyToolchain/0.2.0/arm/arm-none-eabi/include/c++/10.3.1/bits/stl_algobase.h **** 	  return __result + _Num;
 428:/Library/DaisyToolchain/0.2.0/arm/arm-none-eabi/include/c++/10.3.1/bits/stl_algobase.h **** 	}
 429:/Library/DaisyToolchain/0.2.0/arm/arm-none-eabi/include/c++/10.3.1/bits/stl_algobase.h ****     };
 430:/Library/DaisyToolchain/0.2.0/arm/arm-none-eabi/include/c++/10.3.1/bits/stl_algobase.h **** 
 431:/Library/DaisyToolchain/0.2.0/arm/arm-none-eabi/include/c++/10.3.1/bits/stl_algobase.h ****   // Helpers for streambuf iterators (either istream or ostream).
 432:/Library/DaisyToolchain/0.2.0/arm/arm-none-eabi/include/c++/10.3.1/bits/stl_algobase.h ****   // NB: avoid including <iosfwd>, relatively large.
 433:/Library/DaisyToolchain/0.2.0/arm/arm-none-eabi/include/c++/10.3.1/bits/stl_algobase.h ****   template<typename _CharT>
 434:/Library/DaisyToolchain/0.2.0/arm/arm-none-eabi/include/c++/10.3.1/bits/stl_algobase.h ****     struct char_traits;
 435:/Library/DaisyToolchain/0.2.0/arm/arm-none-eabi/include/c++/10.3.1/bits/stl_algobase.h **** 
 436:/Library/DaisyToolchain/0.2.0/arm/arm-none-eabi/include/c++/10.3.1/bits/stl_algobase.h ****   template<typename _CharT, typename _Traits>
 437:/Library/DaisyToolchain/0.2.0/arm/arm-none-eabi/include/c++/10.3.1/bits/stl_algobase.h ****     class istreambuf_iterator;
 438:/Library/DaisyToolchain/0.2.0/arm/arm-none-eabi/include/c++/10.3.1/bits/stl_algobase.h **** 
 439:/Library/DaisyToolchain/0.2.0/arm/arm-none-eabi/include/c++/10.3.1/bits/stl_algobase.h ****   template<typename _CharT, typename _Traits>
 440:/Library/DaisyToolchain/0.2.0/arm/arm-none-eabi/include/c++/10.3.1/bits/stl_algobase.h ****     class ostreambuf_iterator;
 441:/Library/DaisyToolchain/0.2.0/arm/arm-none-eabi/include/c++/10.3.1/bits/stl_algobase.h **** 
 442:/Library/DaisyToolchain/0.2.0/arm/arm-none-eabi/include/c++/10.3.1/bits/stl_algobase.h ****   template<bool _IsMove, typename _CharT>
 443:/Library/DaisyToolchain/0.2.0/arm/arm-none-eabi/include/c++/10.3.1/bits/stl_algobase.h ****     typename __gnu_cxx::__enable_if<__is_char<_CharT>::__value,
 444:/Library/DaisyToolchain/0.2.0/arm/arm-none-eabi/include/c++/10.3.1/bits/stl_algobase.h **** 	     ostreambuf_iterator<_CharT, char_traits<_CharT> > >::__type
 445:/Library/DaisyToolchain/0.2.0/arm/arm-none-eabi/include/c++/10.3.1/bits/stl_algobase.h ****     __copy_move_a2(_CharT*, _CharT*,
 446:/Library/DaisyToolchain/0.2.0/arm/arm-none-eabi/include/c++/10.3.1/bits/stl_algobase.h **** 		   ostreambuf_iterator<_CharT, char_traits<_CharT> >);
 447:/Library/DaisyToolchain/0.2.0/arm/arm-none-eabi/include/c++/10.3.1/bits/stl_algobase.h **** 
 448:/Library/DaisyToolchain/0.2.0/arm/arm-none-eabi/include/c++/10.3.1/bits/stl_algobase.h ****   template<bool _IsMove, typename _CharT>
 449:/Library/DaisyToolchain/0.2.0/arm/arm-none-eabi/include/c++/10.3.1/bits/stl_algobase.h ****     typename __gnu_cxx::__enable_if<__is_char<_CharT>::__value,
 450:/Library/DaisyToolchain/0.2.0/arm/arm-none-eabi/include/c++/10.3.1/bits/stl_algobase.h **** 	     ostreambuf_iterator<_CharT, char_traits<_CharT> > >::__type
 451:/Library/DaisyToolchain/0.2.0/arm/arm-none-eabi/include/c++/10.3.1/bits/stl_algobase.h ****     __copy_move_a2(const _CharT*, const _CharT*,
 452:/Library/DaisyToolchain/0.2.0/arm/arm-none-eabi/include/c++/10.3.1/bits/stl_algobase.h **** 		   ostreambuf_iterator<_CharT, char_traits<_CharT> >);
 453:/Library/DaisyToolchain/0.2.0/arm/arm-none-eabi/include/c++/10.3.1/bits/stl_algobase.h **** 
 454:/Library/DaisyToolchain/0.2.0/arm/arm-none-eabi/include/c++/10.3.1/bits/stl_algobase.h ****   template<bool _IsMove, typename _CharT>
 455:/Library/DaisyToolchain/0.2.0/arm/arm-none-eabi/include/c++/10.3.1/bits/stl_algobase.h ****     typename __gnu_cxx::__enable_if<__is_char<_CharT>::__value,
 456:/Library/DaisyToolchain/0.2.0/arm/arm-none-eabi/include/c++/10.3.1/bits/stl_algobase.h **** 				    _CharT*>::__type
 457:/Library/DaisyToolchain/0.2.0/arm/arm-none-eabi/include/c++/10.3.1/bits/stl_algobase.h ****     __copy_move_a2(istreambuf_iterator<_CharT, char_traits<_CharT> >,
 458:/Library/DaisyToolchain/0.2.0/arm/arm-none-eabi/include/c++/10.3.1/bits/stl_algobase.h **** 		   istreambuf_iterator<_CharT, char_traits<_CharT> >, _CharT*);
 459:/Library/DaisyToolchain/0.2.0/arm/arm-none-eabi/include/c++/10.3.1/bits/stl_algobase.h **** 
 460:/Library/DaisyToolchain/0.2.0/arm/arm-none-eabi/include/c++/10.3.1/bits/stl_algobase.h ****   template<bool _IsMove, typename _II, typename _OI>
 461:/Library/DaisyToolchain/0.2.0/arm/arm-none-eabi/include/c++/10.3.1/bits/stl_algobase.h ****     _GLIBCXX20_CONSTEXPR
ARM GAS  /var/folders/9k/zk1mgrrd7wg4__6zvxvr9w8m0000gn/T//ccNsiQFA.s 			page 11


 462:/Library/DaisyToolchain/0.2.0/arm/arm-none-eabi/include/c++/10.3.1/bits/stl_algobase.h ****     inline _OI
 463:/Library/DaisyToolchain/0.2.0/arm/arm-none-eabi/include/c++/10.3.1/bits/stl_algobase.h ****     __copy_move_a2(_II __first, _II __last, _OI __result)
 464:/Library/DaisyToolchain/0.2.0/arm/arm-none-eabi/include/c++/10.3.1/bits/stl_algobase.h ****     {
 465:/Library/DaisyToolchain/0.2.0/arm/arm-none-eabi/include/c++/10.3.1/bits/stl_algobase.h ****       typedef typename iterator_traits<_II>::iterator_category _Category;
 466:/Library/DaisyToolchain/0.2.0/arm/arm-none-eabi/include/c++/10.3.1/bits/stl_algobase.h **** #ifdef __cpp_lib_is_constant_evaluated
 467:/Library/DaisyToolchain/0.2.0/arm/arm-none-eabi/include/c++/10.3.1/bits/stl_algobase.h ****       if (std::is_constant_evaluated())
 468:/Library/DaisyToolchain/0.2.0/arm/arm-none-eabi/include/c++/10.3.1/bits/stl_algobase.h **** 	return std::__copy_move<_IsMove, false, _Category>::
 469:/Library/DaisyToolchain/0.2.0/arm/arm-none-eabi/include/c++/10.3.1/bits/stl_algobase.h **** 	  __copy_m(__first, __last, __result);
 470:/Library/DaisyToolchain/0.2.0/arm/arm-none-eabi/include/c++/10.3.1/bits/stl_algobase.h **** #endif
 471:/Library/DaisyToolchain/0.2.0/arm/arm-none-eabi/include/c++/10.3.1/bits/stl_algobase.h ****       return std::__copy_move<_IsMove, __memcpyable<_OI, _II>::__value,
 472:/Library/DaisyToolchain/0.2.0/arm/arm-none-eabi/include/c++/10.3.1/bits/stl_algobase.h **** 			      _Category>::__copy_m(__first, __last, __result);
 473:/Library/DaisyToolchain/0.2.0/arm/arm-none-eabi/include/c++/10.3.1/bits/stl_algobase.h ****     }
 474:/Library/DaisyToolchain/0.2.0/arm/arm-none-eabi/include/c++/10.3.1/bits/stl_algobase.h **** 
 475:/Library/DaisyToolchain/0.2.0/arm/arm-none-eabi/include/c++/10.3.1/bits/stl_algobase.h **** _GLIBCXX_BEGIN_NAMESPACE_CONTAINER
 476:/Library/DaisyToolchain/0.2.0/arm/arm-none-eabi/include/c++/10.3.1/bits/stl_algobase.h **** 
 477:/Library/DaisyToolchain/0.2.0/arm/arm-none-eabi/include/c++/10.3.1/bits/stl_algobase.h ****   template<typename _Tp, typename _Ref, typename _Ptr>
 478:/Library/DaisyToolchain/0.2.0/arm/arm-none-eabi/include/c++/10.3.1/bits/stl_algobase.h ****     struct _Deque_iterator;
 479:/Library/DaisyToolchain/0.2.0/arm/arm-none-eabi/include/c++/10.3.1/bits/stl_algobase.h **** 
 480:/Library/DaisyToolchain/0.2.0/arm/arm-none-eabi/include/c++/10.3.1/bits/stl_algobase.h **** _GLIBCXX_END_NAMESPACE_CONTAINER
 481:/Library/DaisyToolchain/0.2.0/arm/arm-none-eabi/include/c++/10.3.1/bits/stl_algobase.h **** 
 482:/Library/DaisyToolchain/0.2.0/arm/arm-none-eabi/include/c++/10.3.1/bits/stl_algobase.h ****   template<bool _IsMove,
 483:/Library/DaisyToolchain/0.2.0/arm/arm-none-eabi/include/c++/10.3.1/bits/stl_algobase.h **** 	   typename _Tp, typename _Ref, typename _Ptr, typename _OI>
 484:/Library/DaisyToolchain/0.2.0/arm/arm-none-eabi/include/c++/10.3.1/bits/stl_algobase.h ****     _OI
 485:/Library/DaisyToolchain/0.2.0/arm/arm-none-eabi/include/c++/10.3.1/bits/stl_algobase.h ****     __copy_move_a1(_GLIBCXX_STD_C::_Deque_iterator<_Tp, _Ref, _Ptr>,
 486:/Library/DaisyToolchain/0.2.0/arm/arm-none-eabi/include/c++/10.3.1/bits/stl_algobase.h **** 		   _GLIBCXX_STD_C::_Deque_iterator<_Tp, _Ref, _Ptr>,
 487:/Library/DaisyToolchain/0.2.0/arm/arm-none-eabi/include/c++/10.3.1/bits/stl_algobase.h **** 		   _OI);
 488:/Library/DaisyToolchain/0.2.0/arm/arm-none-eabi/include/c++/10.3.1/bits/stl_algobase.h **** 
 489:/Library/DaisyToolchain/0.2.0/arm/arm-none-eabi/include/c++/10.3.1/bits/stl_algobase.h ****   template<bool _IsMove,
 490:/Library/DaisyToolchain/0.2.0/arm/arm-none-eabi/include/c++/10.3.1/bits/stl_algobase.h **** 	   typename _ITp, typename _IRef, typename _IPtr, typename _OTp>
 491:/Library/DaisyToolchain/0.2.0/arm/arm-none-eabi/include/c++/10.3.1/bits/stl_algobase.h ****     _GLIBCXX_STD_C::_Deque_iterator<_OTp, _OTp&, _OTp*>
 492:/Library/DaisyToolchain/0.2.0/arm/arm-none-eabi/include/c++/10.3.1/bits/stl_algobase.h ****     __copy_move_a1(_GLIBCXX_STD_C::_Deque_iterator<_ITp, _IRef, _IPtr>,
 493:/Library/DaisyToolchain/0.2.0/arm/arm-none-eabi/include/c++/10.3.1/bits/stl_algobase.h **** 		   _GLIBCXX_STD_C::_Deque_iterator<_ITp, _IRef, _IPtr>,
 494:/Library/DaisyToolchain/0.2.0/arm/arm-none-eabi/include/c++/10.3.1/bits/stl_algobase.h **** 		   _GLIBCXX_STD_C::_Deque_iterator<_OTp, _OTp&, _OTp*>);
 495:/Library/DaisyToolchain/0.2.0/arm/arm-none-eabi/include/c++/10.3.1/bits/stl_algobase.h **** 
 496:/Library/DaisyToolchain/0.2.0/arm/arm-none-eabi/include/c++/10.3.1/bits/stl_algobase.h ****   template<bool _IsMove, typename _II, typename _Tp>
 497:/Library/DaisyToolchain/0.2.0/arm/arm-none-eabi/include/c++/10.3.1/bits/stl_algobase.h ****     typename __gnu_cxx::__enable_if<
 498:/Library/DaisyToolchain/0.2.0/arm/arm-none-eabi/include/c++/10.3.1/bits/stl_algobase.h ****       __is_random_access_iter<_II>::__value,
 499:/Library/DaisyToolchain/0.2.0/arm/arm-none-eabi/include/c++/10.3.1/bits/stl_algobase.h ****       _GLIBCXX_STD_C::_Deque_iterator<_Tp, _Tp&, _Tp*> >::__type
 500:/Library/DaisyToolchain/0.2.0/arm/arm-none-eabi/include/c++/10.3.1/bits/stl_algobase.h ****     __copy_move_a1(_II, _II, _GLIBCXX_STD_C::_Deque_iterator<_Tp, _Tp&, _Tp*>);
 501:/Library/DaisyToolchain/0.2.0/arm/arm-none-eabi/include/c++/10.3.1/bits/stl_algobase.h **** 
 502:/Library/DaisyToolchain/0.2.0/arm/arm-none-eabi/include/c++/10.3.1/bits/stl_algobase.h ****   template<bool _IsMove, typename _II, typename _OI>
 503:/Library/DaisyToolchain/0.2.0/arm/arm-none-eabi/include/c++/10.3.1/bits/stl_algobase.h ****     _GLIBCXX20_CONSTEXPR
 504:/Library/DaisyToolchain/0.2.0/arm/arm-none-eabi/include/c++/10.3.1/bits/stl_algobase.h ****     inline _OI
 505:/Library/DaisyToolchain/0.2.0/arm/arm-none-eabi/include/c++/10.3.1/bits/stl_algobase.h ****     __copy_move_a1(_II __first, _II __last, _OI __result)
 506:/Library/DaisyToolchain/0.2.0/arm/arm-none-eabi/include/c++/10.3.1/bits/stl_algobase.h ****     { return std::__copy_move_a2<_IsMove>(__first, __last, __result); }
 507:/Library/DaisyToolchain/0.2.0/arm/arm-none-eabi/include/c++/10.3.1/bits/stl_algobase.h **** 
 508:/Library/DaisyToolchain/0.2.0/arm/arm-none-eabi/include/c++/10.3.1/bits/stl_algobase.h ****   template<bool _IsMove, typename _II, typename _OI>
 509:/Library/DaisyToolchain/0.2.0/arm/arm-none-eabi/include/c++/10.3.1/bits/stl_algobase.h ****     _GLIBCXX20_CONSTEXPR
 510:/Library/DaisyToolchain/0.2.0/arm/arm-none-eabi/include/c++/10.3.1/bits/stl_algobase.h ****     inline _OI
 511:/Library/DaisyToolchain/0.2.0/arm/arm-none-eabi/include/c++/10.3.1/bits/stl_algobase.h ****     __copy_move_a(_II __first, _II __last, _OI __result)
 512:/Library/DaisyToolchain/0.2.0/arm/arm-none-eabi/include/c++/10.3.1/bits/stl_algobase.h ****     {
 513:/Library/DaisyToolchain/0.2.0/arm/arm-none-eabi/include/c++/10.3.1/bits/stl_algobase.h ****       return std::__niter_wrap(__result,
 514:/Library/DaisyToolchain/0.2.0/arm/arm-none-eabi/include/c++/10.3.1/bits/stl_algobase.h **** 		std::__copy_move_a1<_IsMove>(std::__niter_base(__first),
 515:/Library/DaisyToolchain/0.2.0/arm/arm-none-eabi/include/c++/10.3.1/bits/stl_algobase.h **** 					     std::__niter_base(__last),
 516:/Library/DaisyToolchain/0.2.0/arm/arm-none-eabi/include/c++/10.3.1/bits/stl_algobase.h **** 					     std::__niter_base(__result)));
 517:/Library/DaisyToolchain/0.2.0/arm/arm-none-eabi/include/c++/10.3.1/bits/stl_algobase.h ****     }
 518:/Library/DaisyToolchain/0.2.0/arm/arm-none-eabi/include/c++/10.3.1/bits/stl_algobase.h **** 
ARM GAS  /var/folders/9k/zk1mgrrd7wg4__6zvxvr9w8m0000gn/T//ccNsiQFA.s 			page 12


 519:/Library/DaisyToolchain/0.2.0/arm/arm-none-eabi/include/c++/10.3.1/bits/stl_algobase.h ****   template<bool _IsMove,
 520:/Library/DaisyToolchain/0.2.0/arm/arm-none-eabi/include/c++/10.3.1/bits/stl_algobase.h **** 	   typename _Ite, typename _Seq, typename _Cat, typename _OI>
 521:/Library/DaisyToolchain/0.2.0/arm/arm-none-eabi/include/c++/10.3.1/bits/stl_algobase.h ****     _OI
 522:/Library/DaisyToolchain/0.2.0/arm/arm-none-eabi/include/c++/10.3.1/bits/stl_algobase.h ****     __copy_move_a(const ::__gnu_debug::_Safe_iterator<_Ite, _Seq, _Cat>&,
 523:/Library/DaisyToolchain/0.2.0/arm/arm-none-eabi/include/c++/10.3.1/bits/stl_algobase.h **** 		  const ::__gnu_debug::_Safe_iterator<_Ite, _Seq, _Cat>&,
 524:/Library/DaisyToolchain/0.2.0/arm/arm-none-eabi/include/c++/10.3.1/bits/stl_algobase.h **** 		  _OI);
 525:/Library/DaisyToolchain/0.2.0/arm/arm-none-eabi/include/c++/10.3.1/bits/stl_algobase.h **** 
 526:/Library/DaisyToolchain/0.2.0/arm/arm-none-eabi/include/c++/10.3.1/bits/stl_algobase.h ****   template<bool _IsMove,
 527:/Library/DaisyToolchain/0.2.0/arm/arm-none-eabi/include/c++/10.3.1/bits/stl_algobase.h **** 	   typename _II, typename _Ite, typename _Seq, typename _Cat>
 528:/Library/DaisyToolchain/0.2.0/arm/arm-none-eabi/include/c++/10.3.1/bits/stl_algobase.h ****     __gnu_debug::_Safe_iterator<_Ite, _Seq, _Cat>
 529:/Library/DaisyToolchain/0.2.0/arm/arm-none-eabi/include/c++/10.3.1/bits/stl_algobase.h ****     __copy_move_a(_II, _II,
 530:/Library/DaisyToolchain/0.2.0/arm/arm-none-eabi/include/c++/10.3.1/bits/stl_algobase.h **** 		  const ::__gnu_debug::_Safe_iterator<_Ite, _Seq, _Cat>&);
 531:/Library/DaisyToolchain/0.2.0/arm/arm-none-eabi/include/c++/10.3.1/bits/stl_algobase.h **** 
 532:/Library/DaisyToolchain/0.2.0/arm/arm-none-eabi/include/c++/10.3.1/bits/stl_algobase.h ****   template<bool _IsMove,
 533:/Library/DaisyToolchain/0.2.0/arm/arm-none-eabi/include/c++/10.3.1/bits/stl_algobase.h **** 	   typename _IIte, typename _ISeq, typename _ICat,
 534:/Library/DaisyToolchain/0.2.0/arm/arm-none-eabi/include/c++/10.3.1/bits/stl_algobase.h **** 	   typename _OIte, typename _OSeq, typename _OCat>
 535:/Library/DaisyToolchain/0.2.0/arm/arm-none-eabi/include/c++/10.3.1/bits/stl_algobase.h ****     ::__gnu_debug::_Safe_iterator<_OIte, _OSeq, _OCat>
 536:/Library/DaisyToolchain/0.2.0/arm/arm-none-eabi/include/c++/10.3.1/bits/stl_algobase.h ****     __copy_move_a(const ::__gnu_debug::_Safe_iterator<_IIte, _ISeq, _ICat>&,
 537:/Library/DaisyToolchain/0.2.0/arm/arm-none-eabi/include/c++/10.3.1/bits/stl_algobase.h **** 		  const ::__gnu_debug::_Safe_iterator<_IIte, _ISeq, _ICat>&,
 538:/Library/DaisyToolchain/0.2.0/arm/arm-none-eabi/include/c++/10.3.1/bits/stl_algobase.h **** 		  const ::__gnu_debug::_Safe_iterator<_OIte, _OSeq, _OCat>&);
 539:/Library/DaisyToolchain/0.2.0/arm/arm-none-eabi/include/c++/10.3.1/bits/stl_algobase.h **** 
 540:/Library/DaisyToolchain/0.2.0/arm/arm-none-eabi/include/c++/10.3.1/bits/stl_algobase.h ****   /**
 541:/Library/DaisyToolchain/0.2.0/arm/arm-none-eabi/include/c++/10.3.1/bits/stl_algobase.h ****    *  @brief Copies the range [first,last) into result.
 542:/Library/DaisyToolchain/0.2.0/arm/arm-none-eabi/include/c++/10.3.1/bits/stl_algobase.h ****    *  @ingroup mutating_algorithms
 543:/Library/DaisyToolchain/0.2.0/arm/arm-none-eabi/include/c++/10.3.1/bits/stl_algobase.h ****    *  @param  __first  An input iterator.
 544:/Library/DaisyToolchain/0.2.0/arm/arm-none-eabi/include/c++/10.3.1/bits/stl_algobase.h ****    *  @param  __last   An input iterator.
 545:/Library/DaisyToolchain/0.2.0/arm/arm-none-eabi/include/c++/10.3.1/bits/stl_algobase.h ****    *  @param  __result An output iterator.
 546:/Library/DaisyToolchain/0.2.0/arm/arm-none-eabi/include/c++/10.3.1/bits/stl_algobase.h ****    *  @return   result + (last - first)
 547:/Library/DaisyToolchain/0.2.0/arm/arm-none-eabi/include/c++/10.3.1/bits/stl_algobase.h ****    *
 548:/Library/DaisyToolchain/0.2.0/arm/arm-none-eabi/include/c++/10.3.1/bits/stl_algobase.h ****    *  This inline function will boil down to a call to @c memmove whenever
 549:/Library/DaisyToolchain/0.2.0/arm/arm-none-eabi/include/c++/10.3.1/bits/stl_algobase.h ****    *  possible.  Failing that, if random access iterators are passed, then the
 550:/Library/DaisyToolchain/0.2.0/arm/arm-none-eabi/include/c++/10.3.1/bits/stl_algobase.h ****    *  loop count will be known (and therefore a candidate for compiler
 551:/Library/DaisyToolchain/0.2.0/arm/arm-none-eabi/include/c++/10.3.1/bits/stl_algobase.h ****    *  optimizations such as unrolling).  Result may not be contained within
 552:/Library/DaisyToolchain/0.2.0/arm/arm-none-eabi/include/c++/10.3.1/bits/stl_algobase.h ****    *  [first,last); the copy_backward function should be used instead.
 553:/Library/DaisyToolchain/0.2.0/arm/arm-none-eabi/include/c++/10.3.1/bits/stl_algobase.h ****    *
 554:/Library/DaisyToolchain/0.2.0/arm/arm-none-eabi/include/c++/10.3.1/bits/stl_algobase.h ****    *  Note that the end of the output range is permitted to be contained
 555:/Library/DaisyToolchain/0.2.0/arm/arm-none-eabi/include/c++/10.3.1/bits/stl_algobase.h ****    *  within [first,last).
 556:/Library/DaisyToolchain/0.2.0/arm/arm-none-eabi/include/c++/10.3.1/bits/stl_algobase.h ****   */
 557:/Library/DaisyToolchain/0.2.0/arm/arm-none-eabi/include/c++/10.3.1/bits/stl_algobase.h ****   template<typename _II, typename _OI>
 558:/Library/DaisyToolchain/0.2.0/arm/arm-none-eabi/include/c++/10.3.1/bits/stl_algobase.h ****     _GLIBCXX20_CONSTEXPR
 559:/Library/DaisyToolchain/0.2.0/arm/arm-none-eabi/include/c++/10.3.1/bits/stl_algobase.h ****     inline _OI
 560:/Library/DaisyToolchain/0.2.0/arm/arm-none-eabi/include/c++/10.3.1/bits/stl_algobase.h ****     copy(_II __first, _II __last, _OI __result)
 561:/Library/DaisyToolchain/0.2.0/arm/arm-none-eabi/include/c++/10.3.1/bits/stl_algobase.h ****     {
 562:/Library/DaisyToolchain/0.2.0/arm/arm-none-eabi/include/c++/10.3.1/bits/stl_algobase.h ****       // concept requirements
 563:/Library/DaisyToolchain/0.2.0/arm/arm-none-eabi/include/c++/10.3.1/bits/stl_algobase.h ****       __glibcxx_function_requires(_InputIteratorConcept<_II>)
 564:/Library/DaisyToolchain/0.2.0/arm/arm-none-eabi/include/c++/10.3.1/bits/stl_algobase.h ****       __glibcxx_function_requires(_OutputIteratorConcept<_OI,
 565:/Library/DaisyToolchain/0.2.0/arm/arm-none-eabi/include/c++/10.3.1/bits/stl_algobase.h **** 	    typename iterator_traits<_II>::value_type>)
 566:/Library/DaisyToolchain/0.2.0/arm/arm-none-eabi/include/c++/10.3.1/bits/stl_algobase.h ****       __glibcxx_requires_can_increment_range(__first, __last, __result);
 567:/Library/DaisyToolchain/0.2.0/arm/arm-none-eabi/include/c++/10.3.1/bits/stl_algobase.h **** 
 568:/Library/DaisyToolchain/0.2.0/arm/arm-none-eabi/include/c++/10.3.1/bits/stl_algobase.h ****       return std::__copy_move_a<__is_move_iterator<_II>::__value>
 569:/Library/DaisyToolchain/0.2.0/arm/arm-none-eabi/include/c++/10.3.1/bits/stl_algobase.h **** 	     (std::__miter_base(__first), std::__miter_base(__last), __result);
 570:/Library/DaisyToolchain/0.2.0/arm/arm-none-eabi/include/c++/10.3.1/bits/stl_algobase.h ****     }
 571:/Library/DaisyToolchain/0.2.0/arm/arm-none-eabi/include/c++/10.3.1/bits/stl_algobase.h **** 
 572:/Library/DaisyToolchain/0.2.0/arm/arm-none-eabi/include/c++/10.3.1/bits/stl_algobase.h **** #if __cplusplus >= 201103L
 573:/Library/DaisyToolchain/0.2.0/arm/arm-none-eabi/include/c++/10.3.1/bits/stl_algobase.h ****   /**
 574:/Library/DaisyToolchain/0.2.0/arm/arm-none-eabi/include/c++/10.3.1/bits/stl_algobase.h ****    *  @brief Moves the range [first,last) into result.
 575:/Library/DaisyToolchain/0.2.0/arm/arm-none-eabi/include/c++/10.3.1/bits/stl_algobase.h ****    *  @ingroup mutating_algorithms
ARM GAS  /var/folders/9k/zk1mgrrd7wg4__6zvxvr9w8m0000gn/T//ccNsiQFA.s 			page 13


 576:/Library/DaisyToolchain/0.2.0/arm/arm-none-eabi/include/c++/10.3.1/bits/stl_algobase.h ****    *  @param  __first  An input iterator.
 577:/Library/DaisyToolchain/0.2.0/arm/arm-none-eabi/include/c++/10.3.1/bits/stl_algobase.h ****    *  @param  __last   An input iterator.
 578:/Library/DaisyToolchain/0.2.0/arm/arm-none-eabi/include/c++/10.3.1/bits/stl_algobase.h ****    *  @param  __result An output iterator.
 579:/Library/DaisyToolchain/0.2.0/arm/arm-none-eabi/include/c++/10.3.1/bits/stl_algobase.h ****    *  @return   result + (last - first)
 580:/Library/DaisyToolchain/0.2.0/arm/arm-none-eabi/include/c++/10.3.1/bits/stl_algobase.h ****    *
 581:/Library/DaisyToolchain/0.2.0/arm/arm-none-eabi/include/c++/10.3.1/bits/stl_algobase.h ****    *  This inline function will boil down to a call to @c memmove whenever
 582:/Library/DaisyToolchain/0.2.0/arm/arm-none-eabi/include/c++/10.3.1/bits/stl_algobase.h ****    *  possible.  Failing that, if random access iterators are passed, then the
 583:/Library/DaisyToolchain/0.2.0/arm/arm-none-eabi/include/c++/10.3.1/bits/stl_algobase.h ****    *  loop count will be known (and therefore a candidate for compiler
 584:/Library/DaisyToolchain/0.2.0/arm/arm-none-eabi/include/c++/10.3.1/bits/stl_algobase.h ****    *  optimizations such as unrolling).  Result may not be contained within
 585:/Library/DaisyToolchain/0.2.0/arm/arm-none-eabi/include/c++/10.3.1/bits/stl_algobase.h ****    *  [first,last); the move_backward function should be used instead.
 586:/Library/DaisyToolchain/0.2.0/arm/arm-none-eabi/include/c++/10.3.1/bits/stl_algobase.h ****    *
 587:/Library/DaisyToolchain/0.2.0/arm/arm-none-eabi/include/c++/10.3.1/bits/stl_algobase.h ****    *  Note that the end of the output range is permitted to be contained
 588:/Library/DaisyToolchain/0.2.0/arm/arm-none-eabi/include/c++/10.3.1/bits/stl_algobase.h ****    *  within [first,last).
 589:/Library/DaisyToolchain/0.2.0/arm/arm-none-eabi/include/c++/10.3.1/bits/stl_algobase.h ****   */
 590:/Library/DaisyToolchain/0.2.0/arm/arm-none-eabi/include/c++/10.3.1/bits/stl_algobase.h ****   template<typename _II, typename _OI>
 591:/Library/DaisyToolchain/0.2.0/arm/arm-none-eabi/include/c++/10.3.1/bits/stl_algobase.h ****     _GLIBCXX20_CONSTEXPR
 592:/Library/DaisyToolchain/0.2.0/arm/arm-none-eabi/include/c++/10.3.1/bits/stl_algobase.h ****     inline _OI
 593:/Library/DaisyToolchain/0.2.0/arm/arm-none-eabi/include/c++/10.3.1/bits/stl_algobase.h ****     move(_II __first, _II __last, _OI __result)
 594:/Library/DaisyToolchain/0.2.0/arm/arm-none-eabi/include/c++/10.3.1/bits/stl_algobase.h ****     {
 595:/Library/DaisyToolchain/0.2.0/arm/arm-none-eabi/include/c++/10.3.1/bits/stl_algobase.h ****       // concept requirements
 596:/Library/DaisyToolchain/0.2.0/arm/arm-none-eabi/include/c++/10.3.1/bits/stl_algobase.h ****       __glibcxx_function_requires(_InputIteratorConcept<_II>)
 597:/Library/DaisyToolchain/0.2.0/arm/arm-none-eabi/include/c++/10.3.1/bits/stl_algobase.h ****       __glibcxx_function_requires(_OutputIteratorConcept<_OI,
 598:/Library/DaisyToolchain/0.2.0/arm/arm-none-eabi/include/c++/10.3.1/bits/stl_algobase.h **** 	    typename iterator_traits<_II>::value_type>)
 599:/Library/DaisyToolchain/0.2.0/arm/arm-none-eabi/include/c++/10.3.1/bits/stl_algobase.h ****       __glibcxx_requires_can_increment_range(__first, __last, __result);
 600:/Library/DaisyToolchain/0.2.0/arm/arm-none-eabi/include/c++/10.3.1/bits/stl_algobase.h **** 
 601:/Library/DaisyToolchain/0.2.0/arm/arm-none-eabi/include/c++/10.3.1/bits/stl_algobase.h ****       return std::__copy_move_a<true>(std::__miter_base(__first),
 602:/Library/DaisyToolchain/0.2.0/arm/arm-none-eabi/include/c++/10.3.1/bits/stl_algobase.h **** 				      std::__miter_base(__last), __result);
 603:/Library/DaisyToolchain/0.2.0/arm/arm-none-eabi/include/c++/10.3.1/bits/stl_algobase.h ****     }
 604:/Library/DaisyToolchain/0.2.0/arm/arm-none-eabi/include/c++/10.3.1/bits/stl_algobase.h **** 
 605:/Library/DaisyToolchain/0.2.0/arm/arm-none-eabi/include/c++/10.3.1/bits/stl_algobase.h **** #define _GLIBCXX_MOVE3(_Tp, _Up, _Vp) std::move(_Tp, _Up, _Vp)
 606:/Library/DaisyToolchain/0.2.0/arm/arm-none-eabi/include/c++/10.3.1/bits/stl_algobase.h **** #else
 607:/Library/DaisyToolchain/0.2.0/arm/arm-none-eabi/include/c++/10.3.1/bits/stl_algobase.h **** #define _GLIBCXX_MOVE3(_Tp, _Up, _Vp) std::copy(_Tp, _Up, _Vp)
 608:/Library/DaisyToolchain/0.2.0/arm/arm-none-eabi/include/c++/10.3.1/bits/stl_algobase.h **** #endif
 609:/Library/DaisyToolchain/0.2.0/arm/arm-none-eabi/include/c++/10.3.1/bits/stl_algobase.h **** 
 610:/Library/DaisyToolchain/0.2.0/arm/arm-none-eabi/include/c++/10.3.1/bits/stl_algobase.h ****   template<bool _IsMove, bool _IsSimple, typename _Category>
 611:/Library/DaisyToolchain/0.2.0/arm/arm-none-eabi/include/c++/10.3.1/bits/stl_algobase.h ****     struct __copy_move_backward
 612:/Library/DaisyToolchain/0.2.0/arm/arm-none-eabi/include/c++/10.3.1/bits/stl_algobase.h ****     {
 613:/Library/DaisyToolchain/0.2.0/arm/arm-none-eabi/include/c++/10.3.1/bits/stl_algobase.h ****       template<typename _BI1, typename _BI2>
 614:/Library/DaisyToolchain/0.2.0/arm/arm-none-eabi/include/c++/10.3.1/bits/stl_algobase.h **** 	_GLIBCXX20_CONSTEXPR
 615:/Library/DaisyToolchain/0.2.0/arm/arm-none-eabi/include/c++/10.3.1/bits/stl_algobase.h **** 	static _BI2
 616:/Library/DaisyToolchain/0.2.0/arm/arm-none-eabi/include/c++/10.3.1/bits/stl_algobase.h **** 	__copy_move_b(_BI1 __first, _BI1 __last, _BI2 __result)
 617:/Library/DaisyToolchain/0.2.0/arm/arm-none-eabi/include/c++/10.3.1/bits/stl_algobase.h **** 	{
 618:/Library/DaisyToolchain/0.2.0/arm/arm-none-eabi/include/c++/10.3.1/bits/stl_algobase.h **** 	  while (__first != __last)
 619:/Library/DaisyToolchain/0.2.0/arm/arm-none-eabi/include/c++/10.3.1/bits/stl_algobase.h **** 	    *--__result = *--__last;
 620:/Library/DaisyToolchain/0.2.0/arm/arm-none-eabi/include/c++/10.3.1/bits/stl_algobase.h **** 	  return __result;
 621:/Library/DaisyToolchain/0.2.0/arm/arm-none-eabi/include/c++/10.3.1/bits/stl_algobase.h **** 	}
 622:/Library/DaisyToolchain/0.2.0/arm/arm-none-eabi/include/c++/10.3.1/bits/stl_algobase.h ****     };
 623:/Library/DaisyToolchain/0.2.0/arm/arm-none-eabi/include/c++/10.3.1/bits/stl_algobase.h **** 
 624:/Library/DaisyToolchain/0.2.0/arm/arm-none-eabi/include/c++/10.3.1/bits/stl_algobase.h **** #if __cplusplus >= 201103L
 625:/Library/DaisyToolchain/0.2.0/arm/arm-none-eabi/include/c++/10.3.1/bits/stl_algobase.h ****   template<typename _Category>
 626:/Library/DaisyToolchain/0.2.0/arm/arm-none-eabi/include/c++/10.3.1/bits/stl_algobase.h ****     struct __copy_move_backward<true, false, _Category>
 627:/Library/DaisyToolchain/0.2.0/arm/arm-none-eabi/include/c++/10.3.1/bits/stl_algobase.h ****     {
 628:/Library/DaisyToolchain/0.2.0/arm/arm-none-eabi/include/c++/10.3.1/bits/stl_algobase.h ****       template<typename _BI1, typename _BI2>
 629:/Library/DaisyToolchain/0.2.0/arm/arm-none-eabi/include/c++/10.3.1/bits/stl_algobase.h **** 	_GLIBCXX20_CONSTEXPR
 630:/Library/DaisyToolchain/0.2.0/arm/arm-none-eabi/include/c++/10.3.1/bits/stl_algobase.h **** 	static _BI2
 631:/Library/DaisyToolchain/0.2.0/arm/arm-none-eabi/include/c++/10.3.1/bits/stl_algobase.h **** 	__copy_move_b(_BI1 __first, _BI1 __last, _BI2 __result)
 632:/Library/DaisyToolchain/0.2.0/arm/arm-none-eabi/include/c++/10.3.1/bits/stl_algobase.h **** 	{
ARM GAS  /var/folders/9k/zk1mgrrd7wg4__6zvxvr9w8m0000gn/T//ccNsiQFA.s 			page 14


 633:/Library/DaisyToolchain/0.2.0/arm/arm-none-eabi/include/c++/10.3.1/bits/stl_algobase.h **** 	  while (__first != __last)
 634:/Library/DaisyToolchain/0.2.0/arm/arm-none-eabi/include/c++/10.3.1/bits/stl_algobase.h **** 	    *--__result = std::move(*--__last);
 635:/Library/DaisyToolchain/0.2.0/arm/arm-none-eabi/include/c++/10.3.1/bits/stl_algobase.h **** 	  return __result;
 636:/Library/DaisyToolchain/0.2.0/arm/arm-none-eabi/include/c++/10.3.1/bits/stl_algobase.h **** 	}
 637:/Library/DaisyToolchain/0.2.0/arm/arm-none-eabi/include/c++/10.3.1/bits/stl_algobase.h ****     };
 638:/Library/DaisyToolchain/0.2.0/arm/arm-none-eabi/include/c++/10.3.1/bits/stl_algobase.h **** #endif
 639:/Library/DaisyToolchain/0.2.0/arm/arm-none-eabi/include/c++/10.3.1/bits/stl_algobase.h **** 
 640:/Library/DaisyToolchain/0.2.0/arm/arm-none-eabi/include/c++/10.3.1/bits/stl_algobase.h ****   template<>
 641:/Library/DaisyToolchain/0.2.0/arm/arm-none-eabi/include/c++/10.3.1/bits/stl_algobase.h ****     struct __copy_move_backward<false, false, random_access_iterator_tag>
 642:/Library/DaisyToolchain/0.2.0/arm/arm-none-eabi/include/c++/10.3.1/bits/stl_algobase.h ****     {
 643:/Library/DaisyToolchain/0.2.0/arm/arm-none-eabi/include/c++/10.3.1/bits/stl_algobase.h ****       template<typename _BI1, typename _BI2>
 644:/Library/DaisyToolchain/0.2.0/arm/arm-none-eabi/include/c++/10.3.1/bits/stl_algobase.h **** 	_GLIBCXX20_CONSTEXPR
 645:/Library/DaisyToolchain/0.2.0/arm/arm-none-eabi/include/c++/10.3.1/bits/stl_algobase.h **** 	static _BI2
 646:/Library/DaisyToolchain/0.2.0/arm/arm-none-eabi/include/c++/10.3.1/bits/stl_algobase.h **** 	__copy_move_b(_BI1 __first, _BI1 __last, _BI2 __result)
 647:/Library/DaisyToolchain/0.2.0/arm/arm-none-eabi/include/c++/10.3.1/bits/stl_algobase.h **** 	{
 648:/Library/DaisyToolchain/0.2.0/arm/arm-none-eabi/include/c++/10.3.1/bits/stl_algobase.h **** 	  typename iterator_traits<_BI1>::difference_type
 649:/Library/DaisyToolchain/0.2.0/arm/arm-none-eabi/include/c++/10.3.1/bits/stl_algobase.h **** 	    __n = __last - __first;
 650:/Library/DaisyToolchain/0.2.0/arm/arm-none-eabi/include/c++/10.3.1/bits/stl_algobase.h **** 	  for (; __n > 0; --__n)
 651:/Library/DaisyToolchain/0.2.0/arm/arm-none-eabi/include/c++/10.3.1/bits/stl_algobase.h **** 	    *--__result = *--__last;
 652:/Library/DaisyToolchain/0.2.0/arm/arm-none-eabi/include/c++/10.3.1/bits/stl_algobase.h **** 	  return __result;
 653:/Library/DaisyToolchain/0.2.0/arm/arm-none-eabi/include/c++/10.3.1/bits/stl_algobase.h **** 	}
 654:/Library/DaisyToolchain/0.2.0/arm/arm-none-eabi/include/c++/10.3.1/bits/stl_algobase.h ****     };
 655:/Library/DaisyToolchain/0.2.0/arm/arm-none-eabi/include/c++/10.3.1/bits/stl_algobase.h **** 
 656:/Library/DaisyToolchain/0.2.0/arm/arm-none-eabi/include/c++/10.3.1/bits/stl_algobase.h **** #if __cplusplus >= 201103L
 657:/Library/DaisyToolchain/0.2.0/arm/arm-none-eabi/include/c++/10.3.1/bits/stl_algobase.h ****   template<>
 658:/Library/DaisyToolchain/0.2.0/arm/arm-none-eabi/include/c++/10.3.1/bits/stl_algobase.h ****     struct __copy_move_backward<true, false, random_access_iterator_tag>
 659:/Library/DaisyToolchain/0.2.0/arm/arm-none-eabi/include/c++/10.3.1/bits/stl_algobase.h ****     {
 660:/Library/DaisyToolchain/0.2.0/arm/arm-none-eabi/include/c++/10.3.1/bits/stl_algobase.h ****       template<typename _BI1, typename _BI2>
 661:/Library/DaisyToolchain/0.2.0/arm/arm-none-eabi/include/c++/10.3.1/bits/stl_algobase.h **** 	_GLIBCXX20_CONSTEXPR
 662:/Library/DaisyToolchain/0.2.0/arm/arm-none-eabi/include/c++/10.3.1/bits/stl_algobase.h **** 	static _BI2
 663:/Library/DaisyToolchain/0.2.0/arm/arm-none-eabi/include/c++/10.3.1/bits/stl_algobase.h **** 	__copy_move_b(_BI1 __first, _BI1 __last, _BI2 __result)
 664:/Library/DaisyToolchain/0.2.0/arm/arm-none-eabi/include/c++/10.3.1/bits/stl_algobase.h **** 	{
 665:/Library/DaisyToolchain/0.2.0/arm/arm-none-eabi/include/c++/10.3.1/bits/stl_algobase.h **** 	  typename iterator_traits<_BI1>::difference_type
 666:/Library/DaisyToolchain/0.2.0/arm/arm-none-eabi/include/c++/10.3.1/bits/stl_algobase.h **** 	    __n = __last - __first;
 667:/Library/DaisyToolchain/0.2.0/arm/arm-none-eabi/include/c++/10.3.1/bits/stl_algobase.h **** 	  for (; __n > 0; --__n)
 668:/Library/DaisyToolchain/0.2.0/arm/arm-none-eabi/include/c++/10.3.1/bits/stl_algobase.h **** 	    *--__result = std::move(*--__last);
 669:/Library/DaisyToolchain/0.2.0/arm/arm-none-eabi/include/c++/10.3.1/bits/stl_algobase.h **** 	  return __result;
 670:/Library/DaisyToolchain/0.2.0/arm/arm-none-eabi/include/c++/10.3.1/bits/stl_algobase.h **** 	}
 671:/Library/DaisyToolchain/0.2.0/arm/arm-none-eabi/include/c++/10.3.1/bits/stl_algobase.h ****     };
 672:/Library/DaisyToolchain/0.2.0/arm/arm-none-eabi/include/c++/10.3.1/bits/stl_algobase.h **** #endif
 673:/Library/DaisyToolchain/0.2.0/arm/arm-none-eabi/include/c++/10.3.1/bits/stl_algobase.h **** 
 674:/Library/DaisyToolchain/0.2.0/arm/arm-none-eabi/include/c++/10.3.1/bits/stl_algobase.h ****   template<bool _IsMove>
 675:/Library/DaisyToolchain/0.2.0/arm/arm-none-eabi/include/c++/10.3.1/bits/stl_algobase.h ****     struct __copy_move_backward<_IsMove, true, random_access_iterator_tag>
 676:/Library/DaisyToolchain/0.2.0/arm/arm-none-eabi/include/c++/10.3.1/bits/stl_algobase.h ****     {
 677:/Library/DaisyToolchain/0.2.0/arm/arm-none-eabi/include/c++/10.3.1/bits/stl_algobase.h ****       template<typename _Tp>
 678:/Library/DaisyToolchain/0.2.0/arm/arm-none-eabi/include/c++/10.3.1/bits/stl_algobase.h **** 	_GLIBCXX20_CONSTEXPR
 679:/Library/DaisyToolchain/0.2.0/arm/arm-none-eabi/include/c++/10.3.1/bits/stl_algobase.h **** 	static _Tp*
 680:/Library/DaisyToolchain/0.2.0/arm/arm-none-eabi/include/c++/10.3.1/bits/stl_algobase.h **** 	__copy_move_b(const _Tp* __first, const _Tp* __last, _Tp* __result)
 681:/Library/DaisyToolchain/0.2.0/arm/arm-none-eabi/include/c++/10.3.1/bits/stl_algobase.h **** 	{
 682:/Library/DaisyToolchain/0.2.0/arm/arm-none-eabi/include/c++/10.3.1/bits/stl_algobase.h **** #if __cplusplus >= 201103L
 683:/Library/DaisyToolchain/0.2.0/arm/arm-none-eabi/include/c++/10.3.1/bits/stl_algobase.h **** 	  using __assignable = conditional<_IsMove,
 684:/Library/DaisyToolchain/0.2.0/arm/arm-none-eabi/include/c++/10.3.1/bits/stl_algobase.h **** 					   is_move_assignable<_Tp>,
 685:/Library/DaisyToolchain/0.2.0/arm/arm-none-eabi/include/c++/10.3.1/bits/stl_algobase.h **** 					   is_copy_assignable<_Tp>>;
 686:/Library/DaisyToolchain/0.2.0/arm/arm-none-eabi/include/c++/10.3.1/bits/stl_algobase.h **** 	  // trivial types can have deleted assignment
 687:/Library/DaisyToolchain/0.2.0/arm/arm-none-eabi/include/c++/10.3.1/bits/stl_algobase.h **** 	  static_assert( __assignable::type::value, "type is not assignable" );
 688:/Library/DaisyToolchain/0.2.0/arm/arm-none-eabi/include/c++/10.3.1/bits/stl_algobase.h **** #endif
 689:/Library/DaisyToolchain/0.2.0/arm/arm-none-eabi/include/c++/10.3.1/bits/stl_algobase.h **** 	  const ptrdiff_t _Num = __last - __first;
ARM GAS  /var/folders/9k/zk1mgrrd7wg4__6zvxvr9w8m0000gn/T//ccNsiQFA.s 			page 15


 690:/Library/DaisyToolchain/0.2.0/arm/arm-none-eabi/include/c++/10.3.1/bits/stl_algobase.h **** 	  if (_Num)
 691:/Library/DaisyToolchain/0.2.0/arm/arm-none-eabi/include/c++/10.3.1/bits/stl_algobase.h **** 	    __builtin_memmove(__result - _Num, __first, sizeof(_Tp) * _Num);
 692:/Library/DaisyToolchain/0.2.0/arm/arm-none-eabi/include/c++/10.3.1/bits/stl_algobase.h **** 	  return __result - _Num;
 693:/Library/DaisyToolchain/0.2.0/arm/arm-none-eabi/include/c++/10.3.1/bits/stl_algobase.h **** 	}
 694:/Library/DaisyToolchain/0.2.0/arm/arm-none-eabi/include/c++/10.3.1/bits/stl_algobase.h ****     };
 695:/Library/DaisyToolchain/0.2.0/arm/arm-none-eabi/include/c++/10.3.1/bits/stl_algobase.h **** 
 696:/Library/DaisyToolchain/0.2.0/arm/arm-none-eabi/include/c++/10.3.1/bits/stl_algobase.h ****   template<bool _IsMove, typename _BI1, typename _BI2>
 697:/Library/DaisyToolchain/0.2.0/arm/arm-none-eabi/include/c++/10.3.1/bits/stl_algobase.h ****     _GLIBCXX20_CONSTEXPR
 698:/Library/DaisyToolchain/0.2.0/arm/arm-none-eabi/include/c++/10.3.1/bits/stl_algobase.h ****     inline _BI2
 699:/Library/DaisyToolchain/0.2.0/arm/arm-none-eabi/include/c++/10.3.1/bits/stl_algobase.h ****     __copy_move_backward_a2(_BI1 __first, _BI1 __last, _BI2 __result)
 700:/Library/DaisyToolchain/0.2.0/arm/arm-none-eabi/include/c++/10.3.1/bits/stl_algobase.h ****     {
 701:/Library/DaisyToolchain/0.2.0/arm/arm-none-eabi/include/c++/10.3.1/bits/stl_algobase.h ****       typedef typename iterator_traits<_BI1>::iterator_category _Category;
 702:/Library/DaisyToolchain/0.2.0/arm/arm-none-eabi/include/c++/10.3.1/bits/stl_algobase.h **** #ifdef __cpp_lib_is_constant_evaluated
 703:/Library/DaisyToolchain/0.2.0/arm/arm-none-eabi/include/c++/10.3.1/bits/stl_algobase.h ****       if (std::is_constant_evaluated())
 704:/Library/DaisyToolchain/0.2.0/arm/arm-none-eabi/include/c++/10.3.1/bits/stl_algobase.h **** 	return std::__copy_move_backward<_IsMove, false, _Category>::
 705:/Library/DaisyToolchain/0.2.0/arm/arm-none-eabi/include/c++/10.3.1/bits/stl_algobase.h **** 	  __copy_move_b(__first, __last, __result);
 706:/Library/DaisyToolchain/0.2.0/arm/arm-none-eabi/include/c++/10.3.1/bits/stl_algobase.h **** #endif
 707:/Library/DaisyToolchain/0.2.0/arm/arm-none-eabi/include/c++/10.3.1/bits/stl_algobase.h ****       return std::__copy_move_backward<_IsMove,
 708:/Library/DaisyToolchain/0.2.0/arm/arm-none-eabi/include/c++/10.3.1/bits/stl_algobase.h **** 				       __memcpyable<_BI2, _BI1>::__value,
 709:/Library/DaisyToolchain/0.2.0/arm/arm-none-eabi/include/c++/10.3.1/bits/stl_algobase.h **** 				       _Category>::__copy_move_b(__first,
 710:/Library/DaisyToolchain/0.2.0/arm/arm-none-eabi/include/c++/10.3.1/bits/stl_algobase.h **** 								 __last,
 711:/Library/DaisyToolchain/0.2.0/arm/arm-none-eabi/include/c++/10.3.1/bits/stl_algobase.h **** 								 __result);
 712:/Library/DaisyToolchain/0.2.0/arm/arm-none-eabi/include/c++/10.3.1/bits/stl_algobase.h ****     }
 713:/Library/DaisyToolchain/0.2.0/arm/arm-none-eabi/include/c++/10.3.1/bits/stl_algobase.h **** 
 714:/Library/DaisyToolchain/0.2.0/arm/arm-none-eabi/include/c++/10.3.1/bits/stl_algobase.h ****   template<bool _IsMove, typename _BI1, typename _BI2>
 715:/Library/DaisyToolchain/0.2.0/arm/arm-none-eabi/include/c++/10.3.1/bits/stl_algobase.h ****     _GLIBCXX20_CONSTEXPR
 716:/Library/DaisyToolchain/0.2.0/arm/arm-none-eabi/include/c++/10.3.1/bits/stl_algobase.h ****     inline _BI2
 717:/Library/DaisyToolchain/0.2.0/arm/arm-none-eabi/include/c++/10.3.1/bits/stl_algobase.h ****     __copy_move_backward_a1(_BI1 __first, _BI1 __last, _BI2 __result)
 718:/Library/DaisyToolchain/0.2.0/arm/arm-none-eabi/include/c++/10.3.1/bits/stl_algobase.h ****     { return std::__copy_move_backward_a2<_IsMove>(__first, __last, __result); }
 719:/Library/DaisyToolchain/0.2.0/arm/arm-none-eabi/include/c++/10.3.1/bits/stl_algobase.h **** 
 720:/Library/DaisyToolchain/0.2.0/arm/arm-none-eabi/include/c++/10.3.1/bits/stl_algobase.h ****   template<bool _IsMove,
 721:/Library/DaisyToolchain/0.2.0/arm/arm-none-eabi/include/c++/10.3.1/bits/stl_algobase.h **** 	   typename _Tp, typename _Ref, typename _Ptr, typename _OI>
 722:/Library/DaisyToolchain/0.2.0/arm/arm-none-eabi/include/c++/10.3.1/bits/stl_algobase.h ****     _OI
 723:/Library/DaisyToolchain/0.2.0/arm/arm-none-eabi/include/c++/10.3.1/bits/stl_algobase.h ****     __copy_move_backward_a1(_GLIBCXX_STD_C::_Deque_iterator<_Tp, _Ref, _Ptr>,
 724:/Library/DaisyToolchain/0.2.0/arm/arm-none-eabi/include/c++/10.3.1/bits/stl_algobase.h **** 			    _GLIBCXX_STD_C::_Deque_iterator<_Tp, _Ref, _Ptr>,
 725:/Library/DaisyToolchain/0.2.0/arm/arm-none-eabi/include/c++/10.3.1/bits/stl_algobase.h **** 			    _OI);
 726:/Library/DaisyToolchain/0.2.0/arm/arm-none-eabi/include/c++/10.3.1/bits/stl_algobase.h **** 
 727:/Library/DaisyToolchain/0.2.0/arm/arm-none-eabi/include/c++/10.3.1/bits/stl_algobase.h ****   template<bool _IsMove,
 728:/Library/DaisyToolchain/0.2.0/arm/arm-none-eabi/include/c++/10.3.1/bits/stl_algobase.h **** 	   typename _ITp, typename _IRef, typename _IPtr, typename _OTp>
 729:/Library/DaisyToolchain/0.2.0/arm/arm-none-eabi/include/c++/10.3.1/bits/stl_algobase.h ****     _GLIBCXX_STD_C::_Deque_iterator<_OTp, _OTp&, _OTp*>
 730:/Library/DaisyToolchain/0.2.0/arm/arm-none-eabi/include/c++/10.3.1/bits/stl_algobase.h ****     __copy_move_backward_a1(
 731:/Library/DaisyToolchain/0.2.0/arm/arm-none-eabi/include/c++/10.3.1/bits/stl_algobase.h **** 			_GLIBCXX_STD_C::_Deque_iterator<_ITp, _IRef, _IPtr>,
 732:/Library/DaisyToolchain/0.2.0/arm/arm-none-eabi/include/c++/10.3.1/bits/stl_algobase.h **** 			_GLIBCXX_STD_C::_Deque_iterator<_ITp, _IRef, _IPtr>,
 733:/Library/DaisyToolchain/0.2.0/arm/arm-none-eabi/include/c++/10.3.1/bits/stl_algobase.h **** 			_GLIBCXX_STD_C::_Deque_iterator<_OTp, _OTp&, _OTp*>);
 734:/Library/DaisyToolchain/0.2.0/arm/arm-none-eabi/include/c++/10.3.1/bits/stl_algobase.h **** 
 735:/Library/DaisyToolchain/0.2.0/arm/arm-none-eabi/include/c++/10.3.1/bits/stl_algobase.h ****   template<bool _IsMove, typename _II, typename _Tp>
 736:/Library/DaisyToolchain/0.2.0/arm/arm-none-eabi/include/c++/10.3.1/bits/stl_algobase.h ****     typename __gnu_cxx::__enable_if<
 737:/Library/DaisyToolchain/0.2.0/arm/arm-none-eabi/include/c++/10.3.1/bits/stl_algobase.h ****       __is_random_access_iter<_II>::__value,
 738:/Library/DaisyToolchain/0.2.0/arm/arm-none-eabi/include/c++/10.3.1/bits/stl_algobase.h ****       _GLIBCXX_STD_C::_Deque_iterator<_Tp, _Tp&, _Tp*> >::__type
 739:/Library/DaisyToolchain/0.2.0/arm/arm-none-eabi/include/c++/10.3.1/bits/stl_algobase.h ****     __copy_move_backward_a1(_II, _II,
 740:/Library/DaisyToolchain/0.2.0/arm/arm-none-eabi/include/c++/10.3.1/bits/stl_algobase.h **** 			    _GLIBCXX_STD_C::_Deque_iterator<_Tp, _Tp&, _Tp*>);
 741:/Library/DaisyToolchain/0.2.0/arm/arm-none-eabi/include/c++/10.3.1/bits/stl_algobase.h **** 
 742:/Library/DaisyToolchain/0.2.0/arm/arm-none-eabi/include/c++/10.3.1/bits/stl_algobase.h ****   template<bool _IsMove, typename _II, typename _OI>
 743:/Library/DaisyToolchain/0.2.0/arm/arm-none-eabi/include/c++/10.3.1/bits/stl_algobase.h ****     _GLIBCXX20_CONSTEXPR
 744:/Library/DaisyToolchain/0.2.0/arm/arm-none-eabi/include/c++/10.3.1/bits/stl_algobase.h ****     inline _OI
 745:/Library/DaisyToolchain/0.2.0/arm/arm-none-eabi/include/c++/10.3.1/bits/stl_algobase.h ****     __copy_move_backward_a(_II __first, _II __last, _OI __result)
 746:/Library/DaisyToolchain/0.2.0/arm/arm-none-eabi/include/c++/10.3.1/bits/stl_algobase.h ****     {
ARM GAS  /var/folders/9k/zk1mgrrd7wg4__6zvxvr9w8m0000gn/T//ccNsiQFA.s 			page 16


 747:/Library/DaisyToolchain/0.2.0/arm/arm-none-eabi/include/c++/10.3.1/bits/stl_algobase.h ****       return std::__niter_wrap(__result,
 748:/Library/DaisyToolchain/0.2.0/arm/arm-none-eabi/include/c++/10.3.1/bits/stl_algobase.h **** 		std::__copy_move_backward_a1<_IsMove>
 749:/Library/DaisyToolchain/0.2.0/arm/arm-none-eabi/include/c++/10.3.1/bits/stl_algobase.h **** 		  (std::__niter_base(__first), std::__niter_base(__last),
 750:/Library/DaisyToolchain/0.2.0/arm/arm-none-eabi/include/c++/10.3.1/bits/stl_algobase.h **** 		   std::__niter_base(__result)));
 751:/Library/DaisyToolchain/0.2.0/arm/arm-none-eabi/include/c++/10.3.1/bits/stl_algobase.h ****     }
 752:/Library/DaisyToolchain/0.2.0/arm/arm-none-eabi/include/c++/10.3.1/bits/stl_algobase.h **** 
 753:/Library/DaisyToolchain/0.2.0/arm/arm-none-eabi/include/c++/10.3.1/bits/stl_algobase.h ****   template<bool _IsMove,
 754:/Library/DaisyToolchain/0.2.0/arm/arm-none-eabi/include/c++/10.3.1/bits/stl_algobase.h **** 	   typename _Ite, typename _Seq, typename _Cat, typename _OI>
 755:/Library/DaisyToolchain/0.2.0/arm/arm-none-eabi/include/c++/10.3.1/bits/stl_algobase.h ****     _OI
 756:/Library/DaisyToolchain/0.2.0/arm/arm-none-eabi/include/c++/10.3.1/bits/stl_algobase.h ****     __copy_move_backward_a(
 757:/Library/DaisyToolchain/0.2.0/arm/arm-none-eabi/include/c++/10.3.1/bits/stl_algobase.h **** 		const ::__gnu_debug::_Safe_iterator<_Ite, _Seq, _Cat>&,
 758:/Library/DaisyToolchain/0.2.0/arm/arm-none-eabi/include/c++/10.3.1/bits/stl_algobase.h **** 		const ::__gnu_debug::_Safe_iterator<_Ite, _Seq, _Cat>&,
 759:/Library/DaisyToolchain/0.2.0/arm/arm-none-eabi/include/c++/10.3.1/bits/stl_algobase.h **** 		_OI);
 760:/Library/DaisyToolchain/0.2.0/arm/arm-none-eabi/include/c++/10.3.1/bits/stl_algobase.h **** 
 761:/Library/DaisyToolchain/0.2.0/arm/arm-none-eabi/include/c++/10.3.1/bits/stl_algobase.h ****   template<bool _IsMove,
 762:/Library/DaisyToolchain/0.2.0/arm/arm-none-eabi/include/c++/10.3.1/bits/stl_algobase.h **** 	   typename _II, typename _Ite, typename _Seq, typename _Cat>
 763:/Library/DaisyToolchain/0.2.0/arm/arm-none-eabi/include/c++/10.3.1/bits/stl_algobase.h ****     __gnu_debug::_Safe_iterator<_Ite, _Seq, _Cat>
 764:/Library/DaisyToolchain/0.2.0/arm/arm-none-eabi/include/c++/10.3.1/bits/stl_algobase.h ****     __copy_move_backward_a(_II, _II,
 765:/Library/DaisyToolchain/0.2.0/arm/arm-none-eabi/include/c++/10.3.1/bits/stl_algobase.h **** 		const ::__gnu_debug::_Safe_iterator<_Ite, _Seq, _Cat>&);
 766:/Library/DaisyToolchain/0.2.0/arm/arm-none-eabi/include/c++/10.3.1/bits/stl_algobase.h **** 
 767:/Library/DaisyToolchain/0.2.0/arm/arm-none-eabi/include/c++/10.3.1/bits/stl_algobase.h ****   template<bool _IsMove,
 768:/Library/DaisyToolchain/0.2.0/arm/arm-none-eabi/include/c++/10.3.1/bits/stl_algobase.h **** 	   typename _IIte, typename _ISeq, typename _ICat,
 769:/Library/DaisyToolchain/0.2.0/arm/arm-none-eabi/include/c++/10.3.1/bits/stl_algobase.h **** 	   typename _OIte, typename _OSeq, typename _OCat>
 770:/Library/DaisyToolchain/0.2.0/arm/arm-none-eabi/include/c++/10.3.1/bits/stl_algobase.h ****     ::__gnu_debug::_Safe_iterator<_OIte, _OSeq, _OCat>
 771:/Library/DaisyToolchain/0.2.0/arm/arm-none-eabi/include/c++/10.3.1/bits/stl_algobase.h ****     __copy_move_backward_a(
 772:/Library/DaisyToolchain/0.2.0/arm/arm-none-eabi/include/c++/10.3.1/bits/stl_algobase.h **** 		const ::__gnu_debug::_Safe_iterator<_IIte, _ISeq, _ICat>&,
 773:/Library/DaisyToolchain/0.2.0/arm/arm-none-eabi/include/c++/10.3.1/bits/stl_algobase.h **** 		const ::__gnu_debug::_Safe_iterator<_IIte, _ISeq, _ICat>&,
 774:/Library/DaisyToolchain/0.2.0/arm/arm-none-eabi/include/c++/10.3.1/bits/stl_algobase.h **** 		const ::__gnu_debug::_Safe_iterator<_OIte, _OSeq, _OCat>&);
 775:/Library/DaisyToolchain/0.2.0/arm/arm-none-eabi/include/c++/10.3.1/bits/stl_algobase.h **** 
 776:/Library/DaisyToolchain/0.2.0/arm/arm-none-eabi/include/c++/10.3.1/bits/stl_algobase.h ****   /**
 777:/Library/DaisyToolchain/0.2.0/arm/arm-none-eabi/include/c++/10.3.1/bits/stl_algobase.h ****    *  @brief Copies the range [first,last) into result.
 778:/Library/DaisyToolchain/0.2.0/arm/arm-none-eabi/include/c++/10.3.1/bits/stl_algobase.h ****    *  @ingroup mutating_algorithms
 779:/Library/DaisyToolchain/0.2.0/arm/arm-none-eabi/include/c++/10.3.1/bits/stl_algobase.h ****    *  @param  __first  A bidirectional iterator.
 780:/Library/DaisyToolchain/0.2.0/arm/arm-none-eabi/include/c++/10.3.1/bits/stl_algobase.h ****    *  @param  __last   A bidirectional iterator.
 781:/Library/DaisyToolchain/0.2.0/arm/arm-none-eabi/include/c++/10.3.1/bits/stl_algobase.h ****    *  @param  __result A bidirectional iterator.
 782:/Library/DaisyToolchain/0.2.0/arm/arm-none-eabi/include/c++/10.3.1/bits/stl_algobase.h ****    *  @return   result - (last - first)
 783:/Library/DaisyToolchain/0.2.0/arm/arm-none-eabi/include/c++/10.3.1/bits/stl_algobase.h ****    *
 784:/Library/DaisyToolchain/0.2.0/arm/arm-none-eabi/include/c++/10.3.1/bits/stl_algobase.h ****    *  The function has the same effect as copy, but starts at the end of the
 785:/Library/DaisyToolchain/0.2.0/arm/arm-none-eabi/include/c++/10.3.1/bits/stl_algobase.h ****    *  range and works its way to the start, returning the start of the result.
 786:/Library/DaisyToolchain/0.2.0/arm/arm-none-eabi/include/c++/10.3.1/bits/stl_algobase.h ****    *  This inline function will boil down to a call to @c memmove whenever
 787:/Library/DaisyToolchain/0.2.0/arm/arm-none-eabi/include/c++/10.3.1/bits/stl_algobase.h ****    *  possible.  Failing that, if random access iterators are passed, then the
 788:/Library/DaisyToolchain/0.2.0/arm/arm-none-eabi/include/c++/10.3.1/bits/stl_algobase.h ****    *  loop count will be known (and therefore a candidate for compiler
 789:/Library/DaisyToolchain/0.2.0/arm/arm-none-eabi/include/c++/10.3.1/bits/stl_algobase.h ****    *  optimizations such as unrolling).
 790:/Library/DaisyToolchain/0.2.0/arm/arm-none-eabi/include/c++/10.3.1/bits/stl_algobase.h ****    *
 791:/Library/DaisyToolchain/0.2.0/arm/arm-none-eabi/include/c++/10.3.1/bits/stl_algobase.h ****    *  Result may not be in the range (first,last].  Use copy instead.  Note
 792:/Library/DaisyToolchain/0.2.0/arm/arm-none-eabi/include/c++/10.3.1/bits/stl_algobase.h ****    *  that the start of the output range may overlap [first,last).
 793:/Library/DaisyToolchain/0.2.0/arm/arm-none-eabi/include/c++/10.3.1/bits/stl_algobase.h ****   */
 794:/Library/DaisyToolchain/0.2.0/arm/arm-none-eabi/include/c++/10.3.1/bits/stl_algobase.h ****   template<typename _BI1, typename _BI2>
 795:/Library/DaisyToolchain/0.2.0/arm/arm-none-eabi/include/c++/10.3.1/bits/stl_algobase.h ****     _GLIBCXX20_CONSTEXPR
 796:/Library/DaisyToolchain/0.2.0/arm/arm-none-eabi/include/c++/10.3.1/bits/stl_algobase.h ****     inline _BI2
 797:/Library/DaisyToolchain/0.2.0/arm/arm-none-eabi/include/c++/10.3.1/bits/stl_algobase.h ****     copy_backward(_BI1 __first, _BI1 __last, _BI2 __result)
 798:/Library/DaisyToolchain/0.2.0/arm/arm-none-eabi/include/c++/10.3.1/bits/stl_algobase.h ****     {
 799:/Library/DaisyToolchain/0.2.0/arm/arm-none-eabi/include/c++/10.3.1/bits/stl_algobase.h ****       // concept requirements
 800:/Library/DaisyToolchain/0.2.0/arm/arm-none-eabi/include/c++/10.3.1/bits/stl_algobase.h ****       __glibcxx_function_requires(_BidirectionalIteratorConcept<_BI1>)
 801:/Library/DaisyToolchain/0.2.0/arm/arm-none-eabi/include/c++/10.3.1/bits/stl_algobase.h ****       __glibcxx_function_requires(_Mutable_BidirectionalIteratorConcept<_BI2>)
 802:/Library/DaisyToolchain/0.2.0/arm/arm-none-eabi/include/c++/10.3.1/bits/stl_algobase.h ****       __glibcxx_function_requires(_ConvertibleConcept<
 803:/Library/DaisyToolchain/0.2.0/arm/arm-none-eabi/include/c++/10.3.1/bits/stl_algobase.h **** 	    typename iterator_traits<_BI1>::value_type,
ARM GAS  /var/folders/9k/zk1mgrrd7wg4__6zvxvr9w8m0000gn/T//ccNsiQFA.s 			page 17


 804:/Library/DaisyToolchain/0.2.0/arm/arm-none-eabi/include/c++/10.3.1/bits/stl_algobase.h **** 	    typename iterator_traits<_BI2>::value_type>)
 805:/Library/DaisyToolchain/0.2.0/arm/arm-none-eabi/include/c++/10.3.1/bits/stl_algobase.h ****       __glibcxx_requires_can_decrement_range(__first, __last, __result);
 806:/Library/DaisyToolchain/0.2.0/arm/arm-none-eabi/include/c++/10.3.1/bits/stl_algobase.h **** 
 807:/Library/DaisyToolchain/0.2.0/arm/arm-none-eabi/include/c++/10.3.1/bits/stl_algobase.h ****       return std::__copy_move_backward_a<__is_move_iterator<_BI1>::__value>
 808:/Library/DaisyToolchain/0.2.0/arm/arm-none-eabi/include/c++/10.3.1/bits/stl_algobase.h **** 	     (std::__miter_base(__first), std::__miter_base(__last), __result);
 809:/Library/DaisyToolchain/0.2.0/arm/arm-none-eabi/include/c++/10.3.1/bits/stl_algobase.h ****     }
 810:/Library/DaisyToolchain/0.2.0/arm/arm-none-eabi/include/c++/10.3.1/bits/stl_algobase.h **** 
 811:/Library/DaisyToolchain/0.2.0/arm/arm-none-eabi/include/c++/10.3.1/bits/stl_algobase.h **** #if __cplusplus >= 201103L
 812:/Library/DaisyToolchain/0.2.0/arm/arm-none-eabi/include/c++/10.3.1/bits/stl_algobase.h ****   /**
 813:/Library/DaisyToolchain/0.2.0/arm/arm-none-eabi/include/c++/10.3.1/bits/stl_algobase.h ****    *  @brief Moves the range [first,last) into result.
 814:/Library/DaisyToolchain/0.2.0/arm/arm-none-eabi/include/c++/10.3.1/bits/stl_algobase.h ****    *  @ingroup mutating_algorithms
 815:/Library/DaisyToolchain/0.2.0/arm/arm-none-eabi/include/c++/10.3.1/bits/stl_algobase.h ****    *  @param  __first  A bidirectional iterator.
 816:/Library/DaisyToolchain/0.2.0/arm/arm-none-eabi/include/c++/10.3.1/bits/stl_algobase.h ****    *  @param  __last   A bidirectional iterator.
 817:/Library/DaisyToolchain/0.2.0/arm/arm-none-eabi/include/c++/10.3.1/bits/stl_algobase.h ****    *  @param  __result A bidirectional iterator.
 818:/Library/DaisyToolchain/0.2.0/arm/arm-none-eabi/include/c++/10.3.1/bits/stl_algobase.h ****    *  @return   result - (last - first)
 819:/Library/DaisyToolchain/0.2.0/arm/arm-none-eabi/include/c++/10.3.1/bits/stl_algobase.h ****    *
 820:/Library/DaisyToolchain/0.2.0/arm/arm-none-eabi/include/c++/10.3.1/bits/stl_algobase.h ****    *  The function has the same effect as move, but starts at the end of the
 821:/Library/DaisyToolchain/0.2.0/arm/arm-none-eabi/include/c++/10.3.1/bits/stl_algobase.h ****    *  range and works its way to the start, returning the start of the result.
 822:/Library/DaisyToolchain/0.2.0/arm/arm-none-eabi/include/c++/10.3.1/bits/stl_algobase.h ****    *  This inline function will boil down to a call to @c memmove whenever
 823:/Library/DaisyToolchain/0.2.0/arm/arm-none-eabi/include/c++/10.3.1/bits/stl_algobase.h ****    *  possible.  Failing that, if random access iterators are passed, then the
 824:/Library/DaisyToolchain/0.2.0/arm/arm-none-eabi/include/c++/10.3.1/bits/stl_algobase.h ****    *  loop count will be known (and therefore a candidate for compiler
 825:/Library/DaisyToolchain/0.2.0/arm/arm-none-eabi/include/c++/10.3.1/bits/stl_algobase.h ****    *  optimizations such as unrolling).
 826:/Library/DaisyToolchain/0.2.0/arm/arm-none-eabi/include/c++/10.3.1/bits/stl_algobase.h ****    *
 827:/Library/DaisyToolchain/0.2.0/arm/arm-none-eabi/include/c++/10.3.1/bits/stl_algobase.h ****    *  Result may not be in the range (first,last].  Use move instead.  Note
 828:/Library/DaisyToolchain/0.2.0/arm/arm-none-eabi/include/c++/10.3.1/bits/stl_algobase.h ****    *  that the start of the output range may overlap [first,last).
 829:/Library/DaisyToolchain/0.2.0/arm/arm-none-eabi/include/c++/10.3.1/bits/stl_algobase.h ****   */
 830:/Library/DaisyToolchain/0.2.0/arm/arm-none-eabi/include/c++/10.3.1/bits/stl_algobase.h ****   template<typename _BI1, typename _BI2>
 831:/Library/DaisyToolchain/0.2.0/arm/arm-none-eabi/include/c++/10.3.1/bits/stl_algobase.h ****     _GLIBCXX20_CONSTEXPR
 832:/Library/DaisyToolchain/0.2.0/arm/arm-none-eabi/include/c++/10.3.1/bits/stl_algobase.h ****     inline _BI2
 833:/Library/DaisyToolchain/0.2.0/arm/arm-none-eabi/include/c++/10.3.1/bits/stl_algobase.h ****     move_backward(_BI1 __first, _BI1 __last, _BI2 __result)
 834:/Library/DaisyToolchain/0.2.0/arm/arm-none-eabi/include/c++/10.3.1/bits/stl_algobase.h ****     {
 835:/Library/DaisyToolchain/0.2.0/arm/arm-none-eabi/include/c++/10.3.1/bits/stl_algobase.h ****       // concept requirements
 836:/Library/DaisyToolchain/0.2.0/arm/arm-none-eabi/include/c++/10.3.1/bits/stl_algobase.h ****       __glibcxx_function_requires(_BidirectionalIteratorConcept<_BI1>)
 837:/Library/DaisyToolchain/0.2.0/arm/arm-none-eabi/include/c++/10.3.1/bits/stl_algobase.h ****       __glibcxx_function_requires(_Mutable_BidirectionalIteratorConcept<_BI2>)
 838:/Library/DaisyToolchain/0.2.0/arm/arm-none-eabi/include/c++/10.3.1/bits/stl_algobase.h ****       __glibcxx_function_requires(_ConvertibleConcept<
 839:/Library/DaisyToolchain/0.2.0/arm/arm-none-eabi/include/c++/10.3.1/bits/stl_algobase.h **** 	    typename iterator_traits<_BI1>::value_type,
 840:/Library/DaisyToolchain/0.2.0/arm/arm-none-eabi/include/c++/10.3.1/bits/stl_algobase.h **** 	    typename iterator_traits<_BI2>::value_type>)
 841:/Library/DaisyToolchain/0.2.0/arm/arm-none-eabi/include/c++/10.3.1/bits/stl_algobase.h ****       __glibcxx_requires_can_decrement_range(__first, __last, __result);
 842:/Library/DaisyToolchain/0.2.0/arm/arm-none-eabi/include/c++/10.3.1/bits/stl_algobase.h **** 
 843:/Library/DaisyToolchain/0.2.0/arm/arm-none-eabi/include/c++/10.3.1/bits/stl_algobase.h ****       return std::__copy_move_backward_a<true>(std::__miter_base(__first),
 844:/Library/DaisyToolchain/0.2.0/arm/arm-none-eabi/include/c++/10.3.1/bits/stl_algobase.h **** 					       std::__miter_base(__last),
 845:/Library/DaisyToolchain/0.2.0/arm/arm-none-eabi/include/c++/10.3.1/bits/stl_algobase.h **** 					       __result);
 846:/Library/DaisyToolchain/0.2.0/arm/arm-none-eabi/include/c++/10.3.1/bits/stl_algobase.h ****     }
 847:/Library/DaisyToolchain/0.2.0/arm/arm-none-eabi/include/c++/10.3.1/bits/stl_algobase.h **** 
 848:/Library/DaisyToolchain/0.2.0/arm/arm-none-eabi/include/c++/10.3.1/bits/stl_algobase.h **** #define _GLIBCXX_MOVE_BACKWARD3(_Tp, _Up, _Vp) std::move_backward(_Tp, _Up, _Vp)
 849:/Library/DaisyToolchain/0.2.0/arm/arm-none-eabi/include/c++/10.3.1/bits/stl_algobase.h **** #else
 850:/Library/DaisyToolchain/0.2.0/arm/arm-none-eabi/include/c++/10.3.1/bits/stl_algobase.h **** #define _GLIBCXX_MOVE_BACKWARD3(_Tp, _Up, _Vp) std::copy_backward(_Tp, _Up, _Vp)
 851:/Library/DaisyToolchain/0.2.0/arm/arm-none-eabi/include/c++/10.3.1/bits/stl_algobase.h **** #endif
 852:/Library/DaisyToolchain/0.2.0/arm/arm-none-eabi/include/c++/10.3.1/bits/stl_algobase.h **** 
 853:/Library/DaisyToolchain/0.2.0/arm/arm-none-eabi/include/c++/10.3.1/bits/stl_algobase.h ****   template<typename _ForwardIterator, typename _Tp>
 854:/Library/DaisyToolchain/0.2.0/arm/arm-none-eabi/include/c++/10.3.1/bits/stl_algobase.h ****     _GLIBCXX20_CONSTEXPR
 855:/Library/DaisyToolchain/0.2.0/arm/arm-none-eabi/include/c++/10.3.1/bits/stl_algobase.h ****     inline typename
 856:/Library/DaisyToolchain/0.2.0/arm/arm-none-eabi/include/c++/10.3.1/bits/stl_algobase.h ****     __gnu_cxx::__enable_if<!__is_scalar<_Tp>::__value, void>::__type
 857:/Library/DaisyToolchain/0.2.0/arm/arm-none-eabi/include/c++/10.3.1/bits/stl_algobase.h ****     __fill_a1(_ForwardIterator __first, _ForwardIterator __last,
 858:/Library/DaisyToolchain/0.2.0/arm/arm-none-eabi/include/c++/10.3.1/bits/stl_algobase.h **** 	      const _Tp& __value)
 859:/Library/DaisyToolchain/0.2.0/arm/arm-none-eabi/include/c++/10.3.1/bits/stl_algobase.h ****     {
 860:/Library/DaisyToolchain/0.2.0/arm/arm-none-eabi/include/c++/10.3.1/bits/stl_algobase.h ****       for (; __first != __last; ++__first)
ARM GAS  /var/folders/9k/zk1mgrrd7wg4__6zvxvr9w8m0000gn/T//ccNsiQFA.s 			page 18


 861:/Library/DaisyToolchain/0.2.0/arm/arm-none-eabi/include/c++/10.3.1/bits/stl_algobase.h **** 	*__first = __value;
 862:/Library/DaisyToolchain/0.2.0/arm/arm-none-eabi/include/c++/10.3.1/bits/stl_algobase.h ****     }
 863:/Library/DaisyToolchain/0.2.0/arm/arm-none-eabi/include/c++/10.3.1/bits/stl_algobase.h **** 
 864:/Library/DaisyToolchain/0.2.0/arm/arm-none-eabi/include/c++/10.3.1/bits/stl_algobase.h ****   template<typename _ForwardIterator, typename _Tp>
 865:/Library/DaisyToolchain/0.2.0/arm/arm-none-eabi/include/c++/10.3.1/bits/stl_algobase.h ****     _GLIBCXX20_CONSTEXPR
 866:/Library/DaisyToolchain/0.2.0/arm/arm-none-eabi/include/c++/10.3.1/bits/stl_algobase.h ****     inline typename
 867:/Library/DaisyToolchain/0.2.0/arm/arm-none-eabi/include/c++/10.3.1/bits/stl_algobase.h ****     __gnu_cxx::__enable_if<__is_scalar<_Tp>::__value, void>::__type
 868:/Library/DaisyToolchain/0.2.0/arm/arm-none-eabi/include/c++/10.3.1/bits/stl_algobase.h ****     __fill_a1(_ForwardIterator __first, _ForwardIterator __last,
 869:/Library/DaisyToolchain/0.2.0/arm/arm-none-eabi/include/c++/10.3.1/bits/stl_algobase.h **** 	      const _Tp& __value)
 870:/Library/DaisyToolchain/0.2.0/arm/arm-none-eabi/include/c++/10.3.1/bits/stl_algobase.h ****     {
 871:/Library/DaisyToolchain/0.2.0/arm/arm-none-eabi/include/c++/10.3.1/bits/stl_algobase.h ****       const _Tp __tmp = __value;
 872:/Library/DaisyToolchain/0.2.0/arm/arm-none-eabi/include/c++/10.3.1/bits/stl_algobase.h ****       for (; __first != __last; ++__first)
 873:/Library/DaisyToolchain/0.2.0/arm/arm-none-eabi/include/c++/10.3.1/bits/stl_algobase.h **** 	*__first = __tmp;
  56              		.loc 2 873 11 is_stmt 0 view .LVU9
  57 000e 2822     		movs	r2, #40
  58              	.LBE60:
  59              	.LBE59:
  60              	.LBE58:
  61              	.LBE57:
  45:mi/plaits/dsp/speech/lpc_speech_synth.cpp ****   noise_energy_ = 0.0f;
  62              		.loc 1 45 14 view .LVU10
  63 0010 C0F804C0 		str	ip, [r0, #4]	@ float
  46:mi/plaits/dsp/speech/lpc_speech_synth.cpp ****   pulse_energy_ = 0.0f;
  64              		.loc 1 46 3 is_stmt 1 view .LVU11
  65              	.LBB70:
  66              	.LBB67:
  67              	.LBB64:
  68              	.LBB61:
  69              		.loc 2 873 11 is_stmt 0 view .LVU12
  70 0014 1830     		adds	r0, r0, #24
  71              	.LVL1:
  72              		.loc 2 873 11 view .LVU13
  73              	.LBE61:
  74              	.LBE64:
  75              	.LBE67:
  76              	.LBE70:
  46:mi/plaits/dsp/speech/lpc_speech_synth.cpp ****   pulse_energy_ = 0.0f;
  77              		.loc 1 46 17 view .LVU14
  78 0016 40F8103C 		str	r3, [r0, #-16]	@ float
  47:mi/plaits/dsp/speech/lpc_speech_synth.cpp **** 
  79              		.loc 1 47 3 is_stmt 1 view .LVU15
  47:mi/plaits/dsp/speech/lpc_speech_synth.cpp **** 
  80              		.loc 1 47 17 is_stmt 0 view .LVU16
  81 001a 40F80C3C 		str	r3, [r0, #-12]	@ float
  49:mi/plaits/dsp/speech/lpc_speech_synth.cpp ****   excitation_pulse_sample_index_ = 0;
  82              		.loc 1 49 3 is_stmt 1 view .LVU17
  49:mi/plaits/dsp/speech/lpc_speech_synth.cpp ****   excitation_pulse_sample_index_ = 0;
  83              		.loc 1 49 16 is_stmt 0 view .LVU18
  84 001e 40F8083C 		str	r3, [r0, #-8]	@ float
  85              		.loc 1 50 3 is_stmt 1 view .LVU19
  51:mi/plaits/dsp/speech/lpc_speech_synth.cpp **** 
  52:mi/plaits/dsp/speech/lpc_speech_synth.cpp ****   fill(&k_[0], &k_[kLPCOrder], 0);
  86              		.loc 1 52 3 view .LVU20
  87              	.LVL2:
  88              	.LBB71:
  89              	.LBI57:
 874:/Library/DaisyToolchain/0.2.0/arm/arm-none-eabi/include/c++/10.3.1/bits/stl_algobase.h ****     }
ARM GAS  /var/folders/9k/zk1mgrrd7wg4__6zvxvr9w8m0000gn/T//ccNsiQFA.s 			page 19


 875:/Library/DaisyToolchain/0.2.0/arm/arm-none-eabi/include/c++/10.3.1/bits/stl_algobase.h **** 
 876:/Library/DaisyToolchain/0.2.0/arm/arm-none-eabi/include/c++/10.3.1/bits/stl_algobase.h ****   // Specialization: for char types we can use memset.
 877:/Library/DaisyToolchain/0.2.0/arm/arm-none-eabi/include/c++/10.3.1/bits/stl_algobase.h ****   template<typename _Tp>
 878:/Library/DaisyToolchain/0.2.0/arm/arm-none-eabi/include/c++/10.3.1/bits/stl_algobase.h ****     _GLIBCXX20_CONSTEXPR
 879:/Library/DaisyToolchain/0.2.0/arm/arm-none-eabi/include/c++/10.3.1/bits/stl_algobase.h ****     inline typename
 880:/Library/DaisyToolchain/0.2.0/arm/arm-none-eabi/include/c++/10.3.1/bits/stl_algobase.h ****     __gnu_cxx::__enable_if<__is_byte<_Tp>::__value, void>::__type
 881:/Library/DaisyToolchain/0.2.0/arm/arm-none-eabi/include/c++/10.3.1/bits/stl_algobase.h ****     __fill_a1(_Tp* __first, _Tp* __last, const _Tp& __c)
 882:/Library/DaisyToolchain/0.2.0/arm/arm-none-eabi/include/c++/10.3.1/bits/stl_algobase.h ****     {
 883:/Library/DaisyToolchain/0.2.0/arm/arm-none-eabi/include/c++/10.3.1/bits/stl_algobase.h ****       const _Tp __tmp = __c;
 884:/Library/DaisyToolchain/0.2.0/arm/arm-none-eabi/include/c++/10.3.1/bits/stl_algobase.h **** #if __cpp_lib_is_constant_evaluated
 885:/Library/DaisyToolchain/0.2.0/arm/arm-none-eabi/include/c++/10.3.1/bits/stl_algobase.h ****       if (std::is_constant_evaluated())
 886:/Library/DaisyToolchain/0.2.0/arm/arm-none-eabi/include/c++/10.3.1/bits/stl_algobase.h **** 	{
 887:/Library/DaisyToolchain/0.2.0/arm/arm-none-eabi/include/c++/10.3.1/bits/stl_algobase.h **** 	  for (; __first != __last; ++__first)
 888:/Library/DaisyToolchain/0.2.0/arm/arm-none-eabi/include/c++/10.3.1/bits/stl_algobase.h **** 	    *__first = __tmp;
 889:/Library/DaisyToolchain/0.2.0/arm/arm-none-eabi/include/c++/10.3.1/bits/stl_algobase.h **** 	  return;
 890:/Library/DaisyToolchain/0.2.0/arm/arm-none-eabi/include/c++/10.3.1/bits/stl_algobase.h **** 	}
 891:/Library/DaisyToolchain/0.2.0/arm/arm-none-eabi/include/c++/10.3.1/bits/stl_algobase.h **** #endif
 892:/Library/DaisyToolchain/0.2.0/arm/arm-none-eabi/include/c++/10.3.1/bits/stl_algobase.h ****       if (const size_t __len = __last - __first)
 893:/Library/DaisyToolchain/0.2.0/arm/arm-none-eabi/include/c++/10.3.1/bits/stl_algobase.h **** 	__builtin_memset(__first, static_cast<unsigned char>(__tmp), __len);
 894:/Library/DaisyToolchain/0.2.0/arm/arm-none-eabi/include/c++/10.3.1/bits/stl_algobase.h ****     }
 895:/Library/DaisyToolchain/0.2.0/arm/arm-none-eabi/include/c++/10.3.1/bits/stl_algobase.h **** 
 896:/Library/DaisyToolchain/0.2.0/arm/arm-none-eabi/include/c++/10.3.1/bits/stl_algobase.h ****   template<typename _Ite, typename _Cont, typename _Tp>
 897:/Library/DaisyToolchain/0.2.0/arm/arm-none-eabi/include/c++/10.3.1/bits/stl_algobase.h ****     _GLIBCXX20_CONSTEXPR
 898:/Library/DaisyToolchain/0.2.0/arm/arm-none-eabi/include/c++/10.3.1/bits/stl_algobase.h ****     inline void
 899:/Library/DaisyToolchain/0.2.0/arm/arm-none-eabi/include/c++/10.3.1/bits/stl_algobase.h ****     __fill_a1(::__gnu_cxx::__normal_iterator<_Ite, _Cont> __first,
 900:/Library/DaisyToolchain/0.2.0/arm/arm-none-eabi/include/c++/10.3.1/bits/stl_algobase.h **** 	      ::__gnu_cxx::__normal_iterator<_Ite, _Cont> __last,
 901:/Library/DaisyToolchain/0.2.0/arm/arm-none-eabi/include/c++/10.3.1/bits/stl_algobase.h **** 	      const _Tp& __value)
 902:/Library/DaisyToolchain/0.2.0/arm/arm-none-eabi/include/c++/10.3.1/bits/stl_algobase.h ****     { std::__fill_a1(__first.base(), __last.base(), __value); }
 903:/Library/DaisyToolchain/0.2.0/arm/arm-none-eabi/include/c++/10.3.1/bits/stl_algobase.h **** 
 904:/Library/DaisyToolchain/0.2.0/arm/arm-none-eabi/include/c++/10.3.1/bits/stl_algobase.h ****   template<typename _Tp, typename _VTp>
 905:/Library/DaisyToolchain/0.2.0/arm/arm-none-eabi/include/c++/10.3.1/bits/stl_algobase.h ****     void
 906:/Library/DaisyToolchain/0.2.0/arm/arm-none-eabi/include/c++/10.3.1/bits/stl_algobase.h ****     __fill_a1(const _GLIBCXX_STD_C::_Deque_iterator<_Tp, _Tp&, _Tp*>&,
 907:/Library/DaisyToolchain/0.2.0/arm/arm-none-eabi/include/c++/10.3.1/bits/stl_algobase.h **** 	      const _GLIBCXX_STD_C::_Deque_iterator<_Tp, _Tp&, _Tp*>&,
 908:/Library/DaisyToolchain/0.2.0/arm/arm-none-eabi/include/c++/10.3.1/bits/stl_algobase.h **** 	      const _VTp&);
 909:/Library/DaisyToolchain/0.2.0/arm/arm-none-eabi/include/c++/10.3.1/bits/stl_algobase.h **** 
 910:/Library/DaisyToolchain/0.2.0/arm/arm-none-eabi/include/c++/10.3.1/bits/stl_algobase.h ****   template<typename _FIte, typename _Tp>
 911:/Library/DaisyToolchain/0.2.0/arm/arm-none-eabi/include/c++/10.3.1/bits/stl_algobase.h ****     _GLIBCXX20_CONSTEXPR
 912:/Library/DaisyToolchain/0.2.0/arm/arm-none-eabi/include/c++/10.3.1/bits/stl_algobase.h ****     inline void
 913:/Library/DaisyToolchain/0.2.0/arm/arm-none-eabi/include/c++/10.3.1/bits/stl_algobase.h ****     __fill_a(_FIte __first, _FIte __last, const _Tp& __value)
 914:/Library/DaisyToolchain/0.2.0/arm/arm-none-eabi/include/c++/10.3.1/bits/stl_algobase.h ****     { std::__fill_a1(__first, __last, __value); }
 915:/Library/DaisyToolchain/0.2.0/arm/arm-none-eabi/include/c++/10.3.1/bits/stl_algobase.h **** 
 916:/Library/DaisyToolchain/0.2.0/arm/arm-none-eabi/include/c++/10.3.1/bits/stl_algobase.h ****   template<typename _Ite, typename _Seq, typename _Cat, typename _Tp>
 917:/Library/DaisyToolchain/0.2.0/arm/arm-none-eabi/include/c++/10.3.1/bits/stl_algobase.h ****     void
 918:/Library/DaisyToolchain/0.2.0/arm/arm-none-eabi/include/c++/10.3.1/bits/stl_algobase.h ****     __fill_a(const ::__gnu_debug::_Safe_iterator<_Ite, _Seq, _Cat>&,
 919:/Library/DaisyToolchain/0.2.0/arm/arm-none-eabi/include/c++/10.3.1/bits/stl_algobase.h **** 	     const ::__gnu_debug::_Safe_iterator<_Ite, _Seq, _Cat>&,
 920:/Library/DaisyToolchain/0.2.0/arm/arm-none-eabi/include/c++/10.3.1/bits/stl_algobase.h **** 	     const _Tp&);
 921:/Library/DaisyToolchain/0.2.0/arm/arm-none-eabi/include/c++/10.3.1/bits/stl_algobase.h **** 
 922:/Library/DaisyToolchain/0.2.0/arm/arm-none-eabi/include/c++/10.3.1/bits/stl_algobase.h ****   /**
 923:/Library/DaisyToolchain/0.2.0/arm/arm-none-eabi/include/c++/10.3.1/bits/stl_algobase.h ****    *  @brief Fills the range [first,last) with copies of value.
 924:/Library/DaisyToolchain/0.2.0/arm/arm-none-eabi/include/c++/10.3.1/bits/stl_algobase.h ****    *  @ingroup mutating_algorithms
 925:/Library/DaisyToolchain/0.2.0/arm/arm-none-eabi/include/c++/10.3.1/bits/stl_algobase.h ****    *  @param  __first  A forward iterator.
 926:/Library/DaisyToolchain/0.2.0/arm/arm-none-eabi/include/c++/10.3.1/bits/stl_algobase.h ****    *  @param  __last   A forward iterator.
 927:/Library/DaisyToolchain/0.2.0/arm/arm-none-eabi/include/c++/10.3.1/bits/stl_algobase.h ****    *  @param  __value  A reference-to-const of arbitrary type.
 928:/Library/DaisyToolchain/0.2.0/arm/arm-none-eabi/include/c++/10.3.1/bits/stl_algobase.h ****    *  @return   Nothing.
 929:/Library/DaisyToolchain/0.2.0/arm/arm-none-eabi/include/c++/10.3.1/bits/stl_algobase.h ****    *
 930:/Library/DaisyToolchain/0.2.0/arm/arm-none-eabi/include/c++/10.3.1/bits/stl_algobase.h ****    *  This function fills a range with copies of the same value.  For char
 931:/Library/DaisyToolchain/0.2.0/arm/arm-none-eabi/include/c++/10.3.1/bits/stl_algobase.h ****    *  types filling contiguous areas of memory, this becomes an inline call
ARM GAS  /var/folders/9k/zk1mgrrd7wg4__6zvxvr9w8m0000gn/T//ccNsiQFA.s 			page 20


 932:/Library/DaisyToolchain/0.2.0/arm/arm-none-eabi/include/c++/10.3.1/bits/stl_algobase.h ****    *  to @c memset or @c wmemset.
 933:/Library/DaisyToolchain/0.2.0/arm/arm-none-eabi/include/c++/10.3.1/bits/stl_algobase.h ****   */
 934:/Library/DaisyToolchain/0.2.0/arm/arm-none-eabi/include/c++/10.3.1/bits/stl_algobase.h ****   template<typename _ForwardIterator, typename _Tp>
 935:/Library/DaisyToolchain/0.2.0/arm/arm-none-eabi/include/c++/10.3.1/bits/stl_algobase.h ****     _GLIBCXX20_CONSTEXPR
 936:/Library/DaisyToolchain/0.2.0/arm/arm-none-eabi/include/c++/10.3.1/bits/stl_algobase.h ****     inline void
 937:/Library/DaisyToolchain/0.2.0/arm/arm-none-eabi/include/c++/10.3.1/bits/stl_algobase.h ****     fill(_ForwardIterator __first, _ForwardIterator __last, const _Tp& __value)
  90              		.loc 2 937 5 view .LVU21
  91              	.LBB68:
  92              	.LBI58:
 913:/Library/DaisyToolchain/0.2.0/arm/arm-none-eabi/include/c++/10.3.1/bits/stl_algobase.h ****     { std::__fill_a1(__first, __last, __value); }
  93              		.loc 2 913 5 view .LVU22
  94              	.LBB65:
  95              	.LBI59:
 868:/Library/DaisyToolchain/0.2.0/arm/arm-none-eabi/include/c++/10.3.1/bits/stl_algobase.h **** 	      const _Tp& __value)
  96              		.loc 2 868 5 view .LVU23
  97              	.LBB62:
 872:/Library/DaisyToolchain/0.2.0/arm/arm-none-eabi/include/c++/10.3.1/bits/stl_algobase.h **** 	*__first = __tmp;
  98              		.loc 2 872 22 view .LVU24
  99              	.LBE62:
 100              	.LBE65:
 101              	.LBE68:
 102              	.LBE71:
  50:mi/plaits/dsp/speech/lpc_speech_synth.cpp **** 
 103              		.loc 1 50 34 is_stmt 0 view .LVU25
 104 0022 6161     		str	r1, [r4, #20]
 105              	.LBB72:
 106              	.LBB69:
 107              	.LBB66:
 108              	.LBB63:
 873:/Library/DaisyToolchain/0.2.0/arm/arm-none-eabi/include/c++/10.3.1/bits/stl_algobase.h ****     }
 109              		.loc 2 873 11 view .LVU26
 110 0024 FFF7FEFF 		bl	memset
 111              	.LVL3:
 873:/Library/DaisyToolchain/0.2.0/arm/arm-none-eabi/include/c++/10.3.1/bits/stl_algobase.h ****     }
 112              		.loc 2 873 11 view .LVU27
 113              	.LBE63:
 114              	.LBE66:
 115              	.LBE69:
 116              	.LBE72:
  53:mi/plaits/dsp/speech/lpc_speech_synth.cpp ****   fill(&s_[0], &s_[kLPCOrder + 1], 0);
 117              		.loc 1 53 3 is_stmt 1 view .LVU28
 118              	.LBB73:
 119              	.LBI73:
 120              		.loc 2 937 5 view .LVU29
 121              	.LBB74:
 122              	.LBI74:
 913:/Library/DaisyToolchain/0.2.0/arm/arm-none-eabi/include/c++/10.3.1/bits/stl_algobase.h ****     { std::__fill_a1(__first, __last, __value); }
 123              		.loc 2 913 5 view .LVU30
 124              	.LBB75:
 125              	.LBI75:
 868:/Library/DaisyToolchain/0.2.0/arm/arm-none-eabi/include/c++/10.3.1/bits/stl_algobase.h **** 	      const _Tp& __value)
 126              		.loc 2 868 5 view .LVU31
 127              	.LBB76:
 872:/Library/DaisyToolchain/0.2.0/arm/arm-none-eabi/include/c++/10.3.1/bits/stl_algobase.h **** 	*__first = __tmp;
 128              		.loc 2 872 22 view .LVU32
 873:/Library/DaisyToolchain/0.2.0/arm/arm-none-eabi/include/c++/10.3.1/bits/stl_algobase.h ****     }
 129              		.loc 2 873 11 is_stmt 0 view .LVU33
ARM GAS  /var/folders/9k/zk1mgrrd7wg4__6zvxvr9w8m0000gn/T//ccNsiQFA.s 			page 21


 130 0028 04F14000 		add	r0, r4, #64
 131              	.LVL4:
 873:/Library/DaisyToolchain/0.2.0/arm/arm-none-eabi/include/c++/10.3.1/bits/stl_algobase.h ****     }
 132              		.loc 2 873 11 view .LVU34
 133 002c 2C22     		movs	r2, #44
 134 002e 0021     		movs	r1, #0
 135              	.LBE76:
 136              	.LBE75:
 137              	.LBE74:
 138              	.LBE73:
  54:mi/plaits/dsp/speech/lpc_speech_synth.cpp **** }
 139              		.loc 1 54 1 view .LVU35
 140 0030 BDE81040 		pop	{r4, lr}
 141              		.cfi_restore 14
 142              		.cfi_restore 4
 143              		.cfi_def_cfa_offset 0
 144              	.LVL5:
 145              	.LBB80:
 146              	.LBB79:
 147              	.LBB78:
 148              	.LBB77:
 873:/Library/DaisyToolchain/0.2.0/arm/arm-none-eabi/include/c++/10.3.1/bits/stl_algobase.h ****     }
 149              		.loc 2 873 11 view .LVU36
 150 0034 FFF7FEBF 		b	memset
 151              	.LVL6:
 152              	.L5:
 873:/Library/DaisyToolchain/0.2.0/arm/arm-none-eabi/include/c++/10.3.1/bits/stl_algobase.h ****     }
 153              		.loc 2 873 11 view .LVU37
 154              		.align	2
 155              	.L4:
 156 0038 CDCC4C3C 		.word	1011666125
 157              	.LBE77:
 158              	.LBE78:
 159              	.LBE79:
 160              	.LBE80:
 161              		.cfi_endproc
 162              	.LFE1454:
 164              		.section	.text._ZN6plaits14LPCSpeechSynth6RenderEffPfS1_j,"ax",%progbits
 165              		.align	1
 166              		.p2align 2,,3
 167              		.global	_ZN6plaits14LPCSpeechSynth6RenderEffPfS1_j
 168              		.syntax unified
 169              		.thumb
 170              		.thumb_func
 172              	_ZN6plaits14LPCSpeechSynth6RenderEffPfS1_j:
 173              	.LVL7:
 174              	.LFB1455:
  55:mi/plaits/dsp/speech/lpc_speech_synth.cpp **** 
  56:mi/plaits/dsp/speech/lpc_speech_synth.cpp **** void LPCSpeechSynth::Render(
  57:mi/plaits/dsp/speech/lpc_speech_synth.cpp ****     float prosody_amount,
  58:mi/plaits/dsp/speech/lpc_speech_synth.cpp ****     float pitch_shift,
  59:mi/plaits/dsp/speech/lpc_speech_synth.cpp ****     float* excitation,
  60:mi/plaits/dsp/speech/lpc_speech_synth.cpp ****     float* output,
  61:mi/plaits/dsp/speech/lpc_speech_synth.cpp ****     size_t size) {
 175              		.loc 1 61 18 is_stmt 1 view -0
 176              		.cfi_startproc
 177              		@ args = 0, pretend = 0, frame = 0
ARM GAS  /var/folders/9k/zk1mgrrd7wg4__6zvxvr9w8m0000gn/T//ccNsiQFA.s 			page 22


 178              		@ frame_needed = 0, uses_anonymous_args = 0
 179              		@ link register save eliminated.
  62:mi/plaits/dsp/speech/lpc_speech_synth.cpp ****   const float base_f0 = kLPCSpeechSynthDefaultF0 / 8000.0f;
 180              		.loc 1 62 3 view .LVU39
  63:mi/plaits/dsp/speech/lpc_speech_synth.cpp ****   float d = frequency_ - base_f0;
 181              		.loc 1 63 3 view .LVU40
 182              		.loc 1 63 9 is_stmt 0 view .LVU41
 183 0000 DFED9C7A 		vldr.32	s15, .L36
 184              	.LVL8:
  64:mi/plaits/dsp/speech/lpc_speech_synth.cpp ****   float f = (base_f0 + d * prosody_amount) * pitch_shift;
 185              		.loc 1 64 3 is_stmt 1 view .LVU42
  63:mi/plaits/dsp/speech/lpc_speech_synth.cpp ****   float d = frequency_ - base_f0;
 186              		.loc 1 63 9 is_stmt 0 view .LVU43
 187 0004 90ED017A 		vldr.32	s14, [r0, #4]
 188 0008 37EE677A 		vsub.f32	s14, s14, s15
 189              	.LVL9:
 190              		.loc 1 64 22 view .LVU44
 191 000c E7EE007A 		vfma.f32	s15, s14, s0
 192              		.loc 1 64 9 view .LVU45
 193 0010 67EEA00A 		vmul.f32	s1, s15, s1
 194              	.LVL10:
  65:mi/plaits/dsp/speech/lpc_speech_synth.cpp ****   CONSTRAIN(f, 0.0f, 0.5f);
 195              		.loc 1 65 3 is_stmt 1 view .LVU46
 196 0014 F5EEC00A 		vcmpe.f32	s1, #0
 197 0018 F1EE10FA 		vmrs	APSR_nzcv, FPSCR
 198 001c 00F11D81 		bmi	.L19
 199              		.loc 1 65 3 discriminator 2 view .LVU47
 200 0020 F6EE007A 		vmov.f32	s15, #5.0e-1
  66:mi/plaits/dsp/speech/lpc_speech_synth.cpp ****   
  67:mi/plaits/dsp/speech/lpc_speech_synth.cpp ****   float next_sample = next_sample_;
 201              		.loc 1 67 9 is_stmt 0 discriminator 2 view .LVU48
 202 0024 D0ED041A 		vldr.32	s3, [r0, #16]
  68:mi/plaits/dsp/speech/lpc_speech_synth.cpp ****   while (size--) {
 203              		.loc 1 68 14 discriminator 2 view .LVU49
 204 0028 03F1FF3C 		add	ip, r3, #-1
  65:mi/plaits/dsp/speech/lpc_speech_synth.cpp ****   CONSTRAIN(f, 0.0f, 0.5f);
 205              		.loc 1 65 3 discriminator 2 view .LVU50
 206 002c F4EE670A 		vcmp.f32	s1, s15
 207 0030 F1EE10FA 		vmrs	APSR_nzcv, FPSCR
 208 0034 77FEA00A 		vselgt.f32	s1, s15, s1
 209              	.LVL11:
  65:mi/plaits/dsp/speech/lpc_speech_synth.cpp ****   CONSTRAIN(f, 0.0f, 0.5f);
 210              		.loc 1 65 27 is_stmt 1 discriminator 2 view .LVU51
  67:mi/plaits/dsp/speech/lpc_speech_synth.cpp ****   while (size--) {
 211              		.loc 1 67 3 discriminator 2 view .LVU52
 212              		.loc 1 68 3 discriminator 2 view .LVU53
 213              		.loc 1 68 14 discriminator 2 view .LVU54
 214              		.loc 1 68 14 is_stmt 0 discriminator 2 view .LVU55
 215 0038 002B     		cmp	r3, #0
 216 003a 00F01781 		beq	.L29
 217              	.L35:
  61:mi/plaits/dsp/speech/lpc_speech_synth.cpp ****   const float base_f0 = kLPCSpeechSynthDefaultF0 / 8000.0f;
 218              		.loc 1 61 18 view .LVU56
 219 003e F0B4     		push	{r4, r5, r6, r7}
 220              		.cfi_def_cfa_offset 16
 221              		.cfi_offset 4, -16
 222              		.cfi_offset 5, -12
ARM GAS  /var/folders/9k/zk1mgrrd7wg4__6zvxvr9w8m0000gn/T//ccNsiQFA.s 			page 23


 223              		.cfi_offset 6, -8
 224              		.cfi_offset 7, -4
 225 0040 8D4F     		ldr	r7, .L36+4
 226 0042 2DED108B 		vpush.64	{d8, d9, d10, d11, d12, d13, d14, d15}
 227              		.cfi_def_cfa_offset 80
 228              		.cfi_offset 80, -80
 229              		.cfi_offset 81, -76
 230              		.cfi_offset 82, -72
 231              		.cfi_offset 83, -68
 232              		.cfi_offset 84, -64
 233              		.cfi_offset 85, -60
 234              		.cfi_offset 86, -56
 235              		.cfi_offset 87, -52
 236              		.cfi_offset 88, -48
 237              		.cfi_offset 89, -44
 238              		.cfi_offset 90, -40
 239              		.cfi_offset 91, -36
 240              		.cfi_offset 92, -32
 241              		.cfi_offset 93, -28
 242              		.cfi_offset 94, -24
 243              		.cfi_offset 95, -20
 244 0046 3C68     		ldr	r4, [r7]
 245 0048 37E0     		b	.L18
 246              	.LVL12:
 247              	.L34:
 248              	.LBB81:
  69:mi/plaits/dsp/speech/lpc_speech_synth.cpp ****     phase_ += f;
  70:mi/plaits/dsp/speech/lpc_speech_synth.cpp ****     
  71:mi/plaits/dsp/speech/lpc_speech_synth.cpp ****     float this_sample = next_sample;
  72:mi/plaits/dsp/speech/lpc_speech_synth.cpp ****     next_sample = 0.0f;
  73:mi/plaits/dsp/speech/lpc_speech_synth.cpp ****     
  74:mi/plaits/dsp/speech/lpc_speech_synth.cpp ****     if (phase_ >= 1.0f) {
  75:mi/plaits/dsp/speech/lpc_speech_synth.cpp ****       phase_ -= 1.0f;
  76:mi/plaits/dsp/speech/lpc_speech_synth.cpp ****       float reset_time = phase_ / f;
  77:mi/plaits/dsp/speech/lpc_speech_synth.cpp ****       int reset_sample = static_cast<int>(32.0f * reset_time);
  78:mi/plaits/dsp/speech/lpc_speech_synth.cpp ****       
  79:mi/plaits/dsp/speech/lpc_speech_synth.cpp ****       float discontinuity = 0.0f;
  80:mi/plaits/dsp/speech/lpc_speech_synth.cpp ****       if (excitation_pulse_sample_index_ < LUT_LPC_EXCITATION_PULSE_SIZE) {
  81:mi/plaits/dsp/speech/lpc_speech_synth.cpp ****         excitation_pulse_sample_index_ -= reset_sample;
  82:mi/plaits/dsp/speech/lpc_speech_synth.cpp ****         int8_t s = lut_lpc_excitation_pulse[excitation_pulse_sample_index_];
  83:mi/plaits/dsp/speech/lpc_speech_synth.cpp ****         discontinuity = static_cast<float>(s) / 128.0f * pulse_energy_;
  84:mi/plaits/dsp/speech/lpc_speech_synth.cpp ****       }
  85:mi/plaits/dsp/speech/lpc_speech_synth.cpp ****       
  86:mi/plaits/dsp/speech/lpc_speech_synth.cpp ****       this_sample += -discontinuity * ThisBlepSample(reset_time);
  87:mi/plaits/dsp/speech/lpc_speech_synth.cpp ****       next_sample += -discontinuity * NextBlepSample(reset_time);
  88:mi/plaits/dsp/speech/lpc_speech_synth.cpp ****       
  89:mi/plaits/dsp/speech/lpc_speech_synth.cpp ****       excitation_pulse_sample_index_ = reset_sample;
  90:mi/plaits/dsp/speech/lpc_speech_synth.cpp ****     }
  91:mi/plaits/dsp/speech/lpc_speech_synth.cpp ****     
  92:mi/plaits/dsp/speech/lpc_speech_synth.cpp ****     float e[11];
  93:mi/plaits/dsp/speech/lpc_speech_synth.cpp ****     e[10] = Random::GetSample() > 0 ? noise_energy_ : -noise_energy_;
  94:mi/plaits/dsp/speech/lpc_speech_synth.cpp ****     if (excitation_pulse_sample_index_ < LUT_LPC_EXCITATION_PULSE_SIZE) {
  95:mi/plaits/dsp/speech/lpc_speech_synth.cpp ****       int8_t s = lut_lpc_excitation_pulse[excitation_pulse_sample_index_];
  96:mi/plaits/dsp/speech/lpc_speech_synth.cpp ****       next_sample += static_cast<float>(s) / 128.0f * pulse_energy_;
  97:mi/plaits/dsp/speech/lpc_speech_synth.cpp ****       excitation_pulse_sample_index_ += 32;
  98:mi/plaits/dsp/speech/lpc_speech_synth.cpp ****     }
  99:mi/plaits/dsp/speech/lpc_speech_synth.cpp ****     e[10] += this_sample;
ARM GAS  /var/folders/9k/zk1mgrrd7wg4__6zvxvr9w8m0000gn/T//ccNsiQFA.s 			page 24


 100:mi/plaits/dsp/speech/lpc_speech_synth.cpp ****     e[10] *= 1.5f;
 101:mi/plaits/dsp/speech/lpc_speech_synth.cpp ****   
 102:mi/plaits/dsp/speech/lpc_speech_synth.cpp ****     e[9] = e[10] - k_[9] * s_[9];
 103:mi/plaits/dsp/speech/lpc_speech_synth.cpp ****     e[8] = e[9] - k_[8] * s_[8];
 104:mi/plaits/dsp/speech/lpc_speech_synth.cpp ****     e[7] = e[8] - k_[7] * s_[7];
 105:mi/plaits/dsp/speech/lpc_speech_synth.cpp ****     e[6] = e[7] - k_[6] * s_[6];
 106:mi/plaits/dsp/speech/lpc_speech_synth.cpp ****     e[5] = e[6] - k_[5] * s_[5];
 107:mi/plaits/dsp/speech/lpc_speech_synth.cpp ****     e[4] = e[5] - k_[4] * s_[4];
 108:mi/plaits/dsp/speech/lpc_speech_synth.cpp ****     e[3] = e[4] - k_[3] * s_[3];
 109:mi/plaits/dsp/speech/lpc_speech_synth.cpp ****     e[2] = e[3] - k_[2] * s_[2];
 110:mi/plaits/dsp/speech/lpc_speech_synth.cpp ****     e[1] = e[2] - k_[1] * s_[1];
 111:mi/plaits/dsp/speech/lpc_speech_synth.cpp ****     e[0] = e[1] - k_[0] * s_[0];
 112:mi/plaits/dsp/speech/lpc_speech_synth.cpp ****   
 113:mi/plaits/dsp/speech/lpc_speech_synth.cpp ****     CONSTRAIN(e[0], -2.0f, 2.0f);
 249              		.loc 1 113 5 is_stmt 1 discriminator 2 view .LVU57
 250 004a B0EE00FA 		vmov.f32	s30, #2.0e+0
 251 004e F4EE4F7A 		vcmp.f32	s15, s30
 252 0052 F1EE10FA 		vmrs	APSR_nzcv, FPSCR
 253 0056 7FFE277A 		vselgt.f32	s15, s30, s15
 254              	.LVL13:
 255              	.L16:
 256              		.loc 1 113 33 discriminator 6 view .LVU58
 114:mi/plaits/dsp/speech/lpc_speech_synth.cpp **** 
 115:mi/plaits/dsp/speech/lpc_speech_synth.cpp ****     s_[9] = s_[8] + k_[8] * e[8];
 257              		.loc 1 115 5 discriminator 6 view .LVU59
 258              		.loc 1 115 19 is_stmt 0 discriminator 6 view .LVU60
 259 005a EEEE822A 		vfma.f32	s5, s29, s4
 260              	.LBE81:
  68:mi/plaits/dsp/speech/lpc_speech_synth.cpp ****     phase_ += f;
 261              		.loc 1 68 14 discriminator 6 view .LVU61
 262 005e 0CF1FF3C 		add	ip, ip, #-1
 263              	.LVL14:
 264              	.LBB123:
 116:mi/plaits/dsp/speech/lpc_speech_synth.cpp ****     s_[8] = s_[7] + k_[7] * e[7];
 265              		.loc 1 116 19 discriminator 6 view .LVU62
 266 0062 AEEE2D3A 		vfma.f32	s6, s28, s27
 117:mi/plaits/dsp/speech/lpc_speech_synth.cpp ****     s_[7] = s_[6] + k_[6] * e[6];
 118:mi/plaits/dsp/speech/lpc_speech_synth.cpp ****     s_[6] = s_[5] + k_[5] * e[5];
 119:mi/plaits/dsp/speech/lpc_speech_synth.cpp ****     s_[5] = s_[4] + k_[4] * e[4];
 120:mi/plaits/dsp/speech/lpc_speech_synth.cpp ****     s_[4] = s_[3] + k_[3] * e[3];
 121:mi/plaits/dsp/speech/lpc_speech_synth.cpp ****     s_[3] = s_[2] + k_[2] * e[2];
 122:mi/plaits/dsp/speech/lpc_speech_synth.cpp ****     s_[2] = s_[1] + k_[1] * e[1];
 123:mi/plaits/dsp/speech/lpc_speech_synth.cpp ****     s_[1] = s_[0] + k_[0] * e[0];
 124:mi/plaits/dsp/speech/lpc_speech_synth.cpp ****     s_[0] = e[0];
 267              		.loc 1 124 11 discriminator 6 view .LVU63
 268 0066 C0ED107A 		vstr.32	s15, [r0, #64]
 117:mi/plaits/dsp/speech/lpc_speech_synth.cpp ****     s_[7] = s_[6] + k_[6] * e[6];
 269              		.loc 1 117 19 discriminator 6 view .LVU64
 270 006a EDEE2C3A 		vfma.f32	s7, s26, s25
 271              	.LBE123:
  68:mi/plaits/dsp/speech/lpc_speech_synth.cpp ****     phase_ += f;
 272              		.loc 1 68 14 discriminator 6 view .LVU65
 273 006e BCF1FF3F 		cmp	ip, #-1
 274              	.LBB124:
 118:mi/plaits/dsp/speech/lpc_speech_synth.cpp ****     s_[5] = s_[4] + k_[4] * e[4];
 275              		.loc 1 118 19 discriminator 6 view .LVU66
 276 0072 ACEE2B4A 		vfma.f32	s8, s24, s23
ARM GAS  /var/folders/9k/zk1mgrrd7wg4__6zvxvr9w8m0000gn/T//ccNsiQFA.s 			page 25


 119:mi/plaits/dsp/speech/lpc_speech_synth.cpp ****     s_[4] = s_[3] + k_[3] * e[3];
 277              		.loc 1 119 19 discriminator 6 view .LVU67
 278 0076 EBEE2A4A 		vfma.f32	s9, s22, s21
 120:mi/plaits/dsp/speech/lpc_speech_synth.cpp ****     s_[3] = s_[2] + k_[2] * e[2];
 279              		.loc 1 120 19 discriminator 6 view .LVU68
 280 007a AAEE295A 		vfma.f32	s10, s20, s19
 121:mi/plaits/dsp/speech/lpc_speech_synth.cpp ****     s_[2] = s_[1] + k_[1] * e[1];
 281              		.loc 1 121 19 discriminator 6 view .LVU69
 282 007e E9EE285A 		vfma.f32	s11, s18, s17
 115:mi/plaits/dsp/speech/lpc_speech_synth.cpp ****     s_[8] = s_[7] + k_[7] * e[7];
 283              		.loc 1 115 11 discriminator 6 view .LVU70
 284 0082 C0ED192A 		vstr.32	s5, [r0, #100]
 116:mi/plaits/dsp/speech/lpc_speech_synth.cpp ****     s_[7] = s_[6] + k_[6] * e[6];
 285              		.loc 1 116 5 is_stmt 1 discriminator 6 view .LVU71
 122:mi/plaits/dsp/speech/lpc_speech_synth.cpp ****     s_[1] = s_[0] + k_[0] * e[0];
 286              		.loc 1 122 19 is_stmt 0 discriminator 6 view .LVU72
 287 0086 A8EE006A 		vfma.f32	s12, s16, s0
 116:mi/plaits/dsp/speech/lpc_speech_synth.cpp ****     s_[7] = s_[6] + k_[6] * e[6];
 288              		.loc 1 116 11 discriminator 6 view .LVU73
 289 008a 80ED183A 		vstr.32	s6, [r0, #96]
 117:mi/plaits/dsp/speech/lpc_speech_synth.cpp ****     s_[6] = s_[5] + k_[5] * e[5];
 290              		.loc 1 117 5 is_stmt 1 discriminator 6 view .LVU74
 123:mi/plaits/dsp/speech/lpc_speech_synth.cpp ****     s_[0] = e[0];
 291              		.loc 1 123 19 is_stmt 0 discriminator 6 view .LVU75
 292 008e E7EE816A 		vfma.f32	s13, s15, s2
 117:mi/plaits/dsp/speech/lpc_speech_synth.cpp ****     s_[6] = s_[5] + k_[5] * e[5];
 293              		.loc 1 117 11 discriminator 6 view .LVU76
 294 0092 C0ED173A 		vstr.32	s7, [r0, #92]
 118:mi/plaits/dsp/speech/lpc_speech_synth.cpp ****     s_[5] = s_[4] + k_[4] * e[4];
 295              		.loc 1 118 5 is_stmt 1 discriminator 6 view .LVU77
 118:mi/plaits/dsp/speech/lpc_speech_synth.cpp ****     s_[5] = s_[4] + k_[4] * e[4];
 296              		.loc 1 118 11 is_stmt 0 discriminator 6 view .LVU78
 297 0096 80ED164A 		vstr.32	s8, [r0, #88]
 119:mi/plaits/dsp/speech/lpc_speech_synth.cpp ****     s_[4] = s_[3] + k_[3] * e[3];
 298              		.loc 1 119 5 is_stmt 1 discriminator 6 view .LVU79
 119:mi/plaits/dsp/speech/lpc_speech_synth.cpp ****     s_[4] = s_[3] + k_[3] * e[3];
 299              		.loc 1 119 11 is_stmt 0 discriminator 6 view .LVU80
 300 009a C0ED154A 		vstr.32	s9, [r0, #84]
 120:mi/plaits/dsp/speech/lpc_speech_synth.cpp ****     s_[3] = s_[2] + k_[2] * e[2];
 301              		.loc 1 120 5 is_stmt 1 discriminator 6 view .LVU81
 120:mi/plaits/dsp/speech/lpc_speech_synth.cpp ****     s_[3] = s_[2] + k_[2] * e[2];
 302              		.loc 1 120 11 is_stmt 0 discriminator 6 view .LVU82
 303 009e 80ED145A 		vstr.32	s10, [r0, #80]
 121:mi/plaits/dsp/speech/lpc_speech_synth.cpp ****     s_[2] = s_[1] + k_[1] * e[1];
 304              		.loc 1 121 5 is_stmt 1 discriminator 6 view .LVU83
 121:mi/plaits/dsp/speech/lpc_speech_synth.cpp ****     s_[2] = s_[1] + k_[1] * e[1];
 305              		.loc 1 121 11 is_stmt 0 discriminator 6 view .LVU84
 306 00a2 C0ED135A 		vstr.32	s11, [r0, #76]
 122:mi/plaits/dsp/speech/lpc_speech_synth.cpp ****     s_[1] = s_[0] + k_[0] * e[0];
 307              		.loc 1 122 5 is_stmt 1 discriminator 6 view .LVU85
 122:mi/plaits/dsp/speech/lpc_speech_synth.cpp ****     s_[1] = s_[0] + k_[0] * e[0];
 308              		.loc 1 122 11 is_stmt 0 discriminator 6 view .LVU86
 309 00a6 80ED126A 		vstr.32	s12, [r0, #72]
 123:mi/plaits/dsp/speech/lpc_speech_synth.cpp ****     s_[0] = e[0];
 310              		.loc 1 123 5 is_stmt 1 discriminator 6 view .LVU87
 123:mi/plaits/dsp/speech/lpc_speech_synth.cpp ****     s_[0] = e[0];
 311              		.loc 1 123 11 is_stmt 0 discriminator 6 view .LVU88
ARM GAS  /var/folders/9k/zk1mgrrd7wg4__6zvxvr9w8m0000gn/T//ccNsiQFA.s 			page 26


 312 00aa C0ED116A 		vstr.32	s13, [r0, #68]
 313              		.loc 1 124 5 is_stmt 1 discriminator 6 view .LVU89
 125:mi/plaits/dsp/speech/lpc_speech_synth.cpp ****     
 126:mi/plaits/dsp/speech/lpc_speech_synth.cpp ****     *excitation++ = e[10];
 314              		.loc 1 126 5 discriminator 6 view .LVU90
 315              	.LVL15:
 316              		.loc 1 126 19 is_stmt 0 discriminator 6 view .LVU91
 317 00ae A1EC017A 		vstmia.32	r1!, {s14}
 318              	.LVL16:
 127:mi/plaits/dsp/speech/lpc_speech_synth.cpp ****     *output++ = e[0];
 319              		.loc 1 127 5 is_stmt 1 discriminator 6 view .LVU92
 320              		.loc 1 127 15 is_stmt 0 discriminator 6 view .LVU93
 321 00b2 E2EC017A 		vstmia.32	r2!, {s15}
 322              	.LVL17:
 323              		.loc 1 127 15 discriminator 6 view .LVU94
 324              	.LBE124:
  68:mi/plaits/dsp/speech/lpc_speech_synth.cpp ****     phase_ += f;
 325              		.loc 1 68 3 is_stmt 1 discriminator 6 view .LVU95
  68:mi/plaits/dsp/speech/lpc_speech_synth.cpp ****     phase_ += f;
 326              		.loc 1 68 14 discriminator 6 view .LVU96
  68:mi/plaits/dsp/speech/lpc_speech_synth.cpp ****     phase_ += f;
 327              		.loc 1 68 14 is_stmt 0 discriminator 6 view .LVU97
 328 00b6 00F0C980 		beq	.L32
 329              	.LVL18:
 330              	.L18:
 331              	.LBB125:
  69:mi/plaits/dsp/speech/lpc_speech_synth.cpp ****     
 332              		.loc 1 69 5 is_stmt 1 view .LVU98
  69:mi/plaits/dsp/speech/lpc_speech_synth.cpp ****     
 333              		.loc 1 69 12 is_stmt 0 view .LVU99
 334 00ba D0ED007A 		vldr.32	s15, [r0]
 335              	.LBB82:
  74:mi/plaits/dsp/speech/lpc_speech_synth.cpp ****       phase_ -= 1.0f;
 336              		.loc 1 74 5 view .LVU100
 337 00be B7EE007A 		vmov.f32	s14, #1.0e+0
 338              	.LBE82:
  69:mi/plaits/dsp/speech/lpc_speech_synth.cpp ****     
 339              		.loc 1 69 12 view .LVU101
 340 00c2 70EEA77A 		vadd.f32	s15, s1, s15
 341              	.LBB109:
  74:mi/plaits/dsp/speech/lpc_speech_synth.cpp ****       phase_ -= 1.0f;
 342              		.loc 1 74 5 view .LVU102
 343 00c6 F4EEC77A 		vcmpe.f32	s15, s14
 344              	.LBE109:
  69:mi/plaits/dsp/speech/lpc_speech_synth.cpp ****     
 345              		.loc 1 69 12 view .LVU103
 346 00ca C0ED007A 		vstr.32	s15, [r0]
  71:mi/plaits/dsp/speech/lpc_speech_synth.cpp ****     next_sample = 0.0f;
 347              		.loc 1 71 5 is_stmt 1 view .LVU104
 348              	.LVL19:
  72:mi/plaits/dsp/speech/lpc_speech_synth.cpp ****     
 349              		.loc 1 72 5 view .LVU105
  74:mi/plaits/dsp/speech/lpc_speech_synth.cpp ****       phase_ -= 1.0f;
 350              		.loc 1 74 5 view .LVU106
 351              	.LBB110:
 352 00ce F1EE10FA 		vmrs	APSR_nzcv, FPSCR
 353 00d2 C0F2B280 		blt	.L33
ARM GAS  /var/folders/9k/zk1mgrrd7wg4__6zvxvr9w8m0000gn/T//ccNsiQFA.s 			page 27


 354              	.LBB83:
  75:mi/plaits/dsp/speech/lpc_speech_synth.cpp ****       float reset_time = phase_ / f;
 355              		.loc 1 75 7 view .LVU107
  75:mi/plaits/dsp/speech/lpc_speech_synth.cpp ****       float reset_time = phase_ / f;
 356              		.loc 1 75 14 is_stmt 0 view .LVU108
 357 00d6 77EEC77A 		vsub.f32	s15, s15, s14
 358              	.LBB84:
  80:mi/plaits/dsp/speech/lpc_speech_synth.cpp ****         excitation_pulse_sample_index_ -= reset_sample;
 359              		.loc 1 80 11 view .LVU109
 360 00da 4569     		ldr	r5, [r0, #20]
  80:mi/plaits/dsp/speech/lpc_speech_synth.cpp ****         excitation_pulse_sample_index_ -= reset_sample;
 361              		.loc 1 80 7 view .LVU110
 362 00dc B5F5207F 		cmp	r5, #640
 363              	.LBE84:
  76:mi/plaits/dsp/speech/lpc_speech_synth.cpp ****       int reset_sample = static_cast<int>(32.0f * reset_time);
 364              		.loc 1 76 13 view .LVU111
 365 00e0 87EEA06A 		vdiv.f32	s12, s15, s1
  75:mi/plaits/dsp/speech/lpc_speech_synth.cpp ****       float reset_time = phase_ / f;
 366              		.loc 1 75 14 view .LVU112
 367 00e4 C0ED007A 		vstr.32	s15, [r0]
  76:mi/plaits/dsp/speech/lpc_speech_synth.cpp ****       int reset_sample = static_cast<int>(32.0f * reset_time);
 368              		.loc 1 76 7 is_stmt 1 view .LVU113
 369              	.LVL20:
  77:mi/plaits/dsp/speech/lpc_speech_synth.cpp ****       
 370              		.loc 1 77 7 view .LVU114
  77:mi/plaits/dsp/speech/lpc_speech_synth.cpp ****       
 371              		.loc 1 77 11 is_stmt 0 view .LVU115
 372 00e8 F0EE467A 		vmov.f32	s15, s12
 373 00ec FEEEED7A 		vcvt.s32.f32	s15, s15, #5
 374 00f0 17EE903A 		vmov	r3, s15	@ int
 375              	.LVL21:
  79:mi/plaits/dsp/speech/lpc_speech_synth.cpp ****       if (excitation_pulse_sample_index_ < LUT_LPC_EXCITATION_PULSE_SIZE) {
 376              		.loc 1 79 7 is_stmt 1 view .LVU116
  80:mi/plaits/dsp/speech/lpc_speech_synth.cpp ****         excitation_pulse_sample_index_ -= reset_sample;
 377              		.loc 1 80 7 view .LVU117
 378              	.LBB86:
 379 00f4 80F2A780 		bge	.L20
 380              	.LBB85:
  81:mi/plaits/dsp/speech/lpc_speech_synth.cpp ****         int8_t s = lut_lpc_excitation_pulse[excitation_pulse_sample_index_];
 381              		.loc 1 81 9 view .LVU118
  81:mi/plaits/dsp/speech/lpc_speech_synth.cpp ****         int8_t s = lut_lpc_excitation_pulse[excitation_pulse_sample_index_];
 382              		.loc 1 81 40 is_stmt 0 view .LVU119
 383 00f8 ED1A     		subs	r5, r5, r3
  82:mi/plaits/dsp/speech/lpc_speech_synth.cpp ****         discontinuity = static_cast<float>(s) / 128.0f * pulse_energy_;
 384              		.loc 1 82 16 view .LVU120
 385 00fa 604E     		ldr	r6, .L36+8
  83:mi/plaits/dsp/speech/lpc_speech_synth.cpp ****       }
 386              		.loc 1 83 23 view .LVU121
 387 00fc D0ED037A 		vldr.32	s15, [r0, #12]
  81:mi/plaits/dsp/speech/lpc_speech_synth.cpp ****         int8_t s = lut_lpc_excitation_pulse[excitation_pulse_sample_index_];
 388              		.loc 1 81 40 view .LVU122
 389 0100 4561     		str	r5, [r0, #20]
  82:mi/plaits/dsp/speech/lpc_speech_synth.cpp ****         discontinuity = static_cast<float>(s) / 128.0f * pulse_energy_;
 390              		.loc 1 82 9 is_stmt 1 view .LVU123
 391              	.LVL22:
  83:mi/plaits/dsp/speech/lpc_speech_synth.cpp ****       }
 392              		.loc 1 83 9 view .LVU124
ARM GAS  /var/folders/9k/zk1mgrrd7wg4__6zvxvr9w8m0000gn/T//ccNsiQFA.s 			page 28


  83:mi/plaits/dsp/speech/lpc_speech_synth.cpp ****       }
 393              		.loc 1 83 25 is_stmt 0 view .LVU125
 394 0102 7557     		ldrsb	r5, [r6, r5]
 395              	.LVL23:
  83:mi/plaits/dsp/speech/lpc_speech_synth.cpp ****       }
 396              		.loc 1 83 25 view .LVU126
 397 0104 05EE905A 		vmov	s11, r5	@ int
  83:mi/plaits/dsp/speech/lpc_speech_synth.cpp ****       }
 398              		.loc 1 83 47 view .LVU127
 399 0108 FAEEEC5A 		vcvt.f32.s32	s11, s11, #7
 400              	.LBE85:
 401              	.LBE86:
  86:mi/plaits/dsp/speech/lpc_speech_synth.cpp ****       next_sample += -discontinuity * NextBlepSample(reset_time);
 402              		.loc 1 86 22 view .LVU128
 403 010c 67EEE55A 		vnmul.f32	s11, s15, s11
 404              	.LVL24:
 405              	.L12:
  86:mi/plaits/dsp/speech/lpc_speech_synth.cpp ****       next_sample += -discontinuity * NextBlepSample(reset_time);
 406              		.loc 1 86 7 is_stmt 1 view .LVU129
 407              	.LBB87:
 408              	.LBI87:
 409              		.file 3 "mi/stmlib/dsp/polyblep.h"
   1:mi/stmlib/dsp/polyblep.h **** // Copyright 2017 Emilie Gillet.
   2:mi/stmlib/dsp/polyblep.h **** //
   3:mi/stmlib/dsp/polyblep.h **** // Author: Emilie Gillet (emilie.o.gillet@gmail.com)
   4:mi/stmlib/dsp/polyblep.h **** //
   5:mi/stmlib/dsp/polyblep.h **** // Permission is hereby granted, free of charge, to any person obtaining a copy
   6:mi/stmlib/dsp/polyblep.h **** // of this software and associated documentation files (the "Software"), to deal
   7:mi/stmlib/dsp/polyblep.h **** // in the Software without restriction, including without limitation the rights
   8:mi/stmlib/dsp/polyblep.h **** // to use, copy, modify, merge, publish, distribute, sublicense, and/or sell
   9:mi/stmlib/dsp/polyblep.h **** // copies of the Software, and to permit persons to whom the Software is
  10:mi/stmlib/dsp/polyblep.h **** // furnished to do so, subject to the following conditions:
  11:mi/stmlib/dsp/polyblep.h **** // 
  12:mi/stmlib/dsp/polyblep.h **** // The above copyright notice and this permission notice shall be included in
  13:mi/stmlib/dsp/polyblep.h **** // all copies or substantial portions of the Software.
  14:mi/stmlib/dsp/polyblep.h **** // 
  15:mi/stmlib/dsp/polyblep.h **** // THE SOFTWARE IS PROVIDED "AS IS", WITHOUT WARRANTY OF ANY KIND, EXPRESS OR
  16:mi/stmlib/dsp/polyblep.h **** // IMPLIED, INCLUDING BUT NOT LIMITED TO THE WARRANTIES OF MERCHANTABILITY,
  17:mi/stmlib/dsp/polyblep.h **** // FITNESS FOR A PARTICULAR PURPOSE AND NONINFRINGEMENT. IN NO EVENT SHALL THE
  18:mi/stmlib/dsp/polyblep.h **** // AUTHORS OR COPYRIGHT HOLDERS BE LIABLE FOR ANY CLAIM, DAMAGES OR OTHER
  19:mi/stmlib/dsp/polyblep.h **** // LIABILITY, WHETHER IN AN ACTION OF CONTRACT, TORT OR OTHERWISE, ARISING FROM,
  20:mi/stmlib/dsp/polyblep.h **** // OUT OF OR IN CONNECTION WITH THE SOFTWARE OR THE USE OR OTHER DEALINGS IN
  21:mi/stmlib/dsp/polyblep.h **** // THE SOFTWARE.
  22:mi/stmlib/dsp/polyblep.h **** // 
  23:mi/stmlib/dsp/polyblep.h **** // See http://creativecommons.org/licenses/MIT/ for more information.
  24:mi/stmlib/dsp/polyblep.h **** //
  25:mi/stmlib/dsp/polyblep.h **** // -----------------------------------------------------------------------------
  26:mi/stmlib/dsp/polyblep.h **** //
  27:mi/stmlib/dsp/polyblep.h **** // Polynomial approximation of band-limited step for band-limited waveform
  28:mi/stmlib/dsp/polyblep.h **** // synthesis.
  29:mi/stmlib/dsp/polyblep.h **** 
  30:mi/stmlib/dsp/polyblep.h **** #ifndef STMLIB_DSP_POLYBLEP_H_
  31:mi/stmlib/dsp/polyblep.h **** #define STMLIB_DSP_POLYBLEP_H_
  32:mi/stmlib/dsp/polyblep.h **** 
  33:mi/stmlib/dsp/polyblep.h **** #include "stmlib/stmlib.h"
  34:mi/stmlib/dsp/polyblep.h **** 
  35:mi/stmlib/dsp/polyblep.h **** namespace stmlib {
ARM GAS  /var/folders/9k/zk1mgrrd7wg4__6zvxvr9w8m0000gn/T//ccNsiQFA.s 			page 29


  36:mi/stmlib/dsp/polyblep.h **** 
  37:mi/stmlib/dsp/polyblep.h **** inline float ThisBlepSample(float t) {
 410              		.loc 3 37 14 view .LVU130
 411              	.LBB88:
  38:mi/stmlib/dsp/polyblep.h ****   return 0.5f * t * t;
 412              		.loc 3 38 3 view .LVU131
 413              		.loc 3 38 3 is_stmt 0 view .LVU132
 414              	.LBE88:
 415              	.LBE87:
 416              	.LBB92:
 417              	.LBB93:
  39:mi/stmlib/dsp/polyblep.h **** }
  40:mi/stmlib/dsp/polyblep.h **** 
  41:mi/stmlib/dsp/polyblep.h **** inline float NextBlepSample(float t) {
  42:mi/stmlib/dsp/polyblep.h ****   t = 1.0f - t;
 418              		.loc 3 42 5 view .LVU133
 419 0110 B7EE007A 		vmov.f32	s14, #1.0e+0
 420              	.LBE93:
 421              	.LBE92:
  87:mi/plaits/dsp/speech/lpc_speech_synth.cpp ****       
 422              		.loc 1 87 19 view .LVU134
 423 0114 9FED5A5A 		vldr.32	s10, .L36+12
 424              	.LBB99:
 425              	.LBB94:
  43:mi/stmlib/dsp/polyblep.h ****   return -0.5f * t * t;
 426              		.loc 3 43 16 view .LVU135
 427 0118 FEEE007A 		vmov.f32	s15, #-5.0e-1
 428              	.LBE94:
 429              	.LBE99:
  89:mi/plaits/dsp/speech/lpc_speech_synth.cpp ****     }
 430              		.loc 1 89 38 view .LVU136
 431 011c 4361     		str	r3, [r0, #20]
 432              	.LBB100:
 433              	.LBB89:
  38:mi/stmlib/dsp/polyblep.h **** }
 434              		.loc 3 38 15 view .LVU137
 435 011e F6EE006A 		vmov.f32	s13, #5.0e-1
 436              	.LBE89:
 437              	.LBE100:
 438              	.LBB101:
 439              	.LBB95:
  42:mi/stmlib/dsp/polyblep.h ****   return -0.5f * t * t;
 440              		.loc 3 42 5 view .LVU138
 441 0122 37EE467A 		vsub.f32	s14, s14, s12
 442              	.LBE95:
 443              	.LBE101:
 444              	.LBB102:
 445              	.LBB90:
  38:mi/stmlib/dsp/polyblep.h **** }
 446              		.loc 3 38 15 view .LVU139
 447 0126 66EE266A 		vmul.f32	s13, s12, s13
 448              	.LBE90:
 449              	.LBE102:
 450              	.LBB103:
 451              	.LBB96:
 452              		.loc 3 43 16 view .LVU140
 453 012a 67EE277A 		vmul.f32	s15, s14, s15
ARM GAS  /var/folders/9k/zk1mgrrd7wg4__6zvxvr9w8m0000gn/T//ccNsiQFA.s 			page 30


 454              	.LBE96:
 455              	.LBE103:
 456              	.LBB104:
 457              	.LBB91:
  38:mi/stmlib/dsp/polyblep.h **** }
 458              		.loc 3 38 21 view .LVU141
 459 012e 66EE866A 		vmul.f32	s13, s13, s12
 460              	.LBE91:
 461              	.LBE104:
 462              	.LBB105:
 463              	.LBB97:
 464              		.loc 3 43 22 view .LVU142
 465 0132 67EE877A 		vmul.f32	s15, s15, s14
 466              	.LBE97:
 467              	.LBE105:
  86:mi/plaits/dsp/speech/lpc_speech_synth.cpp ****       next_sample += -discontinuity * NextBlepSample(reset_time);
 468              		.loc 1 86 19 view .LVU143
 469 0136 B0EE617A 		vmov.f32	s14, s3
  87:mi/plaits/dsp/speech/lpc_speech_synth.cpp ****       
 470              		.loc 1 87 19 view .LVU144
 471 013a A7EEA55A 		vfma.f32	s10, s15, s11
  86:mi/plaits/dsp/speech/lpc_speech_synth.cpp ****       next_sample += -discontinuity * NextBlepSample(reset_time);
 472              		.loc 1 86 19 view .LVU145
 473 013e A6EEA57A 		vfma.f32	s14, s13, s11
 474              	.LVL25:
  87:mi/plaits/dsp/speech/lpc_speech_synth.cpp ****       
 475              		.loc 1 87 7 is_stmt 1 view .LVU146
 476              	.LBB106:
 477              	.LBI92:
  41:mi/stmlib/dsp/polyblep.h ****   t = 1.0f - t;
 478              		.loc 3 41 14 view .LVU147
 479              	.LBB98:
  42:mi/stmlib/dsp/polyblep.h ****   return -0.5f * t * t;
 480              		.loc 3 42 3 view .LVU148
 481              		.loc 3 43 3 view .LVU149
 482              		.loc 3 43 3 is_stmt 0 view .LVU150
 483              	.LBE98:
 484              	.LBE106:
  87:mi/plaits/dsp/speech/lpc_speech_synth.cpp ****       
 485              		.loc 1 87 19 view .LVU151
 486 0142 F0EE451A 		vmov.f32	s3, s10
 487              	.LVL26:
  89:mi/plaits/dsp/speech/lpc_speech_synth.cpp ****     }
 488              		.loc 1 89 7 is_stmt 1 view .LVU152
 489              	.L11:
  89:mi/plaits/dsp/speech/lpc_speech_synth.cpp ****     }
 490              		.loc 1 89 7 is_stmt 0 view .LVU153
 491              	.LBE83:
 492              	.LBE110:
  92:mi/plaits/dsp/speech/lpc_speech_synth.cpp ****     e[10] = Random::GetSample() > 0 ? noise_energy_ : -noise_energy_;
 493              		.loc 1 92 5 is_stmt 1 view .LVU154
  93:mi/plaits/dsp/speech/lpc_speech_synth.cpp ****     if (excitation_pulse_sample_index_ < LUT_LPC_EXCITATION_PULSE_SIZE) {
 494              		.loc 1 93 5 view .LVU155
 495              	.LBB111:
 496              	.LBI111:
 497              		.file 4 "mi/stmlib/utils/random.h"
   1:mi/stmlib/utils/random.h **** // Copyright 2012 Emilie Gillet.
ARM GAS  /var/folders/9k/zk1mgrrd7wg4__6zvxvr9w8m0000gn/T//ccNsiQFA.s 			page 31


   2:mi/stmlib/utils/random.h **** //
   3:mi/stmlib/utils/random.h **** // Author: Emilie Gillet (emilie.o.gillet@gmail.com)
   4:mi/stmlib/utils/random.h **** //
   5:mi/stmlib/utils/random.h **** // Permission is hereby granted, free of charge, to any person obtaining a copy
   6:mi/stmlib/utils/random.h **** // of this software and associated documentation files (the "Software"), to deal
   7:mi/stmlib/utils/random.h **** // in the Software without restriction, including without limitation the rights
   8:mi/stmlib/utils/random.h **** // to use, copy, modify, merge, publish, distribute, sublicense, and/or sell
   9:mi/stmlib/utils/random.h **** // copies of the Software, and to permit persons to whom the Software is
  10:mi/stmlib/utils/random.h **** // furnished to do so, subject to the following conditions:
  11:mi/stmlib/utils/random.h **** // 
  12:mi/stmlib/utils/random.h **** // The above copyright notice and this permission notice shall be included in
  13:mi/stmlib/utils/random.h **** // all copies or substantial portions of the Software.
  14:mi/stmlib/utils/random.h **** // 
  15:mi/stmlib/utils/random.h **** // THE SOFTWARE IS PROVIDED "AS IS", WITHOUT WARRANTY OF ANY KIND, EXPRESS OR
  16:mi/stmlib/utils/random.h **** // IMPLIED, INCLUDING BUT NOT LIMITED TO THE WARRANTIES OF MERCHANTABILITY,
  17:mi/stmlib/utils/random.h **** // FITNESS FOR A PARTICULAR PURPOSE AND NONINFRINGEMENT. IN NO EVENT SHALL THE
  18:mi/stmlib/utils/random.h **** // AUTHORS OR COPYRIGHT HOLDERS BE LIABLE FOR ANY CLAIM, DAMAGES OR OTHER
  19:mi/stmlib/utils/random.h **** // LIABILITY, WHETHER IN AN ACTION OF CONTRACT, TORT OR OTHERWISE, ARISING FROM,
  20:mi/stmlib/utils/random.h **** // OUT OF OR IN CONNECTION WITH THE SOFTWARE OR THE USE OR OTHER DEALINGS IN
  21:mi/stmlib/utils/random.h **** // THE SOFTWARE.
  22:mi/stmlib/utils/random.h **** // 
  23:mi/stmlib/utils/random.h **** // See http://creativecommons.org/licenses/MIT/ for more information.
  24:mi/stmlib/utils/random.h **** //
  25:mi/stmlib/utils/random.h **** // -----------------------------------------------------------------------------
  26:mi/stmlib/utils/random.h **** //
  27:mi/stmlib/utils/random.h **** // Fast 16-bit pseudo random number generator.
  28:mi/stmlib/utils/random.h **** 
  29:mi/stmlib/utils/random.h **** #ifndef STMLIB_UTILS_RANDOM_H_
  30:mi/stmlib/utils/random.h **** #define STMLIB_UTILS_RANDOM_H_
  31:mi/stmlib/utils/random.h **** 
  32:mi/stmlib/utils/random.h **** #include "stmlib/stmlib.h"
  33:mi/stmlib/utils/random.h **** 
  34:mi/stmlib/utils/random.h **** namespace stmlib {
  35:mi/stmlib/utils/random.h **** 
  36:mi/stmlib/utils/random.h **** class Random {
  37:mi/stmlib/utils/random.h ****  public:
  38:mi/stmlib/utils/random.h ****   static inline uint32_t state() { return rng_state_; }
  39:mi/stmlib/utils/random.h **** 
  40:mi/stmlib/utils/random.h ****   static inline void Seed(uint32_t seed) {
  41:mi/stmlib/utils/random.h ****     rng_state_ = seed;
  42:mi/stmlib/utils/random.h ****   }
  43:mi/stmlib/utils/random.h **** 
  44:mi/stmlib/utils/random.h ****   static inline uint32_t GetWord() {
  45:mi/stmlib/utils/random.h ****     rng_state_ = rng_state_ * 1664525L + 1013904223L;
  46:mi/stmlib/utils/random.h ****     return state();
  47:mi/stmlib/utils/random.h ****   }
  48:mi/stmlib/utils/random.h ****   
  49:mi/stmlib/utils/random.h ****   static inline int16_t GetSample() {
 498              		.loc 4 49 25 view .LVU156
 499              	.LBB112:
  50:mi/stmlib/utils/random.h ****     return static_cast<int16_t>(GetWord() >> 16);
 500              		.loc 4 50 5 view .LVU157
 501              	.LBB113:
 502              	.LBI113:
  44:mi/stmlib/utils/random.h ****     rng_state_ = rng_state_ * 1664525L + 1013904223L;
 503              		.loc 4 44 26 view .LVU158
 504              	.LBB114:
ARM GAS  /var/folders/9k/zk1mgrrd7wg4__6zvxvr9w8m0000gn/T//ccNsiQFA.s 			page 32


  45:mi/stmlib/utils/random.h ****     return state();
 505              		.loc 4 45 5 view .LVU159
  45:mi/stmlib/utils/random.h ****     return state();
 506              		.loc 4 45 29 is_stmt 0 view .LVU160
 507 0146 4F4E     		ldr	r6, .L36+16
  45:mi/stmlib/utils/random.h ****     return state();
 508              		.loc 4 45 40 view .LVU161
 509 0148 4F4D     		ldr	r5, .L36+20
 510              	.LBE114:
 511              	.LBE113:
 512              	.LBE112:
 513              	.LBE111:
  93:mi/plaits/dsp/speech/lpc_speech_synth.cpp ****     if (excitation_pulse_sample_index_ < LUT_LPC_EXCITATION_PULSE_SIZE) {
 514              		.loc 1 93 37 view .LVU162
 515 014a D0ED027A 		vldr.32	s15, [r0, #8]
 516              	.LBB118:
 517              	.LBB117:
 518              	.LBB116:
 519              	.LBB115:
  45:mi/stmlib/utils/random.h ****     return state();
 520              		.loc 4 45 40 view .LVU163
 521 014e 06FB0454 		mla	r4, r6, r4, r5
  46:mi/stmlib/utils/random.h ****   }
 522              		.loc 4 46 5 is_stmt 1 view .LVU164
 523              	.LBE115:
 524              	.LBE116:
 525              	.LBE117:
 526              	.LBE118:
 527              	.LBE125:
  38:mi/stmlib/utils/random.h **** 
 528              		.loc 4 38 36 view .LVU165
 529              	.LBB126:
  93:mi/plaits/dsp/speech/lpc_speech_synth.cpp ****     if (excitation_pulse_sample_index_ < LUT_LPC_EXCITATION_PULSE_SIZE) {
 530              		.loc 1 93 37 is_stmt 0 view .LVU166
 531 0152 B4F5803F 		cmp	r4, #65536
 532 0156 B8BF     		it	lt
 533 0158 F1EE677A 		vneglt.f32	s15, s15
  94:mi/plaits/dsp/speech/lpc_speech_synth.cpp ****       int8_t s = lut_lpc_excitation_pulse[excitation_pulse_sample_index_];
 534              		.loc 1 94 5 is_stmt 1 view .LVU167
 535              	.LBB119:
 536 015c B3F5207F 		cmp	r3, #640
 537 0160 0CDA     		bge	.L15
 538              	.LBB120:
  95:mi/plaits/dsp/speech/lpc_speech_synth.cpp ****       next_sample += static_cast<float>(s) / 128.0f * pulse_energy_;
 539              		.loc 1 95 7 view .LVU168
 540              	.LVL27:
  96:mi/plaits/dsp/speech/lpc_speech_synth.cpp ****       excitation_pulse_sample_index_ += 32;
 541              		.loc 1 96 7 view .LVU169
  95:mi/plaits/dsp/speech/lpc_speech_synth.cpp ****       next_sample += static_cast<float>(s) / 128.0f * pulse_energy_;
 542              		.loc 1 95 14 is_stmt 0 view .LVU170
 543 0162 464E     		ldr	r6, .L36+8
  97:mi/plaits/dsp/speech/lpc_speech_synth.cpp ****     }
 544              		.loc 1 97 38 view .LVU171
 545 0164 03F12005 		add	r5, r3, #32
  96:mi/plaits/dsp/speech/lpc_speech_synth.cpp ****       excitation_pulse_sample_index_ += 32;
 546              		.loc 1 96 19 view .LVU172
 547 0168 90ED036A 		vldr.32	s12, [r0, #12]
ARM GAS  /var/folders/9k/zk1mgrrd7wg4__6zvxvr9w8m0000gn/T//ccNsiQFA.s 			page 33


  96:mi/plaits/dsp/speech/lpc_speech_synth.cpp ****       excitation_pulse_sample_index_ += 32;
 548              		.loc 1 96 22 view .LVU173
 549 016c F356     		ldrsb	r3, [r6, r3]
 550              	.LVL28:
  97:mi/plaits/dsp/speech/lpc_speech_synth.cpp ****     }
 551              		.loc 1 97 38 view .LVU174
 552 016e 4561     		str	r5, [r0, #20]
 553              	.LVL29:
  96:mi/plaits/dsp/speech/lpc_speech_synth.cpp ****       excitation_pulse_sample_index_ += 32;
 554              		.loc 1 96 22 view .LVU175
 555 0170 06EE903A 		vmov	s13, r3	@ int
  96:mi/plaits/dsp/speech/lpc_speech_synth.cpp ****       excitation_pulse_sample_index_ += 32;
 556              		.loc 1 96 44 view .LVU176
 557 0174 FAEEEC6A 		vcvt.f32.s32	s13, s13, #7
  96:mi/plaits/dsp/speech/lpc_speech_synth.cpp ****       excitation_pulse_sample_index_ += 32;
 558              		.loc 1 96 19 view .LVU177
 559 0178 E6EE861A 		vfma.f32	s3, s13, s12
 560              	.LVL30:
  97:mi/plaits/dsp/speech/lpc_speech_synth.cpp ****     }
 561              		.loc 1 97 7 is_stmt 1 view .LVU178
 562              	.L15:
  97:mi/plaits/dsp/speech/lpc_speech_synth.cpp ****     }
 563              		.loc 1 97 7 is_stmt 0 view .LVU179
 564              	.LBE120:
 565              	.LBE119:
  99:mi/plaits/dsp/speech/lpc_speech_synth.cpp ****     e[10] *= 1.5f;
 566              		.loc 1 99 5 is_stmt 1 view .LVU180
 100:mi/plaits/dsp/speech/lpc_speech_synth.cpp ****   
 567              		.loc 1 100 5 view .LVU181
  99:mi/plaits/dsp/speech/lpc_speech_synth.cpp ****     e[10] *= 1.5f;
 568              		.loc 1 99 11 is_stmt 0 view .LVU182
 569 017c 37EE277A 		vadd.f32	s14, s14, s15
 570              	.LVL31:
 102:mi/plaits/dsp/speech/lpc_speech_synth.cpp ****     e[8] = e[9] - k_[8] * s_[8];
 571              		.loc 1 102 18 view .LVU183
 572 0180 D0ED0F6A 		vldr.32	s13, [r0, #60]
 100:mi/plaits/dsp/speech/lpc_speech_synth.cpp ****   
 573              		.loc 1 100 11 view .LVU184
 574 0184 B7EE086A 		vmov.f32	s12, #1.5e+0
 102:mi/plaits/dsp/speech/lpc_speech_synth.cpp ****     e[8] = e[9] - k_[8] * s_[8];
 575              		.loc 1 102 18 view .LVU185
 576 0188 D0ED197A 		vldr.32	s15, [r0, #100]
 103:mi/plaits/dsp/speech/lpc_speech_synth.cpp ****     e[7] = e[8] - k_[7] * s_[7];
 577              		.loc 1 103 23 view .LVU186
 578 018c D0ED0EEA 		vldr.32	s29, [r0, #56]
 113:mi/plaits/dsp/speech/lpc_speech_synth.cpp **** 
 579              		.loc 1 113 5 view .LVU187
 580 0190 B8EE00FA 		vmov.f32	s30, #-2.0e+0
 103:mi/plaits/dsp/speech/lpc_speech_synth.cpp ****     e[7] = e[8] - k_[7] * s_[7];
 581              		.loc 1 103 31 view .LVU188
 582 0194 D0ED182A 		vldr.32	s5, [r0, #96]
 100:mi/plaits/dsp/speech/lpc_speech_synth.cpp ****   
 583              		.loc 1 100 11 view .LVU189
 584 0198 27EE067A 		vmul.f32	s14, s14, s12
 102:mi/plaits/dsp/speech/lpc_speech_synth.cpp ****     e[8] = e[9] - k_[8] * s_[8];
 585              		.loc 1 102 5 is_stmt 1 view .LVU190
 104:mi/plaits/dsp/speech/lpc_speech_synth.cpp ****     e[6] = e[7] - k_[6] * s_[6];
ARM GAS  /var/folders/9k/zk1mgrrd7wg4__6zvxvr9w8m0000gn/T//ccNsiQFA.s 			page 34


 586              		.loc 1 104 23 is_stmt 0 view .LVU191
 587 019c 90ED0DEA 		vldr.32	s28, [r0, #52]
 104:mi/plaits/dsp/speech/lpc_speech_synth.cpp ****     e[6] = e[7] - k_[6] * s_[6];
 588              		.loc 1 104 31 view .LVU192
 589 01a0 90ED173A 		vldr.32	s6, [r0, #92]
 105:mi/plaits/dsp/speech/lpc_speech_synth.cpp ****     e[5] = e[6] - k_[5] * s_[5];
 590              		.loc 1 105 23 view .LVU193
 591 01a4 90ED0CDA 		vldr.32	s26, [r0, #48]
 102:mi/plaits/dsp/speech/lpc_speech_synth.cpp ****     e[8] = e[9] - k_[8] * s_[8];
 592              		.loc 1 102 18 view .LVU194
 593 01a8 B0EE472A 		vmov.f32	s4, s14
 105:mi/plaits/dsp/speech/lpc_speech_synth.cpp ****     e[5] = e[6] - k_[5] * s_[5];
 594              		.loc 1 105 31 view .LVU195
 595 01ac D0ED163A 		vldr.32	s7, [r0, #88]
 106:mi/plaits/dsp/speech/lpc_speech_synth.cpp ****     e[4] = e[5] - k_[4] * s_[4];
 596              		.loc 1 106 23 view .LVU196
 597 01b0 90ED0BCA 		vldr.32	s24, [r0, #44]
 106:mi/plaits/dsp/speech/lpc_speech_synth.cpp ****     e[4] = e[5] - k_[4] * s_[4];
 598              		.loc 1 106 31 view .LVU197
 599 01b4 90ED154A 		vldr.32	s8, [r0, #84]
 102:mi/plaits/dsp/speech/lpc_speech_synth.cpp ****     e[8] = e[9] - k_[8] * s_[8];
 600              		.loc 1 102 18 view .LVU198
 601 01b8 A6EEE72A 		vfms.f32	s4, s13, s15
 103:mi/plaits/dsp/speech/lpc_speech_synth.cpp ****     e[7] = e[8] - k_[7] * s_[7];
 602              		.loc 1 103 5 is_stmt 1 view .LVU199
 107:mi/plaits/dsp/speech/lpc_speech_synth.cpp ****     e[3] = e[4] - k_[3] * s_[3];
 603              		.loc 1 107 23 is_stmt 0 view .LVU200
 604 01bc 90ED0ABA 		vldr.32	s22, [r0, #40]
 107:mi/plaits/dsp/speech/lpc_speech_synth.cpp ****     e[3] = e[4] - k_[3] * s_[3];
 605              		.loc 1 107 31 view .LVU201
 606 01c0 D0ED144A 		vldr.32	s9, [r0, #80]
 108:mi/plaits/dsp/speech/lpc_speech_synth.cpp ****     e[2] = e[3] - k_[2] * s_[2];
 607              		.loc 1 108 23 view .LVU202
 608 01c4 90ED09AA 		vldr.32	s20, [r0, #36]
 108:mi/plaits/dsp/speech/lpc_speech_synth.cpp ****     e[2] = e[3] - k_[2] * s_[2];
 609              		.loc 1 108 31 view .LVU203
 610 01c8 90ED135A 		vldr.32	s10, [r0, #76]
 109:mi/plaits/dsp/speech/lpc_speech_synth.cpp ****     e[1] = e[2] - k_[1] * s_[1];
 611              		.loc 1 109 23 view .LVU204
 612 01cc 90ED089A 		vldr.32	s18, [r0, #32]
 109:mi/plaits/dsp/speech/lpc_speech_synth.cpp ****     e[1] = e[2] - k_[1] * s_[1];
 613              		.loc 1 109 31 view .LVU205
 614 01d0 D0ED125A 		vldr.32	s11, [r0, #72]
 103:mi/plaits/dsp/speech/lpc_speech_synth.cpp ****     e[7] = e[8] - k_[7] * s_[7];
 615              		.loc 1 103 17 view .LVU206
 616 01d4 AEEEE22A 		vfms.f32	s4, s29, s5
 104:mi/plaits/dsp/speech/lpc_speech_synth.cpp ****     e[6] = e[7] - k_[6] * s_[6];
 617              		.loc 1 104 5 is_stmt 1 view .LVU207
 110:mi/plaits/dsp/speech/lpc_speech_synth.cpp ****     e[0] = e[1] - k_[0] * s_[0];
 618              		.loc 1 110 23 is_stmt 0 view .LVU208
 619 01d8 90ED078A 		vldr.32	s16, [r0, #28]
 110:mi/plaits/dsp/speech/lpc_speech_synth.cpp ****     e[0] = e[1] - k_[0] * s_[0];
 620              		.loc 1 110 31 view .LVU209
 621 01dc 90ED116A 		vldr.32	s12, [r0, #68]
 111:mi/plaits/dsp/speech/lpc_speech_synth.cpp ****   
 622              		.loc 1 111 23 view .LVU210
 623 01e0 90ED061A 		vldr.32	s2, [r0, #24]
ARM GAS  /var/folders/9k/zk1mgrrd7wg4__6zvxvr9w8m0000gn/T//ccNsiQFA.s 			page 35


 111:mi/plaits/dsp/speech/lpc_speech_synth.cpp ****   
 624              		.loc 1 111 31 view .LVU211
 625 01e4 D0ED106A 		vldr.32	s13, [r0, #64]
 104:mi/plaits/dsp/speech/lpc_speech_synth.cpp ****     e[6] = e[7] - k_[6] * s_[6];
 626              		.loc 1 104 17 view .LVU212
 627 01e8 F0EE42DA 		vmov.f32	s27, s4
 628 01ec EEEE43DA 		vfms.f32	s27, s28, s6
 629              	.LVL32:
 105:mi/plaits/dsp/speech/lpc_speech_synth.cpp ****     e[5] = e[6] - k_[5] * s_[5];
 630              		.loc 1 105 5 is_stmt 1 view .LVU213
 105:mi/plaits/dsp/speech/lpc_speech_synth.cpp ****     e[5] = e[6] - k_[5] * s_[5];
 631              		.loc 1 105 17 is_stmt 0 view .LVU214
 632 01f0 F0EE6DCA 		vmov.f32	s25, s27
 633 01f4 EDEE63CA 		vfms.f32	s25, s26, s7
 634              	.LVL33:
 106:mi/plaits/dsp/speech/lpc_speech_synth.cpp ****     e[4] = e[5] - k_[4] * s_[4];
 635              		.loc 1 106 5 is_stmt 1 view .LVU215
 106:mi/plaits/dsp/speech/lpc_speech_synth.cpp ****     e[4] = e[5] - k_[4] * s_[4];
 636              		.loc 1 106 17 is_stmt 0 view .LVU216
 637 01f8 F0EE6CBA 		vmov.f32	s23, s25
 638 01fc ECEE44BA 		vfms.f32	s23, s24, s8
 639              	.LVL34:
 107:mi/plaits/dsp/speech/lpc_speech_synth.cpp ****     e[3] = e[4] - k_[3] * s_[3];
 640              		.loc 1 107 5 is_stmt 1 view .LVU217
 107:mi/plaits/dsp/speech/lpc_speech_synth.cpp ****     e[3] = e[4] - k_[3] * s_[3];
 641              		.loc 1 107 17 is_stmt 0 view .LVU218
 642 0200 F0EE6BAA 		vmov.f32	s21, s23
 643 0204 EBEE64AA 		vfms.f32	s21, s22, s9
 644              	.LVL35:
 108:mi/plaits/dsp/speech/lpc_speech_synth.cpp ****     e[2] = e[3] - k_[2] * s_[2];
 645              		.loc 1 108 5 is_stmt 1 view .LVU219
 108:mi/plaits/dsp/speech/lpc_speech_synth.cpp ****     e[2] = e[3] - k_[2] * s_[2];
 646              		.loc 1 108 17 is_stmt 0 view .LVU220
 647 0208 F0EE6A9A 		vmov.f32	s19, s21
 648 020c EAEE459A 		vfms.f32	s19, s20, s10
 649              	.LVL36:
 109:mi/plaits/dsp/speech/lpc_speech_synth.cpp ****     e[1] = e[2] - k_[1] * s_[1];
 650              		.loc 1 109 5 is_stmt 1 view .LVU221
 109:mi/plaits/dsp/speech/lpc_speech_synth.cpp ****     e[1] = e[2] - k_[1] * s_[1];
 651              		.loc 1 109 17 is_stmt 0 view .LVU222
 652 0210 F0EE698A 		vmov.f32	s17, s19
 653 0214 E9EE658A 		vfms.f32	s17, s18, s11
 654              	.LVL37:
 110:mi/plaits/dsp/speech/lpc_speech_synth.cpp ****     e[0] = e[1] - k_[0] * s_[0];
 655              		.loc 1 110 5 is_stmt 1 view .LVU223
 110:mi/plaits/dsp/speech/lpc_speech_synth.cpp ****     e[0] = e[1] - k_[0] * s_[0];
 656              		.loc 1 110 17 is_stmt 0 view .LVU224
 657 0218 B0EE680A 		vmov.f32	s0, s17
 658 021c A8EE460A 		vfms.f32	s0, s16, s12
 659              	.LVL38:
 111:mi/plaits/dsp/speech/lpc_speech_synth.cpp ****   
 660              		.loc 1 111 5 is_stmt 1 view .LVU225
 111:mi/plaits/dsp/speech/lpc_speech_synth.cpp ****   
 661              		.loc 1 111 17 is_stmt 0 view .LVU226
 662 0220 F0EE407A 		vmov.f32	s15, s0
 663 0224 E1EE667A 		vfms.f32	s15, s2, s13
 664              	.LVL39:
ARM GAS  /var/folders/9k/zk1mgrrd7wg4__6zvxvr9w8m0000gn/T//ccNsiQFA.s 			page 36


 113:mi/plaits/dsp/speech/lpc_speech_synth.cpp **** 
 665              		.loc 1 113 5 is_stmt 1 view .LVU227
 666 0228 F4EECF7A 		vcmpe.f32	s15, s30
 667 022c F1EE10FA 		vmrs	APSR_nzcv, FPSCR
 668 0230 7FF50BAF 		bpl	.L34
 113:mi/plaits/dsp/speech/lpc_speech_synth.cpp **** 
 669              		.loc 1 113 5 is_stmt 0 view .LVU228
 670 0234 F0EE4F7A 		vmov.f32	s15, s30
 671              	.LVL40:
 113:mi/plaits/dsp/speech/lpc_speech_synth.cpp **** 
 672              		.loc 1 113 5 view .LVU229
 673 0238 0FE7     		b	.L16
 674              	.LVL41:
 675              	.L33:
 676              	.LBB121:
  94:mi/plaits/dsp/speech/lpc_speech_synth.cpp ****       int8_t s = lut_lpc_excitation_pulse[excitation_pulse_sample_index_];
 677              		.loc 1 94 9 view .LVU230
 678 023a B0EE617A 		vmov.f32	s14, s3
 679 023e 4369     		ldr	r3, [r0, #20]
 680              	.LBE121:
  72:mi/plaits/dsp/speech/lpc_speech_synth.cpp ****     
 681              		.loc 1 72 17 view .LVU231
 682 0240 DFED0F1A 		vldr.32	s3, .L36+12
 683              	.LVL42:
  72:mi/plaits/dsp/speech/lpc_speech_synth.cpp ****     
 684              		.loc 1 72 17 view .LVU232
 685 0244 7FE7     		b	.L11
 686              	.LVL43:
 687              	.L20:
 688              	.LBB122:
 689              	.LBB108:
 690              	.LBB107:
  72:mi/plaits/dsp/speech/lpc_speech_synth.cpp ****     
 691              		.loc 1 72 17 view .LVU233
 692 0246 DFED115A 		vldr.32	s11, .L36+24
 693 024a 61E7     		b	.L12
 694              	.LVL44:
 695              	.L32:
  72:mi/plaits/dsp/speech/lpc_speech_synth.cpp ****     
 696              		.loc 1 72 17 view .LVU234
 697              	.LBE107:
 698              	.LBE108:
 699              	.LBE122:
 700              	.LBE126:
 128:mi/plaits/dsp/speech/lpc_speech_synth.cpp ****   }
 129:mi/plaits/dsp/speech/lpc_speech_synth.cpp ****   next_sample_ = next_sample;
 130:mi/plaits/dsp/speech/lpc_speech_synth.cpp **** }
 701              		.loc 1 130 1 view .LVU235
 702 024c BDEC108B 		vldm	sp!, {d8-d15}
 703              		.cfi_restore 94
 704              		.cfi_restore 95
 705              		.cfi_restore 92
 706              		.cfi_restore 93
 707              		.cfi_restore 90
 708              		.cfi_restore 91
 709              		.cfi_restore 88
 710              		.cfi_restore 89
ARM GAS  /var/folders/9k/zk1mgrrd7wg4__6zvxvr9w8m0000gn/T//ccNsiQFA.s 			page 37


 711              		.cfi_restore 86
 712              		.cfi_restore 87
 713              		.cfi_restore 84
 714              		.cfi_restore 85
 715              		.cfi_restore 82
 716              		.cfi_restore 83
 717              		.cfi_restore 80
 718              		.cfi_restore 81
 719              		.cfi_def_cfa_offset 16
 720 0250 3C60     		str	r4, [r7]
 129:mi/plaits/dsp/speech/lpc_speech_synth.cpp **** }
 721              		.loc 1 129 3 is_stmt 1 view .LVU236
 129:mi/plaits/dsp/speech/lpc_speech_synth.cpp **** }
 722              		.loc 1 129 16 is_stmt 0 view .LVU237
 723 0252 C0ED041A 		vstr.32	s3, [r0, #16]
 724              		.loc 1 130 1 view .LVU238
 725 0256 F0BC     		pop	{r4, r5, r6, r7}
 726              		.cfi_restore 7
 727              		.cfi_restore 6
 728              		.cfi_restore 5
 729              		.cfi_restore 4
 730              		.cfi_def_cfa_offset 0
 731 0258 7047     		bx	lr
 732              	.LVL45:
 733              	.L19:
  65:mi/plaits/dsp/speech/lpc_speech_synth.cpp ****   
 734              		.loc 1 65 3 view .LVU239
 735 025a DFED090A 		vldr.32	s1, .L36+12
 736              	.LVL46:
  65:mi/plaits/dsp/speech/lpc_speech_synth.cpp ****   
 737              		.loc 1 65 27 is_stmt 1 view .LVU240
  67:mi/plaits/dsp/speech/lpc_speech_synth.cpp ****   while (size--) {
 738              		.loc 1 67 3 view .LVU241
  68:mi/plaits/dsp/speech/lpc_speech_synth.cpp ****     phase_ += f;
 739              		.loc 1 68 14 is_stmt 0 view .LVU242
 740 025e 03F1FF3C 		add	ip, r3, #-1
  67:mi/plaits/dsp/speech/lpc_speech_synth.cpp ****   while (size--) {
 741              		.loc 1 67 9 view .LVU243
 742 0262 D0ED041A 		vldr.32	s3, [r0, #16]
 743              	.LVL47:
  68:mi/plaits/dsp/speech/lpc_speech_synth.cpp ****     phase_ += f;
 744              		.loc 1 68 3 is_stmt 1 view .LVU244
  68:mi/plaits/dsp/speech/lpc_speech_synth.cpp ****     phase_ += f;
 745              		.loc 1 68 14 view .LVU245
  68:mi/plaits/dsp/speech/lpc_speech_synth.cpp ****     phase_ += f;
 746              		.loc 1 68 14 is_stmt 0 view .LVU246
 747 0266 002B     		cmp	r3, #0
 748 0268 7FF4E9AE 		bne	.L35
 749              	.L29:
 129:mi/plaits/dsp/speech/lpc_speech_synth.cpp **** }
 750              		.loc 1 129 3 is_stmt 1 view .LVU247
 129:mi/plaits/dsp/speech/lpc_speech_synth.cpp **** }
 751              		.loc 1 129 16 is_stmt 0 view .LVU248
 752 026c C0ED041A 		vstr.32	s3, [r0, #16]
 753 0270 7047     		bx	lr
 754              	.L37:
 755 0272 00BF     		.align	2
ARM GAS  /var/folders/9k/zk1mgrrd7wg4__6zvxvr9w8m0000gn/T//ccNsiQFA.s 			page 38


 756              	.L36:
 757 0274 CDCC4C3C 		.word	1011666125
 758 0278 00000000 		.word	_ZN6stmlib6Random10rng_state_E
 759 027c 00000000 		.word	_ZN6plaits24lut_lpc_excitation_pulseE
 760 0280 00000000 		.word	0
 761 0284 0D661900 		.word	1664525
 762 0288 5FF36E3C 		.word	1013904223
 763 028c 00000080 		.word	-2147483648
 764              		.cfi_endproc
 765              	.LFE1455:
 767              		.section	.text._ZN6plaits14LPCSpeechSynth9PlayFrameERKNS0_5FrameES3_f,"ax",%progbits
 768              		.align	1
 769              		.p2align 2,,3
 770              		.global	_ZN6plaits14LPCSpeechSynth9PlayFrameERKNS0_5FrameES3_f
 771              		.syntax unified
 772              		.thumb
 773              		.thumb_func
 775              	_ZN6plaits14LPCSpeechSynth9PlayFrameERKNS0_5FrameES3_f:
 776              	.LVL48:
 777              	.LFB1456:
 131:mi/plaits/dsp/speech/lpc_speech_synth.cpp **** 
 132:mi/plaits/dsp/speech/lpc_speech_synth.cpp **** void LPCSpeechSynth::PlayFrame(const Frame& f1, const Frame& f2, float blend) {
 778              		.loc 1 132 79 is_stmt 1 view -0
 779              		.cfi_startproc
 780              		@ args = 0, pretend = 0, frame = 0
 781              		@ frame_needed = 0, uses_anonymous_args = 0
 782              		@ link register save eliminated.
 133:mi/plaits/dsp/speech/lpc_speech_synth.cpp ****   float frequency_1 = f1.period == 0
 783              		.loc 1 133 3 view .LVU250
 784              		.loc 1 133 26 is_stmt 0 view .LVU251
 785 0000 4B78     		ldrb	r3, [r1, #1]	@ zero_extendqisi2
 132:mi/plaits/dsp/speech/lpc_speech_synth.cpp ****   float frequency_1 = f1.period == 0
 786              		.loc 1 132 79 view .LVU252
 787 0002 10B4     		push	{r4}
 788              		.cfi_def_cfa_offset 4
 789              		.cfi_offset 4, -4
 134:mi/plaits/dsp/speech/lpc_speech_synth.cpp ****       ? frequency_
 790              		.loc 1 134 7 view .LVU253
 791 0004 5BBB     		cbnz	r3, .L39
 135:mi/plaits/dsp/speech/lpc_speech_synth.cpp ****       : 1.0f / static_cast<float>(f1.period);
 136:mi/plaits/dsp/speech/lpc_speech_synth.cpp ****   float frequency_2 = f2.period == 0
 792              		.loc 1 136 26 discriminator 1 view .LVU254
 793 0006 5478     		ldrb	r4, [r2, #1]	@ zero_extendqisi2
 134:mi/plaits/dsp/speech/lpc_speech_synth.cpp ****       ? frequency_
 794              		.loc 1 134 7 discriminator 1 view .LVU255
 795 0008 90ED017A 		vldr.32	s14, [r0, #4]
 796              	.LVL49:
 797              		.loc 1 136 3 is_stmt 1 discriminator 1 view .LVU256
 137:mi/plaits/dsp/speech/lpc_speech_synth.cpp ****       ? frequency_
 798              		.loc 1 137 7 is_stmt 0 discriminator 1 view .LVU257
 799 000c 94BB     		cbnz	r4, .L41
 800              	.L52:
 801              	.LVL50:
 138:mi/plaits/dsp/speech/lpc_speech_synth.cpp ****       : 1.0f / static_cast<float>(f2.period);
 139:mi/plaits/dsp/speech/lpc_speech_synth.cpp ****   frequency_ = frequency_1 + (frequency_2 - frequency_1) * blend;
 802              		.loc 1 139 3 is_stmt 1 discriminator 1 view .LVU258
 803              		.loc 1 139 43 is_stmt 0 discriminator 1 view .LVU259
ARM GAS  /var/folders/9k/zk1mgrrd7wg4__6zvxvr9w8m0000gn/T//ccNsiQFA.s 			page 39


 804 000e D0ED016A 		vldr.32	s13, [r0, #4]
 140:mi/plaits/dsp/speech/lpc_speech_synth.cpp ****   
 141:mi/plaits/dsp/speech/lpc_speech_synth.cpp ****   float energy_1 = static_cast<float>(f1.energy) / 256.0f;
 805              		.loc 1 141 9 discriminator 1 view .LVU260
 806 0012 9FEDAD6A 		vldr.32	s12, .L53
 139:mi/plaits/dsp/speech/lpc_speech_synth.cpp ****   
 807              		.loc 1 139 43 discriminator 1 view .LVU261
 808 0016 76EEC76A 		vsub.f32	s13, s13, s14
 139:mi/plaits/dsp/speech/lpc_speech_synth.cpp ****   
 809              		.loc 1 139 28 discriminator 1 view .LVU262
 810 001a A6EE807A 		vfma.f32	s14, s13, s0
 811              	.LVL51:
 139:mi/plaits/dsp/speech/lpc_speech_synth.cpp ****   
 812              		.loc 1 139 14 discriminator 1 view .LVU263
 813 001e 80ED017A 		vstr.32	s14, [r0, #4]
 814              	.LVL52:
 815              		.loc 1 141 3 is_stmt 1 discriminator 1 view .LVU264
 816              		.loc 1 141 20 is_stmt 0 discriminator 1 view .LVU265
 817 0022 0C78     		ldrb	r4, [r1]	@ zero_extendqisi2
 818 0024 07EE904A 		vmov	s15, r4	@ int
 142:mi/plaits/dsp/speech/lpc_speech_synth.cpp ****   float energy_2 = static_cast<float>(f2.energy) / 256.0f;
 819              		.loc 1 142 20 discriminator 1 view .LVU266
 820 0028 1478     		ldrb	r4, [r2]	@ zero_extendqisi2
 821 002a 07EE104A 		vmov	s14, r4	@ int
 141:mi/plaits/dsp/speech/lpc_speech_synth.cpp ****   float energy_2 = static_cast<float>(f2.energy) / 256.0f;
 822              		.loc 1 141 20 discriminator 1 view .LVU267
 823 002e F8EE677A 		vcvt.f32.u32	s15, s15
 824              		.loc 1 142 20 discriminator 1 view .LVU268
 825 0032 B8EE477A 		vcvt.f32.u32	s14, s14
 141:mi/plaits/dsp/speech/lpc_speech_synth.cpp ****   float energy_2 = static_cast<float>(f2.energy) / 256.0f;
 826              		.loc 1 141 9 discriminator 1 view .LVU269
 827 0036 67EE867A 		vmul.f32	s15, s15, s12
 828              	.LVL53:
 829              		.loc 1 142 3 is_stmt 1 discriminator 1 view .LVU270
 830              		.loc 1 142 9 is_stmt 0 discriminator 1 view .LVU271
 831 003a 27EE067A 		vmul.f32	s14, s14, s12
 832              	.LVL54:
 143:mi/plaits/dsp/speech/lpc_speech_synth.cpp ****   float noise_energy_1 = f1.period == 0 ? energy_1 : 0.0f;
 833              		.loc 1 143 3 is_stmt 1 discriminator 1 view .LVU272
 834              		.loc 1 143 41 is_stmt 0 discriminator 1 view .LVU273
 835 003e 002B     		cmp	r3, #0
 836 0040 40F03781 		bne	.L51
 837              	.LVL55:
 144:mi/plaits/dsp/speech/lpc_speech_synth.cpp ****   float noise_energy_2 = f2.period == 0 ? energy_2 : 0.0f;
 838              		.loc 1 144 3 is_stmt 1 view .LVU274
 145:mi/plaits/dsp/speech/lpc_speech_synth.cpp ****   noise_energy_ = noise_energy_1 + (noise_energy_2 - noise_energy_1) * blend;
 839              		.loc 1 145 3 view .LVU275
 840              		.loc 1 145 52 is_stmt 0 view .LVU276
 841 0044 37EE677A 		vsub.f32	s14, s14, s15
 842              	.LVL56:
 843              		.loc 1 145 34 view .LVU277
 844 0048 E0EE077A 		vfma.f32	s15, s0, s14
 845              	.LVL57:
 846              		.loc 1 145 34 view .LVU278
 847 004c F0EE676A 		vmov.f32	s13, s15
 848              		.loc 1 145 17 view .LVU279
 849 0050 DFED9E7A 		vldr.32	s15, .L53+4
ARM GAS  /var/folders/9k/zk1mgrrd7wg4__6zvxvr9w8m0000gn/T//ccNsiQFA.s 			page 40


 146:mi/plaits/dsp/speech/lpc_speech_synth.cpp **** 
 147:mi/plaits/dsp/speech/lpc_speech_synth.cpp ****   float pulse_energy_1 = f1.period != 0 ? energy_1 : 0;
 850              		.loc 1 147 41 view .LVU280
 851 0054 B0EE675A 		vmov.f32	s10, s15
 145:mi/plaits/dsp/speech/lpc_speech_synth.cpp ****   noise_energy_ = noise_energy_1 + (noise_energy_2 - noise_energy_1) * blend;
 852              		.loc 1 145 17 view .LVU281
 853 0058 C0ED026A 		vstr.32	s13, [r0, #8]
 854              	.LVL58:
 855              		.loc 1 147 3 is_stmt 1 view .LVU282
 856 005c 33E0     		b	.L46
 857              	.LVL59:
 858              	.L39:
 135:mi/plaits/dsp/speech/lpc_speech_synth.cpp ****   float frequency_2 = f2.period == 0
 859              		.loc 1 135 16 is_stmt 0 discriminator 2 view .LVU283
 860 005e 07EE903A 		vmov	s15, r3	@ int
 134:mi/plaits/dsp/speech/lpc_speech_synth.cpp ****       : 1.0f / static_cast<float>(f1.period);
 861              		.loc 1 134 7 discriminator 2 view .LVU284
 862 0062 F7EE006A 		vmov.f32	s13, #1.0e+0
 136:mi/plaits/dsp/speech/lpc_speech_synth.cpp ****       ? frequency_
 863              		.loc 1 136 26 discriminator 2 view .LVU285
 864 0066 5478     		ldrb	r4, [r2, #1]	@ zero_extendqisi2
 135:mi/plaits/dsp/speech/lpc_speech_synth.cpp ****   float frequency_2 = f2.period == 0
 865              		.loc 1 135 16 discriminator 2 view .LVU286
 866 0068 F8EE677A 		vcvt.f32.u32	s15, s15
 134:mi/plaits/dsp/speech/lpc_speech_synth.cpp ****       : 1.0f / static_cast<float>(f1.period);
 867              		.loc 1 134 7 discriminator 2 view .LVU287
 868 006c 86EEA77A 		vdiv.f32	s14, s13, s15
 869              	.LVL60:
 136:mi/plaits/dsp/speech/lpc_speech_synth.cpp ****       ? frequency_
 870              		.loc 1 136 3 is_stmt 1 discriminator 2 view .LVU288
 137:mi/plaits/dsp/speech/lpc_speech_synth.cpp ****       : 1.0f / static_cast<float>(f2.period);
 871              		.loc 1 137 7 is_stmt 0 discriminator 2 view .LVU289
 872 0070 002C     		cmp	r4, #0
 873 0072 CCD0     		beq	.L52
 874              	.L41:
 875              	.LVL61:
 139:mi/plaits/dsp/speech/lpc_speech_synth.cpp ****   
 876              		.loc 1 139 3 is_stmt 1 discriminator 2 view .LVU290
 138:mi/plaits/dsp/speech/lpc_speech_synth.cpp ****   frequency_ = frequency_1 + (frequency_2 - frequency_1) * blend;
 877              		.loc 1 138 16 is_stmt 0 discriminator 2 view .LVU291
 878 0074 07EE904A 		vmov	s15, r4	@ int
 141:mi/plaits/dsp/speech/lpc_speech_synth.cpp ****   float energy_2 = static_cast<float>(f2.energy) / 256.0f;
 879              		.loc 1 141 9 discriminator 2 view .LVU292
 880 0078 9FED936A 		vldr.32	s12, .L53
 138:mi/plaits/dsp/speech/lpc_speech_synth.cpp ****   frequency_ = frequency_1 + (frequency_2 - frequency_1) * blend;
 881              		.loc 1 138 16 discriminator 2 view .LVU293
 882 007c F8EE677A 		vcvt.f32.u32	s15, s15
 137:mi/plaits/dsp/speech/lpc_speech_synth.cpp ****       : 1.0f / static_cast<float>(f2.period);
 883              		.loc 1 137 7 discriminator 2 view .LVU294
 884 0080 F7EE005A 		vmov.f32	s11, #1.0e+0
 885 0084 C5EEA76A 		vdiv.f32	s13, s11, s15
 139:mi/plaits/dsp/speech/lpc_speech_synth.cpp ****   
 886              		.loc 1 139 43 discriminator 2 view .LVU295
 887 0088 76EEC77A 		vsub.f32	s15, s13, s14
 139:mi/plaits/dsp/speech/lpc_speech_synth.cpp ****   
 888              		.loc 1 139 28 discriminator 2 view .LVU296
 889 008c A0EE277A 		vfma.f32	s14, s0, s15
ARM GAS  /var/folders/9k/zk1mgrrd7wg4__6zvxvr9w8m0000gn/T//ccNsiQFA.s 			page 41


 890              	.LVL62:
 139:mi/plaits/dsp/speech/lpc_speech_synth.cpp ****   
 891              		.loc 1 139 14 discriminator 2 view .LVU297
 892 0090 80ED017A 		vstr.32	s14, [r0, #4]
 141:mi/plaits/dsp/speech/lpc_speech_synth.cpp ****   float energy_2 = static_cast<float>(f2.energy) / 256.0f;
 893              		.loc 1 141 3 is_stmt 1 discriminator 2 view .LVU298
 141:mi/plaits/dsp/speech/lpc_speech_synth.cpp ****   float energy_2 = static_cast<float>(f2.energy) / 256.0f;
 894              		.loc 1 141 20 is_stmt 0 discriminator 2 view .LVU299
 895 0094 0C78     		ldrb	r4, [r1]	@ zero_extendqisi2
 896              	.LVL63:
 141:mi/plaits/dsp/speech/lpc_speech_synth.cpp ****   float energy_2 = static_cast<float>(f2.energy) / 256.0f;
 897              		.loc 1 141 20 discriminator 2 view .LVU300
 898 0096 07EE904A 		vmov	s15, r4	@ int
 142:mi/plaits/dsp/speech/lpc_speech_synth.cpp ****   float noise_energy_1 = f1.period == 0 ? energy_1 : 0.0f;
 899              		.loc 1 142 20 discriminator 2 view .LVU301
 900 009a 1478     		ldrb	r4, [r2]	@ zero_extendqisi2
 901 009c 05EE104A 		vmov	s10, r4	@ int
 141:mi/plaits/dsp/speech/lpc_speech_synth.cpp ****   float energy_2 = static_cast<float>(f2.energy) / 256.0f;
 902              		.loc 1 141 20 discriminator 2 view .LVU302
 903 00a0 F8EE677A 		vcvt.f32.u32	s15, s15
 142:mi/plaits/dsp/speech/lpc_speech_synth.cpp ****   float noise_energy_1 = f1.period == 0 ? energy_1 : 0.0f;
 904              		.loc 1 142 20 discriminator 2 view .LVU303
 905 00a4 B8EE455A 		vcvt.f32.u32	s10, s10
 141:mi/plaits/dsp/speech/lpc_speech_synth.cpp ****   float energy_2 = static_cast<float>(f2.energy) / 256.0f;
 906              		.loc 1 141 9 discriminator 2 view .LVU304
 907 00a8 67EE867A 		vmul.f32	s15, s15, s12
 908              	.LVL64:
 142:mi/plaits/dsp/speech/lpc_speech_synth.cpp ****   float noise_energy_1 = f1.period == 0 ? energy_1 : 0.0f;
 909              		.loc 1 142 3 is_stmt 1 discriminator 2 view .LVU305
 142:mi/plaits/dsp/speech/lpc_speech_synth.cpp ****   float noise_energy_1 = f1.period == 0 ? energy_1 : 0.0f;
 910              		.loc 1 142 9 is_stmt 0 discriminator 2 view .LVU306
 911 00ac 25EE065A 		vmul.f32	s10, s10, s12
 912              	.LVL65:
 143:mi/plaits/dsp/speech/lpc_speech_synth.cpp ****   float noise_energy_2 = f2.period == 0 ? energy_2 : 0.0f;
 913              		.loc 1 143 3 is_stmt 1 discriminator 2 view .LVU307
 143:mi/plaits/dsp/speech/lpc_speech_synth.cpp ****   float noise_energy_2 = f2.period == 0 ? energy_2 : 0.0f;
 914              		.loc 1 143 41 is_stmt 0 discriminator 2 view .LVU308
 915 00b0 002B     		cmp	r3, #0
 916 00b2 00F0F180 		beq	.L44
 917              	.LVL66:
 144:mi/plaits/dsp/speech/lpc_speech_synth.cpp ****   noise_energy_ = noise_energy_1 + (noise_energy_2 - noise_energy_1) * blend;
 918              		.loc 1 144 3 is_stmt 1 view .LVU309
 145:mi/plaits/dsp/speech/lpc_speech_synth.cpp **** 
 919              		.loc 1 145 3 view .LVU310
 145:mi/plaits/dsp/speech/lpc_speech_synth.cpp **** 
 920              		.loc 1 145 34 is_stmt 0 view .LVU311
 921 00b6 9FED857A 		vldr.32	s14, .L53+4
 148:mi/plaits/dsp/speech/lpc_speech_synth.cpp ****   float pulse_energy_2 = f2.period != 0 ? energy_2 : 0;
 149:mi/plaits/dsp/speech/lpc_speech_synth.cpp ****   pulse_energy_ = pulse_energy_1 + (pulse_energy_2 - pulse_energy_1) * blend;
 922              		.loc 1 149 52 view .LVU312
 923 00ba 35EE675A 		vsub.f32	s10, s10, s15
 924              	.LVL67:
 145:mi/plaits/dsp/speech/lpc_speech_synth.cpp **** 
 925              		.loc 1 145 34 view .LVU313
 926 00be A0EE077A 		vfma.f32	s14, s0, s14
 145:mi/plaits/dsp/speech/lpc_speech_synth.cpp **** 
 927              		.loc 1 145 17 view .LVU314
ARM GAS  /var/folders/9k/zk1mgrrd7wg4__6zvxvr9w8m0000gn/T//ccNsiQFA.s 			page 42


 928 00c2 80ED027A 		vstr.32	s14, [r0, #8]
 147:mi/plaits/dsp/speech/lpc_speech_synth.cpp ****   float pulse_energy_2 = f2.period != 0 ? energy_2 : 0;
 929              		.loc 1 147 3 is_stmt 1 view .LVU315
 930              	.LVL68:
 931              	.L46:
 932              		.loc 1 149 3 discriminator 4 view .LVU316
 933              	.LBB127:
 934              	.LBB128:
 935              		.file 5 "mi/plaits/dsp/speech/lpc_speech_synth.h"
   1:mi/plaits/dsp/speech/lpc_speech_synth.h **** // Copyright 2016 Emilie Gillet.
   2:mi/plaits/dsp/speech/lpc_speech_synth.h **** //
   3:mi/plaits/dsp/speech/lpc_speech_synth.h **** // Author: Emilie Gillet (emilie.o.gillet@gmail.com)
   4:mi/plaits/dsp/speech/lpc_speech_synth.h **** //
   5:mi/plaits/dsp/speech/lpc_speech_synth.h **** // Permission is hereby granted, free of charge, to any person obtaining a copy
   6:mi/plaits/dsp/speech/lpc_speech_synth.h **** // of this software and associated documentation files (the "Software"), to deal
   7:mi/plaits/dsp/speech/lpc_speech_synth.h **** // in the Software without restriction, including without limitation the rights
   8:mi/plaits/dsp/speech/lpc_speech_synth.h **** // to use, copy, modify, merge, publish, distribute, sublicense, and/or sell
   9:mi/plaits/dsp/speech/lpc_speech_synth.h **** // copies of the Software, and to permit persons to whom the Software is
  10:mi/plaits/dsp/speech/lpc_speech_synth.h **** // furnished to do so, subject to the following conditions:
  11:mi/plaits/dsp/speech/lpc_speech_synth.h **** // 
  12:mi/plaits/dsp/speech/lpc_speech_synth.h **** // The above copyright notice and this permission notice shall be included in
  13:mi/plaits/dsp/speech/lpc_speech_synth.h **** // all copies or substantial portions of the Software.
  14:mi/plaits/dsp/speech/lpc_speech_synth.h **** // 
  15:mi/plaits/dsp/speech/lpc_speech_synth.h **** // THE SOFTWARE IS PROVIDED "AS IS", WITHOUT WARRANTY OF ANY KIND, EXPRESS OR
  16:mi/plaits/dsp/speech/lpc_speech_synth.h **** // IMPLIED, INCLUDING BUT NOT LIMITED TO THE WARRANTIES OF MERCHANTABILITY,
  17:mi/plaits/dsp/speech/lpc_speech_synth.h **** // FITNESS FOR A PARTICULAR PURPOSE AND NONINFRINGEMENT. IN NO EVENT SHALL THE
  18:mi/plaits/dsp/speech/lpc_speech_synth.h **** // AUTHORS OR COPYRIGHT HOLDERS BE LIABLE FOR ANY CLAIM, DAMAGES OR OTHER
  19:mi/plaits/dsp/speech/lpc_speech_synth.h **** // LIABILITY, WHETHER IN AN ACTION OF CONTRACT, TORT OR OTHERWISE, ARISING FROM,
  20:mi/plaits/dsp/speech/lpc_speech_synth.h **** // OUT OF OR IN CONNECTION WITH THE SOFTWARE OR THE USE OR OTHER DEALINGS IN
  21:mi/plaits/dsp/speech/lpc_speech_synth.h **** // THE SOFTWARE.
  22:mi/plaits/dsp/speech/lpc_speech_synth.h **** // 
  23:mi/plaits/dsp/speech/lpc_speech_synth.h **** // See http://creativecommons.org/licenses/MIT/ for more information.
  24:mi/plaits/dsp/speech/lpc_speech_synth.h **** //
  25:mi/plaits/dsp/speech/lpc_speech_synth.h **** // -----------------------------------------------------------------------------
  26:mi/plaits/dsp/speech/lpc_speech_synth.h **** //
  27:mi/plaits/dsp/speech/lpc_speech_synth.h **** // LPC10 speech synth.
  28:mi/plaits/dsp/speech/lpc_speech_synth.h **** 
  29:mi/plaits/dsp/speech/lpc_speech_synth.h **** #ifndef PLAITS_DSP_SPEECH_LPC_SPEECH_SYNTH_H_
  30:mi/plaits/dsp/speech/lpc_speech_synth.h **** #define PLAITS_DSP_SPEECH_LPC_SPEECH_SYNTH_H_
  31:mi/plaits/dsp/speech/lpc_speech_synth.h **** 
  32:mi/plaits/dsp/speech/lpc_speech_synth.h **** #include "stmlib/dsp/dsp.h"
  33:mi/plaits/dsp/speech/lpc_speech_synth.h **** 
  34:mi/plaits/dsp/speech/lpc_speech_synth.h **** #include "plaits/dsp/dsp.h"
  35:mi/plaits/dsp/speech/lpc_speech_synth.h **** 
  36:mi/plaits/dsp/speech/lpc_speech_synth.h **** namespace plaits {
  37:mi/plaits/dsp/speech/lpc_speech_synth.h **** 
  38:mi/plaits/dsp/speech/lpc_speech_synth.h **** const int kLPCOrder = 10;
  39:mi/plaits/dsp/speech/lpc_speech_synth.h **** 
  40:mi/plaits/dsp/speech/lpc_speech_synth.h **** const float kLPCSpeechSynthDefaultF0 = 100.0f;
  41:mi/plaits/dsp/speech/lpc_speech_synth.h **** 
  42:mi/plaits/dsp/speech/lpc_speech_synth.h **** class LPCSpeechSynth {
  43:mi/plaits/dsp/speech/lpc_speech_synth.h ****  public:
  44:mi/plaits/dsp/speech/lpc_speech_synth.h ****   LPCSpeechSynth() { }
  45:mi/plaits/dsp/speech/lpc_speech_synth.h ****   ~LPCSpeechSynth() { }
  46:mi/plaits/dsp/speech/lpc_speech_synth.h **** 
  47:mi/plaits/dsp/speech/lpc_speech_synth.h ****   struct Frame {
  48:mi/plaits/dsp/speech/lpc_speech_synth.h ****     // 14 bytes.
ARM GAS  /var/folders/9k/zk1mgrrd7wg4__6zvxvr9w8m0000gn/T//ccNsiQFA.s 			page 43


  49:mi/plaits/dsp/speech/lpc_speech_synth.h ****     uint8_t energy;
  50:mi/plaits/dsp/speech/lpc_speech_synth.h ****     uint8_t period;
  51:mi/plaits/dsp/speech/lpc_speech_synth.h ****     int16_t k0;
  52:mi/plaits/dsp/speech/lpc_speech_synth.h ****     int16_t k1;
  53:mi/plaits/dsp/speech/lpc_speech_synth.h ****     int8_t k2;
  54:mi/plaits/dsp/speech/lpc_speech_synth.h ****     int8_t k3;
  55:mi/plaits/dsp/speech/lpc_speech_synth.h ****     int8_t k4;
  56:mi/plaits/dsp/speech/lpc_speech_synth.h ****     int8_t k5;
  57:mi/plaits/dsp/speech/lpc_speech_synth.h ****     int8_t k6;
  58:mi/plaits/dsp/speech/lpc_speech_synth.h ****     int8_t k7;
  59:mi/plaits/dsp/speech/lpc_speech_synth.h ****     int8_t k8;
  60:mi/plaits/dsp/speech/lpc_speech_synth.h ****     int8_t k9;
  61:mi/plaits/dsp/speech/lpc_speech_synth.h ****   };
  62:mi/plaits/dsp/speech/lpc_speech_synth.h **** 
  63:mi/plaits/dsp/speech/lpc_speech_synth.h ****   void Init();
  64:mi/plaits/dsp/speech/lpc_speech_synth.h ****   
  65:mi/plaits/dsp/speech/lpc_speech_synth.h ****   void Render(
  66:mi/plaits/dsp/speech/lpc_speech_synth.h ****       float prosody_amount,
  67:mi/plaits/dsp/speech/lpc_speech_synth.h ****       float pitch_shift,
  68:mi/plaits/dsp/speech/lpc_speech_synth.h ****       float* excitation,
  69:mi/plaits/dsp/speech/lpc_speech_synth.h ****       float* output,
  70:mi/plaits/dsp/speech/lpc_speech_synth.h ****       size_t size);
  71:mi/plaits/dsp/speech/lpc_speech_synth.h ****   
  72:mi/plaits/dsp/speech/lpc_speech_synth.h ****   void PlayFrame(const Frame* frames, float frame, bool interpolate) {
  73:mi/plaits/dsp/speech/lpc_speech_synth.h ****     MAKE_INTEGRAL_FRACTIONAL(frame);
  74:mi/plaits/dsp/speech/lpc_speech_synth.h ****     
  75:mi/plaits/dsp/speech/lpc_speech_synth.h ****     if (!interpolate) {
  76:mi/plaits/dsp/speech/lpc_speech_synth.h ****       frame_fractional = 0.0f;
  77:mi/plaits/dsp/speech/lpc_speech_synth.h ****     }
  78:mi/plaits/dsp/speech/lpc_speech_synth.h ****     PlayFrame(
  79:mi/plaits/dsp/speech/lpc_speech_synth.h ****         frames[frame_integral],
  80:mi/plaits/dsp/speech/lpc_speech_synth.h ****         frames[frame_integral + 1],
  81:mi/plaits/dsp/speech/lpc_speech_synth.h ****         frame_fractional);
  82:mi/plaits/dsp/speech/lpc_speech_synth.h ****   }
  83:mi/plaits/dsp/speech/lpc_speech_synth.h **** 
  84:mi/plaits/dsp/speech/lpc_speech_synth.h ****  private:
  85:mi/plaits/dsp/speech/lpc_speech_synth.h ****   void PlayFrame(const Frame& f1, const Frame& f2, float blend);
  86:mi/plaits/dsp/speech/lpc_speech_synth.h ****   
  87:mi/plaits/dsp/speech/lpc_speech_synth.h ****   template <int scale, typename X>
  88:mi/plaits/dsp/speech/lpc_speech_synth.h ****   float BlendCoefficient(X a, X b, float blend) {
  89:mi/plaits/dsp/speech/lpc_speech_synth.h ****     float a_f = static_cast<float>(a) / float(scale);
  90:mi/plaits/dsp/speech/lpc_speech_synth.h ****     float b_f = static_cast<float>(b) / float(scale);
 936              		.loc 5 90 17 is_stmt 0 discriminator 4 view .LVU317
 937 00c6 B2F90230 		ldrsh	r3, [r2, #2]
 938              	.LBE128:
 939              	.LBE127:
 940              		.loc 1 149 34 discriminator 4 view .LVU318
 941 00ca E0EE057A 		vfma.f32	s15, s0, s10
 942              	.LBB136:
 943              	.LBB129:
 944              		.loc 5 90 11 discriminator 4 view .LVU319
 945 00ce DFED805A 		vldr.32	s11, .L53+8
 946              		.loc 5 90 17 discriminator 4 view .LVU320
 947 00d2 06EE903A 		vmov	s13, r3	@ int
 948              	.LBE129:
 949              	.LBE136:
 950              	.LBB137:
ARM GAS  /var/folders/9k/zk1mgrrd7wg4__6zvxvr9w8m0000gn/T//ccNsiQFA.s 			page 44


 951              	.LBB138:
 952 00d6 B2F90430 		ldrsh	r3, [r2, #4]
 953              	.LBE138:
 954              	.LBE137:
 150:mi/plaits/dsp/speech/lpc_speech_synth.cpp ****   
 151:mi/plaits/dsp/speech/lpc_speech_synth.cpp ****   k_[0] = BlendCoefficient<32768>(f1.k0, f2.k0, blend);
 152:mi/plaits/dsp/speech/lpc_speech_synth.cpp ****   k_[1] = BlendCoefficient<32768>(f1.k1, f2.k1, blend);
 153:mi/plaits/dsp/speech/lpc_speech_synth.cpp ****   k_[2] = BlendCoefficient<128>(f1.k2, f2.k2, blend);
 154:mi/plaits/dsp/speech/lpc_speech_synth.cpp ****   k_[3] = BlendCoefficient<128>(f1.k3, f2.k3, blend);
 155:mi/plaits/dsp/speech/lpc_speech_synth.cpp ****   k_[4] = BlendCoefficient<128>(f1.k4, f2.k4, blend);
 156:mi/plaits/dsp/speech/lpc_speech_synth.cpp ****   k_[5] = BlendCoefficient<128>(f1.k5, f2.k5, blend);
 157:mi/plaits/dsp/speech/lpc_speech_synth.cpp ****   k_[6] = BlendCoefficient<128>(f1.k6, f2.k6, blend);
 158:mi/plaits/dsp/speech/lpc_speech_synth.cpp ****   k_[7] = BlendCoefficient<128>(f1.k7, f2.k7, blend);
 159:mi/plaits/dsp/speech/lpc_speech_synth.cpp ****   k_[8] = BlendCoefficient<128>(f1.k8, f2.k8, blend);
 160:mi/plaits/dsp/speech/lpc_speech_synth.cpp ****   k_[9] = BlendCoefficient<128>(f1.k9, f2.k9, blend);
 161:mi/plaits/dsp/speech/lpc_speech_synth.cpp **** }
 955              		.loc 1 161 1 discriminator 4 view .LVU321
 956 00da 5DF8044B 		ldr	r4, [sp], #4
 957              		.cfi_remember_state
 958              		.cfi_restore 4
 959              		.cfi_def_cfa_offset 0
 960              	.LBB147:
 961              	.LBB139:
 962              		.loc 5 90 17 discriminator 4 view .LVU322
 963 00de 07EE103A 		vmov	s14, r3	@ int
 964              	.LBE139:
 965              	.LBE147:
 966              	.LBB148:
 967              	.LBB130:
  89:mi/plaits/dsp/speech/lpc_speech_synth.h ****     float b_f = static_cast<float>(b) / float(scale);
 968              		.loc 5 89 17 discriminator 4 view .LVU323
 969 00e2 B1F90230 		ldrsh	r3, [r1, #2]
 970              		.loc 5 90 17 discriminator 4 view .LVU324
 971 00e6 F8EEE66A 		vcvt.f32.s32	s13, s13
  89:mi/plaits/dsp/speech/lpc_speech_synth.h ****     float b_f = static_cast<float>(b) / float(scale);
 972              		.loc 5 89 17 discriminator 4 view .LVU325
 973 00ea 04EE903A 		vmov	s9, r3	@ int
 974              	.LBE130:
 975              	.LBE148:
 976              	.LBB149:
 977              	.LBB140:
 978 00ee B1F90430 		ldrsh	r3, [r1, #4]
 979              		.loc 5 90 17 discriminator 4 view .LVU326
 980 00f2 B8EEC77A 		vcvt.f32.s32	s14, s14
 981              	.LBE140:
 982              	.LBE149:
 149:mi/plaits/dsp/speech/lpc_speech_synth.cpp ****   
 983              		.loc 1 149 34 discriminator 4 view .LVU327
 984 00f6 B0EE676A 		vmov.f32	s12, s15
 985              	.LBB150:
 986              	.LBB141:
  89:mi/plaits/dsp/speech/lpc_speech_synth.h ****     float b_f = static_cast<float>(b) / float(scale);
 987              		.loc 5 89 17 discriminator 4 view .LVU328
 988 00fa 07EE903A 		vmov	s15, r3	@ int
 989              	.LBE141:
 990              	.LBE150:
 991              	.LBB151:
ARM GAS  /var/folders/9k/zk1mgrrd7wg4__6zvxvr9w8m0000gn/T//ccNsiQFA.s 			page 45


 992              	.LBB131:
 993 00fe F8EEE44A 		vcvt.f32.s32	s9, s9
 994              	.LBE131:
 995              	.LBE151:
 996              	.LBB152:
 997              	.LBB142:
 998 0102 B8EEE75A 		vcvt.f32.s32	s10, s15
 999              	.LBE142:
 1000              	.LBE152:
 1001              	.LBB153:
 1002              	.LBB154:
 1003              		.loc 5 90 11 discriminator 4 view .LVU329
 1004 0106 DFED737A 		vldr.32	s15, .L53+12
 1005              	.LBE154:
 1006              	.LBE153:
 1007              	.LBB156:
 1008              	.LBB132:
 1009 010a 66EEA56A 		vmul.f32	s13, s13, s11
 1010              	.LBE132:
 1011              	.LBE156:
 149:mi/plaits/dsp/speech/lpc_speech_synth.cpp ****   
 1012              		.loc 1 149 17 discriminator 4 view .LVU330
 1013 010e 80ED036A 		vstr.32	s12, [r0, #12]
 151:mi/plaits/dsp/speech/lpc_speech_synth.cpp ****   k_[1] = BlendCoefficient<32768>(f1.k1, f2.k1, blend);
 1014              		.loc 1 151 3 is_stmt 1 discriminator 4 view .LVU331
 1015              	.LVL69:
 1016              	.LBB157:
 1017              	.LBI127:
  88:mi/plaits/dsp/speech/lpc_speech_synth.h ****     float a_f = static_cast<float>(a) / float(scale);
 1018              		.loc 5 88 9 discriminator 4 view .LVU332
  88:mi/plaits/dsp/speech/lpc_speech_synth.h ****     float a_f = static_cast<float>(a) / float(scale);
 1019              		.loc 5 88 9 is_stmt 0 discriminator 4 view .LVU333
 1020              	.LBE157:
 1021              	.LBB158:
 1022              	.LBB143:
 1023              		.loc 5 90 11 discriminator 4 view .LVU334
 1024 0112 27EE257A 		vmul.f32	s14, s14, s11
 1025              	.LBE143:
 1026              	.LBE158:
 1027              	.LBB159:
 1028              	.LBB133:
  91:mi/plaits/dsp/speech/lpc_speech_synth.h ****     return a_f + (b_f - a_f) * blend;
 1029              		.loc 5 91 23 discriminator 4 view .LVU335
 1030 0116 E4EEE56A 		vfms.f32	s13, s9, s11
 1031              	.LBE133:
 1032              	.LBE159:
 1033              	.LBB160:
 1034              	.LBB144:
 1035 011a A5EE657A 		vfms.f32	s14, s10, s11
 1036              	.LBE144:
 1037              	.LBE160:
 1038              	.LBB161:
 1039              	.LBB134:
 1040              		.loc 5 91 30 discriminator 4 view .LVU336
 1041 011e 60EE266A 		vmul.f32	s13, s0, s13
 1042              	.LBE134:
 1043              	.LBE161:
ARM GAS  /var/folders/9k/zk1mgrrd7wg4__6zvxvr9w8m0000gn/T//ccNsiQFA.s 			page 46


 1044              	.LBB162:
 1045              	.LBB145:
 1046 0122 20EE077A 		vmul.f32	s14, s0, s14
 1047              	.LBE145:
 1048              	.LBE162:
 1049              	.LBB163:
 1050              	.LBB135:
 1051              		.loc 5 91 32 discriminator 4 view .LVU337
 1052 0126 E4EEA56A 		vfma.f32	s13, s9, s11
 1053              	.LVL70:
 1054              		.loc 5 91 32 discriminator 4 view .LVU338
 1055              	.LBE135:
 1056              	.LBE163:
 1057              	.LBB164:
 1058              	.LBB146:
 1059 012a A5EE257A 		vfma.f32	s14, s10, s11
 1060              	.LBE146:
 1061              	.LBE164:
 151:mi/plaits/dsp/speech/lpc_speech_synth.cpp ****   k_[1] = BlendCoefficient<32768>(f1.k1, f2.k1, blend);
 1062              		.loc 1 151 9 discriminator 4 view .LVU339
 1063 012e C0ED066A 		vstr.32	s13, [r0, #24]
 152:mi/plaits/dsp/speech/lpc_speech_synth.cpp ****   k_[2] = BlendCoefficient<128>(f1.k2, f2.k2, blend);
 1064              		.loc 1 152 3 is_stmt 1 discriminator 4 view .LVU340
 1065              	.LVL71:
 1066              	.LBB165:
 1067              	.LBI137:
  88:mi/plaits/dsp/speech/lpc_speech_synth.h ****     float a_f = static_cast<float>(a) / float(scale);
 1068              		.loc 5 88 9 discriminator 4 view .LVU341
  88:mi/plaits/dsp/speech/lpc_speech_synth.h ****     float a_f = static_cast<float>(a) / float(scale);
 1069              		.loc 5 88 9 is_stmt 0 discriminator 4 view .LVU342
 1070              	.LBE165:
 152:mi/plaits/dsp/speech/lpc_speech_synth.cpp ****   k_[2] = BlendCoefficient<128>(f1.k2, f2.k2, blend);
 1071              		.loc 1 152 9 discriminator 4 view .LVU343
 1072 0132 80ED077A 		vstr.32	s14, [r0, #28]
 153:mi/plaits/dsp/speech/lpc_speech_synth.cpp ****   k_[3] = BlendCoefficient<128>(f1.k3, f2.k3, blend);
 1073              		.loc 1 153 3 is_stmt 1 discriminator 4 view .LVU344
 1074              	.LVL72:
 1075              	.LBB166:
 1076              	.LBI153:
  88:mi/plaits/dsp/speech/lpc_speech_synth.h ****     float a_f = static_cast<float>(a) / float(scale);
 1077              		.loc 5 88 9 discriminator 4 view .LVU345
 1078              	.LBB155:
  90:mi/plaits/dsp/speech/lpc_speech_synth.h ****     return a_f + (b_f - a_f) * blend;
 1079              		.loc 5 90 17 is_stmt 0 discriminator 4 view .LVU346
 1080 0136 92F90630 		ldrsb	r3, [r2, #6]
 1081 013a 07EE103A 		vmov	s14, r3	@ int
  89:mi/plaits/dsp/speech/lpc_speech_synth.h ****     float b_f = static_cast<float>(b) / float(scale);
 1082              		.loc 5 89 17 discriminator 4 view .LVU347
 1083 013e 91F90630 		ldrsb	r3, [r1, #6]
  90:mi/plaits/dsp/speech/lpc_speech_synth.h ****     return a_f + (b_f - a_f) * blend;
 1084              		.loc 5 90 17 discriminator 4 view .LVU348
 1085 0142 B8EEC77A 		vcvt.f32.s32	s14, s14
  89:mi/plaits/dsp/speech/lpc_speech_synth.h ****     float b_f = static_cast<float>(b) / float(scale);
 1086              		.loc 5 89 17 discriminator 4 view .LVU349
 1087 0146 06EE903A 		vmov	s13, r3	@ int
 1088 014a F8EEE66A 		vcvt.f32.s32	s13, s13
 1089              	.LVL73:
ARM GAS  /var/folders/9k/zk1mgrrd7wg4__6zvxvr9w8m0000gn/T//ccNsiQFA.s 			page 47


  90:mi/plaits/dsp/speech/lpc_speech_synth.h ****     return a_f + (b_f - a_f) * blend;
 1090              		.loc 5 90 11 discriminator 4 view .LVU350
 1091 014e 27EE277A 		vmul.f32	s14, s14, s15
 1092              		.loc 5 91 23 discriminator 4 view .LVU351
 1093 0152 A6EEE77A 		vfms.f32	s14, s13, s15
 1094              		.loc 5 91 30 discriminator 4 view .LVU352
 1095 0156 20EE077A 		vmul.f32	s14, s0, s14
 1096              		.loc 5 91 32 discriminator 4 view .LVU353
 1097 015a A6EEA77A 		vfma.f32	s14, s13, s15
 1098              	.LVL74:
 1099              		.loc 5 91 32 discriminator 4 view .LVU354
 1100              	.LBE155:
 1101              	.LBE166:
 153:mi/plaits/dsp/speech/lpc_speech_synth.cpp ****   k_[3] = BlendCoefficient<128>(f1.k3, f2.k3, blend);
 1102              		.loc 1 153 9 discriminator 4 view .LVU355
 1103 015e 80ED087A 		vstr.32	s14, [r0, #32]
 154:mi/plaits/dsp/speech/lpc_speech_synth.cpp ****   k_[4] = BlendCoefficient<128>(f1.k4, f2.k4, blend);
 1104              		.loc 1 154 3 is_stmt 1 discriminator 4 view .LVU356
 1105              	.LVL75:
 1106              	.LBB167:
 1107              	.LBI167:
  88:mi/plaits/dsp/speech/lpc_speech_synth.h ****     float a_f = static_cast<float>(a) / float(scale);
 1108              		.loc 5 88 9 discriminator 4 view .LVU357
 1109              	.LBB168:
  90:mi/plaits/dsp/speech/lpc_speech_synth.h ****     return a_f + (b_f - a_f) * blend;
 1110              		.loc 5 90 17 is_stmt 0 discriminator 4 view .LVU358
 1111 0162 92F90730 		ldrsb	r3, [r2, #7]
 1112 0166 07EE103A 		vmov	s14, r3	@ int
  89:mi/plaits/dsp/speech/lpc_speech_synth.h ****     float b_f = static_cast<float>(b) / float(scale);
 1113              		.loc 5 89 17 discriminator 4 view .LVU359
 1114 016a 91F90730 		ldrsb	r3, [r1, #7]
  90:mi/plaits/dsp/speech/lpc_speech_synth.h ****     return a_f + (b_f - a_f) * blend;
 1115              		.loc 5 90 17 discriminator 4 view .LVU360
 1116 016e B8EEC77A 		vcvt.f32.s32	s14, s14
  89:mi/plaits/dsp/speech/lpc_speech_synth.h ****     float b_f = static_cast<float>(b) / float(scale);
 1117              		.loc 5 89 17 discriminator 4 view .LVU361
 1118 0172 06EE903A 		vmov	s13, r3	@ int
 1119 0176 F8EEE66A 		vcvt.f32.s32	s13, s13
 1120              	.LVL76:
  90:mi/plaits/dsp/speech/lpc_speech_synth.h ****     return a_f + (b_f - a_f) * blend;
 1121              		.loc 5 90 11 discriminator 4 view .LVU362
 1122 017a 27EE277A 		vmul.f32	s14, s14, s15
 1123              		.loc 5 91 23 discriminator 4 view .LVU363
 1124 017e A6EEE77A 		vfms.f32	s14, s13, s15
 1125              		.loc 5 91 30 discriminator 4 view .LVU364
 1126 0182 20EE077A 		vmul.f32	s14, s0, s14
 1127              		.loc 5 91 32 discriminator 4 view .LVU365
 1128 0186 A6EEA77A 		vfma.f32	s14, s13, s15
 1129              	.LVL77:
 1130              		.loc 5 91 32 discriminator 4 view .LVU366
 1131              	.LBE168:
 1132              	.LBE167:
 154:mi/plaits/dsp/speech/lpc_speech_synth.cpp ****   k_[4] = BlendCoefficient<128>(f1.k4, f2.k4, blend);
 1133              		.loc 1 154 9 discriminator 4 view .LVU367
 1134 018a 80ED097A 		vstr.32	s14, [r0, #36]
 155:mi/plaits/dsp/speech/lpc_speech_synth.cpp ****   k_[5] = BlendCoefficient<128>(f1.k5, f2.k5, blend);
 1135              		.loc 1 155 3 is_stmt 1 discriminator 4 view .LVU368
ARM GAS  /var/folders/9k/zk1mgrrd7wg4__6zvxvr9w8m0000gn/T//ccNsiQFA.s 			page 48


 1136              	.LVL78:
 1137              	.LBB169:
 1138              	.LBI169:
  88:mi/plaits/dsp/speech/lpc_speech_synth.h ****     float a_f = static_cast<float>(a) / float(scale);
 1139              		.loc 5 88 9 discriminator 4 view .LVU369
 1140              	.LBB170:
  90:mi/plaits/dsp/speech/lpc_speech_synth.h ****     return a_f + (b_f - a_f) * blend;
 1141              		.loc 5 90 17 is_stmt 0 discriminator 4 view .LVU370
 1142 018e 92F90830 		ldrsb	r3, [r2, #8]
 1143 0192 07EE103A 		vmov	s14, r3	@ int
  89:mi/plaits/dsp/speech/lpc_speech_synth.h ****     float b_f = static_cast<float>(b) / float(scale);
 1144              		.loc 5 89 17 discriminator 4 view .LVU371
 1145 0196 91F90830 		ldrsb	r3, [r1, #8]
  90:mi/plaits/dsp/speech/lpc_speech_synth.h ****     return a_f + (b_f - a_f) * blend;
 1146              		.loc 5 90 17 discriminator 4 view .LVU372
 1147 019a B8EEC77A 		vcvt.f32.s32	s14, s14
  89:mi/plaits/dsp/speech/lpc_speech_synth.h ****     float b_f = static_cast<float>(b) / float(scale);
 1148              		.loc 5 89 17 discriminator 4 view .LVU373
 1149 019e 06EE903A 		vmov	s13, r3	@ int
 1150 01a2 F8EEE66A 		vcvt.f32.s32	s13, s13
 1151              	.LVL79:
  90:mi/plaits/dsp/speech/lpc_speech_synth.h ****     return a_f + (b_f - a_f) * blend;
 1152              		.loc 5 90 11 discriminator 4 view .LVU374
 1153 01a6 27EE277A 		vmul.f32	s14, s14, s15
 1154              		.loc 5 91 23 discriminator 4 view .LVU375
 1155 01aa A6EEE77A 		vfms.f32	s14, s13, s15
 1156              		.loc 5 91 30 discriminator 4 view .LVU376
 1157 01ae 20EE077A 		vmul.f32	s14, s0, s14
 1158              		.loc 5 91 32 discriminator 4 view .LVU377
 1159 01b2 A6EEA77A 		vfma.f32	s14, s13, s15
 1160              	.LVL80:
 1161              		.loc 5 91 32 discriminator 4 view .LVU378
 1162              	.LBE170:
 1163              	.LBE169:
 155:mi/plaits/dsp/speech/lpc_speech_synth.cpp ****   k_[5] = BlendCoefficient<128>(f1.k5, f2.k5, blend);
 1164              		.loc 1 155 9 discriminator 4 view .LVU379
 1165 01b6 80ED0A7A 		vstr.32	s14, [r0, #40]
 156:mi/plaits/dsp/speech/lpc_speech_synth.cpp ****   k_[6] = BlendCoefficient<128>(f1.k6, f2.k6, blend);
 1166              		.loc 1 156 3 is_stmt 1 discriminator 4 view .LVU380
 1167              	.LVL81:
 1168              	.LBB171:
 1169              	.LBI171:
  88:mi/plaits/dsp/speech/lpc_speech_synth.h ****     float a_f = static_cast<float>(a) / float(scale);
 1170              		.loc 5 88 9 discriminator 4 view .LVU381
 1171              	.LBB172:
  90:mi/plaits/dsp/speech/lpc_speech_synth.h ****     return a_f + (b_f - a_f) * blend;
 1172              		.loc 5 90 17 is_stmt 0 discriminator 4 view .LVU382
 1173 01ba 92F90930 		ldrsb	r3, [r2, #9]
 1174 01be 07EE103A 		vmov	s14, r3	@ int
  89:mi/plaits/dsp/speech/lpc_speech_synth.h ****     float b_f = static_cast<float>(b) / float(scale);
 1175              		.loc 5 89 17 discriminator 4 view .LVU383
 1176 01c2 91F90930 		ldrsb	r3, [r1, #9]
  90:mi/plaits/dsp/speech/lpc_speech_synth.h ****     return a_f + (b_f - a_f) * blend;
 1177              		.loc 5 90 17 discriminator 4 view .LVU384
 1178 01c6 B8EEC77A 		vcvt.f32.s32	s14, s14
  89:mi/plaits/dsp/speech/lpc_speech_synth.h ****     float b_f = static_cast<float>(b) / float(scale);
 1179              		.loc 5 89 17 discriminator 4 view .LVU385
ARM GAS  /var/folders/9k/zk1mgrrd7wg4__6zvxvr9w8m0000gn/T//ccNsiQFA.s 			page 49


 1180 01ca 06EE903A 		vmov	s13, r3	@ int
 1181 01ce F8EEE66A 		vcvt.f32.s32	s13, s13
 1182              	.LVL82:
  90:mi/plaits/dsp/speech/lpc_speech_synth.h ****     return a_f + (b_f - a_f) * blend;
 1183              		.loc 5 90 11 discriminator 4 view .LVU386
 1184 01d2 27EE277A 		vmul.f32	s14, s14, s15
 1185              		.loc 5 91 23 discriminator 4 view .LVU387
 1186 01d6 A6EEE77A 		vfms.f32	s14, s13, s15
 1187              		.loc 5 91 30 discriminator 4 view .LVU388
 1188 01da 20EE077A 		vmul.f32	s14, s0, s14
 1189              		.loc 5 91 32 discriminator 4 view .LVU389
 1190 01de A6EEA77A 		vfma.f32	s14, s13, s15
 1191              	.LVL83:
 1192              		.loc 5 91 32 discriminator 4 view .LVU390
 1193              	.LBE172:
 1194              	.LBE171:
 156:mi/plaits/dsp/speech/lpc_speech_synth.cpp ****   k_[6] = BlendCoefficient<128>(f1.k6, f2.k6, blend);
 1195              		.loc 1 156 9 discriminator 4 view .LVU391
 1196 01e2 80ED0B7A 		vstr.32	s14, [r0, #44]
 157:mi/plaits/dsp/speech/lpc_speech_synth.cpp ****   k_[7] = BlendCoefficient<128>(f1.k7, f2.k7, blend);
 1197              		.loc 1 157 3 is_stmt 1 discriminator 4 view .LVU392
 1198              	.LVL84:
 1199              	.LBB173:
 1200              	.LBI173:
  88:mi/plaits/dsp/speech/lpc_speech_synth.h ****     float a_f = static_cast<float>(a) / float(scale);
 1201              		.loc 5 88 9 discriminator 4 view .LVU393
 1202              	.LBB174:
  90:mi/plaits/dsp/speech/lpc_speech_synth.h ****     return a_f + (b_f - a_f) * blend;
 1203              		.loc 5 90 17 is_stmt 0 discriminator 4 view .LVU394
 1204 01e6 92F90A30 		ldrsb	r3, [r2, #10]
 1205 01ea 07EE103A 		vmov	s14, r3	@ int
  89:mi/plaits/dsp/speech/lpc_speech_synth.h ****     float b_f = static_cast<float>(b) / float(scale);
 1206              		.loc 5 89 17 discriminator 4 view .LVU395
 1207 01ee 91F90A30 		ldrsb	r3, [r1, #10]
  90:mi/plaits/dsp/speech/lpc_speech_synth.h ****     return a_f + (b_f - a_f) * blend;
 1208              		.loc 5 90 17 discriminator 4 view .LVU396
 1209 01f2 B8EEC77A 		vcvt.f32.s32	s14, s14
  89:mi/plaits/dsp/speech/lpc_speech_synth.h ****     float b_f = static_cast<float>(b) / float(scale);
 1210              		.loc 5 89 17 discriminator 4 view .LVU397
 1211 01f6 06EE903A 		vmov	s13, r3	@ int
 1212 01fa F8EEE66A 		vcvt.f32.s32	s13, s13
 1213              	.LVL85:
  90:mi/plaits/dsp/speech/lpc_speech_synth.h ****     return a_f + (b_f - a_f) * blend;
 1214              		.loc 5 90 11 discriminator 4 view .LVU398
 1215 01fe 27EE277A 		vmul.f32	s14, s14, s15
 1216              		.loc 5 91 23 discriminator 4 view .LVU399
 1217 0202 A6EEE77A 		vfms.f32	s14, s13, s15
 1218              		.loc 5 91 30 discriminator 4 view .LVU400
 1219 0206 20EE077A 		vmul.f32	s14, s0, s14
 1220              		.loc 5 91 32 discriminator 4 view .LVU401
 1221 020a A6EEA77A 		vfma.f32	s14, s13, s15
 1222              	.LVL86:
 1223              		.loc 5 91 32 discriminator 4 view .LVU402
 1224              	.LBE174:
 1225              	.LBE173:
 157:mi/plaits/dsp/speech/lpc_speech_synth.cpp ****   k_[7] = BlendCoefficient<128>(f1.k7, f2.k7, blend);
 1226              		.loc 1 157 9 discriminator 4 view .LVU403
ARM GAS  /var/folders/9k/zk1mgrrd7wg4__6zvxvr9w8m0000gn/T//ccNsiQFA.s 			page 50


 1227 020e 80ED0C7A 		vstr.32	s14, [r0, #48]
 158:mi/plaits/dsp/speech/lpc_speech_synth.cpp ****   k_[8] = BlendCoefficient<128>(f1.k8, f2.k8, blend);
 1228              		.loc 1 158 3 is_stmt 1 discriminator 4 view .LVU404
 1229              	.LVL87:
 1230              	.LBB175:
 1231              	.LBI175:
  88:mi/plaits/dsp/speech/lpc_speech_synth.h ****     float a_f = static_cast<float>(a) / float(scale);
 1232              		.loc 5 88 9 discriminator 4 view .LVU405
 1233              	.LBB176:
  90:mi/plaits/dsp/speech/lpc_speech_synth.h ****     return a_f + (b_f - a_f) * blend;
 1234              		.loc 5 90 17 is_stmt 0 discriminator 4 view .LVU406
 1235 0212 92F90B30 		ldrsb	r3, [r2, #11]
 1236 0216 07EE103A 		vmov	s14, r3	@ int
  89:mi/plaits/dsp/speech/lpc_speech_synth.h ****     float b_f = static_cast<float>(b) / float(scale);
 1237              		.loc 5 89 17 discriminator 4 view .LVU407
 1238 021a 91F90B30 		ldrsb	r3, [r1, #11]
  90:mi/plaits/dsp/speech/lpc_speech_synth.h ****     return a_f + (b_f - a_f) * blend;
 1239              		.loc 5 90 17 discriminator 4 view .LVU408
 1240 021e B8EEC77A 		vcvt.f32.s32	s14, s14
  89:mi/plaits/dsp/speech/lpc_speech_synth.h ****     float b_f = static_cast<float>(b) / float(scale);
 1241              		.loc 5 89 17 discriminator 4 view .LVU409
 1242 0222 06EE903A 		vmov	s13, r3	@ int
 1243 0226 F8EEE66A 		vcvt.f32.s32	s13, s13
 1244              	.LVL88:
  90:mi/plaits/dsp/speech/lpc_speech_synth.h ****     return a_f + (b_f - a_f) * blend;
 1245              		.loc 5 90 11 discriminator 4 view .LVU410
 1246 022a 27EE277A 		vmul.f32	s14, s14, s15
 1247              		.loc 5 91 23 discriminator 4 view .LVU411
 1248 022e A6EEE77A 		vfms.f32	s14, s13, s15
 1249              		.loc 5 91 30 discriminator 4 view .LVU412
 1250 0232 20EE077A 		vmul.f32	s14, s0, s14
 1251              		.loc 5 91 32 discriminator 4 view .LVU413
 1252 0236 A6EEA77A 		vfma.f32	s14, s13, s15
 1253              	.LVL89:
 1254              		.loc 5 91 32 discriminator 4 view .LVU414
 1255              	.LBE176:
 1256              	.LBE175:
 158:mi/plaits/dsp/speech/lpc_speech_synth.cpp ****   k_[8] = BlendCoefficient<128>(f1.k8, f2.k8, blend);
 1257              		.loc 1 158 9 discriminator 4 view .LVU415
 1258 023a 80ED0D7A 		vstr.32	s14, [r0, #52]
 159:mi/plaits/dsp/speech/lpc_speech_synth.cpp ****   k_[9] = BlendCoefficient<128>(f1.k9, f2.k9, blend);
 1259              		.loc 1 159 3 is_stmt 1 discriminator 4 view .LVU416
 1260              	.LVL90:
 1261              	.LBB177:
 1262              	.LBI177:
  88:mi/plaits/dsp/speech/lpc_speech_synth.h ****     float a_f = static_cast<float>(a) / float(scale);
 1263              		.loc 5 88 9 discriminator 4 view .LVU417
 1264              	.LBB178:
  90:mi/plaits/dsp/speech/lpc_speech_synth.h ****     return a_f + (b_f - a_f) * blend;
 1265              		.loc 5 90 17 is_stmt 0 discriminator 4 view .LVU418
 1266 023e 92F90C30 		ldrsb	r3, [r2, #12]
 1267 0242 07EE103A 		vmov	s14, r3	@ int
  89:mi/plaits/dsp/speech/lpc_speech_synth.h ****     float b_f = static_cast<float>(b) / float(scale);
 1268              		.loc 5 89 17 discriminator 4 view .LVU419
 1269 0246 91F90C30 		ldrsb	r3, [r1, #12]
  90:mi/plaits/dsp/speech/lpc_speech_synth.h ****     return a_f + (b_f - a_f) * blend;
 1270              		.loc 5 90 17 discriminator 4 view .LVU420
ARM GAS  /var/folders/9k/zk1mgrrd7wg4__6zvxvr9w8m0000gn/T//ccNsiQFA.s 			page 51


 1271 024a B8EEC77A 		vcvt.f32.s32	s14, s14
  89:mi/plaits/dsp/speech/lpc_speech_synth.h ****     float b_f = static_cast<float>(b) / float(scale);
 1272              		.loc 5 89 17 discriminator 4 view .LVU421
 1273 024e 06EE903A 		vmov	s13, r3	@ int
 1274 0252 F8EEE66A 		vcvt.f32.s32	s13, s13
 1275              	.LVL91:
  90:mi/plaits/dsp/speech/lpc_speech_synth.h ****     return a_f + (b_f - a_f) * blend;
 1276              		.loc 5 90 11 discriminator 4 view .LVU422
 1277 0256 27EE277A 		vmul.f32	s14, s14, s15
 1278              		.loc 5 91 23 discriminator 4 view .LVU423
 1279 025a A6EEE77A 		vfms.f32	s14, s13, s15
 1280              		.loc 5 91 30 discriminator 4 view .LVU424
 1281 025e 20EE077A 		vmul.f32	s14, s0, s14
 1282              		.loc 5 91 32 discriminator 4 view .LVU425
 1283 0262 A6EEA77A 		vfma.f32	s14, s13, s15
 1284              	.LVL92:
 1285              		.loc 5 91 32 discriminator 4 view .LVU426
 1286              	.LBE178:
 1287              	.LBE177:
 159:mi/plaits/dsp/speech/lpc_speech_synth.cpp ****   k_[9] = BlendCoefficient<128>(f1.k9, f2.k9, blend);
 1288              		.loc 1 159 9 discriminator 4 view .LVU427
 1289 0266 80ED0E7A 		vstr.32	s14, [r0, #56]
 160:mi/plaits/dsp/speech/lpc_speech_synth.cpp **** }
 1290              		.loc 1 160 3 is_stmt 1 discriminator 4 view .LVU428
 1291              	.LVL93:
 1292              	.LBB179:
 1293              	.LBI179:
  88:mi/plaits/dsp/speech/lpc_speech_synth.h ****     float a_f = static_cast<float>(a) / float(scale);
 1294              		.loc 5 88 9 discriminator 4 view .LVU429
 1295              	.LBB180:
  90:mi/plaits/dsp/speech/lpc_speech_synth.h ****     return a_f + (b_f - a_f) * blend;
 1296              		.loc 5 90 17 is_stmt 0 discriminator 4 view .LVU430
 1297 026a 92F90D30 		ldrsb	r3, [r2, #13]
 1298 026e 07EE103A 		vmov	s14, r3	@ int
  89:mi/plaits/dsp/speech/lpc_speech_synth.h ****     float b_f = static_cast<float>(b) / float(scale);
 1299              		.loc 5 89 17 discriminator 4 view .LVU431
 1300 0272 91F90D30 		ldrsb	r3, [r1, #13]
  90:mi/plaits/dsp/speech/lpc_speech_synth.h ****     return a_f + (b_f - a_f) * blend;
 1301              		.loc 5 90 17 discriminator 4 view .LVU432
 1302 0276 B8EEC77A 		vcvt.f32.s32	s14, s14
  89:mi/plaits/dsp/speech/lpc_speech_synth.h ****     float b_f = static_cast<float>(b) / float(scale);
 1303              		.loc 5 89 17 discriminator 4 view .LVU433
 1304 027a 06EE903A 		vmov	s13, r3	@ int
 1305 027e F8EEE66A 		vcvt.f32.s32	s13, s13
 1306              	.LVL94:
  90:mi/plaits/dsp/speech/lpc_speech_synth.h ****     return a_f + (b_f - a_f) * blend;
 1307              		.loc 5 90 11 discriminator 4 view .LVU434
 1308 0282 27EE277A 		vmul.f32	s14, s14, s15
 1309              		.loc 5 91 23 discriminator 4 view .LVU435
 1310 0286 A6EEE77A 		vfms.f32	s14, s13, s15
 1311              		.loc 5 91 30 discriminator 4 view .LVU436
 1312 028a 20EE070A 		vmul.f32	s0, s0, s14
 1313              	.LVL95:
 1314              		.loc 5 91 32 discriminator 4 view .LVU437
 1315 028e A6EEA70A 		vfma.f32	s0, s13, s15
 1316              	.LVL96:
 1317              		.loc 5 91 32 discriminator 4 view .LVU438
ARM GAS  /var/folders/9k/zk1mgrrd7wg4__6zvxvr9w8m0000gn/T//ccNsiQFA.s 			page 52


 1318              	.LBE180:
 1319              	.LBE179:
 160:mi/plaits/dsp/speech/lpc_speech_synth.cpp **** }
 1320              		.loc 1 160 9 discriminator 4 view .LVU439
 1321 0292 80ED0F0A 		vstr.32	s0, [r0, #60]
 1322              		.loc 1 161 1 discriminator 4 view .LVU440
 1323 0296 7047     		bx	lr
 1324              	.LVL97:
 1325              	.L44:
 1326              		.cfi_restore_state
 145:mi/plaits/dsp/speech/lpc_speech_synth.cpp **** 
 1327              		.loc 1 145 3 is_stmt 1 view .LVU441
 145:mi/plaits/dsp/speech/lpc_speech_synth.cpp **** 
 1328              		.loc 1 145 52 is_stmt 0 view .LVU442
 1329 0298 9FED0C7A 		vldr.32	s14, .L53+4
 1330 029c 37EE676A 		vsub.f32	s12, s14, s15
 145:mi/plaits/dsp/speech/lpc_speech_synth.cpp **** 
 1331              		.loc 1 145 34 view .LVU443
 1332 02a0 E0EE067A 		vfma.f32	s15, s0, s12
 1333              	.LVL98:
 145:mi/plaits/dsp/speech/lpc_speech_synth.cpp **** 
 1334              		.loc 1 145 34 view .LVU444
 1335 02a4 F0EE676A 		vmov.f32	s13, s15
 147:mi/plaits/dsp/speech/lpc_speech_synth.cpp ****   float pulse_energy_2 = f2.period != 0 ? energy_2 : 0;
 1336              		.loc 1 147 41 view .LVU445
 1337 02a8 F0EE477A 		vmov.f32	s15, s14
 145:mi/plaits/dsp/speech/lpc_speech_synth.cpp **** 
 1338              		.loc 1 145 17 view .LVU446
 1339 02ac C0ED026A 		vstr.32	s13, [r0, #8]
 1340              	.LVL99:
 147:mi/plaits/dsp/speech/lpc_speech_synth.cpp ****   float pulse_energy_2 = f2.period != 0 ? energy_2 : 0;
 1341              		.loc 1 147 3 is_stmt 1 view .LVU447
 148:mi/plaits/dsp/speech/lpc_speech_synth.cpp ****   pulse_energy_ = pulse_energy_1 + (pulse_energy_2 - pulse_energy_1) * blend;
 1342              		.loc 1 148 3 view .LVU448
 1343 02b0 09E7     		b	.L46
 1344              	.LVL100:
 1345              	.L51:
 145:mi/plaits/dsp/speech/lpc_speech_synth.cpp **** 
 1346              		.loc 1 145 3 view .LVU449
 145:mi/plaits/dsp/speech/lpc_speech_synth.cpp **** 
 1347              		.loc 1 145 34 is_stmt 0 view .LVU450
 1348 02b2 9FED065A 		vldr.32	s10, .L53+4
 1349 02b6 F0EE456A 		vmov.f32	s13, s10
 149:mi/plaits/dsp/speech/lpc_speech_synth.cpp ****   
 1350              		.loc 1 149 52 view .LVU451
 1351 02ba 35EE675A 		vsub.f32	s10, s10, s15
 145:mi/plaits/dsp/speech/lpc_speech_synth.cpp **** 
 1352              		.loc 1 145 34 view .LVU452
 1353 02be E0EE076A 		vfma.f32	s13, s0, s14
 145:mi/plaits/dsp/speech/lpc_speech_synth.cpp **** 
 1354              		.loc 1 145 17 view .LVU453
 1355 02c2 C0ED026A 		vstr.32	s13, [r0, #8]
 147:mi/plaits/dsp/speech/lpc_speech_synth.cpp ****   float pulse_energy_2 = f2.period != 0 ? energy_2 : 0;
 1356              		.loc 1 147 3 is_stmt 1 view .LVU454
 1357              	.LVL101:
 148:mi/plaits/dsp/speech/lpc_speech_synth.cpp ****   pulse_energy_ = pulse_energy_1 + (pulse_energy_2 - pulse_energy_1) * blend;
 1358              		.loc 1 148 3 view .LVU455
ARM GAS  /var/folders/9k/zk1mgrrd7wg4__6zvxvr9w8m0000gn/T//ccNsiQFA.s 			page 53


 1359 02c6 FEE6     		b	.L46
 1360              	.L54:
 1361              		.align	2
 1362              	.L53:
 1363 02c8 0000803B 		.word	998244352
 1364 02cc 00000000 		.word	0
 1365 02d0 00000038 		.word	939524096
 1366 02d4 0000003C 		.word	1006632960
 1367              		.cfi_endproc
 1368              	.LFE1456:
 1370              		.text
 1371              	.Letext0:
 1372              		.file 6 "/Library/DaisyToolchain/0.2.0/arm/arm-none-eabi/include/machine/_default_types.h"
 1373              		.file 7 "/Library/DaisyToolchain/0.2.0/arm/arm-none-eabi/include/sys/_stdint.h"
 1374              		.file 8 "/Library/DaisyToolchain/0.2.0/arm/lib/gcc/arm-none-eabi/10.3.1/include/stddef.h"
 1375              		.file 9 "/Library/DaisyToolchain/0.2.0/arm/arm-none-eabi/include/c++/10.3.1/cmath"
 1376              		.file 10 "/Library/DaisyToolchain/0.2.0/arm/arm-none-eabi/include/c++/10.3.1/bits/std_abs.h"
 1377              		.file 11 "/Library/DaisyToolchain/0.2.0/arm/arm-none-eabi/include/c++/10.3.1/type_traits"
 1378              		.file 12 "/Library/DaisyToolchain/0.2.0/arm/arm-none-eabi/include/c++/10.3.1/debug/debug.h"
 1379              		.file 13 "/Library/DaisyToolchain/0.2.0/arm/arm-none-eabi/include/c++/10.3.1/cstdlib"
 1380              		.file 14 "/Library/DaisyToolchain/0.2.0/arm/arm-none-eabi/include/c++/10.3.1/arm-none-eabi/thumb/v
 1381              		.file 15 "/Library/DaisyToolchain/0.2.0/arm/arm-none-eabi/include/c++/10.3.1/bits/algorithmfwd.h"
 1382              		.file 16 "/Library/DaisyToolchain/0.2.0/arm/arm-none-eabi/include/c++/10.3.1/bits/stl_pair.h"
 1383              		.file 17 "/Library/DaisyToolchain/0.2.0/arm/arm-none-eabi/include/c++/10.3.1/bits/exception_ptr.h"
 1384              		.file 18 "/Library/DaisyToolchain/0.2.0/arm/arm-none-eabi/include/c++/10.3.1/bits/predefined_ops.h
 1385              		.file 19 "/Library/DaisyToolchain/0.2.0/arm/arm-none-eabi/include/math.h"
 1386              		.file 20 "/Library/DaisyToolchain/0.2.0/arm/arm-none-eabi/include/stdlib.h"
 1387              		.file 21 "/Library/DaisyToolchain/0.2.0/arm/arm-none-eabi/include/c++/10.3.1/math.h"
 1388              		.file 22 "mi/stmlib/stmlib.h"
 1389              		.file 23 "mi/plaits/dsp/dsp.h"
 1390              		.file 24 "mi/plaits/dsp/oscillator/oscillator.h"
 1391              		.file 25 "mi/plaits/resources.h"
 1392              		.file 26 "<built-in>"
ARM GAS  /var/folders/9k/zk1mgrrd7wg4__6zvxvr9w8m0000gn/T//ccNsiQFA.s 			page 54


DEFINED SYMBOLS
                            *ABS*:0000000000000000 lpc_speech_synth.cpp
/var/folders/9k/zk1mgrrd7wg4__6zvxvr9w8m0000gn/T//ccNsiQFA.s:19     .text._ZN6plaits14LPCSpeechSynth4InitEv:0000000000000000 $t
/var/folders/9k/zk1mgrrd7wg4__6zvxvr9w8m0000gn/T//ccNsiQFA.s:26     .text._ZN6plaits14LPCSpeechSynth4InitEv:0000000000000000 _ZN6plaits14LPCSpeechSynth4InitEv
/var/folders/9k/zk1mgrrd7wg4__6zvxvr9w8m0000gn/T//ccNsiQFA.s:156    .text._ZN6plaits14LPCSpeechSynth4InitEv:0000000000000038 $d
/var/folders/9k/zk1mgrrd7wg4__6zvxvr9w8m0000gn/T//ccNsiQFA.s:165    .text._ZN6plaits14LPCSpeechSynth6RenderEffPfS1_j:0000000000000000 $t
/var/folders/9k/zk1mgrrd7wg4__6zvxvr9w8m0000gn/T//ccNsiQFA.s:172    .text._ZN6plaits14LPCSpeechSynth6RenderEffPfS1_j:0000000000000000 _ZN6plaits14LPCSpeechSynth6RenderEffPfS1_j
/var/folders/9k/zk1mgrrd7wg4__6zvxvr9w8m0000gn/T//ccNsiQFA.s:757    .text._ZN6plaits14LPCSpeechSynth6RenderEffPfS1_j:0000000000000274 $d
/var/folders/9k/zk1mgrrd7wg4__6zvxvr9w8m0000gn/T//ccNsiQFA.s:768    .text._ZN6plaits14LPCSpeechSynth9PlayFrameERKNS0_5FrameES3_f:0000000000000000 $t
/var/folders/9k/zk1mgrrd7wg4__6zvxvr9w8m0000gn/T//ccNsiQFA.s:775    .text._ZN6plaits14LPCSpeechSynth9PlayFrameERKNS0_5FrameES3_f:0000000000000000 _ZN6plaits14LPCSpeechSynth9PlayFrameERKNS0_5FrameES3_f
/var/folders/9k/zk1mgrrd7wg4__6zvxvr9w8m0000gn/T//ccNsiQFA.s:1363   .text._ZN6plaits14LPCSpeechSynth9PlayFrameERKNS0_5FrameES3_f:00000000000002c8 $d

UNDEFINED SYMBOLS
memset
_ZN6stmlib6Random10rng_state_E
_ZN6plaits24lut_lpc_excitation_pulseE
