ARM GAS  /var/folders/9k/zk1mgrrd7wg4__6zvxvr9w8m0000gn/T//ccuDf5uE.s 			page 1


   1              		.cpu cortex-m7
   2              		.arch armv7e-m
   3              		.fpu fpv5-d16
   4              		.eabi_attribute 28, 1
   5              		.eabi_attribute 20, 1
   6              		.eabi_attribute 21, 1
   7              		.eabi_attribute 23, 3
   8              		.eabi_attribute 24, 1
   9              		.eabi_attribute 25, 1
  10              		.eabi_attribute 26, 1
  11              		.eabi_attribute 30, 2
  12              		.eabi_attribute 34, 1
  13              		.eabi_attribute 18, 4
  14              		.file	"main.cpp"
  15              		.text
  16              	.Ltext0:
  17              		.cfi_sections	.debug_frame
  18              		.section	.text._ZN5daisy6AK4619D2Ev,"axG",%progbits,_ZN5daisy6AK4619D5Ev,comdat
  19              		.align	1
  20              		.p2align 2,,3
  21              		.weak	_ZN5daisy6AK4619D2Ev
  22              		.syntax unified
  23              		.thumb
  24              		.thumb_func
  26              	_ZN5daisy6AK4619D2Ev:
  27              	.LVL0:
  28              	.LFB2516:
  29              		.file 1 "../libdaisy_IIT6/libDaisy/src/dev/codec_ak4619.h"
   1:../libdaisy_IIT6/libDaisy/src/dev/codec_ak4619.h **** #pragma once
   2:../libdaisy_IIT6/libDaisy/src/dev/codec_ak4619.h **** #ifndef DSY_CODEC_AK4619_H
   3:../libdaisy_IIT6/libDaisy/src/dev/codec_ak4619.h **** #define DSY_CODEC_AK4619_H
   4:../libdaisy_IIT6/libDaisy/src/dev/codec_ak4619.h **** #include "per/i2c.h"
   5:../libdaisy_IIT6/libDaisy/src/dev/codec_ak4619.h **** namespace daisy
   6:../libdaisy_IIT6/libDaisy/src/dev/codec_ak4619.h **** {
   7:../libdaisy_IIT6/libDaisy/src/dev/codec_ak4619.h **** /**
   8:../libdaisy_IIT6/libDaisy/src/dev/codec_ak4619.h ****  * @brief Driver for the AK4619 Audio Codec.
   9:../libdaisy_IIT6/libDaisy/src/dev/codec_ak4619.h ****  * @addtogroup codec
  10:../libdaisy_IIT6/libDaisy/src/dev/codec_ak4619.h ****  * 
  11:../libdaisy_IIT6/libDaisy/src/dev/codec_ak4619.h ****  * For now this uses only I2C to communicate with the AK4619
  12:../libdaisy_IIT6/libDaisy/src/dev/codec_ak4619.h ****  * Developed and tested with github.com/apfelaudio/eurorack-pmod
  13:../libdaisy_IIT6/libDaisy/src/dev/codec_ak4619.h ****  * 
  14:../libdaisy_IIT6/libDaisy/src/dev/codec_ak4619.h ****  */
  15:../libdaisy_IIT6/libDaisy/src/dev/codec_ak4619.h **** class AK4619
  16:../libdaisy_IIT6/libDaisy/src/dev/codec_ak4619.h **** {
  17:../libdaisy_IIT6/libDaisy/src/dev/codec_ak4619.h ****   public:
  18:../libdaisy_IIT6/libDaisy/src/dev/codec_ak4619.h ****     enum class Result
  19:../libdaisy_IIT6/libDaisy/src/dev/codec_ak4619.h ****     {
  20:../libdaisy_IIT6/libDaisy/src/dev/codec_ak4619.h ****         OK,
  21:../libdaisy_IIT6/libDaisy/src/dev/codec_ak4619.h ****         ERR,
  22:../libdaisy_IIT6/libDaisy/src/dev/codec_ak4619.h ****     };
  23:../libdaisy_IIT6/libDaisy/src/dev/codec_ak4619.h **** 
  24:../libdaisy_IIT6/libDaisy/src/dev/codec_ak4619.h ****     AK4619() : dev_addr_(0x10) {}
  25:../libdaisy_IIT6/libDaisy/src/dev/codec_ak4619.h ****     ~AK4619() {}
  30              		.loc 1 25 5 view -0
  31              		.cfi_startproc
  32              		@ args = 0, pretend = 0, frame = 0
  33              		@ frame_needed = 0, uses_anonymous_args = 0
ARM GAS  /var/folders/9k/zk1mgrrd7wg4__6zvxvr9w8m0000gn/T//ccuDf5uE.s 			page 2


  34              		@ link register save eliminated.
  35              		.loc 1 25 16 is_stmt 0 view .LVU1
  36 0000 7047     		bx	lr
  37              		.cfi_endproc
  38              	.LFE2516:
  40              		.weak	_ZN5daisy6AK4619D1Ev
  41              		.thumb_set _ZN5daisy6AK4619D1Ev,_ZN5daisy6AK4619D2Ev
  42 0002 00BF     		.section	.text._ZN5daisy9DaisySeedD2Ev,"axG",%progbits,_ZN5daisy9DaisySeedD5Ev,comdat
  43              		.align	1
  44              		.p2align 2,,3
  45              		.weak	_ZN5daisy9DaisySeedD2Ev
  46              		.syntax unified
  47              		.thumb
  48              		.thumb_func
  50              	_ZN5daisy9DaisySeedD2Ev:
  51              	.LVL1:
  52              	.LFB3219:
  53              		.file 2 "../libdaisy_IIT6/libDaisy/src/daisy_seed.h"
   1:../libdaisy_IIT6/libDaisy/src/daisy_seed.h **** #pragma once
   2:../libdaisy_IIT6/libDaisy/src/daisy_seed.h **** #ifndef DSY_SEED_H
   3:../libdaisy_IIT6/libDaisy/src/daisy_seed.h **** #define DSY_SEED_H
   4:../libdaisy_IIT6/libDaisy/src/daisy_seed.h **** 
   5:../libdaisy_IIT6/libDaisy/src/daisy_seed.h **** #include "daisy.h"
   6:../libdaisy_IIT6/libDaisy/src/daisy_seed.h **** 
   7:../libdaisy_IIT6/libDaisy/src/daisy_seed.h **** //Uncomment this out if you're still using the rev2 hardware
   8:../libdaisy_IIT6/libDaisy/src/daisy_seed.h **** //#define SEED_REV2
   9:../libdaisy_IIT6/libDaisy/src/daisy_seed.h **** 
  10:../libdaisy_IIT6/libDaisy/src/daisy_seed.h **** namespace daisy
  11:../libdaisy_IIT6/libDaisy/src/daisy_seed.h **** {
  12:../libdaisy_IIT6/libDaisy/src/daisy_seed.h **** /**
  13:../libdaisy_IIT6/libDaisy/src/daisy_seed.h ****    @brief This is the higher-level interface for the Daisy board. \n 
  14:../libdaisy_IIT6/libDaisy/src/daisy_seed.h ****     All basic peripheral configuration/initialization is setup here. \n
  15:../libdaisy_IIT6/libDaisy/src/daisy_seed.h **** 
  16:../libdaisy_IIT6/libDaisy/src/daisy_seed.h ****    @ingroup boards
  17:../libdaisy_IIT6/libDaisy/src/daisy_seed.h **** */
  18:../libdaisy_IIT6/libDaisy/src/daisy_seed.h **** class DaisySeed
  19:../libdaisy_IIT6/libDaisy/src/daisy_seed.h **** {
  20:../libdaisy_IIT6/libDaisy/src/daisy_seed.h ****   public:
  21:../libdaisy_IIT6/libDaisy/src/daisy_seed.h ****     DaisySeed() {}
  22:../libdaisy_IIT6/libDaisy/src/daisy_seed.h ****     ~DaisySeed() {}
  54              		.loc 2 22 5 is_stmt 1 view -0
  55              		.cfi_startproc
  56              		@ args = 0, pretend = 0, frame = 0
  57              		@ frame_needed = 0, uses_anonymous_args = 0
  58              		@ link register save eliminated.
  59              	.LBB1128:
  60              	.LBI1128:
  61              		.file 3 "../libdaisy_IIT6/libDaisy/src/dev/codec_ak4556.h"
   1:../libdaisy_IIT6/libDaisy/src/dev/codec_ak4556.h **** #pragma once
   2:../libdaisy_IIT6/libDaisy/src/dev/codec_ak4556.h **** #ifndef DSY_CODEC_AK4556_H
   3:../libdaisy_IIT6/libDaisy/src/dev/codec_ak4556.h **** #define DSY_CODEC_AK4556_H
   4:../libdaisy_IIT6/libDaisy/src/dev/codec_ak4556.h **** 
   5:../libdaisy_IIT6/libDaisy/src/dev/codec_ak4556.h **** #include "daisy_core.h"
   6:../libdaisy_IIT6/libDaisy/src/dev/codec_ak4556.h **** #include "per/gpio.h"
   7:../libdaisy_IIT6/libDaisy/src/dev/codec_ak4556.h **** 
   8:../libdaisy_IIT6/libDaisy/src/dev/codec_ak4556.h **** namespace daisy
   9:../libdaisy_IIT6/libDaisy/src/dev/codec_ak4556.h **** {
ARM GAS  /var/folders/9k/zk1mgrrd7wg4__6zvxvr9w8m0000gn/T//ccuDf5uE.s 			page 3


  10:../libdaisy_IIT6/libDaisy/src/dev/codec_ak4556.h **** /** @brief Ak4556 Codec support 
  11:../libdaisy_IIT6/libDaisy/src/dev/codec_ak4556.h ****  ** @author shensley
  12:../libdaisy_IIT6/libDaisy/src/dev/codec_ak4556.h ****  ** @addtogroup codec
  13:../libdaisy_IIT6/libDaisy/src/dev/codec_ak4556.h ****  ** 
  14:../libdaisy_IIT6/libDaisy/src/dev/codec_ak4556.h ****  ** I don't see any real reason to have this be more than a function, but in case we want
  15:../libdaisy_IIT6/libDaisy/src/dev/codec_ak4556.h ****  ** to add other functions down the road I wrapped the function in a class.
  16:../libdaisy_IIT6/libDaisy/src/dev/codec_ak4556.h ****  ***/
  17:../libdaisy_IIT6/libDaisy/src/dev/codec_ak4556.h **** class Ak4556
  18:../libdaisy_IIT6/libDaisy/src/dev/codec_ak4556.h **** {
  19:../libdaisy_IIT6/libDaisy/src/dev/codec_ak4556.h ****   public:
  20:../libdaisy_IIT6/libDaisy/src/dev/codec_ak4556.h ****     Ak4556() {}
  21:../libdaisy_IIT6/libDaisy/src/dev/codec_ak4556.h ****     ~Ak4556() {}
  62              		.loc 3 21 5 view .LVU3
  63              		.loc 3 21 5 is_stmt 0 view .LVU4
  64              	.LBE1128:
  65              	.LBB1129:
  66              	.LBI1129:
  67              		.file 4 "../libdaisy_IIT6/libDaisy/src/sys/system.h"
   1:../libdaisy_IIT6/libDaisy/src/sys/system.h **** #ifndef DSY_SYSTEM_H
   2:../libdaisy_IIT6/libDaisy/src/sys/system.h **** #define DSY_SYSTEM_H
   3:../libdaisy_IIT6/libDaisy/src/sys/system.h **** 
   4:../libdaisy_IIT6/libDaisy/src/sys/system.h **** #ifndef UNIT_TEST // for unit tests, a dummy implementation is provided below
   5:../libdaisy_IIT6/libDaisy/src/sys/system.h **** 
   6:../libdaisy_IIT6/libDaisy/src/sys/system.h **** #include <cstdint>
   7:../libdaisy_IIT6/libDaisy/src/sys/system.h **** #include "per/tim.h"
   8:../libdaisy_IIT6/libDaisy/src/sys/system.h **** 
   9:../libdaisy_IIT6/libDaisy/src/sys/system.h **** namespace daisy
  10:../libdaisy_IIT6/libDaisy/src/sys/system.h **** {
  11:../libdaisy_IIT6/libDaisy/src/sys/system.h **** /** A handle for interacting with the Core System.
  12:../libdaisy_IIT6/libDaisy/src/sys/system.h ****  ** This includes the Clock tree, MPU, global DMA initialization,
  13:../libdaisy_IIT6/libDaisy/src/sys/system.h ****  ** cache handling, and any other necessary global initiailzation
  14:../libdaisy_IIT6/libDaisy/src/sys/system.h ****  **
  15:../libdaisy_IIT6/libDaisy/src/sys/system.h ****  ** @author shensley
  16:../libdaisy_IIT6/libDaisy/src/sys/system.h ****  ** @ingroup system
  17:../libdaisy_IIT6/libDaisy/src/sys/system.h ****  */
  18:../libdaisy_IIT6/libDaisy/src/sys/system.h **** class System
  19:../libdaisy_IIT6/libDaisy/src/sys/system.h **** {
  20:../libdaisy_IIT6/libDaisy/src/sys/system.h ****   public:
  21:../libdaisy_IIT6/libDaisy/src/sys/system.h ****     /** Contains settings for initializing the System */
  22:../libdaisy_IIT6/libDaisy/src/sys/system.h ****     struct Config
  23:../libdaisy_IIT6/libDaisy/src/sys/system.h ****     {
  24:../libdaisy_IIT6/libDaisy/src/sys/system.h ****         /** Specifies the system clock frequency that feeds APB/AHB clocks, etc. */
  25:../libdaisy_IIT6/libDaisy/src/sys/system.h ****         enum class SysClkFreq
  26:../libdaisy_IIT6/libDaisy/src/sys/system.h ****         {
  27:../libdaisy_IIT6/libDaisy/src/sys/system.h ****             FREQ_400MHZ,
  28:../libdaisy_IIT6/libDaisy/src/sys/system.h ****             FREQ_480MHZ,
  29:../libdaisy_IIT6/libDaisy/src/sys/system.h ****         };
  30:../libdaisy_IIT6/libDaisy/src/sys/system.h **** 
  31:../libdaisy_IIT6/libDaisy/src/sys/system.h ****         /** Method to call on the struct to set to defaults
  32:../libdaisy_IIT6/libDaisy/src/sys/system.h ****          ** CPU Freq set to 400MHz
  33:../libdaisy_IIT6/libDaisy/src/sys/system.h ****          ** Cache Enabled
  34:../libdaisy_IIT6/libDaisy/src/sys/system.h ****          ** */
  35:../libdaisy_IIT6/libDaisy/src/sys/system.h ****         void Defaults()
  36:../libdaisy_IIT6/libDaisy/src/sys/system.h ****         {
  37:../libdaisy_IIT6/libDaisy/src/sys/system.h ****             cpu_freq    = SysClkFreq::FREQ_400MHZ;
  38:../libdaisy_IIT6/libDaisy/src/sys/system.h ****             use_dcache  = true;
  39:../libdaisy_IIT6/libDaisy/src/sys/system.h ****             use_icache  = true;
ARM GAS  /var/folders/9k/zk1mgrrd7wg4__6zvxvr9w8m0000gn/T//ccuDf5uE.s 			page 4


  40:../libdaisy_IIT6/libDaisy/src/sys/system.h ****             skip_clocks = false;
  41:../libdaisy_IIT6/libDaisy/src/sys/system.h ****         }
  42:../libdaisy_IIT6/libDaisy/src/sys/system.h **** 
  43:../libdaisy_IIT6/libDaisy/src/sys/system.h ****         /** Method to call on the struct to set to boost mode:
  44:../libdaisy_IIT6/libDaisy/src/sys/system.h ****          ** CPU Freq set to 480MHz
  45:../libdaisy_IIT6/libDaisy/src/sys/system.h ****          ** Cache Enabled
  46:../libdaisy_IIT6/libDaisy/src/sys/system.h ****          ** */
  47:../libdaisy_IIT6/libDaisy/src/sys/system.h ****         void Boost()
  48:../libdaisy_IIT6/libDaisy/src/sys/system.h ****         {
  49:../libdaisy_IIT6/libDaisy/src/sys/system.h ****             cpu_freq    = SysClkFreq::FREQ_480MHZ;
  50:../libdaisy_IIT6/libDaisy/src/sys/system.h ****             use_dcache  = true;
  51:../libdaisy_IIT6/libDaisy/src/sys/system.h ****             use_icache  = true;
  52:../libdaisy_IIT6/libDaisy/src/sys/system.h ****             skip_clocks = false;
  53:../libdaisy_IIT6/libDaisy/src/sys/system.h ****         }
  54:../libdaisy_IIT6/libDaisy/src/sys/system.h **** 
  55:../libdaisy_IIT6/libDaisy/src/sys/system.h ****         SysClkFreq cpu_freq;
  56:../libdaisy_IIT6/libDaisy/src/sys/system.h ****         bool       use_dcache;
  57:../libdaisy_IIT6/libDaisy/src/sys/system.h ****         bool       use_icache;
  58:../libdaisy_IIT6/libDaisy/src/sys/system.h ****         bool       skip_clocks;
  59:../libdaisy_IIT6/libDaisy/src/sys/system.h ****     };
  60:../libdaisy_IIT6/libDaisy/src/sys/system.h **** 
  61:../libdaisy_IIT6/libDaisy/src/sys/system.h ****     /** Describes the different regions of memory available to the Daisy */
  62:../libdaisy_IIT6/libDaisy/src/sys/system.h ****     enum MemoryRegion
  63:../libdaisy_IIT6/libDaisy/src/sys/system.h ****     {
  64:../libdaisy_IIT6/libDaisy/src/sys/system.h ****         INTERNAL_FLASH = 0,
  65:../libdaisy_IIT6/libDaisy/src/sys/system.h ****         ITCMRAM,
  66:../libdaisy_IIT6/libDaisy/src/sys/system.h ****         DTCMRAM,
  67:../libdaisy_IIT6/libDaisy/src/sys/system.h ****         SRAM_D1,
  68:../libdaisy_IIT6/libDaisy/src/sys/system.h ****         SRAM_D2,
  69:../libdaisy_IIT6/libDaisy/src/sys/system.h ****         SRAM_D3,
  70:../libdaisy_IIT6/libDaisy/src/sys/system.h ****         SDRAM,
  71:../libdaisy_IIT6/libDaisy/src/sys/system.h ****         QSPI,
  72:../libdaisy_IIT6/libDaisy/src/sys/system.h ****         INVALID_ADDRESS,
  73:../libdaisy_IIT6/libDaisy/src/sys/system.h ****     };
  74:../libdaisy_IIT6/libDaisy/src/sys/system.h **** 
  75:../libdaisy_IIT6/libDaisy/src/sys/system.h ****     /** Bootloader struct for controlling bootloading parameters */
  76:../libdaisy_IIT6/libDaisy/src/sys/system.h ****     struct BootInfo
  77:../libdaisy_IIT6/libDaisy/src/sys/system.h ****     {
  78:../libdaisy_IIT6/libDaisy/src/sys/system.h ****         enum class Type : uint32_t
  79:../libdaisy_IIT6/libDaisy/src/sys/system.h ****         {
  80:../libdaisy_IIT6/libDaisy/src/sys/system.h ****             INVALID      = 0x00000000,
  81:../libdaisy_IIT6/libDaisy/src/sys/system.h ****             JUMP         = 0xDEADBEEF,
  82:../libdaisy_IIT6/libDaisy/src/sys/system.h ****             SKIP_TIMEOUT = 0x5AFEB007,
  83:../libdaisy_IIT6/libDaisy/src/sys/system.h ****             INF_TIMEOUT  = 0xB0074EFA,
  84:../libdaisy_IIT6/libDaisy/src/sys/system.h ****         } status;
  85:../libdaisy_IIT6/libDaisy/src/sys/system.h ****         uint32_t data;
  86:../libdaisy_IIT6/libDaisy/src/sys/system.h ****         enum class Version : uint32_t
  87:../libdaisy_IIT6/libDaisy/src/sys/system.h ****         {
  88:../libdaisy_IIT6/libDaisy/src/sys/system.h ****             LT_v6_0 = 0, // Less than v6.0
  89:../libdaisy_IIT6/libDaisy/src/sys/system.h ****             NONE,        // No bootloader present
  90:../libdaisy_IIT6/libDaisy/src/sys/system.h ****             v6_0,        // v6.0
  91:../libdaisy_IIT6/libDaisy/src/sys/system.h ****             v6_1,        // v6.1 or greater
  92:../libdaisy_IIT6/libDaisy/src/sys/system.h ****             LAST
  93:../libdaisy_IIT6/libDaisy/src/sys/system.h ****         } version;
  94:../libdaisy_IIT6/libDaisy/src/sys/system.h ****     };
  95:../libdaisy_IIT6/libDaisy/src/sys/system.h **** 
  96:../libdaisy_IIT6/libDaisy/src/sys/system.h ****     System() {}
ARM GAS  /var/folders/9k/zk1mgrrd7wg4__6zvxvr9w8m0000gn/T//ccuDf5uE.s 			page 5


  97:../libdaisy_IIT6/libDaisy/src/sys/system.h ****     ~System() {}
  68              		.loc 4 97 5 is_stmt 1 view .LVU5
  69              		.loc 4 97 5 is_stmt 0 view .LVU6
  70              	.LBE1129:
  71              	.LBB1130:
  72              	.LBI1130:
  73              		.file 5 "../libdaisy_IIT6/libDaisy/src/hid/usb.h"
   1:../libdaisy_IIT6/libDaisy/src/hid/usb.h **** #pragma once
   2:../libdaisy_IIT6/libDaisy/src/hid/usb.h **** #ifndef DSY_HID_USB_H
   3:../libdaisy_IIT6/libDaisy/src/hid/usb.h **** #define DSY_HID_USB_H
   4:../libdaisy_IIT6/libDaisy/src/hid/usb.h **** #include <stdint.h>
   5:../libdaisy_IIT6/libDaisy/src/hid/usb.h **** #include <stdlib.h>
   6:../libdaisy_IIT6/libDaisy/src/hid/usb.h **** 
   7:../libdaisy_IIT6/libDaisy/src/hid/usb.h **** namespace daisy
   8:../libdaisy_IIT6/libDaisy/src/hid/usb.h **** /** @addtogroup human_interface
   9:../libdaisy_IIT6/libDaisy/src/hid/usb.h ****     @{
  10:../libdaisy_IIT6/libDaisy/src/hid/usb.h **** */
  11:../libdaisy_IIT6/libDaisy/src/hid/usb.h **** 
  12:../libdaisy_IIT6/libDaisy/src/hid/usb.h **** {
  13:../libdaisy_IIT6/libDaisy/src/hid/usb.h **** /** 
  14:../libdaisy_IIT6/libDaisy/src/hid/usb.h ****     @brief Interface for initializing and using the USB Peripherals on the daisy
  15:../libdaisy_IIT6/libDaisy/src/hid/usb.h ****     @author Stephen Hensley
  16:../libdaisy_IIT6/libDaisy/src/hid/usb.h ****     @date December 2019
  17:../libdaisy_IIT6/libDaisy/src/hid/usb.h **** */
  18:../libdaisy_IIT6/libDaisy/src/hid/usb.h **** class UsbHandle
  19:../libdaisy_IIT6/libDaisy/src/hid/usb.h **** {
  20:../libdaisy_IIT6/libDaisy/src/hid/usb.h ****   public:
  21:../libdaisy_IIT6/libDaisy/src/hid/usb.h ****     /** Return values for USBHandle Functions */
  22:../libdaisy_IIT6/libDaisy/src/hid/usb.h ****     enum class Result
  23:../libdaisy_IIT6/libDaisy/src/hid/usb.h ****     {
  24:../libdaisy_IIT6/libDaisy/src/hid/usb.h ****         OK,
  25:../libdaisy_IIT6/libDaisy/src/hid/usb.h ****         ERR,
  26:../libdaisy_IIT6/libDaisy/src/hid/usb.h ****     };
  27:../libdaisy_IIT6/libDaisy/src/hid/usb.h **** 
  28:../libdaisy_IIT6/libDaisy/src/hid/usb.h ****     /** Specified which of the two USB Peripherals to initialize. */
  29:../libdaisy_IIT6/libDaisy/src/hid/usb.h ****     enum UsbPeriph
  30:../libdaisy_IIT6/libDaisy/src/hid/usb.h ****     {
  31:../libdaisy_IIT6/libDaisy/src/hid/usb.h ****         FS_INTERNAL, /**< Internal pin */
  32:../libdaisy_IIT6/libDaisy/src/hid/usb.h ****         FS_EXTERNAL, /**< FS External D+ pin is Pin 38 (GPIO32). FS External D- pin is Pin 37 (GPIO
  33:../libdaisy_IIT6/libDaisy/src/hid/usb.h ****         FS_BOTH,     /**< Both */
  34:../libdaisy_IIT6/libDaisy/src/hid/usb.h ****     };
  35:../libdaisy_IIT6/libDaisy/src/hid/usb.h **** 
  36:../libdaisy_IIT6/libDaisy/src/hid/usb.h **** 
  37:../libdaisy_IIT6/libDaisy/src/hid/usb.h ****     /** Function called upon reception of a buffer */
  38:../libdaisy_IIT6/libDaisy/src/hid/usb.h ****     typedef void (*ReceiveCallback)(uint8_t* buff, uint32_t* len);
  39:../libdaisy_IIT6/libDaisy/src/hid/usb.h **** 
  40:../libdaisy_IIT6/libDaisy/src/hid/usb.h ****     UsbHandle() {}
  41:../libdaisy_IIT6/libDaisy/src/hid/usb.h **** 
  42:../libdaisy_IIT6/libDaisy/src/hid/usb.h ****     ~UsbHandle() {}
  74              		.loc 5 42 5 is_stmt 1 view .LVU7
  75              		.loc 5 42 5 is_stmt 0 view .LVU8
  76              	.LBE1130:
  77              	.LBB1131:
  78              	.LBI1131:
  79              		.file 6 "../libdaisy_IIT6/libDaisy/src/per/adc.h"
   1:../libdaisy_IIT6/libDaisy/src/per/adc.h **** #pragma once
   2:../libdaisy_IIT6/libDaisy/src/per/adc.h **** #ifndef DSY_ADC_H
ARM GAS  /var/folders/9k/zk1mgrrd7wg4__6zvxvr9w8m0000gn/T//ccuDf5uE.s 			page 6


   3:../libdaisy_IIT6/libDaisy/src/per/adc.h **** #define DSY_ADC_H /**< Macro */
   4:../libdaisy_IIT6/libDaisy/src/per/adc.h **** #include <stdint.h>
   5:../libdaisy_IIT6/libDaisy/src/per/adc.h **** #include <stdlib.h>
   6:../libdaisy_IIT6/libDaisy/src/per/adc.h **** #include "daisy_core.h"
   7:../libdaisy_IIT6/libDaisy/src/per/adc.h **** #include "per/gpio.h"
   8:../libdaisy_IIT6/libDaisy/src/per/adc.h **** 
   9:../libdaisy_IIT6/libDaisy/src/per/adc.h **** #define DSY_ADC_MAX_CHANNELS 16 /**< Maximum number of ADC channels */
  10:../libdaisy_IIT6/libDaisy/src/per/adc.h **** 
  11:../libdaisy_IIT6/libDaisy/src/per/adc.h **** namespace daisy
  12:../libdaisy_IIT6/libDaisy/src/per/adc.h **** {
  13:../libdaisy_IIT6/libDaisy/src/per/adc.h **** /** @addtogroup per_analog
  14:../libdaisy_IIT6/libDaisy/src/per/adc.h ****     @{
  15:../libdaisy_IIT6/libDaisy/src/per/adc.h **** */
  16:../libdaisy_IIT6/libDaisy/src/per/adc.h **** 
  17:../libdaisy_IIT6/libDaisy/src/per/adc.h **** /* While there may not be many configuration options here,
  18:../libdaisy_IIT6/libDaisy/src/per/adc.h **** using a struct like this allows us to add more configuration
  19:../libdaisy_IIT6/libDaisy/src/per/adc.h **** later without breaking existing functionality.
  20:../libdaisy_IIT6/libDaisy/src/per/adc.h **** */
  21:../libdaisy_IIT6/libDaisy/src/per/adc.h **** 
  22:../libdaisy_IIT6/libDaisy/src/per/adc.h **** /** @brief   Configuration Structure for an ADC Channel 
  23:../libdaisy_IIT6/libDaisy/src/per/adc.h ****  *  @details This can be used to configure a a single input, 
  24:../libdaisy_IIT6/libDaisy/src/per/adc.h ****  *           or a multiplexed input, allowing up to 8 inputs on 
  25:../libdaisy_IIT6/libDaisy/src/per/adc.h ****  *           one channel.
  26:../libdaisy_IIT6/libDaisy/src/per/adc.h ****  *  @note    Sharing data lines to multiple muxes _is_ possible, but
  27:../libdaisy_IIT6/libDaisy/src/per/adc.h ****  *           each channel sharing data lines must be set to the maximum
  28:../libdaisy_IIT6/libDaisy/src/per/adc.h ****  *           number of channels, even if some multiplexers have fewer
  29:../libdaisy_IIT6/libDaisy/src/per/adc.h ****  *           inputs connected.
  30:../libdaisy_IIT6/libDaisy/src/per/adc.h **** */
  31:../libdaisy_IIT6/libDaisy/src/per/adc.h **** struct AdcChannelConfig
  32:../libdaisy_IIT6/libDaisy/src/per/adc.h **** {
  33:../libdaisy_IIT6/libDaisy/src/per/adc.h ****     /** Which pin to use for multiplexing */
  34:../libdaisy_IIT6/libDaisy/src/per/adc.h ****     enum MuxPin
  35:../libdaisy_IIT6/libDaisy/src/per/adc.h ****     {
  36:../libdaisy_IIT6/libDaisy/src/per/adc.h ****         MUX_SEL_0,    /**< & */
  37:../libdaisy_IIT6/libDaisy/src/per/adc.h ****         MUX_SEL_1,    /**< & */
  38:../libdaisy_IIT6/libDaisy/src/per/adc.h ****         MUX_SEL_2,    /**< & */
  39:../libdaisy_IIT6/libDaisy/src/per/adc.h ****         MUX_SEL_LAST, /**< & */
  40:../libdaisy_IIT6/libDaisy/src/per/adc.h ****     };
  41:../libdaisy_IIT6/libDaisy/src/per/adc.h **** 
  42:../libdaisy_IIT6/libDaisy/src/per/adc.h ****     /** \brief per channel conversion speed added to fixed time based on bitdepth, etc. */
  43:../libdaisy_IIT6/libDaisy/src/per/adc.h ****     enum ConversionSpeed
  44:../libdaisy_IIT6/libDaisy/src/per/adc.h ****     {
  45:../libdaisy_IIT6/libDaisy/src/per/adc.h ****         SPEED_1CYCLES_5,
  46:../libdaisy_IIT6/libDaisy/src/per/adc.h ****         SPEED_2CYCLES_5,
  47:../libdaisy_IIT6/libDaisy/src/per/adc.h ****         SPEED_8CYCLES_5,
  48:../libdaisy_IIT6/libDaisy/src/per/adc.h ****         SPEED_16CYCLES_5,
  49:../libdaisy_IIT6/libDaisy/src/per/adc.h ****         SPEED_32CYCLES_5,
  50:../libdaisy_IIT6/libDaisy/src/per/adc.h ****         SPEED_64CYCLES_5,
  51:../libdaisy_IIT6/libDaisy/src/per/adc.h ****         SPEED_387CYCLES_5,
  52:../libdaisy_IIT6/libDaisy/src/per/adc.h ****         SPEED_810CYCLES_5,
  53:../libdaisy_IIT6/libDaisy/src/per/adc.h ****     };
  54:../libdaisy_IIT6/libDaisy/src/per/adc.h **** 
  55:../libdaisy_IIT6/libDaisy/src/per/adc.h ****     /** Initializes a single ADC pin as an ADC. 
  56:../libdaisy_IIT6/libDaisy/src/per/adc.h ****     \param pin Pin to init.
  57:../libdaisy_IIT6/libDaisy/src/per/adc.h ****     \param speed conversion speed for this pin defaults to 8.5 cycles
  58:../libdaisy_IIT6/libDaisy/src/per/adc.h ****      */
  59:../libdaisy_IIT6/libDaisy/src/per/adc.h ****     void InitSingle(Pin pin, ConversionSpeed speed = SPEED_8CYCLES_5);
ARM GAS  /var/folders/9k/zk1mgrrd7wg4__6zvxvr9w8m0000gn/T//ccuDf5uE.s 			page 7


  60:../libdaisy_IIT6/libDaisy/src/per/adc.h **** 
  61:../libdaisy_IIT6/libDaisy/src/per/adc.h ****     /** 
  62:../libdaisy_IIT6/libDaisy/src/per/adc.h ****     Initializes a single ADC pin as a Multiplexed ADC.
  63:../libdaisy_IIT6/libDaisy/src/per/adc.h ****     Requires a CD405X Multiplexer connected to the pin.
  64:../libdaisy_IIT6/libDaisy/src/per/adc.h ****     You only need to supply the mux pins that are required,
  65:../libdaisy_IIT6/libDaisy/src/per/adc.h ****     e.g. a 4052 mux would only require mux_0 and mux_1.
  66:../libdaisy_IIT6/libDaisy/src/per/adc.h ****     Internal Callbacks handle the pin addressing.
  67:../libdaisy_IIT6/libDaisy/src/per/adc.h ****     \param adc_pin &
  68:../libdaisy_IIT6/libDaisy/src/per/adc.h ****     \param mux_channels must be 1-8
  69:../libdaisy_IIT6/libDaisy/src/per/adc.h ****     \param mux_0 First mux pin
  70:../libdaisy_IIT6/libDaisy/src/per/adc.h ****     \param mux_1 Second mux pin
  71:../libdaisy_IIT6/libDaisy/src/per/adc.h ****     \param mux_2 Third mux pin
  72:../libdaisy_IIT6/libDaisy/src/per/adc.h ****     \param speed conversion speed for this pin defaults to 8.5 cycles
  73:../libdaisy_IIT6/libDaisy/src/per/adc.h ****     */
  74:../libdaisy_IIT6/libDaisy/src/per/adc.h ****     void InitMux(Pin             adc_pin,
  75:../libdaisy_IIT6/libDaisy/src/per/adc.h ****                  size_t          mux_channels,
  76:../libdaisy_IIT6/libDaisy/src/per/adc.h ****                  Pin             mux_0,
  77:../libdaisy_IIT6/libDaisy/src/per/adc.h ****                  Pin             mux_1 = Pin(PORTX, 0),
  78:../libdaisy_IIT6/libDaisy/src/per/adc.h ****                  Pin             mux_2 = Pin(PORTX, 0),
  79:../libdaisy_IIT6/libDaisy/src/per/adc.h ****                  ConversionSpeed speed = SPEED_8CYCLES_5);
  80:../libdaisy_IIT6/libDaisy/src/per/adc.h **** 
  81:../libdaisy_IIT6/libDaisy/src/per/adc.h ****     GPIO            pin_;                   /**< & */
  82:../libdaisy_IIT6/libDaisy/src/per/adc.h ****     GPIO            mux_pin_[MUX_SEL_LAST]; /**< & */
  83:../libdaisy_IIT6/libDaisy/src/per/adc.h ****     uint8_t         mux_channels_;          /**< & */
  84:../libdaisy_IIT6/libDaisy/src/per/adc.h ****     ConversionSpeed speed_;
  85:../libdaisy_IIT6/libDaisy/src/per/adc.h **** };
  86:../libdaisy_IIT6/libDaisy/src/per/adc.h **** 
  87:../libdaisy_IIT6/libDaisy/src/per/adc.h **** /**
  88:../libdaisy_IIT6/libDaisy/src/per/adc.h ****    @brief Handler for analog to digital conversion
  89:../libdaisy_IIT6/libDaisy/src/per/adc.h **** */
  90:../libdaisy_IIT6/libDaisy/src/per/adc.h **** class AdcHandle
  91:../libdaisy_IIT6/libDaisy/src/per/adc.h **** {
  92:../libdaisy_IIT6/libDaisy/src/per/adc.h ****   public:
  93:../libdaisy_IIT6/libDaisy/src/per/adc.h ****     /** Supported oversampling amounts */
  94:../libdaisy_IIT6/libDaisy/src/per/adc.h ****     enum OverSampling
  95:../libdaisy_IIT6/libDaisy/src/per/adc.h ****     {
  96:../libdaisy_IIT6/libDaisy/src/per/adc.h ****         OVS_NONE, /**< & */
  97:../libdaisy_IIT6/libDaisy/src/per/adc.h ****         OVS_4,    /**< & */
  98:../libdaisy_IIT6/libDaisy/src/per/adc.h ****         OVS_8,    /**< & */
  99:../libdaisy_IIT6/libDaisy/src/per/adc.h ****         OVS_16,   /**< & */
 100:../libdaisy_IIT6/libDaisy/src/per/adc.h ****         OVS_32,   /**< & */
 101:../libdaisy_IIT6/libDaisy/src/per/adc.h ****         OVS_64,   /**< & */
 102:../libdaisy_IIT6/libDaisy/src/per/adc.h ****         OVS_128,  /**< & */
 103:../libdaisy_IIT6/libDaisy/src/per/adc.h ****         OVS_256,  /**< & */
 104:../libdaisy_IIT6/libDaisy/src/per/adc.h ****         OVS_512,  /**< & */
 105:../libdaisy_IIT6/libDaisy/src/per/adc.h ****         OVS_1024, /**< & */
 106:../libdaisy_IIT6/libDaisy/src/per/adc.h ****         OVS_LAST, /**< & */
 107:../libdaisy_IIT6/libDaisy/src/per/adc.h ****     };
 108:../libdaisy_IIT6/libDaisy/src/per/adc.h **** 
 109:../libdaisy_IIT6/libDaisy/src/per/adc.h ****     AdcHandle() {}
 110:../libdaisy_IIT6/libDaisy/src/per/adc.h ****     ~AdcHandle() {}
  80              		.loc 6 110 5 is_stmt 1 view .LVU9
  81              		.loc 6 110 5 is_stmt 0 view .LVU10
  82              	.LBE1131:
  83              	.LBB1132:
  84              	.LBI1132:
  85              		.file 7 "../libdaisy_IIT6/libDaisy/src/hid/audio.h"
ARM GAS  /var/folders/9k/zk1mgrrd7wg4__6zvxvr9w8m0000gn/T//ccuDf5uE.s 			page 8


   1:../libdaisy_IIT6/libDaisy/src/hid/audio.h **** #ifndef DSY_AUDIO_H
   2:../libdaisy_IIT6/libDaisy/src/hid/audio.h **** #define DSY_AUDIO_H /**< & */
   3:../libdaisy_IIT6/libDaisy/src/hid/audio.h **** 
   4:../libdaisy_IIT6/libDaisy/src/hid/audio.h **** #include "per/sai.h"
   5:../libdaisy_IIT6/libDaisy/src/hid/audio.h **** 
   6:../libdaisy_IIT6/libDaisy/src/hid/audio.h **** namespace daisy
   7:../libdaisy_IIT6/libDaisy/src/hid/audio.h **** {
   8:../libdaisy_IIT6/libDaisy/src/hid/audio.h **** /** @brief Audio Engine Handle
   9:../libdaisy_IIT6/libDaisy/src/hid/audio.h ****  *  @ingroup audio 
  10:../libdaisy_IIT6/libDaisy/src/hid/audio.h ****  *  @details This class allows for higher level access to an audio engine.
  11:../libdaisy_IIT6/libDaisy/src/hid/audio.h ****  *           If you're using a SOM like the DaisySeed or DaisyPatchSM (or any 
  12:../libdaisy_IIT6/libDaisy/src/hid/audio.h ****  *            board that includes one of those objects) then the intialization
  13:../libdaisy_IIT6/libDaisy/src/hid/audio.h ****  *            is already taken  care of.
  14:../libdaisy_IIT6/libDaisy/src/hid/audio.h ****  *           If you're setting up your own custom hardware, or need to make changes
  15:../libdaisy_IIT6/libDaisy/src/hid/audio.h ****  *           you will have to take the following steps:
  16:../libdaisy_IIT6/libDaisy/src/hid/audio.h ****  *             1. Create and Initialize an SaiHandle or two depending on your requirements
  17:../libdaisy_IIT6/libDaisy/src/hid/audio.h ****  *             2. Initialize the Audio Handle with the desired settings and the Initialized SaiHand
  18:../libdaisy_IIT6/libDaisy/src/hid/audio.h ****  *             3. If the connected codec requires special configuration or initialization, do so
  19:../libdaisy_IIT6/libDaisy/src/hid/audio.h ****  *             4. Write a callback method using either the AudioCallback or the InterleavingAudioCa
  20:../libdaisy_IIT6/libDaisy/src/hid/audio.h ****  *             5. Start the Audio using one of the StartAudio function
  21:../libdaisy_IIT6/libDaisy/src/hid/audio.h ****  */
  22:../libdaisy_IIT6/libDaisy/src/hid/audio.h **** class AudioHandle
  23:../libdaisy_IIT6/libDaisy/src/hid/audio.h **** {
  24:../libdaisy_IIT6/libDaisy/src/hid/audio.h ****   public:
  25:../libdaisy_IIT6/libDaisy/src/hid/audio.h ****     /** Manually configurable details about the Audio Engine */
  26:../libdaisy_IIT6/libDaisy/src/hid/audio.h ****     /** TODO: Figure out how to get samplerate in here. */
  27:../libdaisy_IIT6/libDaisy/src/hid/audio.h ****     struct Config
  28:../libdaisy_IIT6/libDaisy/src/hid/audio.h ****     {
  29:../libdaisy_IIT6/libDaisy/src/hid/audio.h ****         /** number of samples to process per callback */
  30:../libdaisy_IIT6/libDaisy/src/hid/audio.h ****         size_t blocksize;
  31:../libdaisy_IIT6/libDaisy/src/hid/audio.h **** 
  32:../libdaisy_IIT6/libDaisy/src/hid/audio.h ****         /**< Sample rate of audio */
  33:../libdaisy_IIT6/libDaisy/src/hid/audio.h ****         SaiHandle::Config::SampleRate samplerate;
  34:../libdaisy_IIT6/libDaisy/src/hid/audio.h **** 
  35:../libdaisy_IIT6/libDaisy/src/hid/audio.h ****         /** factor for adjustment before and after callback for hardware that may have extra headro
  36:../libdaisy_IIT6/libDaisy/src/hid/audio.h ****         float postgain;
  37:../libdaisy_IIT6/libDaisy/src/hid/audio.h **** 
  38:../libdaisy_IIT6/libDaisy/src/hid/audio.h ****         /** factor for additional one-sided compensation to audio path for hardware that may
  39:../libdaisy_IIT6/libDaisy/src/hid/audio.h ****          *  have unequal input/output ranges
  40:../libdaisy_IIT6/libDaisy/src/hid/audio.h ****          */
  41:../libdaisy_IIT6/libDaisy/src/hid/audio.h ****         float output_compensation;
  42:../libdaisy_IIT6/libDaisy/src/hid/audio.h **** 
  43:../libdaisy_IIT6/libDaisy/src/hid/audio.h ****         /** Number of input audio channels provided to the callback. */
  44:../libdaisy_IIT6/libDaisy/src/hid/audio.h ****         size_t input_channels;
  45:../libdaisy_IIT6/libDaisy/src/hid/audio.h **** 
  46:../libdaisy_IIT6/libDaisy/src/hid/audio.h ****         /** Number of output audio channels provided to the callback. */
  47:../libdaisy_IIT6/libDaisy/src/hid/audio.h ****         size_t output_channels;
  48:../libdaisy_IIT6/libDaisy/src/hid/audio.h **** 
  49:../libdaisy_IIT6/libDaisy/src/hid/audio.h ****         /** Sets default values for config struct */
  50:../libdaisy_IIT6/libDaisy/src/hid/audio.h ****         Config()
  51:../libdaisy_IIT6/libDaisy/src/hid/audio.h ****         : blocksize(48),
  52:../libdaisy_IIT6/libDaisy/src/hid/audio.h ****           samplerate(SaiHandle::Config::SampleRate::SAI_48KHZ),
  53:../libdaisy_IIT6/libDaisy/src/hid/audio.h ****           postgain(1.f),
  54:../libdaisy_IIT6/libDaisy/src/hid/audio.h ****           output_compensation(1.f),
  55:../libdaisy_IIT6/libDaisy/src/hid/audio.h ****           input_channels(2),
  56:../libdaisy_IIT6/libDaisy/src/hid/audio.h ****           output_channels(2)
  57:../libdaisy_IIT6/libDaisy/src/hid/audio.h ****         {
ARM GAS  /var/folders/9k/zk1mgrrd7wg4__6zvxvr9w8m0000gn/T//ccuDf5uE.s 			page 9


  58:../libdaisy_IIT6/libDaisy/src/hid/audio.h ****         }
  59:../libdaisy_IIT6/libDaisy/src/hid/audio.h ****     };
  60:../libdaisy_IIT6/libDaisy/src/hid/audio.h **** 
  61:../libdaisy_IIT6/libDaisy/src/hid/audio.h ****     enum class Result
  62:../libdaisy_IIT6/libDaisy/src/hid/audio.h ****     {
  63:../libdaisy_IIT6/libDaisy/src/hid/audio.h ****         OK,
  64:../libdaisy_IIT6/libDaisy/src/hid/audio.h ****         ERR,
  65:../libdaisy_IIT6/libDaisy/src/hid/audio.h ****     };
  66:../libdaisy_IIT6/libDaisy/src/hid/audio.h **** 
  67:../libdaisy_IIT6/libDaisy/src/hid/audio.h ****     /** Non-Interleaving input buffer
  68:../libdaisy_IIT6/libDaisy/src/hid/audio.h ****      * Buffer arranged by float[chn][sample] 
  69:../libdaisy_IIT6/libDaisy/src/hid/audio.h ****      * const so that the user can't modify the input
  70:../libdaisy_IIT6/libDaisy/src/hid/audio.h ****      */
  71:../libdaisy_IIT6/libDaisy/src/hid/audio.h ****     typedef const float* const* InputBuffer;
  72:../libdaisy_IIT6/libDaisy/src/hid/audio.h **** 
  73:../libdaisy_IIT6/libDaisy/src/hid/audio.h ****     /** Non-Interleaving output buffer
  74:../libdaisy_IIT6/libDaisy/src/hid/audio.h ****      * Arranged by float[chn][sample] 
  75:../libdaisy_IIT6/libDaisy/src/hid/audio.h ****      */
  76:../libdaisy_IIT6/libDaisy/src/hid/audio.h ****     typedef float** OutputBuffer;
  77:../libdaisy_IIT6/libDaisy/src/hid/audio.h **** 
  78:../libdaisy_IIT6/libDaisy/src/hid/audio.h ****     /** Type for a Non-Interleaving audio callback 
  79:../libdaisy_IIT6/libDaisy/src/hid/audio.h ****      * Non-Interleaving audio callbacks in daisy will be of this type
  80:../libdaisy_IIT6/libDaisy/src/hid/audio.h ****      */
  81:../libdaisy_IIT6/libDaisy/src/hid/audio.h ****     typedef void (*AudioCallback)(InputBuffer  in,
  82:../libdaisy_IIT6/libDaisy/src/hid/audio.h ****                                   OutputBuffer out,
  83:../libdaisy_IIT6/libDaisy/src/hid/audio.h ****                                   size_t       size);
  84:../libdaisy_IIT6/libDaisy/src/hid/audio.h **** 
  85:../libdaisy_IIT6/libDaisy/src/hid/audio.h ****     /** Interleaving Input buffer
  86:../libdaisy_IIT6/libDaisy/src/hid/audio.h ****      ** audio is prepared as { L0, R0, L1, R1, . . . LN, RN }]
  87:../libdaisy_IIT6/libDaisy/src/hid/audio.h ****      ** this is const, as the user shouldn't modify it
  88:../libdaisy_IIT6/libDaisy/src/hid/audio.h ****     */
  89:../libdaisy_IIT6/libDaisy/src/hid/audio.h ****     typedef const float* InterleavingInputBuffer;
  90:../libdaisy_IIT6/libDaisy/src/hid/audio.h **** 
  91:../libdaisy_IIT6/libDaisy/src/hid/audio.h ****     /** Interleaving Output buffer 
  92:../libdaisy_IIT6/libDaisy/src/hid/audio.h ****      ** audio is prepared as { L0, R0, L1, R1, . . . LN, RN }
  93:../libdaisy_IIT6/libDaisy/src/hid/audio.h ****     */
  94:../libdaisy_IIT6/libDaisy/src/hid/audio.h ****     typedef float* InterleavingOutputBuffer;
  95:../libdaisy_IIT6/libDaisy/src/hid/audio.h **** 
  96:../libdaisy_IIT6/libDaisy/src/hid/audio.h ****     /** Interleaving Audio Callback 
  97:../libdaisy_IIT6/libDaisy/src/hid/audio.h ****      * Interleaving audio callbacks in daisy must be of this type
  98:../libdaisy_IIT6/libDaisy/src/hid/audio.h ****      */
  99:../libdaisy_IIT6/libDaisy/src/hid/audio.h ****     typedef void (*InterleavingAudioCallback)(InterleavingInputBuffer  in,
 100:../libdaisy_IIT6/libDaisy/src/hid/audio.h ****                                               InterleavingOutputBuffer out,
 101:../libdaisy_IIT6/libDaisy/src/hid/audio.h ****                                               size_t                   size);
 102:../libdaisy_IIT6/libDaisy/src/hid/audio.h **** 
 103:../libdaisy_IIT6/libDaisy/src/hid/audio.h ****     AudioHandle() : pimpl_(nullptr) {}
 104:../libdaisy_IIT6/libDaisy/src/hid/audio.h ****     ~AudioHandle() {}
  86              		.loc 7 104 5 is_stmt 1 view .LVU11
  87              		.loc 7 104 5 is_stmt 0 view .LVU12
  88              	.LBE1132:
  89              		.loc 2 22 19 view .LVU13
  90 0000 7047     		bx	lr
  91              		.cfi_endproc
  92              	.LFE3219:
  94              		.weak	_ZN5daisy9DaisySeedD1Ev
  95              		.thumb_set _ZN5daisy9DaisySeedD1Ev,_ZN5daisy9DaisySeedD2Ev
  96 0002 00BF     		.section	.text._ZN5rings4PartD2Ev,"axG",%progbits,_ZN5rings4PartD5Ev,comdat
ARM GAS  /var/folders/9k/zk1mgrrd7wg4__6zvxvr9w8m0000gn/T//ccuDf5uE.s 			page 10


  97              		.align	1
  98              		.p2align 2,,3
  99              		.weak	_ZN5rings4PartD2Ev
 100              		.syntax unified
 101              		.thumb
 102              		.thumb_func
 104              	_ZN5rings4PartD2Ev:
 105              	.LVL2:
 106              	.LFB5478:
 107              		.file 8 "mi/ringsX_MIDI/dsp/part.h"
   1:mi/ringsX_MIDI/dsp/part.h **** // Copyright 2015 Emilie Gillet.
   2:mi/ringsX_MIDI/dsp/part.h **** //
   3:mi/ringsX_MIDI/dsp/part.h **** // Author: Emilie Gillet (emilie.o.gillet@gmail.com)
   4:mi/ringsX_MIDI/dsp/part.h **** //
   5:mi/ringsX_MIDI/dsp/part.h **** // Permission is hereby granted, free of charge, to any person obtaining a copy
   6:mi/ringsX_MIDI/dsp/part.h **** // of this software and associated documentation files (the "Software"), to deal
   7:mi/ringsX_MIDI/dsp/part.h **** // in the Software without restriction, including without limitation the rights
   8:mi/ringsX_MIDI/dsp/part.h **** // to use, copy, modify, merge, publish, distribute, sublicense, and/or sell
   9:mi/ringsX_MIDI/dsp/part.h **** // copies of the Software, and to permit persons to whom the Software is
  10:mi/ringsX_MIDI/dsp/part.h **** // furnished to do so, subject to the following conditions:
  11:mi/ringsX_MIDI/dsp/part.h **** // 
  12:mi/ringsX_MIDI/dsp/part.h **** // The above copyright notice and this permission notice shall be included in
  13:mi/ringsX_MIDI/dsp/part.h **** // all copies or substantial portions of the Software.
  14:mi/ringsX_MIDI/dsp/part.h **** // 
  15:mi/ringsX_MIDI/dsp/part.h **** // THE SOFTWARE IS PROVIDED "AS IS", WITHOUT WARRANTY OF ANY KIND, EXPRESS OR
  16:mi/ringsX_MIDI/dsp/part.h **** // IMPLIED, INCLUDING BUT NOT LIMITED TO THE WARRANTIES OF MERCHANTABILITY,
  17:mi/ringsX_MIDI/dsp/part.h **** // FITNESS FOR A PARTICULAR PURPOSE AND NONINFRINGEMENT. IN NO EVENT SHALL THE
  18:mi/ringsX_MIDI/dsp/part.h **** // AUTHORS OR COPYRIGHT HOLDERS BE LIABLE FOR ANY CLAIM, DAMAGES OR OTHER
  19:mi/ringsX_MIDI/dsp/part.h **** // LIABILITY, WHETHER IN AN ACTION OF CONTRACT, TORT OR OTHERWISE, ARISING FROM,
  20:mi/ringsX_MIDI/dsp/part.h **** // OUT OF OR IN CONNECTION WITH THE SOFTWARE OR THE USE OR OTHER DEALINGS IN
  21:mi/ringsX_MIDI/dsp/part.h **** // THE SOFTWARE.
  22:mi/ringsX_MIDI/dsp/part.h **** // 
  23:mi/ringsX_MIDI/dsp/part.h **** // See http://creativecommons.org/licenses/MIT/ for more information.
  24:mi/ringsX_MIDI/dsp/part.h **** //
  25:mi/ringsX_MIDI/dsp/part.h **** // -----------------------------------------------------------------------------
  26:mi/ringsX_MIDI/dsp/part.h **** //
  27:mi/ringsX_MIDI/dsp/part.h **** // Group of voices.
  28:mi/ringsX_MIDI/dsp/part.h **** 
  29:mi/ringsX_MIDI/dsp/part.h **** #ifndef RINGS_DSP_PART_H_
  30:mi/ringsX_MIDI/dsp/part.h **** #define RINGS_DSP_PART_H_
  31:mi/ringsX_MIDI/dsp/part.h **** 
  32:mi/ringsX_MIDI/dsp/part.h **** #include <algorithm>
  33:mi/ringsX_MIDI/dsp/part.h **** 
  34:mi/ringsX_MIDI/dsp/part.h **** #include "stmlib/stmlib.h"
  35:mi/ringsX_MIDI/dsp/part.h **** #include "stmlib/dsp/cosine_oscillator.h"
  36:mi/ringsX_MIDI/dsp/part.h **** #include "stmlib/dsp/delay_line.h"
  37:mi/ringsX_MIDI/dsp/part.h **** #include "stmlib/dsp/filter.h"
  38:mi/ringsX_MIDI/dsp/part.h **** 
  39:mi/ringsX_MIDI/dsp/part.h **** #include "ringsX_MIDI/dsp/dsp.h"
  40:mi/ringsX_MIDI/dsp/part.h **** #include "ringsX_MIDI/dsp/fm_voice.h"
  41:mi/ringsX_MIDI/dsp/part.h **** #include "ringsX_MIDI/dsp/fx/reverb.h"
  42:mi/ringsX_MIDI/dsp/part.h **** #include "ringsX_MIDI/dsp/limiter.h"
  43:mi/ringsX_MIDI/dsp/part.h **** #include "ringsX_MIDI/dsp/note_filter.h"
  44:mi/ringsX_MIDI/dsp/part.h **** #include "ringsX_MIDI/dsp/patch.h"
  45:mi/ringsX_MIDI/dsp/part.h **** #include "ringsX_MIDI/dsp/performance_state.h"
  46:mi/ringsX_MIDI/dsp/part.h **** #include "ringsX_MIDI/dsp/plucker.h"
  47:mi/ringsX_MIDI/dsp/part.h **** #include "ringsX_MIDI/dsp/resonator.h"
ARM GAS  /var/folders/9k/zk1mgrrd7wg4__6zvxvr9w8m0000gn/T//ccuDf5uE.s 			page 11


  48:mi/ringsX_MIDI/dsp/part.h **** #include "ringsX_MIDI/dsp/resonator_hilbert.h"
  49:mi/ringsX_MIDI/dsp/part.h **** #include "ringsX_MIDI/dsp/string.h"
  50:mi/ringsX_MIDI/dsp/part.h **** 
  51:mi/ringsX_MIDI/dsp/part.h **** namespace rings {
  52:mi/ringsX_MIDI/dsp/part.h **** 
  53:mi/ringsX_MIDI/dsp/part.h **** enum ResonatorModel {
  54:mi/ringsX_MIDI/dsp/part.h ****   RESONATOR_MODEL_MODAL,                // 0: 绿 (Modal)
  55:mi/ringsX_MIDI/dsp/part.h ****   RESONATOR_MODEL_SYMPATHETIC_STRING,   // 1: 橙 (Sympathetic)
  56:mi/ringsX_MIDI/dsp/part.h ****   RESONATOR_MODEL_STRING,               // 2: 红 (String)
  57:mi/ringsX_MIDI/dsp/part.h ****   RESONATOR_MODEL_FM_VOICE,             // 3: 绿呼吸 (FM)
  58:mi/ringsX_MIDI/dsp/part.h ****   RESONATOR_MODEL_WESTERN_CHORDS,       // 4: 橙呼吸 (Chords)
  59:mi/ringsX_MIDI/dsp/part.h ****   RESONATOR_MODEL_STRING_AND_REVERB,    // 5: 红呼吸 (Reverb)
  60:mi/ringsX_MIDI/dsp/part.h ****   RESONATOR_MODEL_FM_VOICE_2,           // 6: 灭 (Easter Egg)
  61:mi/ringsX_MIDI/dsp/part.h ****   RESONATOR_MODEL_AUDREY_A,             // 7: 绿闪 (HOHO A)
  62:mi/ringsX_MIDI/dsp/part.h ****   RESONATOR_MODEL_AUDREY_B,             // 8: 橙闪 (HOHO B)
  63:mi/ringsX_MIDI/dsp/part.h ****   RESONATOR_MODEL_AUDREY_C,             // 9: 红闪 (HOHO C)
  64:mi/ringsX_MIDI/dsp/part.h ****   RESONATOR_MODEL_HILBERT,              // 10: 绿色快速呼吸 (Hilbert)
  65:mi/ringsX_MIDI/dsp/part.h ****   RESONATOR_MODEL_LAST
  66:mi/ringsX_MIDI/dsp/part.h **** };
  67:mi/ringsX_MIDI/dsp/part.h **** 
  68:mi/ringsX_MIDI/dsp/part.h **** const int32_t kMaxPolyphony = 4;
  69:mi/ringsX_MIDI/dsp/part.h **** const int32_t kNumStrings = kMaxPolyphony * 2;
  70:mi/ringsX_MIDI/dsp/part.h **** 
  71:mi/ringsX_MIDI/dsp/part.h **** class Part {
  72:mi/ringsX_MIDI/dsp/part.h ****  public:
  73:mi/ringsX_MIDI/dsp/part.h ****   Part() { }
  74:mi/ringsX_MIDI/dsp/part.h ****   ~Part() { }
 108              		.loc 8 74 3 is_stmt 1 view -0
 109              		.cfi_startproc
 110              		@ args = 0, pretend = 0, frame = 0
 111              		@ frame_needed = 0, uses_anonymous_args = 0
 112              		@ link register save eliminated.
 113              	.LBB1133:
 114              	.LBI1133:
 115              		.file 9 "mi/ringsX_MIDI/dsp/limiter.h"
   1:mi/ringsX_MIDI/dsp/limiter.h **** // Copyright 2015 Emilie Gillet.
   2:mi/ringsX_MIDI/dsp/limiter.h **** //
   3:mi/ringsX_MIDI/dsp/limiter.h **** // Author: Emilie Gillet (emilie.o.gillet@gmail.com)
   4:mi/ringsX_MIDI/dsp/limiter.h **** //
   5:mi/ringsX_MIDI/dsp/limiter.h **** // Permission is hereby granted, free of charge, to any person obtaining a copy
   6:mi/ringsX_MIDI/dsp/limiter.h **** // of this software and associated documentation files (the "Software"), to deal
   7:mi/ringsX_MIDI/dsp/limiter.h **** // in the Software without restriction, including without limitation the rights
   8:mi/ringsX_MIDI/dsp/limiter.h **** // to use, copy, modify, merge, publish, distribute, sublicense, and/or sell
   9:mi/ringsX_MIDI/dsp/limiter.h **** // copies of the Software, and to permit persons to whom the Software is
  10:mi/ringsX_MIDI/dsp/limiter.h **** // furnished to do so, subject to the following conditions:
  11:mi/ringsX_MIDI/dsp/limiter.h **** // 
  12:mi/ringsX_MIDI/dsp/limiter.h **** // The above copyright notice and this permission notice shall be included in
  13:mi/ringsX_MIDI/dsp/limiter.h **** // all copies or substantial portions of the Software.
  14:mi/ringsX_MIDI/dsp/limiter.h **** // 
  15:mi/ringsX_MIDI/dsp/limiter.h **** // THE SOFTWARE IS PROVIDED "AS IS", WITHOUT WARRANTY OF ANY KIND, EXPRESS OR
  16:mi/ringsX_MIDI/dsp/limiter.h **** // IMPLIED, INCLUDING BUT NOT LIMITED TO THE WARRANTIES OF MERCHANTABILITY,
  17:mi/ringsX_MIDI/dsp/limiter.h **** // FITNESS FOR A PARTICULAR PURPOSE AND NONINFRINGEMENT. IN NO EVENT SHALL THE
  18:mi/ringsX_MIDI/dsp/limiter.h **** // AUTHORS OR COPYRIGHT HOLDERS BE LIABLE FOR ANY CLAIM, DAMAGES OR OTHER
  19:mi/ringsX_MIDI/dsp/limiter.h **** // LIABILITY, WHETHER IN AN ACTION OF CONTRACT, TORT OR OTHERWISE, ARISING FROM,
  20:mi/ringsX_MIDI/dsp/limiter.h **** // OUT OF OR IN CONNECTION WITH THE SOFTWARE OR THE USE OR OTHER DEALINGS IN
  21:mi/ringsX_MIDI/dsp/limiter.h **** // THE SOFTWARE.
  22:mi/ringsX_MIDI/dsp/limiter.h **** // 
ARM GAS  /var/folders/9k/zk1mgrrd7wg4__6zvxvr9w8m0000gn/T//ccuDf5uE.s 			page 12


  23:mi/ringsX_MIDI/dsp/limiter.h **** // See http://creativecommons.org/licenses/MIT/ for more information.
  24:mi/ringsX_MIDI/dsp/limiter.h **** //
  25:mi/ringsX_MIDI/dsp/limiter.h **** // -----------------------------------------------------------------------------
  26:mi/ringsX_MIDI/dsp/limiter.h **** //
  27:mi/ringsX_MIDI/dsp/limiter.h **** // Limiter.
  28:mi/ringsX_MIDI/dsp/limiter.h **** 
  29:mi/ringsX_MIDI/dsp/limiter.h **** #ifndef RINGS_DSP_LIMITER_H_
  30:mi/ringsX_MIDI/dsp/limiter.h **** #define RINGS_DSP_LIMITER_H_
  31:mi/ringsX_MIDI/dsp/limiter.h **** 
  32:mi/ringsX_MIDI/dsp/limiter.h **** #include "stmlib/stmlib.h"
  33:mi/ringsX_MIDI/dsp/limiter.h **** 
  34:mi/ringsX_MIDI/dsp/limiter.h **** #include <algorithm>
  35:mi/ringsX_MIDI/dsp/limiter.h **** 
  36:mi/ringsX_MIDI/dsp/limiter.h **** #include "stmlib/dsp/dsp.h"
  37:mi/ringsX_MIDI/dsp/limiter.h **** #include "stmlib/dsp/filter.h"
  38:mi/ringsX_MIDI/dsp/limiter.h **** 
  39:mi/ringsX_MIDI/dsp/limiter.h **** namespace rings {
  40:mi/ringsX_MIDI/dsp/limiter.h **** 
  41:mi/ringsX_MIDI/dsp/limiter.h **** class Limiter {
  42:mi/ringsX_MIDI/dsp/limiter.h ****  public:
  43:mi/ringsX_MIDI/dsp/limiter.h ****   Limiter() { }
  44:mi/ringsX_MIDI/dsp/limiter.h ****   ~Limiter() { }
 116              		.loc 9 44 3 view .LVU15
 117              		.loc 9 44 3 is_stmt 0 view .LVU16
 118              	.LBE1133:
 119              	.LBB1134:
 120              	.LBI1134:
 121              		.file 10 "mi/ringsX_MIDI/dsp/fx/reverb.h"
   1:mi/ringsX_MIDI/dsp/fx/reverb.h **** // Copyright 2014 Emilie Gillet.
   2:mi/ringsX_MIDI/dsp/fx/reverb.h **** //
   3:mi/ringsX_MIDI/dsp/fx/reverb.h **** // Author: Emilie Gillet (emilie.o.gillet@gmail.com)
   4:mi/ringsX_MIDI/dsp/fx/reverb.h **** //
   5:mi/ringsX_MIDI/dsp/fx/reverb.h **** // Permission is hereby granted, free of charge, to any person obtaining a copy
   6:mi/ringsX_MIDI/dsp/fx/reverb.h **** // of this software and associated documentation files (the "Software"), to deal
   7:mi/ringsX_MIDI/dsp/fx/reverb.h **** // in the Software without restriction, including without limitation the rights
   8:mi/ringsX_MIDI/dsp/fx/reverb.h **** // to use, copy, modify, merge, publish, distribute, sublicense, and/or sell
   9:mi/ringsX_MIDI/dsp/fx/reverb.h **** // copies of the Software, and to permit persons to whom the Software is
  10:mi/ringsX_MIDI/dsp/fx/reverb.h **** // furnished to do so, subject to the following conditions:
  11:mi/ringsX_MIDI/dsp/fx/reverb.h **** // 
  12:mi/ringsX_MIDI/dsp/fx/reverb.h **** // The above copyright notice and this permission notice shall be included in
  13:mi/ringsX_MIDI/dsp/fx/reverb.h **** // all copies or substantial portions of the Software.
  14:mi/ringsX_MIDI/dsp/fx/reverb.h **** // 
  15:mi/ringsX_MIDI/dsp/fx/reverb.h **** // THE SOFTWARE IS PROVIDED "AS IS", WITHOUT WARRANTY OF ANY KIND, EXPRESS OR
  16:mi/ringsX_MIDI/dsp/fx/reverb.h **** // IMPLIED, INCLUDING BUT NOT LIMITED TO THE WARRANTIES OF MERCHANTABILITY,
  17:mi/ringsX_MIDI/dsp/fx/reverb.h **** // FITNESS FOR A PARTICULAR PURPOSE AND NONINFRINGEMENT. IN NO EVENT SHALL THE
  18:mi/ringsX_MIDI/dsp/fx/reverb.h **** // AUTHORS OR COPYRIGHT HOLDERS BE LIABLE FOR ANY CLAIM, DAMAGES OR OTHER
  19:mi/ringsX_MIDI/dsp/fx/reverb.h **** // LIABILITY, WHETHER IN AN ACTION OF CONTRACT, TORT OR OTHERWISE, ARISING FROM,
  20:mi/ringsX_MIDI/dsp/fx/reverb.h **** // OUT OF OR IN CONNECTION WITH THE SOFTWARE OR THE USE OR OTHER DEALINGS IN
  21:mi/ringsX_MIDI/dsp/fx/reverb.h **** // THE SOFTWARE.
  22:mi/ringsX_MIDI/dsp/fx/reverb.h **** // 
  23:mi/ringsX_MIDI/dsp/fx/reverb.h **** // See http://creativecommons.org/licenses/MIT/ for more information.
  24:mi/ringsX_MIDI/dsp/fx/reverb.h **** //
  25:mi/ringsX_MIDI/dsp/fx/reverb.h **** // -----------------------------------------------------------------------------
  26:mi/ringsX_MIDI/dsp/fx/reverb.h **** //
  27:mi/ringsX_MIDI/dsp/fx/reverb.h **** // Reverb.
  28:mi/ringsX_MIDI/dsp/fx/reverb.h **** 
  29:mi/ringsX_MIDI/dsp/fx/reverb.h **** #ifndef RINGS_DSP_FX_REVERB_H_
ARM GAS  /var/folders/9k/zk1mgrrd7wg4__6zvxvr9w8m0000gn/T//ccuDf5uE.s 			page 13


  30:mi/ringsX_MIDI/dsp/fx/reverb.h **** #define RINGS_DSP_FX_REVERB_H_
  31:mi/ringsX_MIDI/dsp/fx/reverb.h **** 
  32:mi/ringsX_MIDI/dsp/fx/reverb.h **** #include "stmlib/stmlib.h"
  33:mi/ringsX_MIDI/dsp/fx/reverb.h **** 
  34:mi/ringsX_MIDI/dsp/fx/reverb.h **** #include "ringsX_MIDI/dsp/fx/fx_engine.h"
  35:mi/ringsX_MIDI/dsp/fx/reverb.h **** 
  36:mi/ringsX_MIDI/dsp/fx/reverb.h **** namespace rings {
  37:mi/ringsX_MIDI/dsp/fx/reverb.h **** 
  38:mi/ringsX_MIDI/dsp/fx/reverb.h **** class Reverb {
  39:mi/ringsX_MIDI/dsp/fx/reverb.h ****  public:
  40:mi/ringsX_MIDI/dsp/fx/reverb.h ****   Reverb() { }
  41:mi/ringsX_MIDI/dsp/fx/reverb.h ****   ~Reverb() { }
 122              		.loc 10 41 3 is_stmt 1 view .LVU17
 123              	.LBB1135:
 124              	.LBI1135:
 125              		.file 11 "mi/ringsX_MIDI/dsp/fx/fx_engine.h"
   1:mi/ringsX_MIDI/dsp/fx/fx_engine.h **** // Copyright 2014 Emilie Gillet.
   2:mi/ringsX_MIDI/dsp/fx/fx_engine.h **** //
   3:mi/ringsX_MIDI/dsp/fx/fx_engine.h **** // Author: Emilie Gillet (emilie.o.gillet@gmail.com)
   4:mi/ringsX_MIDI/dsp/fx/fx_engine.h **** //
   5:mi/ringsX_MIDI/dsp/fx/fx_engine.h **** // Permission is hereby granted, free of charge, to any person obtaining a copy
   6:mi/ringsX_MIDI/dsp/fx/fx_engine.h **** // of this software and associated documentation files (the "Software"), to deal
   7:mi/ringsX_MIDI/dsp/fx/fx_engine.h **** // in the Software without restriction, including without limitation the rights
   8:mi/ringsX_MIDI/dsp/fx/fx_engine.h **** // to use, copy, modify, merge, publish, distribute, sublicense, and/or sell
   9:mi/ringsX_MIDI/dsp/fx/fx_engine.h **** // copies of the Software, and to permit persons to whom the Software is
  10:mi/ringsX_MIDI/dsp/fx/fx_engine.h **** // furnished to do so, subject to the following conditions:
  11:mi/ringsX_MIDI/dsp/fx/fx_engine.h **** // 
  12:mi/ringsX_MIDI/dsp/fx/fx_engine.h **** // The above copyright notice and this permission notice shall be included in
  13:mi/ringsX_MIDI/dsp/fx/fx_engine.h **** // all copies or substantial portions of the Software.
  14:mi/ringsX_MIDI/dsp/fx/fx_engine.h **** // 
  15:mi/ringsX_MIDI/dsp/fx/fx_engine.h **** // THE SOFTWARE IS PROVIDED "AS IS", WITHOUT WARRANTY OF ANY KIND, EXPRESS OR
  16:mi/ringsX_MIDI/dsp/fx/fx_engine.h **** // IMPLIED, INCLUDING BUT NOT LIMITED TO THE WARRANTIES OF MERCHANTABILITY,
  17:mi/ringsX_MIDI/dsp/fx/fx_engine.h **** // FITNESS FOR A PARTICULAR PURPOSE AND NONINFRINGEMENT. IN NO EVENT SHALL THE
  18:mi/ringsX_MIDI/dsp/fx/fx_engine.h **** // AUTHORS OR COPYRIGHT HOLDERS BE LIABLE FOR ANY CLAIM, DAMAGES OR OTHER
  19:mi/ringsX_MIDI/dsp/fx/fx_engine.h **** // LIABILITY, WHETHER IN AN ACTION OF CONTRACT, TORT OR OTHERWISE, ARISING FROM,
  20:mi/ringsX_MIDI/dsp/fx/fx_engine.h **** // OUT OF OR IN CONNECTION WITH THE SOFTWARE OR THE USE OR OTHER DEALINGS IN
  21:mi/ringsX_MIDI/dsp/fx/fx_engine.h **** // THE SOFTWARE.
  22:mi/ringsX_MIDI/dsp/fx/fx_engine.h **** // 
  23:mi/ringsX_MIDI/dsp/fx/fx_engine.h **** // See http://creativecommons.org/licenses/MIT/ for more information.
  24:mi/ringsX_MIDI/dsp/fx/fx_engine.h **** //
  25:mi/ringsX_MIDI/dsp/fx/fx_engine.h **** // -----------------------------------------------------------------------------
  26:mi/ringsX_MIDI/dsp/fx/fx_engine.h **** //
  27:mi/ringsX_MIDI/dsp/fx/fx_engine.h **** // Base class for building reverb.
  28:mi/ringsX_MIDI/dsp/fx/fx_engine.h **** 
  29:mi/ringsX_MIDI/dsp/fx/fx_engine.h **** #ifndef RINGS_DSP_FX_FX_ENGINE_H_
  30:mi/ringsX_MIDI/dsp/fx/fx_engine.h **** #define RINGS_DSP_FX_FX_ENGINE_H_
  31:mi/ringsX_MIDI/dsp/fx/fx_engine.h **** 
  32:mi/ringsX_MIDI/dsp/fx/fx_engine.h **** #include <algorithm>
  33:mi/ringsX_MIDI/dsp/fx/fx_engine.h **** 
  34:mi/ringsX_MIDI/dsp/fx/fx_engine.h **** #include "stmlib/stmlib.h"
  35:mi/ringsX_MIDI/dsp/fx/fx_engine.h **** 
  36:mi/ringsX_MIDI/dsp/fx/fx_engine.h **** #include "stmlib/dsp/dsp.h"
  37:mi/ringsX_MIDI/dsp/fx/fx_engine.h **** #include "stmlib/dsp/cosine_oscillator.h"
  38:mi/ringsX_MIDI/dsp/fx/fx_engine.h **** 
  39:mi/ringsX_MIDI/dsp/fx/fx_engine.h **** namespace rings {
  40:mi/ringsX_MIDI/dsp/fx/fx_engine.h **** 
  41:mi/ringsX_MIDI/dsp/fx/fx_engine.h **** #define TAIL , -1
ARM GAS  /var/folders/9k/zk1mgrrd7wg4__6zvxvr9w8m0000gn/T//ccuDf5uE.s 			page 14


  42:mi/ringsX_MIDI/dsp/fx/fx_engine.h **** 
  43:mi/ringsX_MIDI/dsp/fx/fx_engine.h **** enum Format {
  44:mi/ringsX_MIDI/dsp/fx/fx_engine.h ****   FORMAT_12_BIT,
  45:mi/ringsX_MIDI/dsp/fx/fx_engine.h ****   FORMAT_16_BIT,
  46:mi/ringsX_MIDI/dsp/fx/fx_engine.h ****   FORMAT_32_BIT
  47:mi/ringsX_MIDI/dsp/fx/fx_engine.h **** };
  48:mi/ringsX_MIDI/dsp/fx/fx_engine.h **** 
  49:mi/ringsX_MIDI/dsp/fx/fx_engine.h **** enum LFOIndex {
  50:mi/ringsX_MIDI/dsp/fx/fx_engine.h ****   LFO_1,
  51:mi/ringsX_MIDI/dsp/fx/fx_engine.h ****   LFO_2
  52:mi/ringsX_MIDI/dsp/fx/fx_engine.h **** };
  53:mi/ringsX_MIDI/dsp/fx/fx_engine.h **** 
  54:mi/ringsX_MIDI/dsp/fx/fx_engine.h **** template<Format format>
  55:mi/ringsX_MIDI/dsp/fx/fx_engine.h **** struct DataType { };
  56:mi/ringsX_MIDI/dsp/fx/fx_engine.h **** 
  57:mi/ringsX_MIDI/dsp/fx/fx_engine.h **** template<>
  58:mi/ringsX_MIDI/dsp/fx/fx_engine.h **** struct DataType<FORMAT_12_BIT> {
  59:mi/ringsX_MIDI/dsp/fx/fx_engine.h ****   typedef uint16_t T;
  60:mi/ringsX_MIDI/dsp/fx/fx_engine.h ****   
  61:mi/ringsX_MIDI/dsp/fx/fx_engine.h ****   static inline float Decompress(T value) {
  62:mi/ringsX_MIDI/dsp/fx/fx_engine.h ****     return static_cast<float>(static_cast<int16_t>(value)) / 4096.0f;
  63:mi/ringsX_MIDI/dsp/fx/fx_engine.h ****   }
  64:mi/ringsX_MIDI/dsp/fx/fx_engine.h ****   
  65:mi/ringsX_MIDI/dsp/fx/fx_engine.h ****   static inline T Compress(float value) {
  66:mi/ringsX_MIDI/dsp/fx/fx_engine.h ****     return static_cast<uint16_t>(
  67:mi/ringsX_MIDI/dsp/fx/fx_engine.h ****         stmlib::Clip16(static_cast<int32_t>(value * 4096.0f)));
  68:mi/ringsX_MIDI/dsp/fx/fx_engine.h ****   }
  69:mi/ringsX_MIDI/dsp/fx/fx_engine.h **** };
  70:mi/ringsX_MIDI/dsp/fx/fx_engine.h **** 
  71:mi/ringsX_MIDI/dsp/fx/fx_engine.h **** template<>
  72:mi/ringsX_MIDI/dsp/fx/fx_engine.h **** struct DataType<FORMAT_16_BIT> {
  73:mi/ringsX_MIDI/dsp/fx/fx_engine.h ****   typedef uint16_t T;
  74:mi/ringsX_MIDI/dsp/fx/fx_engine.h ****   
  75:mi/ringsX_MIDI/dsp/fx/fx_engine.h ****   static inline float Decompress(T value) {
  76:mi/ringsX_MIDI/dsp/fx/fx_engine.h ****     return static_cast<float>(static_cast<int16_t>(value)) / 32768.0f;
  77:mi/ringsX_MIDI/dsp/fx/fx_engine.h ****   }
  78:mi/ringsX_MIDI/dsp/fx/fx_engine.h ****   
  79:mi/ringsX_MIDI/dsp/fx/fx_engine.h ****   static inline T Compress(float value) {
  80:mi/ringsX_MIDI/dsp/fx/fx_engine.h ****     return static_cast<uint16_t>(
  81:mi/ringsX_MIDI/dsp/fx/fx_engine.h ****         stmlib::Clip16(static_cast<int32_t>(value * 32768.0f)));
  82:mi/ringsX_MIDI/dsp/fx/fx_engine.h ****   }
  83:mi/ringsX_MIDI/dsp/fx/fx_engine.h **** };
  84:mi/ringsX_MIDI/dsp/fx/fx_engine.h **** 
  85:mi/ringsX_MIDI/dsp/fx/fx_engine.h **** template<>
  86:mi/ringsX_MIDI/dsp/fx/fx_engine.h **** struct DataType<FORMAT_32_BIT> {
  87:mi/ringsX_MIDI/dsp/fx/fx_engine.h ****   typedef float T;
  88:mi/ringsX_MIDI/dsp/fx/fx_engine.h ****   
  89:mi/ringsX_MIDI/dsp/fx/fx_engine.h ****   static inline float Decompress(T value) {
  90:mi/ringsX_MIDI/dsp/fx/fx_engine.h ****     return value;;
  91:mi/ringsX_MIDI/dsp/fx/fx_engine.h ****   }
  92:mi/ringsX_MIDI/dsp/fx/fx_engine.h ****   
  93:mi/ringsX_MIDI/dsp/fx/fx_engine.h ****   static inline T Compress(float value) {
  94:mi/ringsX_MIDI/dsp/fx/fx_engine.h ****     return value;
  95:mi/ringsX_MIDI/dsp/fx/fx_engine.h ****   }
  96:mi/ringsX_MIDI/dsp/fx/fx_engine.h **** };
  97:mi/ringsX_MIDI/dsp/fx/fx_engine.h **** 
  98:mi/ringsX_MIDI/dsp/fx/fx_engine.h **** template<
ARM GAS  /var/folders/9k/zk1mgrrd7wg4__6zvxvr9w8m0000gn/T//ccuDf5uE.s 			page 15


  99:mi/ringsX_MIDI/dsp/fx/fx_engine.h ****     size_t size,
 100:mi/ringsX_MIDI/dsp/fx/fx_engine.h ****     Format format = FORMAT_12_BIT>
 101:mi/ringsX_MIDI/dsp/fx/fx_engine.h **** class FxEngine {
 102:mi/ringsX_MIDI/dsp/fx/fx_engine.h ****  public:
 103:mi/ringsX_MIDI/dsp/fx/fx_engine.h ****   typedef typename DataType<format>::T T;
 104:mi/ringsX_MIDI/dsp/fx/fx_engine.h ****   FxEngine() { }
 105:mi/ringsX_MIDI/dsp/fx/fx_engine.h ****   ~FxEngine() { }
 126              		.loc 11 105 3 view .LVU18
 127              		.loc 11 105 3 is_stmt 0 view .LVU19
 128              	.LBE1135:
 129              	.LBE1134:
 130              	.LBB1136:
 131              	.LBI1136:
 132              		.file 12 "mi/ringsX_MIDI/dsp/note_filter.h"
   1:mi/ringsX_MIDI/dsp/note_filter.h **** // Copyright 2015 Emilie Gillet.
   2:mi/ringsX_MIDI/dsp/note_filter.h **** //
   3:mi/ringsX_MIDI/dsp/note_filter.h **** // Author: Emilie Gillet (emilie.o.gillet@gmail.com)
   4:mi/ringsX_MIDI/dsp/note_filter.h **** //
   5:mi/ringsX_MIDI/dsp/note_filter.h **** // Permission is hereby granted, free of charge, to any person obtaining a copy
   6:mi/ringsX_MIDI/dsp/note_filter.h **** // of this software and associated documentation files (the "Software"), to deal
   7:mi/ringsX_MIDI/dsp/note_filter.h **** // in the Software without restriction, including without limitation the rights
   8:mi/ringsX_MIDI/dsp/note_filter.h **** // to use, copy, modify, merge, publish, distribute, sublicense, and/or sell
   9:mi/ringsX_MIDI/dsp/note_filter.h **** // copies of the Software, and to permit persons to whom the Software is
  10:mi/ringsX_MIDI/dsp/note_filter.h **** // furnished to do so, subject to the following conditions:
  11:mi/ringsX_MIDI/dsp/note_filter.h **** // 
  12:mi/ringsX_MIDI/dsp/note_filter.h **** // The above copyright notice and this permission notice shall be included in
  13:mi/ringsX_MIDI/dsp/note_filter.h **** // all copies or substantial portions of the Software.
  14:mi/ringsX_MIDI/dsp/note_filter.h **** // 
  15:mi/ringsX_MIDI/dsp/note_filter.h **** // THE SOFTWARE IS PROVIDED "AS IS", WITHOUT WARRANTY OF ANY KIND, EXPRESS OR
  16:mi/ringsX_MIDI/dsp/note_filter.h **** // IMPLIED, INCLUDING BUT NOT LIMITED TO THE WARRANTIES OF MERCHANTABILITY,
  17:mi/ringsX_MIDI/dsp/note_filter.h **** // FITNESS FOR A PARTICULAR PURPOSE AND NONINFRINGEMENT. IN NO EVENT SHALL THE
  18:mi/ringsX_MIDI/dsp/note_filter.h **** // AUTHORS OR COPYRIGHT HOLDERS BE LIABLE FOR ANY CLAIM, DAMAGES OR OTHER
  19:mi/ringsX_MIDI/dsp/note_filter.h **** // LIABILITY, WHETHER IN AN ACTION OF CONTRACT, TORT OR OTHERWISE, ARISING FROM,
  20:mi/ringsX_MIDI/dsp/note_filter.h **** // OUT OF OR IN CONNECTION WITH THE SOFTWARE OR THE USE OR OTHER DEALINGS IN
  21:mi/ringsX_MIDI/dsp/note_filter.h **** // THE SOFTWARE.
  22:mi/ringsX_MIDI/dsp/note_filter.h **** // 
  23:mi/ringsX_MIDI/dsp/note_filter.h **** // See http://creativecommons.org/licenses/MIT/ for more information.
  24:mi/ringsX_MIDI/dsp/note_filter.h **** //
  25:mi/ringsX_MIDI/dsp/note_filter.h **** // -----------------------------------------------------------------------------
  26:mi/ringsX_MIDI/dsp/note_filter.h **** //
  27:mi/ringsX_MIDI/dsp/note_filter.h **** // Low pass filter for getting stable pitch data.
  28:mi/ringsX_MIDI/dsp/note_filter.h **** 
  29:mi/ringsX_MIDI/dsp/note_filter.h **** #ifndef RINGS_DSP_NOTE_FILTER_H_
  30:mi/ringsX_MIDI/dsp/note_filter.h **** #define RINGS_DSP_NOTE_FILTER_H_
  31:mi/ringsX_MIDI/dsp/note_filter.h **** 
  32:mi/ringsX_MIDI/dsp/note_filter.h **** #include "stmlib/dsp/dsp.h"
  33:mi/ringsX_MIDI/dsp/note_filter.h **** #include "stmlib/dsp/delay_line.h"
  34:mi/ringsX_MIDI/dsp/note_filter.h **** 
  35:mi/ringsX_MIDI/dsp/note_filter.h **** namespace rings {
  36:mi/ringsX_MIDI/dsp/note_filter.h **** 
  37:mi/ringsX_MIDI/dsp/note_filter.h **** class NoteFilter {
  38:mi/ringsX_MIDI/dsp/note_filter.h ****  public:
  39:mi/ringsX_MIDI/dsp/note_filter.h ****   enum {
  40:mi/ringsX_MIDI/dsp/note_filter.h ****     N = 4  // Median filter order
  41:mi/ringsX_MIDI/dsp/note_filter.h ****   };
  42:mi/ringsX_MIDI/dsp/note_filter.h ****   NoteFilter() { }
  43:mi/ringsX_MIDI/dsp/note_filter.h ****   ~NoteFilter() { }
ARM GAS  /var/folders/9k/zk1mgrrd7wg4__6zvxvr9w8m0000gn/T//ccuDf5uE.s 			page 16


 133              		.loc 12 43 3 is_stmt 1 view .LVU20
 134              	.LBB1137:
 135              	.LBI1137:
 136              		.file 13 "mi/stmlib/dsp/delay_line.h"
   1:mi/stmlib/dsp/delay_line.h **** // Copyright 2014 Emilie Gillet.
   2:mi/stmlib/dsp/delay_line.h **** //
   3:mi/stmlib/dsp/delay_line.h **** // Author: Emilie Gillet (emilie.o.gillet@gmail.com)
   4:mi/stmlib/dsp/delay_line.h **** //
   5:mi/stmlib/dsp/delay_line.h **** // Permission is hereby granted, free of charge, to any person obtaining a copy
   6:mi/stmlib/dsp/delay_line.h **** // of this software and associated documentation files (the "Software"), to deal
   7:mi/stmlib/dsp/delay_line.h **** // in the Software without restriction, including without limitation the rights
   8:mi/stmlib/dsp/delay_line.h **** // to use, copy, modify, merge, publish, distribute, sublicense, and/or sell
   9:mi/stmlib/dsp/delay_line.h **** // copies of the Software, and to permit persons to whom the Software is
  10:mi/stmlib/dsp/delay_line.h **** // furnished to do so, subject to the following conditions:
  11:mi/stmlib/dsp/delay_line.h **** // 
  12:mi/stmlib/dsp/delay_line.h **** // The above copyright notice and this permission notice shall be included in
  13:mi/stmlib/dsp/delay_line.h **** // all copies or substantial portions of the Software.
  14:mi/stmlib/dsp/delay_line.h **** // 
  15:mi/stmlib/dsp/delay_line.h **** // THE SOFTWARE IS PROVIDED "AS IS", WITHOUT WARRANTY OF ANY KIND, EXPRESS OR
  16:mi/stmlib/dsp/delay_line.h **** // IMPLIED, INCLUDING BUT NOT LIMITED TO THE WARRANTIES OF MERCHANTABILITY,
  17:mi/stmlib/dsp/delay_line.h **** // FITNESS FOR A PARTICULAR PURPOSE AND NONINFRINGEMENT. IN NO EVENT SHALL THE
  18:mi/stmlib/dsp/delay_line.h **** // AUTHORS OR COPYRIGHT HOLDERS BE LIABLE FOR ANY CLAIM, DAMAGES OR OTHER
  19:mi/stmlib/dsp/delay_line.h **** // LIABILITY, WHETHER IN AN ACTION OF CONTRACT, TORT OR OTHERWISE, ARISING FROM,
  20:mi/stmlib/dsp/delay_line.h **** // OUT OF OR IN CONNECTION WITH THE SOFTWARE OR THE USE OR OTHER DEALINGS IN
  21:mi/stmlib/dsp/delay_line.h **** // THE SOFTWARE.
  22:mi/stmlib/dsp/delay_line.h **** // 
  23:mi/stmlib/dsp/delay_line.h **** // See http://creativecommons.org/licenses/MIT/ for more information.
  24:mi/stmlib/dsp/delay_line.h **** //
  25:mi/stmlib/dsp/delay_line.h **** // -----------------------------------------------------------------------------
  26:mi/stmlib/dsp/delay_line.h **** //
  27:mi/stmlib/dsp/delay_line.h **** // Delay line.
  28:mi/stmlib/dsp/delay_line.h **** 
  29:mi/stmlib/dsp/delay_line.h **** #ifndef STMLIB_DSP_DELAY_LINE_H_
  30:mi/stmlib/dsp/delay_line.h **** #define STMLIB_DSP_DELAY_LINE_H_
  31:mi/stmlib/dsp/delay_line.h **** 
  32:mi/stmlib/dsp/delay_line.h **** #include "stmlib/stmlib.h"
  33:mi/stmlib/dsp/delay_line.h **** #include "stmlib/dsp/dsp.h"
  34:mi/stmlib/dsp/delay_line.h **** 
  35:mi/stmlib/dsp/delay_line.h **** #include <algorithm>
  36:mi/stmlib/dsp/delay_line.h **** 
  37:mi/stmlib/dsp/delay_line.h **** namespace stmlib {
  38:mi/stmlib/dsp/delay_line.h **** 
  39:mi/stmlib/dsp/delay_line.h **** template<typename T, size_t max_delay>
  40:mi/stmlib/dsp/delay_line.h **** class DelayLine {
  41:mi/stmlib/dsp/delay_line.h ****  public:
  42:mi/stmlib/dsp/delay_line.h ****   DelayLine() { }
  43:mi/stmlib/dsp/delay_line.h ****   ~DelayLine() { }
 137              		.loc 13 43 3 view .LVU21
 138              		.loc 13 43 3 is_stmt 0 view .LVU22
 139              	.LBE1137:
 140              	.LBE1136:
 141              		.loc 8 74 13 view .LVU23
 142 0000 7047     		bx	lr
 143              		.cfi_endproc
 144              	.LFE5478:
 146              		.weak	_ZN5rings4PartD1Ev
 147              		.thumb_set _ZN5rings4PartD1Ev,_ZN5rings4PartD2Ev
ARM GAS  /var/folders/9k/zk1mgrrd7wg4__6zvxvr9w8m0000gn/T//ccuDf5uE.s 			page 17


 148 0002 00BF     		.section	.rodata._ZL9UartPrintPKcz.str1.4,"aMS",%progbits,1
 149              		.align	2
 150              	.LC1:
 151 0000 257300   		.ascii	"%s\000"
 152              		.section	.text._ZL9UartPrintPKcz,"ax",%progbits
 153              		.align	1
 154              		.p2align 2,,3
 155              		.syntax unified
 156              		.thumb
 157              		.thumb_func
 159              	_ZL9UartPrintPKcz:
 160              	.LVL3:
 161              	.LFB5562:
 162              		.file 14 "main.cpp"
   1:main.cpp      **** #include "daisy_seed.h"
   2:main.cpp      **** #include "daisysp.h"
   3:main.cpp      **** #include "ringsX_MIDI/dsp/part.h"
   4:main.cpp      **** #include "ringsX_MIDI/dsp/patch.h"
   5:main.cpp      **** #include "ringsX_MIDI/dsp/performance_state.h"
   6:main.cpp      **** #include "plaits_adapter.h"
   7:main.cpp      **** #include "assets_gen/rings_panel.h"
   8:main.cpp      **** #include "assets_gen/plaits_panel.h"
   9:main.cpp      **** #include "assets_gen/scope_panel.h"
  10:main.cpp      **** #include "assets_gen/vcv_knob_big.h"
  11:main.cpp      **** #include "assets_gen/vcv_knob_small.h"
  12:main.cpp      **** #include <cmath>
  13:main.cpp      **** #include <cstdint>
  14:main.cpp      **** #include <cstdarg>
  15:main.cpp      **** #include <cstdio>
  16:main.cpp      **** #include <cstring>
  17:main.cpp      **** extern "C"
  18:main.cpp      **** {
  19:main.cpp      **** #include "BSP/LTDC/lcd_rgb.h"
  20:main.cpp      **** #include "BSP/LTDC/sdram.h"
  21:main.cpp      **** #include "BSP/LTDC/touch_800x480.h"
  22:main.cpp      **** }
  23:main.cpp      **** 
  24:main.cpp      **** using namespace daisy;
  25:main.cpp      **** using namespace daisysp;
  26:main.cpp      **** 
  27:main.cpp      **** DaisySeed   hw;
  28:main.cpp      **** SaiHandle   sai1_tdm;
  29:main.cpp      **** AK4619      codec_1;
  30:main.cpp      **** UartHandler debug_uart;
  31:main.cpp      **** bool        g_uart_ready = false;
  32:main.cpp      **** 
  33:main.cpp      **** constexpr size_t  kSai1TdmSlots        = 4;
  34:main.cpp      **** constexpr size_t  kAudioOutChannels     = 4;
  35:main.cpp      **** constexpr size_t  kAudioInChannels      = 4;
  36:main.cpp      **** constexpr size_t  kModePrintMs          = 2000;
  37:main.cpp      **** constexpr uint8_t kCodecAddrCandidates[] = {0x10, 0x11};
  38:main.cpp      **** constexpr size_t  kCodecProbeRetries    = 12;
  39:main.cpp      **** constexpr size_t  kCodecProbeDelayMs    = 25;
  40:main.cpp      **** constexpr bool    kUiOnlyVcv            = false;
  41:main.cpp      **** 
  42:main.cpp      **** enum class StreamMode
  43:main.cpp      **** {
ARM GAS  /var/folders/9k/zk1mgrrd7wg4__6zvxvr9w8m0000gn/T//ccuDf5uE.s 			page 18


  44:main.cpp      ****     LOOP_4IN_4OUT,
  45:main.cpp      ****     TEST_TONE_1K,
  46:main.cpp      ****     RINGS_TEST_SQUARE,
  47:main.cpp      ****     PLAITS_TEST_SQUARE,
  48:main.cpp      **** };
  49:main.cpp      **** 
  50:main.cpp      **** enum class RunMode
  51:main.cpp      **** {
  52:main.cpp      ****     ACTIVE,
  53:main.cpp      ****     STOP,
  54:main.cpp      **** };
  55:main.cpp      **** 
  56:main.cpp      **** enum class UiScene
  57:main.cpp      **** {
  58:main.cpp      ****     SCOPE = 0,
  59:main.cpp      ****     RINGS_CTRL,
  60:main.cpp      ****     PLAITS_CTRL,
  61:main.cpp      ****     RINGS_VCV_UI,
  62:main.cpp      ****     PLAITS_VCV_UI,
  63:main.cpp      ****     VECTOR,
  64:main.cpp      ****     SPECTRUM,
  65:main.cpp      ****     NEON,
  66:main.cpp      ****     ORBIT,
  67:main.cpp      ****     COUNT,
  68:main.cpp      **** };
  69:main.cpp      **** 
  70:main.cpp      **** volatile uint32_t g_callback_count = 0;
  71:main.cpp      **** StreamMode        g_stream_mode    = StreamMode::LOOP_4IN_4OUT;
  72:main.cpp      **** RunMode           g_run_mode       = RunMode::STOP;
  73:main.cpp      **** UiScene           g_ui_scene       = UiScene::SCOPE;
  74:main.cpp      **** size_t            g_in_channels    = kAudioInChannels;
  75:main.cpp      **** size_t            g_out_channels   = kAudioOutChannels;
  76:main.cpp      **** volatile uint8_t  g_usb_cmd_byte   = 0;
  77:main.cpp      **** volatile bool     g_usb_cmd_pending = false;
  78:main.cpp      **** volatile float    g_monitor_l = 0.0f;
  79:main.cpp      **** volatile float    g_monitor_r = 0.0f;
  80:main.cpp      **** 
  81:main.cpp      **** constexpr uint16_t kVisHistory = 320;
  82:main.cpp      **** float              g_vis_l[kVisHistory];
  83:main.cpp      **** float              g_vis_r[kVisHistory];
  84:main.cpp      **** uint16_t           g_vis_wr       = 0;
  85:main.cpp      **** float              g_spec_env[8]  = {0.0f};
  86:main.cpp      **** float              g_prev_l1      = 0.0f;
  87:main.cpp      **** float              g_prev_l2      = 0.0f;
  88:main.cpp      **** float              g_prev_l3      = 0.0f;
  89:main.cpp      **** float              g_prev_r1      = 0.0f;
  90:main.cpp      **** float              g_prev_r2      = 0.0f;
  91:main.cpp      **** float              g_prev_r3      = 0.0f;
  92:main.cpp      **** float              g_phase_l      = 0.0f;
  93:main.cpp      **** float              g_phase_r      = 0.0f;
  94:main.cpp      **** uint8_t            g_prev_touch   = 0;
  95:main.cpp      **** uint32_t           g_last_draw_ms = 0;
  96:main.cpp      **** uint32_t           g_last_touch_toggle_ms = 0;
  97:main.cpp      **** uint32_t           g_bottom_press_start_ms = 0;
  98:main.cpp      **** bool               g_mode_switched_on_press = false;
  99:main.cpp      **** bool               g_touch_demo_layout_ready = false;
 100:main.cpp      **** bool               g_touch_paint_layout_ready = false;
ARM GAS  /var/folders/9k/zk1mgrrd7wg4__6zvxvr9w8m0000gn/T//ccuDf5uE.s 			page 19


 101:main.cpp      **** bool               g_touch_tone_ctrl_layout_ready = false;
 102:main.cpp      **** float              g_scope_x_scale_norm = 0.0f;
 103:main.cpp      **** float              g_scope_y_scale_norm = 0.0f;
 104:main.cpp      **** float              g_scope_x_pos_norm   = 0.5f;
 105:main.cpp      **** float              g_scope_y_pos_norm   = 0.5f;
 106:main.cpp      **** float              g_scope_time_norm    = 0.56f;
 107:main.cpp      **** float              g_scope_thresh_norm  = 0.5f;
 108:main.cpp      **** bool               g_scope_lissajous    = false;
 109:main.cpp      **** bool               g_scope_trig_enabled = true;
 110:main.cpp      **** bool               g_scope_liss_latch   = false;
 111:main.cpp      **** bool               g_scope_trig_latch   = false;
 112:main.cpp      **** bool               g_paint_prev_down = false;
 113:main.cpp      **** bool               g_paint_clear_latched = false;
 114:main.cpp      **** uint16_t           g_paint_prev_x = 0u;
 115:main.cpp      **** uint16_t           g_paint_prev_y = 0u;
 116:main.cpp      **** uint8_t            g_paint_color_idx = 0u;
 117:main.cpp      **** constexpr uint32_t kUiDrawPeriodMs = 50;
 118:main.cpp      **** constexpr uint32_t kTouchSwitchHoldMs = 120;
 119:main.cpp      **** constexpr uint32_t kTouchSwitchDebounceMs = 500;
 120:main.cpp      **** constexpr uint16_t kTouchSwitchYMin = 420;
 121:main.cpp      **** constexpr uint16_t kSceneX = 0;
 122:main.cpp      **** constexpr uint16_t kSceneY = 40;
 123:main.cpp      **** constexpr uint16_t kSceneW = 360;
 124:main.cpp      **** constexpr uint16_t kSceneH = 220;
 125:main.cpp      **** constexpr uint16_t kSceneYEnd = static_cast<uint16_t>(kSceneY + kSceneH);
 126:main.cpp      **** constexpr uint16_t kSceneXEnd = static_cast<uint16_t>(kSceneX + kSceneW);
 127:main.cpp      **** 
 128:main.cpp      **** float             g_tone_phase         = 0.0f;
 129:main.cpp      **** uint32_t          g_pattern_sample_pos = 0;
 130:main.cpp      **** volatile float    g_tone_freq_hz       = 1000.0f;
 131:main.cpp      **** volatile float    g_tone_amp           = 0.20f;
 132:main.cpp      **** float             g_tone_ctrl_knob_norm = 0.5f;
 133:main.cpp      **** float             g_tone_ctrl_vol_norm  = 0.20f;
 134:main.cpp      **** constexpr uint32_t kSliderRecMaxMs     = 10000u;
 135:main.cpp      **** constexpr uint32_t kSliderRecStepMs    = kUiDrawPeriodMs;
 136:main.cpp      **** constexpr size_t   kSliderRecMaxSamples
 137:main.cpp      ****     = static_cast<size_t>((kSliderRecMaxMs + kSliderRecStepMs - 1u) / kSliderRecStepMs);
 138:main.cpp      **** float              g_slider_rec_buf[kSliderRecMaxSamples] = {0.0f};
 139:main.cpp      **** size_t             g_slider_rec_len         = 0u;
 140:main.cpp      **** size_t             g_slider_play_idx        = 0u;
 141:main.cpp      **** uint32_t           g_slider_last_step_ms    = 0u;
 142:main.cpp      **** bool               g_slider_rec_active      = false;
 143:main.cpp      **** bool               g_slider_play_active     = false;
 144:main.cpp      **** bool               g_slider_touch_prev      = false;
 145:main.cpp      **** struct RingsUiCache
 146:main.cpp      **** {
 147:main.cpp      ****     bool    valid          = false;
 148:main.cpp      ****     float   pitch_norm     = 0.0f;
 149:main.cpp      ****     float   structure_norm = 0.0f;
 150:main.cpp      ****     float   brightness_norm = 0.0f;
 151:main.cpp      ****     float   damping_norm   = 0.0f;
 152:main.cpp      ****     float   feedback_norm  = 0.0f;
 153:main.cpp      ****     float   reverb_norm    = 0.0f;
 154:main.cpp      ****     bool    gate           = false;
 155:main.cpp      ****     uint8_t mode           = 0u;
 156:main.cpp      **** };
 157:main.cpp      **** struct PlaitsUiCache
ARM GAS  /var/folders/9k/zk1mgrrd7wg4__6zvxvr9w8m0000gn/T//ccuDf5uE.s 			page 20


 158:main.cpp      **** {
 159:main.cpp      ****     bool    valid           = false;
 160:main.cpp      ****     float   pitch_norm      = 0.0f;
 161:main.cpp      ****     float   timbre_norm     = 0.0f;
 162:main.cpp      ****     float   morph_norm      = 0.0f;
 163:main.cpp      ****     float   harmonics_norm  = 0.0f;
 164:main.cpp      ****     float   model_norm      = 0.0f;
 165:main.cpp      ****     bool    gate            = false;
 166:main.cpp      ****     uint8_t model_index     = 0u;
 167:main.cpp      ****     uint8_t morph_mode      = 0u;
 168:main.cpp      **** };
 169:main.cpp      **** RingsUiCache g_rings_ui_cache;
 170:main.cpp      **** PlaitsUiCache g_plaits_ui_cache;
 171:main.cpp      **** float              g_rings_pitch_norm       = 0.45f;
 172:main.cpp      **** float              g_rings_structure_norm   = 0.45f;
 173:main.cpp      **** float              g_rings_brightness_norm  = 0.55f;
 174:main.cpp      **** float              g_rings_damping_norm     = 0.50f;
 175:main.cpp      **** float              g_rings_feedback_norm    = 0.35f;
 176:main.cpp      **** float              g_rings_reverb_mix_norm  = 0.25f;
 177:main.cpp      **** uint8_t            g_rings_audrey_mode      = 0u;
 178:main.cpp      **** bool               g_rings_gate             = true;
 179:main.cpp      **** bool               g_rings_gate_btn_latch   = false;
 180:main.cpp      **** bool               g_rings_mode_btn_latch   = false;
 181:main.cpp      **** float              g_rings_car_phase        = 0.0f;
 182:main.cpp      **** float              g_rings_mod_phase        = 0.0f;
 183:main.cpp      **** float              g_rings_env              = 0.0f;
 184:main.cpp      **** float              g_rings_fb_state         = 0.0f;
 185:main.cpp      **** float              g_rings_rev_state_l      = 0.0f;
 186:main.cpp      **** float              g_rings_rev_state_r      = 0.0f;
 187:main.cpp      **** float              g_plaits_pitch_norm      = 0.60f;
 188:main.cpp      **** float              g_plaits_timbre_norm     = 0.40f;
 189:main.cpp      **** float              g_plaits_morph_norm      = 0.35f;
 190:main.cpp      **** float              g_plaits_harmonics_norm  = 0.50f;
 191:main.cpp      **** float              g_plaits_model_norm      = 0.00f;
 192:main.cpp      **** uint8_t            g_plaits_model_index     = 0u;
 193:main.cpp      **** uint8_t            g_plaits_morph_mode      = 0u;
 194:main.cpp      **** bool               g_plaits_gate            = true;
 195:main.cpp      **** bool               g_plaits_gate_btn_latch  = false;
 196:main.cpp      **** bool               g_plaits_model_btn_latch = false;
 197:main.cpp      **** bool               g_plaits_morph_btn_latch = false;
 198:main.cpp      **** constexpr float   kTwoPi               = 6.28318530718f;
 199:main.cpp      **** constexpr float   kToneSampleRate      = 48000.0f;
 200:main.cpp      **** constexpr uint32_t kToneCycleSamples   = static_cast<uint32_t>(kToneSampleRate * 2.0f);
 201:main.cpp      **** constexpr uint32_t kToneGuardSamples   = static_cast<uint32_t>(kToneSampleRate * 0.25f);
 202:main.cpp      **** constexpr uint32_t kToneActiveSamples  = kToneCycleSamples - (kToneGuardSamples * 2);
 203:main.cpp      **** constexpr uint32_t kTonePulseWidthSamples
 204:main.cpp      ****     = static_cast<uint32_t>(kToneSampleRate * 0.06f);
 205:main.cpp      **** 
 206:main.cpp      **** constexpr size_t kMiMaxBlock = 256;
 207:main.cpp      **** rings::Part             g_rings_part;
 208:main.cpp      **** rings::Patch            g_rings_patch;
 209:main.cpp      **** rings::PerformanceState g_rings_perf;
 210:main.cpp      **** uint16_t                g_rings_reverb_buffer[32768];
 211:main.cpp      **** bool                    g_rings_dsp_ready = false;
 212:main.cpp      **** float                   g_rings_in[kMiMaxBlock];
 213:main.cpp      **** float                   g_rings_out_buf[kMiMaxBlock];
 214:main.cpp      **** float                   g_rings_aux_buf[kMiMaxBlock];
ARM GAS  /var/folders/9k/zk1mgrrd7wg4__6zvxvr9w8m0000gn/T//ccuDf5uE.s 			page 21


 215:main.cpp      **** float                   g_plaits_out_l[kMiMaxBlock];
 216:main.cpp      **** float                   g_plaits_out_r[kMiMaxBlock];
 217:main.cpp      **** float                   g_rings_strum_phase = 0.0f;
 218:main.cpp      **** bool                    g_rings_prev_gate = false;
 219:main.cpp      **** 
 220:main.cpp      **** static const char* StreamModeName(StreamMode mode)
 221:main.cpp      **** {
 222:main.cpp      ****     switch(mode)
 223:main.cpp      ****     {
 224:main.cpp      ****         case StreamMode::LOOP_4IN_4OUT: return "LOOP(4in->4out)";
 225:main.cpp      ****         case StreamMode::TEST_TONE_1K: return "TONE(1k pulse)";
 226:main.cpp      ****         case StreamMode::RINGS_TEST_SQUARE: return "RINGS(square)";
 227:main.cpp      ****         case StreamMode::PLAITS_TEST_SQUARE: return "PLAITS(square)";
 228:main.cpp      ****         default: return "UNKNOWN";
 229:main.cpp      ****     }
 230:main.cpp      **** }
 231:main.cpp      **** 
 232:main.cpp      **** static const char* RunModeName(RunMode mode)
 233:main.cpp      **** {
 234:main.cpp      ****     return mode == RunMode::ACTIVE ? "ACTIVE" : "STOP";
 235:main.cpp      **** }
 236:main.cpp      **** 
 237:main.cpp      **** static const char* UiSceneName(UiScene scene)
 238:main.cpp      **** {
 239:main.cpp      ****     switch(scene)
 240:main.cpp      ****     {
 241:main.cpp      ****         case UiScene::SCOPE: return "SCOPE";
 242:main.cpp      ****         case UiScene::RINGS_CTRL: return "RINGS_CTRL";
 243:main.cpp      ****         case UiScene::PLAITS_CTRL: return "PLAITS_CTRL";
 244:main.cpp      ****         case UiScene::RINGS_VCV_UI: return "RINGS_VCV_UI";
 245:main.cpp      ****         case UiScene::PLAITS_VCV_UI: return "PLAITS_VCV_UI";
 246:main.cpp      ****         case UiScene::VECTOR: return "VECTOR";
 247:main.cpp      ****         case UiScene::SPECTRUM: return "SPECTRUM";
 248:main.cpp      ****         case UiScene::NEON: return "NEON";
 249:main.cpp      ****         case UiScene::ORBIT: return "ORBIT";
 250:main.cpp      ****         default: return "SCOPE";
 251:main.cpp      ****     }
 252:main.cpp      **** }
 253:main.cpp      **** 
 254:main.cpp      **** static const char* RingsAudreyModeName(uint8_t mode)
 255:main.cpp      **** {
 256:main.cpp      ****     switch(mode % 3u)
 257:main.cpp      ****     {
 258:main.cpp      ****         case 0: return "AUDREY A";
 259:main.cpp      ****         case 1: return "AUDREY B";
 260:main.cpp      ****         default: return "AUDREY C";
 261:main.cpp      ****     }
 262:main.cpp      **** }
 263:main.cpp      **** 
 264:main.cpp      **** static const char* PlaitsMorphModeName(uint8_t mode)
 265:main.cpp      **** {
 266:main.cpp      ****     switch(mode % 5u)
 267:main.cpp      ****     {
 268:main.cpp      ****         case 0: return "OCTAVE";
 269:main.cpp      ****         case 1: return "LPG DECAY";
 270:main.cpp      ****         case 2: return "LPG COLOR";
 271:main.cpp      ****         case 3: return "DJ EQ";
ARM GAS  /var/folders/9k/zk1mgrrd7wg4__6zvxvr9w8m0000gn/T//ccuDf5uE.s 			page 22


 272:main.cpp      ****         default: return "ABS CV";
 273:main.cpp      ****     }
 274:main.cpp      **** }
 275:main.cpp      **** 
 276:main.cpp      **** static float AbsFast(float value)
 277:main.cpp      **** {
 278:main.cpp      ****     return value < 0.0f ? -value : value;
 279:main.cpp      **** }
 280:main.cpp      **** 
 281:main.cpp      **** static float Clampf(float value, float lo, float hi)
 282:main.cpp      **** {
 283:main.cpp      ****     if(value < lo)
 284:main.cpp      ****         return lo;
 285:main.cpp      ****     if(value > hi)
 286:main.cpp      ****         return hi;
 287:main.cpp      ****     return value;
 288:main.cpp      **** }
 289:main.cpp      **** 
 290:main.cpp      **** static bool DiffEnough(float a, float b, float eps = 0.002f)
 291:main.cpp      **** {
 292:main.cpp      ****     return AbsFast(a - b) > eps;
 293:main.cpp      **** }
 294:main.cpp      **** 
 295:main.cpp      **** static uint16_t U16Min(uint16_t a, uint16_t b)
 296:main.cpp      **** {
 297:main.cpp      ****     return (a < b) ? a : b;
 298:main.cpp      **** }
 299:main.cpp      **** 
 300:main.cpp      **** static float Wrap01(float value)
 301:main.cpp      **** {
 302:main.cpp      ****     while(value >= 1.0f)
 303:main.cpp      ****         value -= 1.0f;
 304:main.cpp      ****     while(value < 0.0f)
 305:main.cpp      ****         value += 1.0f;
 306:main.cpp      ****     return value;
 307:main.cpp      **** }
 308:main.cpp      **** 
 309:main.cpp      **** static float SawFromPhase(float phase)
 310:main.cpp      **** {
 311:main.cpp      ****     return (2.0f * phase) - 1.0f;
 312:main.cpp      **** }
 313:main.cpp      **** 
 314:main.cpp      **** static float TriFromPhase(float phase)
 315:main.cpp      **** {
 316:main.cpp      ****     float distance = phase - 0.5f;
 317:main.cpp      ****     if(distance < 0.0f)
 318:main.cpp      ****         distance = -distance;
 319:main.cpp      ****     return 1.0f - (4.0f * distance);
 320:main.cpp      **** }
 321:main.cpp      **** 
 322:main.cpp      **** static float SoftClipLocal(float x)
 323:main.cpp      **** {
 324:main.cpp      ****     const float ax = AbsFast(x);
 325:main.cpp      ****     return x / (1.0f + ax);
 326:main.cpp      **** }
 327:main.cpp      **** 
 328:main.cpp      **** static bool TouchAdjustVSlider(int16_t tx,
ARM GAS  /var/folders/9k/zk1mgrrd7wg4__6zvxvr9w8m0000gn/T//ccuDf5uE.s 			page 23


 329:main.cpp      ****                                int16_t ty,
 330:main.cpp      ****                                int16_t x,
 331:main.cpp      ****                                int16_t y0,
 332:main.cpp      ****                                int16_t y1,
 333:main.cpp      ****                                int16_t w,
 334:main.cpp      ****                                float&  value)
 335:main.cpp      **** {
 336:main.cpp      ****     if(tx < (x - 12) || tx > (x + w + 12) || ty < y0 || ty > y1)
 337:main.cpp      ****         return false;
 338:main.cpp      ****     const float norm = 1.0f - (static_cast<float>(ty - y0) / static_cast<float>(y1 - y0));
 339:main.cpp      ****     value            = Clampf(norm, 0.0f, 1.0f);
 340:main.cpp      ****     return true;
 341:main.cpp      **** }
 342:main.cpp      **** 
 343:main.cpp      **** static void DrawVSlider(int16_t      x,
 344:main.cpp      ****                         int16_t      y0,
 345:main.cpp      ****                         int16_t      y1,
 346:main.cpp      ****                         int16_t      w,
 347:main.cpp      ****                         float        value,
 348:main.cpp      ****                         const char*  name,
 349:main.cpp      ****                         uint32_t     fill_color)
 350:main.cpp      **** {
 351:main.cpp      ****     const uint16_t h = static_cast<uint16_t>(y1 - y0);
 352:main.cpp      ****     const int16_t  sy
 353:main.cpp      ****         = static_cast<int16_t>(y1 - Clampf(value, 0.0f, 1.0f) * static_cast<float>(y1 - y0));
 354:main.cpp      **** 
 355:main.cpp      ****     LCD_SetColor(0xff233043);
 356:main.cpp      ****     LCD_DrawRect(static_cast<uint16_t>(x - 2), static_cast<uint16_t>(y0 - 2), static_cast<uint16_t>
 357:main.cpp      ****     LCD_SetColor(0xff0D1724);
 358:main.cpp      ****     LCD_FillRect(static_cast<uint16_t>(x), static_cast<uint16_t>(y0), static_cast<uint16_t>(w), h);
 359:main.cpp      ****     LCD_SetColor(fill_color);
 360:main.cpp      ****     LCD_FillRect(static_cast<uint16_t>(x), static_cast<uint16_t>(sy), static_cast<uint16_t>(w), sta
 361:main.cpp      ****     LCD_SetColor(0xffF0F4FF);
 362:main.cpp      ****     LCD_FillRect(static_cast<uint16_t>(x - 4), static_cast<uint16_t>(sy - 4), static_cast<uint16_t>
 363:main.cpp      **** 
 364:main.cpp      ****     LCD_SetColor(LCD_WHITE);
 365:main.cpp      ****     LCD_SetTextFont(&CH_Font16);
 366:main.cpp      ****     LCD_DisplayString(static_cast<uint16_t>(x - 10), static_cast<uint16_t>(y1 + 10), const_cast<cha
 367:main.cpp      **** }
 368:main.cpp      **** 
 369:main.cpp      **** static bool TouchAdjustKnob(int16_t tx, int16_t ty, int16_t cx, int16_t cy, int16_t radius, float& 
 370:main.cpp      **** {
 371:main.cpp      ****     const int32_t dx = static_cast<int32_t>(tx) - static_cast<int32_t>(cx);
 372:main.cpp      ****     const int32_t dy = static_cast<int32_t>(ty) - static_cast<int32_t>(cy);
 373:main.cpp      ****     const int32_t rr = static_cast<int32_t>(radius + 14);
 374:main.cpp      ****     if((dx * dx + dy * dy) > (rr * rr))
 375:main.cpp      ****         return false;
 376:main.cpp      **** 
 377:main.cpp      ****     constexpr float kStart = -2.35619449f; // -135deg
 378:main.cpp      ****     constexpr float kEnd   = 2.35619449f;  // +135deg
 379:main.cpp      ****     const float angle = atan2f(static_cast<float>(cy - ty), static_cast<float>(tx - cx));
 380:main.cpp      ****     float       norm  = (angle - kStart) / (kEnd - kStart);
 381:main.cpp      ****     norm              = Clampf(norm, 0.0f, 1.0f);
 382:main.cpp      ****     value             = norm;
 383:main.cpp      ****     return true;
 384:main.cpp      **** }
 385:main.cpp      **** 
ARM GAS  /var/folders/9k/zk1mgrrd7wg4__6zvxvr9w8m0000gn/T//ccuDf5uE.s 			page 24


 386:main.cpp      **** static void DrawKnob(int16_t cx, int16_t cy, int16_t radius, float value, const char* name, uint32_
 387:main.cpp      **** {
 388:main.cpp      ****     constexpr float kStart = -2.35619449f;
 389:main.cpp      ****     constexpr float kEnd   = 2.35619449f;
 390:main.cpp      ****     const float theta = kStart + Clampf(value, 0.0f, 1.0f) * (kEnd - kStart);
 391:main.cpp      ****     const int16_t px  = static_cast<int16_t>(cx + cosf(theta) * (radius - 6));
 392:main.cpp      ****     const int16_t py  = static_cast<int16_t>(cy - sinf(theta) * (radius - 6));
 393:main.cpp      **** 
 394:main.cpp      ****     LCD_SetColor(0xff223148);
 395:main.cpp      ****     LCD_DrawCircle(static_cast<uint16_t>(cx), static_cast<uint16_t>(cy), static_cast<uint16_t>(radi
 396:main.cpp      ****     LCD_SetColor(0xff6A8FB8);
 397:main.cpp      ****     LCD_DrawCircle(static_cast<uint16_t>(cx), static_cast<uint16_t>(cy), static_cast<uint16_t>(radi
 398:main.cpp      ****     LCD_SetColor(color);
 399:main.cpp      ****     LCD_DrawLine(static_cast<uint16_t>(cx), static_cast<uint16_t>(cy), static_cast<uint16_t>(px), s
 400:main.cpp      ****     LCD_SetColor(0xffEAF2FF);
 401:main.cpp      ****     LCD_FillCircle(static_cast<uint16_t>(cx), static_cast<uint16_t>(cy), 4u);
 402:main.cpp      **** 
 403:main.cpp      ****     if(name == nullptr || name[0] == '\0')
 404:main.cpp      ****         return;
 405:main.cpp      ****     LCD_SetColor(LCD_WHITE);
 406:main.cpp      ****     LCD_SetTextFont(&CH_Font16);
 407:main.cpp      ****     LCD_DisplayString(static_cast<uint16_t>(cx - radius), static_cast<uint16_t>(cy + radius + 10), 
 408:main.cpp      **** }
 409:main.cpp      **** 
 410:main.cpp      **** static void DrawRgb565Image(int16_t x, int16_t y, uint16_t w, uint16_t h, const uint16_t* image)
 411:main.cpp      **** {
 412:main.cpp      ****     if(image == nullptr || w == 0 || h == 0)
 413:main.cpp      ****         return;
 414:main.cpp      ****     if(x < 0 || y < 0)
 415:main.cpp      ****         return;
 416:main.cpp      ****     if((x + static_cast<int16_t>(w)) > static_cast<int16_t>(LCD_Width)
 417:main.cpp      ****        || (y + static_cast<int16_t>(h)) > static_cast<int16_t>(LCD_Height))
 418:main.cpp      ****         return;
 419:main.cpp      **** 
 420:main.cpp      ****     uint16_t* framebuffer = reinterpret_cast<uint16_t*>(LCD_MemoryAdd);
 421:main.cpp      ****     for(uint16_t row = 0; row < h; ++row)
 422:main.cpp      ****     {
 423:main.cpp      ****         uint16_t*       dst = framebuffer + (static_cast<uint32_t>(y + row) * LCD_Width + x);
 424:main.cpp      ****         const uint16_t* src = image + static_cast<uint32_t>(row) * w;
 425:main.cpp      ****         memcpy(dst, src, static_cast<size_t>(w) * sizeof(uint16_t));
 426:main.cpp      ****     }
 427:main.cpp      **** }
 428:main.cpp      **** 
 429:main.cpp      **** static uint16_t Rgb332To565(uint8_t c)
 430:main.cpp      **** {
 431:main.cpp      ****     const uint8_t r = static_cast<uint8_t>((c >> 5) & 0x07u);
 432:main.cpp      ****     const uint8_t g = static_cast<uint8_t>((c >> 2) & 0x07u);
 433:main.cpp      ****     const uint8_t b = static_cast<uint8_t>(c & 0x03u);
 434:main.cpp      ****     const uint16_t rr = static_cast<uint16_t>((r * 31u + 3u) / 7u);
 435:main.cpp      ****     const uint16_t gg = static_cast<uint16_t>((g * 63u + 3u) / 7u);
 436:main.cpp      ****     const uint16_t bb = static_cast<uint16_t>((b * 31u + 1u) / 3u);
 437:main.cpp      ****     return static_cast<uint16_t>((rr << 11) | (gg << 5) | bb);
 438:main.cpp      **** }
 439:main.cpp      **** 
 440:main.cpp      **** static void DrawRgb8Image(int16_t x, int16_t y, uint16_t w, uint16_t h, const uint8_t* image)
 441:main.cpp      **** {
 442:main.cpp      ****     if(image == nullptr || w == 0 || h == 0)
ARM GAS  /var/folders/9k/zk1mgrrd7wg4__6zvxvr9w8m0000gn/T//ccuDf5uE.s 			page 25


 443:main.cpp      ****         return;
 444:main.cpp      ****     if(x < 0 || y < 0)
 445:main.cpp      ****         return;
 446:main.cpp      ****     if((x + static_cast<int16_t>(w)) > static_cast<int16_t>(LCD_Width)
 447:main.cpp      ****        || (y + static_cast<int16_t>(h)) > static_cast<int16_t>(LCD_Height))
 448:main.cpp      ****         return;
 449:main.cpp      **** 
 450:main.cpp      ****     uint16_t* framebuffer = reinterpret_cast<uint16_t*>(LCD_MemoryAdd);
 451:main.cpp      ****     for(uint16_t row = 0; row < h; ++row)
 452:main.cpp      ****     {
 453:main.cpp      ****         uint16_t* dst = framebuffer + (static_cast<uint32_t>(y + row) * LCD_Width + x);
 454:main.cpp      ****         const uint8_t* src = image + static_cast<uint32_t>(row) * w;
 455:main.cpp      ****         for(uint16_t col = 0; col < w; ++col)
 456:main.cpp      ****             dst[col] = Rgb332To565(src[col]);
 457:main.cpp      ****     }
 458:main.cpp      **** }
 459:main.cpp      **** 
 460:main.cpp      **** static uint16_t BlendRgb565(uint16_t bg, uint8_t sr, uint8_t sg, uint8_t sb, uint8_t a)
 461:main.cpp      **** {
 462:main.cpp      ****     const uint8_t br = static_cast<uint8_t>(((bg >> 11) & 0x1f) * 255 / 31);
 463:main.cpp      ****     const uint8_t bgc = static_cast<uint8_t>(((bg >> 5) & 0x3f) * 255 / 63);
 464:main.cpp      ****     const uint8_t bb = static_cast<uint8_t>((bg & 0x1f) * 255 / 31);
 465:main.cpp      ****     const uint16_t inva = static_cast<uint16_t>(255u - a);
 466:main.cpp      ****     const uint8_t rr = static_cast<uint8_t>((sr * a + br * inva) / 255u);
 467:main.cpp      ****     const uint8_t rg = static_cast<uint8_t>((sg * a + bgc * inva) / 255u);
 468:main.cpp      ****     const uint8_t rb = static_cast<uint8_t>((sb * a + bb * inva) / 255u);
 469:main.cpp      ****     return static_cast<uint16_t>(((rr * 31u / 255u) << 11) | ((rg * 63u / 255u) << 5)
 470:main.cpp      ****                                  | (rb * 31u / 255u));
 471:main.cpp      **** }
 472:main.cpp      **** 
 473:main.cpp      **** static void DrawRotatedRgbaSprite(const uint8_t* rgba,
 474:main.cpp      ****                                   uint16_t       w,
 475:main.cpp      ****                                   uint16_t       h,
 476:main.cpp      ****                                   int16_t        cx,
 477:main.cpp      ****                                   int16_t        cy,
 478:main.cpp      ****                                   float          radians)
 479:main.cpp      **** {
 480:main.cpp      ****     if(rgba == nullptr || w == 0 || h == 0)
 481:main.cpp      ****         return;
 482:main.cpp      ****     uint16_t* framebuffer = reinterpret_cast<uint16_t*>(LCD_MemoryAdd);
 483:main.cpp      ****     const float c = cosf(radians);
 484:main.cpp      ****     const float s = sinf(radians);
 485:main.cpp      ****     const float sx_center = (static_cast<float>(w) - 1.0f) * 0.5f;
 486:main.cpp      ****     const float sy_center = (static_cast<float>(h) - 1.0f) * 0.5f;
 487:main.cpp      ****     const int16_t x0 = static_cast<int16_t>(cx - static_cast<int16_t>(w / 2u));
 488:main.cpp      ****     const int16_t y0 = static_cast<int16_t>(cy - static_cast<int16_t>(h / 2u));
 489:main.cpp      **** 
 490:main.cpp      ****     for(uint16_t dy = 0; dy < h; ++dy)
 491:main.cpp      ****     {
 492:main.cpp      ****         const int16_t py = static_cast<int16_t>(y0 + static_cast<int16_t>(dy));
 493:main.cpp      ****         if(py < 0 || py >= static_cast<int16_t>(LCD_Height))
 494:main.cpp      ****             continue;
 495:main.cpp      ****         for(uint16_t dx = 0; dx < w; ++dx)
 496:main.cpp      ****         {
 497:main.cpp      ****             const int16_t px = static_cast<int16_t>(x0 + static_cast<int16_t>(dx));
 498:main.cpp      ****             if(px < 0 || px >= static_cast<int16_t>(LCD_Width))
 499:main.cpp      ****                 continue;
ARM GAS  /var/folders/9k/zk1mgrrd7wg4__6zvxvr9w8m0000gn/T//ccuDf5uE.s 			page 26


 500:main.cpp      **** 
 501:main.cpp      ****             const float tx = static_cast<float>(dx) - sx_center;
 502:main.cpp      ****             const float ty = static_cast<float>(dy) - sy_center;
 503:main.cpp      ****             const float src_xf = tx * c + ty * s + sx_center;
 504:main.cpp      ****             const float src_yf = -tx * s + ty * c + sy_center;
 505:main.cpp      ****             const int   src_x  = static_cast<int>(src_xf + 0.5f);
 506:main.cpp      ****             const int   src_y  = static_cast<int>(src_yf + 0.5f);
 507:main.cpp      ****             if(src_x < 0 || src_x >= static_cast<int>(w) || src_y < 0
 508:main.cpp      ****                || src_y >= static_cast<int>(h))
 509:main.cpp      ****                 continue;
 510:main.cpp      **** 
 511:main.cpp      ****             const size_t src_idx = (static_cast<size_t>(src_y) * w + static_cast<size_t>(src_x)) * 
 512:main.cpp      ****             const uint8_t sr = rgba[src_idx + 0u];
 513:main.cpp      ****             const uint8_t sg = rgba[src_idx + 1u];
 514:main.cpp      ****             const uint8_t sb = rgba[src_idx + 2u];
 515:main.cpp      ****             const uint8_t sa = rgba[src_idx + 3u];
 516:main.cpp      ****             if(sa == 0u)
 517:main.cpp      ****                 continue;
 518:main.cpp      ****             uint16_t& dst = framebuffer[static_cast<uint32_t>(py) * LCD_Width
 519:main.cpp      ****                                         + static_cast<uint32_t>(px)];
 520:main.cpp      ****             if(sa == 255u)
 521:main.cpp      ****                 dst = static_cast<uint16_t>(((sr * 31u / 255u) << 11) | ((sg * 63u / 255u) << 5)
 522:main.cpp      ****                                             | (sb * 31u / 255u));
 523:main.cpp      ****             else
 524:main.cpp      ****                 dst = BlendRgb565(dst, sr, sg, sb, sa);
 525:main.cpp      ****         }
 526:main.cpp      ****     }
 527:main.cpp      **** }
 528:main.cpp      **** 
 529:main.cpp      **** static void VisPushSample(float left, float right)
 530:main.cpp      **** {
 531:main.cpp      ****     float d1l = left - g_prev_l1;
 532:main.cpp      ****     float d2l = d1l - (g_prev_l1 - g_prev_l2);
 533:main.cpp      ****     float d3l = d2l - ((g_prev_l1 - g_prev_l2) - (g_prev_l2 - g_prev_l3));
 534:main.cpp      ****     float d1r = right - g_prev_r1;
 535:main.cpp      ****     float d2r = d1r - (g_prev_r1 - g_prev_r2);
 536:main.cpp      ****     float d3r = d2r - ((g_prev_r1 - g_prev_r2) - (g_prev_r2 - g_prev_r3));
 537:main.cpp      ****     float v[8];
 538:main.cpp      **** 
 539:main.cpp      ****     g_vis_l[g_vis_wr] = left;
 540:main.cpp      ****     g_vis_r[g_vis_wr] = right;
 541:main.cpp      ****     g_vis_wr          = static_cast<uint16_t>((g_vis_wr + 1u) % kVisHistory);
 542:main.cpp      **** 
 543:main.cpp      ****     v[0] = 0.8f * AbsFast((left + right) * 0.5f);
 544:main.cpp      ****     v[1] = 1.0f * AbsFast(left - right);
 545:main.cpp      ****     v[2] = 1.8f * AbsFast(d1l);
 546:main.cpp      ****     v[3] = 1.8f * AbsFast(d1r);
 547:main.cpp      ****     v[4] = 3.5f * AbsFast(d2l);
 548:main.cpp      ****     v[5] = 3.5f * AbsFast(d2r);
 549:main.cpp      ****     v[6] = 6.0f * AbsFast(d3l);
 550:main.cpp      ****     v[7] = 6.0f * AbsFast(d3r);
 551:main.cpp      **** 
 552:main.cpp      ****     for(size_t i = 0; i < 8; ++i)
 553:main.cpp      ****     {
 554:main.cpp      ****         if(v[i] > 1.2f)
 555:main.cpp      ****             v[i] = 1.2f;
 556:main.cpp      ****         g_spec_env[i] += (v[i] - g_spec_env[i]) * 0.10f;
ARM GAS  /var/folders/9k/zk1mgrrd7wg4__6zvxvr9w8m0000gn/T//ccuDf5uE.s 			page 27


 557:main.cpp      ****     }
 558:main.cpp      **** 
 559:main.cpp      ****     g_prev_l3 = g_prev_l2;
 560:main.cpp      ****     g_prev_l2 = g_prev_l1;
 561:main.cpp      ****     g_prev_l1 = left;
 562:main.cpp      ****     g_prev_r3 = g_prev_r2;
 563:main.cpp      ****     g_prev_r2 = g_prev_r1;
 564:main.cpp      ****     g_prev_r1 = right;
 565:main.cpp      **** }
 566:main.cpp      **** 
 567:main.cpp      **** static void DrawModeHeader(const char* title, uint32_t bg, uint32_t fg)
 568:main.cpp      **** {
 569:main.cpp      ****     LCD_SetBackColor(bg);
 570:main.cpp      ****     LCD_SetColor(fg);
 571:main.cpp      ****     LCD_FillRect(0, 0, LCD_Width, 34);
 572:main.cpp      ****     LCD_SetColor(LCD_WHITE);
 573:main.cpp      ****     LCD_SetTextFont(&CH_Font24);
 574:main.cpp      ****     LCD_DisplayString(8, 6, const_cast<char*>(title));
 575:main.cpp      **** }
 576:main.cpp      **** 
 577:main.cpp      **** static void ClearVisualArea(uint32_t color)
 578:main.cpp      **** {
 579:main.cpp      ****     LCD_SetColor(color);
 580:main.cpp      ****     LCD_FillRect(0, 40, LCD_Width, 330);
 581:main.cpp      **** }
 582:main.cpp      **** 
 583:main.cpp      **** static void DrawScopeScene()
 584:main.cpp      **** {
 585:main.cpp      ****     constexpr int16_t kPanelX = 0;
 586:main.cpp      ****     constexpr int16_t kPanelY = static_cast<int16_t>((LCD_Height - scope_panel_h) / 2u);
 587:main.cpp      ****     constexpr int16_t kPanelW = static_cast<int16_t>(scope_panel_w);
 588:main.cpp      ****     constexpr int16_t kPanelH = static_cast<int16_t>(scope_panel_h);
 589:main.cpp      ****     LCD_SetColor(0xffE2E2E2);
 590:main.cpp      ****     LCD_FillRect(0, 0, LCD_Width, LCD_Height);
 591:main.cpp      ****     DrawRgb8Image(kPanelX, kPanelY, scope_panel_w, scope_panel_h, scope_panel_rgb8);
 592:main.cpp      **** 
 593:main.cpp      ****     constexpr float kOrigWmm = 66.04f;
 594:main.cpp      ****     constexpr float kOrigHmm = 128.69331f;
 595:main.cpp      ****     constexpr float kRotWmm  = kOrigHmm;
 596:main.cpp      ****     constexpr float kRotHmm  = kOrigWmm;
 597:main.cpp      ****     constexpr float kScaleX  = static_cast<float>(kPanelW) / kRotWmm;
 598:main.cpp      ****     constexpr float kScaleY  = static_cast<float>(kPanelH) / kRotHmm;
 599:main.cpp      ****     auto PX = [&](float ox, float oy) -> int16_t {
 600:main.cpp      ****         const float rx = oy;
 601:main.cpp      ****         return static_cast<int16_t>(kPanelX + rx * kScaleX + 0.5f);
 602:main.cpp      ****     };
 603:main.cpp      ****     auto PY = [&](float ox, float oy) -> int16_t {
 604:main.cpp      ****         const float ry = kOrigWmm - ox;
 605:main.cpp      ****         return static_cast<int16_t>(kPanelY + ry * kScaleY + 0.5f);
 606:main.cpp      ****     };
 607:main.cpp      **** 
 608:main.cpp      ****     const int16_t kDispX = static_cast<int16_t>(kPanelX + static_cast<int16_t>(kPanelW * 0.43f));
 609:main.cpp      ****     const int16_t kDispY = static_cast<int16_t>(kPanelY + static_cast<int16_t>(kPanelH * 0.07f));
 610:main.cpp      ****     const int16_t kDispW = static_cast<int16_t>(kPanelW * 0.53f);
 611:main.cpp      ****     const int16_t kDispH = static_cast<int16_t>(kPanelH * 0.54f);
 612:main.cpp      **** 
 613:main.cpp      ****     constexpr int16_t kKnobR = 14;
ARM GAS  /var/folders/9k/zk1mgrrd7wg4__6zvxvr9w8m0000gn/T//ccuDf5uE.s 			page 28


 614:main.cpp      ****     constexpr int16_t kBtnR  = 8;
 615:main.cpp      **** 
 616:main.cpp      ****     const int16_t kLissX   = PX(8.643f, 80.58f);
 617:main.cpp      ****     const int16_t kLissY   = PY(8.643f, 80.58f);
 618:main.cpp      ****     const int16_t kTrigX   = PX(57.397f, 80.58f);
 619:main.cpp      ****     const int16_t kTrigY   = PY(57.397f, 80.58f);
 620:main.cpp      ****     const int16_t kXScaleX = PX(24.897f, 80.58f);
 621:main.cpp      ****     const int16_t kXScaleY = PY(24.897f, 80.58f);
 622:main.cpp      ****     const int16_t kYScaleX = PX(41.147f, 80.58f);
 623:main.cpp      ****     const int16_t kYScaleY = PY(41.147f, 80.58f);
 624:main.cpp      ****     const int16_t kTimeX   = PX(8.643f, 96.82f);
 625:main.cpp      ****     const int16_t kTimeY   = PY(8.643f, 96.82f);
 626:main.cpp      ****     const int16_t kXPosX   = PX(24.897f, 96.82f);
 627:main.cpp      ****     const int16_t kXPosY   = PY(24.897f, 96.82f);
 628:main.cpp      ****     const int16_t kYPosX   = PX(41.147f, 96.82f);
 629:main.cpp      ****     const int16_t kYPosY   = PY(41.147f, 96.82f);
 630:main.cpp      ****     const int16_t kThreshX = PX(57.397f, 96.82f);
 631:main.cpp      ****     const int16_t kThreshY = PY(57.397f, 96.82f);
 632:main.cpp      **** 
 633:main.cpp      ****     auto GainFromNorm = [](float norm) -> float {
 634:main.cpp      ****         const int step = static_cast<int>(Clampf(floorf(norm * 8.0f + 0.5f), 0.0f, 8.0f));
 635:main.cpp      ****         return powf(2.0f, static_cast<float>(step)) / 10.0f;
 636:main.cpp      ****     };
 637:main.cpp      ****     auto VoltFromNorm = [](float norm) -> float { return (Clampf(norm, 0.0f, 1.0f) * 20.0f) - 10.0f
 638:main.cpp      ****     auto PlotY = [&](float v, float off, float gain) -> int16_t {
 639:main.cpp      ****         float y = ((v + off) * gain * -0.5f + 0.5f) * static_cast<float>(kDispH - 1);
 640:main.cpp      ****         y = Clampf(y, 0.0f, static_cast<float>(kDispH - 1));
 641:main.cpp      ****         return static_cast<int16_t>(kDispY + static_cast<int16_t>(y));
 642:main.cpp      ****     };
 643:main.cpp      ****     auto PlotX = [&](float v, float off, float gain) -> int16_t {
 644:main.cpp      ****         float x = ((v + off) * gain * 0.5f + 0.5f) * static_cast<float>(kDispW - 1);
 645:main.cpp      ****         x = Clampf(x, 0.0f, static_cast<float>(kDispW - 1));
 646:main.cpp      ****         return static_cast<int16_t>(kDispX + static_cast<int16_t>(x));
 647:main.cpp      ****     };
 648:main.cpp      **** 
 649:main.cpp      ****     float xscale_norm = g_scope_x_scale_norm;
 650:main.cpp      ****     float yscale_norm = g_scope_y_scale_norm;
 651:main.cpp      ****     const bool touch_active = (touchInfo.flag != 0u) && (touchInfo.num > 0u);
 652:main.cpp      ****     bool liss_hit = false;
 653:main.cpp      ****     bool trig_hit = false;
 654:main.cpp      ****     if(touch_active)
 655:main.cpp      ****     {
 656:main.cpp      ****         const int16_t tx = static_cast<int16_t>(touchInfo.x[0]);
 657:main.cpp      ****         const int16_t ty = static_cast<int16_t>(touchInfo.y[0]);
 658:main.cpp      ****         if(ty < static_cast<int16_t>(kTouchSwitchYMin))
 659:main.cpp      ****         {
 660:main.cpp      ****             TouchAdjustKnob(tx, ty, kXScaleX, kXScaleY, kKnobR, xscale_norm);
 661:main.cpp      ****             TouchAdjustKnob(tx, ty, kYScaleX, kYScaleY, kKnobR, yscale_norm);
 662:main.cpp      ****             TouchAdjustKnob(tx, ty, kTimeX, kTimeY, kKnobR, g_scope_time_norm);
 663:main.cpp      ****             TouchAdjustKnob(tx, ty, kXPosX, kXPosY, kKnobR, g_scope_x_pos_norm);
 664:main.cpp      ****             TouchAdjustKnob(tx, ty, kYPosX, kYPosY, kKnobR, g_scope_y_pos_norm);
 665:main.cpp      ****             TouchAdjustKnob(tx, ty, kThreshX, kThreshY, kKnobR, g_scope_thresh_norm);
 666:main.cpp      **** 
 667:main.cpp      ****             const int32_t dlx = static_cast<int32_t>(tx) - static_cast<int32_t>(kLissX);
 668:main.cpp      ****             const int32_t dly = static_cast<int32_t>(ty) - static_cast<int32_t>(kLissY);
 669:main.cpp      ****             const int32_t dtx = static_cast<int32_t>(tx) - static_cast<int32_t>(kTrigX);
 670:main.cpp      ****             const int32_t dty = static_cast<int32_t>(ty) - static_cast<int32_t>(kTrigY);
ARM GAS  /var/folders/9k/zk1mgrrd7wg4__6zvxvr9w8m0000gn/T//ccuDf5uE.s 			page 29


 671:main.cpp      ****             liss_hit = (dlx * dlx + dly * dly) <= (kBtnR * kBtnR);
 672:main.cpp      ****             trig_hit = (dtx * dtx + dty * dty) <= (kBtnR * kBtnR);
 673:main.cpp      ****         }
 674:main.cpp      ****     }
 675:main.cpp      ****     g_scope_x_scale_norm = Clampf(floorf(Clampf(xscale_norm, 0.0f, 1.0f) * 8.0f + 0.5f) / 8.0f, 0.0
 676:main.cpp      ****     g_scope_y_scale_norm = Clampf(floorf(Clampf(yscale_norm, 0.0f, 1.0f) * 8.0f + 0.5f) / 8.0f, 0.0
 677:main.cpp      ****     g_scope_time_norm    = Clampf(g_scope_time_norm, 0.0f, 1.0f);
 678:main.cpp      ****     g_scope_x_pos_norm   = Clampf(g_scope_x_pos_norm, 0.0f, 1.0f);
 679:main.cpp      ****     g_scope_y_pos_norm   = Clampf(g_scope_y_pos_norm, 0.0f, 1.0f);
 680:main.cpp      ****     g_scope_thresh_norm  = Clampf(g_scope_thresh_norm, 0.0f, 1.0f);
 681:main.cpp      **** 
 682:main.cpp      ****     if(liss_hit && !g_scope_liss_latch)
 683:main.cpp      ****     {
 684:main.cpp      ****         g_scope_lissajous = !g_scope_lissajous;
 685:main.cpp      ****         g_scope_liss_latch = true;
 686:main.cpp      ****     }
 687:main.cpp      ****     else if(!liss_hit)
 688:main.cpp      ****     {
 689:main.cpp      ****         g_scope_liss_latch = false;
 690:main.cpp      ****     }
 691:main.cpp      ****     if(trig_hit && !g_scope_trig_latch)
 692:main.cpp      ****     {
 693:main.cpp      ****         g_scope_trig_enabled = !g_scope_trig_enabled;
 694:main.cpp      ****         g_scope_trig_latch = true;
 695:main.cpp      ****     }
 696:main.cpp      ****     else if(!trig_hit)
 697:main.cpp      ****     {
 698:main.cpp      ****         g_scope_trig_latch = false;
 699:main.cpp      ****     }
 700:main.cpp      **** 
 701:main.cpp      ****     const float gain_x = GainFromNorm(g_scope_x_scale_norm);
 702:main.cpp      ****     const float gain_y = GainFromNorm(g_scope_y_scale_norm);
 703:main.cpp      ****     const float off_x  = VoltFromNorm(g_scope_x_pos_norm);
 704:main.cpp      ****     const float off_y  = VoltFromNorm(g_scope_y_pos_norm);
 705:main.cpp      ****     const float thr_v  = VoltFromNorm(g_scope_thresh_norm);
 706:main.cpp      ****     const uint16_t visible = static_cast<uint16_t>(72u + static_cast<uint16_t>(g_scope_time_norm * 
 707:main.cpp      ****     const uint16_t span = U16Min(static_cast<uint16_t>(visible), kVisHistory);
 708:main.cpp      **** 
 709:main.cpp      ****     LCD_SetColor(0xff000000);
 710:main.cpp      ****     LCD_FillRect(static_cast<uint16_t>(kDispX),
 711:main.cpp      ****                  static_cast<uint16_t>(kDispY),
 712:main.cpp      ****                  static_cast<uint16_t>(kDispW),
 713:main.cpp      ****                  static_cast<uint16_t>(kDispH));
 714:main.cpp      ****     LCD_SetColor(0xff2C3A46);
 715:main.cpp      ****     LCD_DrawRect(kDispX, kDispY, static_cast<uint16_t>(kDispW), static_cast<uint16_t>(kDispH));
 716:main.cpp      ****     for(uint16_t i = 1; i < 5u; ++i)
 717:main.cpp      ****     {
 718:main.cpp      ****         const uint16_t gy = static_cast<uint16_t>(kDispY + (kDispH - 1) * i / 4u);
 719:main.cpp      ****         LCD_SetColor(0xff2A333C);
 720:main.cpp      ****         LCD_DrawLine(kDispX, gy, static_cast<uint16_t>(kDispX + kDispW - 1), gy);
 721:main.cpp      ****     }
 722:main.cpp      **** 
 723:main.cpp      ****     if(g_scope_lissajous)
 724:main.cpp      ****     {
 725:main.cpp      ****         int16_t px = kDispX + kDispW / 2;
 726:main.cpp      ****         int16_t py = kDispY + kDispH / 2;
 727:main.cpp      ****         LCD_SetColor(0xffE8D34A);
ARM GAS  /var/folders/9k/zk1mgrrd7wg4__6zvxvr9w8m0000gn/T//ccuDf5uE.s 			page 30


 728:main.cpp      ****         for(uint16_t i = 0; i < span; ++i)
 729:main.cpp      ****         {
 730:main.cpp      ****             const uint16_t idx = static_cast<uint16_t>((g_vis_wr + kVisHistory - span + i) % kVisHi
 731:main.cpp      ****             const float vx = g_vis_l[idx] * 5.0f;
 732:main.cpp      ****             const float vy = g_vis_r[idx] * 5.0f;
 733:main.cpp      ****             const int16_t x = PlotX(vx, off_x, gain_x);
 734:main.cpp      ****             const int16_t y = PlotY(vy, off_y, gain_y);
 735:main.cpp      ****             if(i > 0u)
 736:main.cpp      ****                 LCD_DrawLine(static_cast<uint16_t>(px), static_cast<uint16_t>(py), static_cast<uint
 737:main.cpp      ****             px = x;
 738:main.cpp      ****             py = y;
 739:main.cpp      ****         }
 740:main.cpp      ****     }
 741:main.cpp      ****     else
 742:main.cpp      ****     {
 743:main.cpp      ****         int16_t pyx = kDispY + kDispH / 2;
 744:main.cpp      ****         int16_t pyy = kDispY + kDispH / 2;
 745:main.cpp      ****         for(uint16_t x = 0u; x < static_cast<uint16_t>(kDispW); ++x)
 746:main.cpp      ****         {
 747:main.cpp      ****             const uint16_t si = static_cast<uint16_t>((static_cast<uint32_t>(x) * span) / static_ca
 748:main.cpp      ****             const uint16_t idx = static_cast<uint16_t>((g_vis_wr + kVisHistory - span + si) % kVisH
 749:main.cpp      ****             const float vx = g_vis_l[idx] * 5.0f;
 750:main.cpp      ****             const float vy = g_vis_r[idx] * 5.0f;
 751:main.cpp      ****             const int16_t xx = static_cast<int16_t>(kDispX + x);
 752:main.cpp      ****             const int16_t yx = PlotY(vx, off_x, gain_x);
 753:main.cpp      ****             const int16_t yy = PlotY(vy, off_y, gain_y);
 754:main.cpp      ****             if(x > 0u)
 755:main.cpp      ****             {
 756:main.cpp      ****                 LCD_SetColor(0xffE8D34A);
 757:main.cpp      ****                 LCD_DrawLine(static_cast<uint16_t>(xx - 1), static_cast<uint16_t>(pyx), static_cast
 758:main.cpp      ****                 LCD_SetColor(0xff52C7FF);
 759:main.cpp      ****                 LCD_DrawLine(static_cast<uint16_t>(xx - 1), static_cast<uint16_t>(pyy), static_cast
 760:main.cpp      ****             }
 761:main.cpp      ****             pyx = yx;
 762:main.cpp      ****             pyy = yy;
 763:main.cpp      ****         }
 764:main.cpp      **** 
 765:main.cpp      ****         const int16_t ty = PlotY(thr_v, off_x, gain_x);
 766:main.cpp      ****         LCD_SetColor(g_scope_trig_enabled ? 0xffF0F0F0 : 0xff606060);
 767:main.cpp      ****         LCD_DrawLine(kDispX, static_cast<uint16_t>(ty), static_cast<uint16_t>(kDispX + kDispW - 1),
 768:main.cpp      ****         LCD_FillRect(static_cast<uint16_t>(kDispX + kDispW - 12), static_cast<uint16_t>(ty - 4), 10
 769:main.cpp      ****     }
 770:main.cpp      **** 
 771:main.cpp      ****     DrawKnob(kXScaleX, kXScaleY, kKnobR, g_scope_x_scale_norm, "", 0xffE8D34A);
 772:main.cpp      ****     DrawKnob(kYScaleX, kYScaleY, kKnobR, g_scope_y_scale_norm, "", 0xff52C7FF);
 773:main.cpp      ****     DrawKnob(kTimeX, kTimeY, kKnobR, g_scope_time_norm, "", 0xffA9B6C8);
 774:main.cpp      ****     DrawKnob(kXPosX, kXPosY, kKnobR, g_scope_x_pos_norm, "", 0xffE8D34A);
 775:main.cpp      ****     DrawKnob(kYPosX, kYPosY, kKnobR, g_scope_y_pos_norm, "", 0xff52C7FF);
 776:main.cpp      ****     DrawKnob(kThreshX, kThreshY, kKnobR, g_scope_thresh_norm, "", 0xffD5D5D5);
 777:main.cpp      **** 
 778:main.cpp      ****     LCD_SetColor(g_scope_lissajous ? 0xffF0F0F0 : 0xff505050);
 779:main.cpp      ****     LCD_FillCircle(static_cast<uint16_t>(kLissX), static_cast<uint16_t>(kLissY), 5u);
 780:main.cpp      ****     LCD_SetColor(g_scope_trig_enabled ? 0xffF0F0F0 : 0xff505050);
 781:main.cpp      ****     LCD_FillCircle(static_cast<uint16_t>(kTrigX), static_cast<uint16_t>(kTrigY), 5u);
 782:main.cpp      **** }
 783:main.cpp      **** 
 784:main.cpp      **** static void DrawVectorScene()
ARM GAS  /var/folders/9k/zk1mgrrd7wg4__6zvxvr9w8m0000gn/T//ccuDf5uE.s 			page 31


 785:main.cpp      **** {
 786:main.cpp      ****     int16_t cx = static_cast<int16_t>(LCD_Width / 2u);
 787:main.cpp      ****     int16_t cy = 210;
 788:main.cpp      **** 
 789:main.cpp      ****     ClearVisualArea(0xff202020);
 790:main.cpp      ****     LCD_SetColor(0xff4040A0);
 791:main.cpp      ****     LCD_DrawLine(0, static_cast<uint16_t>(cy), LCD_Width - 1u, static_cast<uint16_t>(cy));
 792:main.cpp      ****     LCD_DrawLine(static_cast<uint16_t>(cx), 40, static_cast<uint16_t>(cx), 369);
 793:main.cpp      **** 
 794:main.cpp      ****     LCD_SetColor(LCD_CYAN);
 795:main.cpp      ****     for(uint16_t i = 0u; i < 260u; ++i)
 796:main.cpp      ****     {
 797:main.cpp      ****         uint16_t idx = static_cast<uint16_t>((g_vis_wr + kVisHistory - 260u + i) % kVisHistory);
 798:main.cpp      ****         int16_t  x   = static_cast<int16_t>(cx + (g_vis_l[idx] * 120.0f));
 799:main.cpp      ****         int16_t  y   = static_cast<int16_t>(cy - (g_vis_r[idx] * 120.0f));
 800:main.cpp      ****         if(x >= 0 && x < static_cast<int16_t>(LCD_Width) && y >= 40 && y < 370)
 801:main.cpp      ****             LCD_DrawPoint(static_cast<uint16_t>(x), static_cast<uint16_t>(y), LCD_CYAN);
 802:main.cpp      ****     }
 803:main.cpp      **** }
 804:main.cpp      **** 
 805:main.cpp      **** static void DrawSpectrumScene()
 806:main.cpp      **** {
 807:main.cpp      ****     static const uint32_t cols[8]
 808:main.cpp      ****         = {LCD_CYAN, LCD_BLUE, LCD_GREEN, LCD_YELLOW, 0xffFF6A00, LCD_RED, LCD_MAGENTA, LCD_WHITE};
 809:main.cpp      ****     uint16_t barw = static_cast<uint16_t>(LCD_Width / 8u);
 810:main.cpp      ****     uint16_t y0   = 44u;
 811:main.cpp      ****     uint16_t h    = 320u;
 812:main.cpp      **** 
 813:main.cpp      ****     ClearVisualArea(0xff101010);
 814:main.cpp      ****     for(uint16_t i = 0u; i < 8u; ++i)
 815:main.cpp      ****     {
 816:main.cpp      ****         float    v  = g_spec_env[i];
 817:main.cpp      ****         uint16_t x0 = static_cast<uint16_t>(i * barw + 2u);
 818:main.cpp      ****         uint16_t bh = 0u;
 819:main.cpp      ****         uint16_t y1 = 0u;
 820:main.cpp      ****         uint16_t y2 = 0u;
 821:main.cpp      **** 
 822:main.cpp      ****         if(v > 1.0f)
 823:main.cpp      ****             v = 1.0f;
 824:main.cpp      ****         if(v < 0.0f)
 825:main.cpp      ****             v = 0.0f;
 826:main.cpp      **** 
 827:main.cpp      ****         bh = static_cast<uint16_t>(v * static_cast<float>(h));
 828:main.cpp      ****         y1 = static_cast<uint16_t>(y0 + h);
 829:main.cpp      ****         y2 = static_cast<uint16_t>(y1 - bh);
 830:main.cpp      **** 
 831:main.cpp      ****         LCD_SetColor(0xff303050);
 832:main.cpp      ****         LCD_DrawRect(static_cast<uint16_t>(x0 - 1u), y0, static_cast<uint16_t>(barw - 4u), h);
 833:main.cpp      ****         if(y2 < y1)
 834:main.cpp      ****         {
 835:main.cpp      ****             LCD_SetColor(cols[i]);
 836:main.cpp      ****             LCD_FillRect(x0, y2, static_cast<uint16_t>(barw - 5u), static_cast<uint16_t>(y1 - y2));
 837:main.cpp      ****         }
 838:main.cpp      ****     }
 839:main.cpp      **** }
 840:main.cpp      **** 
 841:main.cpp      **** static void DrawNeonScene()
ARM GAS  /var/folders/9k/zk1mgrrd7wg4__6zvxvr9w8m0000gn/T//ccuDf5uE.s 			page 32


 842:main.cpp      **** {
 843:main.cpp      ****     uint16_t w     = static_cast<uint16_t>(LCD_Width - 8u);
 844:main.cpp      ****     uint16_t x0    = 4u;
 845:main.cpp      ****     uint16_t y_mid = 205u;
 846:main.cpp      ****     int16_t  p0    = static_cast<int16_t>(y_mid);
 847:main.cpp      ****     int16_t  p1    = static_cast<int16_t>(y_mid);
 848:main.cpp      **** 
 849:main.cpp      ****     ClearVisualArea(0xff080020);
 850:main.cpp      ****     w = U16Min(w, kVisHistory);
 851:main.cpp      ****     for(uint16_t x = 1u; x < w; ++x)
 852:main.cpp      ****     {
 853:main.cpp      ****         uint16_t idx = static_cast<uint16_t>((g_vis_wr + kVisHistory - w + x) % kVisHistory);
 854:main.cpp      ****         float    a   = g_vis_l[idx];
 855:main.cpp      ****         float    b   = g_vis_r[idx];
 856:main.cpp      ****         int16_t  y0  = static_cast<int16_t>(y_mid) - static_cast<int16_t>((a + b) * 54.0f);
 857:main.cpp      ****         int16_t  y1  = static_cast<int16_t>(y_mid) - static_cast<int16_t>((a - b) * 54.0f);
 858:main.cpp      ****         if(y0 < 42)
 859:main.cpp      ****             y0 = 42;
 860:main.cpp      ****         if(y0 > 368)
 861:main.cpp      ****             y0 = 368;
 862:main.cpp      ****         if(y1 < 42)
 863:main.cpp      ****             y1 = 42;
 864:main.cpp      ****         if(y1 > 368)
 865:main.cpp      ****             y1 = 368;
 866:main.cpp      ****         LCD_SetColor(0xff00E5FF);
 867:main.cpp      ****         LCD_DrawLine(static_cast<uint16_t>(x0 + x - 1u),
 868:main.cpp      ****                      static_cast<uint16_t>(p0),
 869:main.cpp      ****                      static_cast<uint16_t>(x0 + x),
 870:main.cpp      ****                      static_cast<uint16_t>(y0));
 871:main.cpp      ****         LCD_SetColor(0xffFF4DDB);
 872:main.cpp      ****         LCD_DrawLine(static_cast<uint16_t>(x0 + x - 1u),
 873:main.cpp      ****                      static_cast<uint16_t>(p1),
 874:main.cpp      ****                      static_cast<uint16_t>(x0 + x),
 875:main.cpp      ****                      static_cast<uint16_t>(y1));
 876:main.cpp      ****         p0 = y0;
 877:main.cpp      ****         p1 = y1;
 878:main.cpp      ****     }
 879:main.cpp      **** }
 880:main.cpp      **** 
 881:main.cpp      **** static void DrawOrbitScene()
 882:main.cpp      **** {
 883:main.cpp      ****     uint16_t cx    = static_cast<uint16_t>(LCD_Width / 2u);
 884:main.cpp      ****     uint16_t cy    = 205u;
 885:main.cpp      ****     uint16_t r0    = static_cast<uint16_t>(48u + (g_spec_env[2] * 48.0f));
 886:main.cpp      ****     uint16_t r1    = static_cast<uint16_t>(92u + (g_spec_env[5] * 64.0f));
 887:main.cpp      ****     uint16_t pidx  = static_cast<uint16_t>(g_phase_l * static_cast<float>(kVisHistory));
 888:main.cpp      ****     uint16_t pidx2 = static_cast<uint16_t>(g_phase_r * static_cast<float>(kVisHistory));
 889:main.cpp      ****     if(pidx >= kVisHistory)
 890:main.cpp      ****         pidx = static_cast<uint16_t>(kVisHistory - 1u);
 891:main.cpp      ****     if(pidx2 >= kVisHistory)
 892:main.cpp      ****         pidx2 = static_cast<uint16_t>(kVisHistory - 1u);
 893:main.cpp      **** 
 894:main.cpp      ****     ClearVisualArea(0xff060A16);
 895:main.cpp      ****     LCD_SetColor(0xff404860);
 896:main.cpp      ****     LCD_DrawCircle(cx, cy, 48u);
 897:main.cpp      ****     LCD_DrawCircle(cx, cy, 96u);
 898:main.cpp      ****     LCD_DrawCircle(cx, cy, 140u);
ARM GAS  /var/folders/9k/zk1mgrrd7wg4__6zvxvr9w8m0000gn/T//ccuDf5uE.s 			page 33


 899:main.cpp      **** 
 900:main.cpp      ****     for(uint16_t i = 0u; i < 64u; ++i)
 901:main.cpp      ****     {
 902:main.cpp      ****         uint16_t idx = static_cast<uint16_t>((pidx + i) % kVisHistory);
 903:main.cpp      ****         int16_t  x = static_cast<int16_t>(cx) + static_cast<int16_t>(g_vis_l[idx] * static_cast<flo
 904:main.cpp      ****         int16_t  y = static_cast<int16_t>(cy) + static_cast<int16_t>(g_vis_r[idx] * static_cast<flo
 905:main.cpp      ****         if(x > 2 && x < static_cast<int16_t>(LCD_Width - 2u) && y > 42 && y < 368)
 906:main.cpp      ****             LCD_DrawPoint(static_cast<uint16_t>(x), static_cast<uint16_t>(y), 0xff9CC2FF);
 907:main.cpp      ****     }
 908:main.cpp      **** 
 909:main.cpp      ****     {
 910:main.cpp      ****         int16_t x0 = static_cast<int16_t>(cx) + static_cast<int16_t>(g_vis_l[pidx] * static_cast<fl
 911:main.cpp      ****         int16_t y0 = static_cast<int16_t>(cy) + static_cast<int16_t>(g_vis_r[pidx] * static_cast<fl
 912:main.cpp      ****         int16_t x1 = static_cast<int16_t>(cx) + static_cast<int16_t>(g_vis_l[pidx2] * 138.0f);
 913:main.cpp      ****         int16_t y1 = static_cast<int16_t>(cy) + static_cast<int16_t>(g_vis_r[pidx2] * 138.0f);
 914:main.cpp      ****         LCD_SetColor(0xffFFB347);
 915:main.cpp      ****         LCD_FillCircle(static_cast<uint16_t>(x0), static_cast<uint16_t>(y0), 4u);
 916:main.cpp      ****         LCD_SetColor(0xff7DFF7D);
 917:main.cpp      ****         LCD_FillCircle(static_cast<uint16_t>(x1), static_cast<uint16_t>(y1), 3u);
 918:main.cpp      ****     }
 919:main.cpp      **** }
 920:main.cpp      **** 
 921:main.cpp      **** static void DrawTouchCoordDemoScene()
 922:main.cpp      **** {
 923:main.cpp      ****     if(!g_touch_demo_layout_ready)
 924:main.cpp      ****     {
 925:main.cpp      ****         LCD_SetColor(0xff333333);
 926:main.cpp      ****         LCD_SetBackColor(0xffB9EDF8);
 927:main.cpp      ****         LCD_Clear();
 928:main.cpp      ****         LCD_SetTextFont(&CH_Font24);
 929:main.cpp      ****         LCD_DisplayString(32, 20, const_cast<char*>("Touch Coord Demo"));
 930:main.cpp      ****         LCD_DisplayString(32, 58, const_cast<char*>("IIT6 800x480 GT911"));
 931:main.cpp      **** 
 932:main.cpp      ****         LCD_SetTextFont(&CH_Font20);
 933:main.cpp      ****         LCD_DisplayString(44, 130, const_cast<char*>("X1:       Y1:"));
 934:main.cpp      ****         LCD_DisplayString(44, 180, const_cast<char*>("X2:       Y2:"));
 935:main.cpp      ****         LCD_DisplayString(44, 230, const_cast<char*>("X3:       Y3:"));
 936:main.cpp      ****         LCD_DisplayString(44, 280, const_cast<char*>("X4:       Y4:"));
 937:main.cpp      ****         LCD_DisplayString(44, 330, const_cast<char*>("X5:       Y5:"));
 938:main.cpp      ****         LCD_SetColor(LCD_RED);
 939:main.cpp      ****         g_touch_demo_layout_ready = true;
 940:main.cpp      ****     }
 941:main.cpp      **** 
 942:main.cpp      ****     for(uint8_t i = 0; i < 5; ++i)
 943:main.cpp      ****     {
 944:main.cpp      ****         const uint16_t y = static_cast<uint16_t>(130u + static_cast<uint16_t>(i) * 50u);
 945:main.cpp      ****         LCD_DisplayNumber(110, y, static_cast<int32_t>(touchInfo.x[i]), 4);
 946:main.cpp      ****         LCD_DisplayNumber(260, y, static_cast<int32_t>(touchInfo.y[i]), 4);
 947:main.cpp      ****     }
 948:main.cpp      **** }
 949:main.cpp      **** 
 950:main.cpp      **** static void DrawTouchPaintScene()
 951:main.cpp      **** {
 952:main.cpp      ****     static const uint32_t kPaintColors[] = {
 953:main.cpp      ****         LCD_CYAN, LCD_YELLOW, LCD_MAGENTA, LCD_GREEN, 0xffFF7A00, LCD_WHITE};
 954:main.cpp      **** 
 955:main.cpp      ****     if(!g_touch_paint_layout_ready)
ARM GAS  /var/folders/9k/zk1mgrrd7wg4__6zvxvr9w8m0000gn/T//ccuDf5uE.s 			page 34


 956:main.cpp      ****     {
 957:main.cpp      ****         LCD_SetColor(0xff101820);
 958:main.cpp      ****         LCD_SetBackColor(0xff101820);
 959:main.cpp      ****         LCD_Clear();
 960:main.cpp      **** 
 961:main.cpp      ****         LCD_SetColor(0xff2A2A2A);
 962:main.cpp      ****         LCD_FillRect(0, 372, LCD_Width, 108);
 963:main.cpp      ****         LCD_SetColor(0xff4A4A4A);
 964:main.cpp      ****         LCD_DrawLine(0, 372, LCD_Width - 1u, 372);
 965:main.cpp      **** 
 966:main.cpp      ****         LCD_SetColor(LCD_WHITE);
 967:main.cpp      ****         LCD_SetTextFont(&CH_Font16);
 968:main.cpp      ****         LCD_DisplayString(10, 382, const_cast<char*>("Paint: 1-finger draw / 2-finger clear"));
 969:main.cpp      ****         LCD_DisplayString(10, 408, const_cast<char*>("Hold touch at bottom to switch mode"));
 970:main.cpp      ****         LCD_DisplayString(10, 434, const_cast<char*>("Pen color changes automatically"));
 971:main.cpp      **** 
 972:main.cpp      ****         g_touch_paint_layout_ready = true;
 973:main.cpp      ****         g_paint_prev_down          = false;
 974:main.cpp      ****         g_paint_clear_latched      = false;
 975:main.cpp      ****     }
 976:main.cpp      **** 
 977:main.cpp      ****     const bool touch_active = (touchInfo.flag != 0u) && (touchInfo.num > 0u);
 978:main.cpp      ****     if(!touch_active)
 979:main.cpp      ****     {
 980:main.cpp      ****         g_paint_prev_down = false;
 981:main.cpp      ****         g_paint_clear_latched = false;
 982:main.cpp      ****         return;
 983:main.cpp      ****     }
 984:main.cpp      **** 
 985:main.cpp      ****     if(touchInfo.num >= 2u)
 986:main.cpp      ****     {
 987:main.cpp      ****         if(!g_paint_clear_latched)
 988:main.cpp      ****         {
 989:main.cpp      ****             LCD_SetColor(0xff101820);
 990:main.cpp      ****             LCD_FillRect(0, 34, LCD_Width, 338);
 991:main.cpp      ****             g_paint_clear_latched = true;
 992:main.cpp      ****             g_paint_prev_down     = false;
 993:main.cpp      ****         }
 994:main.cpp      ****         return;
 995:main.cpp      ****     }
 996:main.cpp      ****     g_paint_clear_latched = false;
 997:main.cpp      **** 
 998:main.cpp      ****     uint16_t x = touchInfo.x[0];
 999:main.cpp      ****     uint16_t y = touchInfo.y[0];
1000:main.cpp      ****     if(x >= LCD_Width)
1001:main.cpp      ****         x = static_cast<uint16_t>(LCD_Width - 1u);
1002:main.cpp      ****     if(y >= kTouchSwitchYMin)
1003:main.cpp      ****         return;
1004:main.cpp      **** 
1005:main.cpp      ****     LCD_SetColor(kPaintColors[g_paint_color_idx % (sizeof(kPaintColors) / sizeof(kPaintColors[0]))]
1006:main.cpp      ****     if(g_paint_prev_down)
1007:main.cpp      ****     {
1008:main.cpp      ****         LCD_DrawLine(g_paint_prev_x, g_paint_prev_y, x, y);
1009:main.cpp      ****     }
1010:main.cpp      ****     else
1011:main.cpp      ****     {
1012:main.cpp      ****         LCD_DrawPoint(x, y, kPaintColors[g_paint_color_idx % (sizeof(kPaintColors) / sizeof(kPaintC
ARM GAS  /var/folders/9k/zk1mgrrd7wg4__6zvxvr9w8m0000gn/T//ccuDf5uE.s 			page 35


1013:main.cpp      ****     }
1014:main.cpp      ****     g_paint_prev_x = x;
1015:main.cpp      ****     g_paint_prev_y = y;
1016:main.cpp      ****     g_paint_prev_down = true;
1017:main.cpp      ****     g_paint_color_idx++;
1018:main.cpp      **** }
1019:main.cpp      **** 
1020:main.cpp      **** static float MidiToFreq(float midi_note)
1021:main.cpp      **** {
1022:main.cpp      ****     return 440.0f * powf(2.0f, (midi_note - 69.0f) / 12.0f);
1023:main.cpp      **** }
1024:main.cpp      **** 
1025:main.cpp      **** static void InitMiDsp()
1026:main.cpp      **** {
1027:main.cpp      ****     g_rings_part.Init(g_rings_reverb_buffer);
1028:main.cpp      ****     g_rings_part.set_polyphony(2);
1029:main.cpp      ****     g_rings_part.set_model(rings::RESONATOR_MODEL_AUDREY_A);
1030:main.cpp      ****     g_rings_dsp_ready = true;
1031:main.cpp      ****     PlaitsAdapterInit();
1032:main.cpp      **** }
1033:main.cpp      **** 
1034:main.cpp      **** static void UpdateRingsDspParams()
1035:main.cpp      **** {
1036:main.cpp      ****     g_rings_patch.structure     = Clampf(g_rings_structure_norm, 0.0f, 1.0f);
1037:main.cpp      ****     g_rings_patch.brightness    = Clampf(g_rings_brightness_norm, 0.0f, 1.0f);
1038:main.cpp      ****     g_rings_patch.damping       = Clampf(g_rings_damping_norm, 0.0f, 1.0f);
1039:main.cpp      ****     g_rings_patch.position      = Clampf(g_rings_feedback_norm, 0.0f, 1.0f);
1040:main.cpp      ****     g_rings_patch.reverb_amount = Clampf(g_rings_reverb_mix_norm, 0.0f, 1.0f);
1041:main.cpp      **** 
1042:main.cpp      ****     g_rings_perf.internal_exciter = true;
1043:main.cpp      ****     g_rings_perf.internal_strum   = true;
1044:main.cpp      ****     g_rings_perf.internal_note    = true;
1045:main.cpp      ****     g_rings_perf.chord            = 0;
1046:main.cpp      ****     g_rings_perf.fm               = 0.0f;
1047:main.cpp      ****     g_rings_perf.tonic            = 36.0f;
1048:main.cpp      ****     g_rings_perf.note             = 24.0f + g_rings_pitch_norm * 36.0f;
1049:main.cpp      **** 
1050:main.cpp      ****     const rings::ResonatorModel md[3] = {rings::RESONATOR_MODEL_AUDREY_A,
1051:main.cpp      ****                                          rings::RESONATOR_MODEL_AUDREY_B,
1052:main.cpp      ****                                          rings::RESONATOR_MODEL_AUDREY_C};
1053:main.cpp      ****     g_rings_part.set_model(md[g_rings_audrey_mode % 3u]);
1054:main.cpp      **** 
1055:main.cpp      ****     if(g_rings_gate && !g_rings_prev_gate)
1056:main.cpp      ****     {
1057:main.cpp      ****         g_rings_perf.strum = true;
1058:main.cpp      ****     }
1059:main.cpp      ****     else
1060:main.cpp      ****     {
1061:main.cpp      ****         g_rings_strum_phase += (g_rings_gate ? 3.0f : 0.6f) / kToneSampleRate;
1062:main.cpp      ****         if(g_rings_strum_phase >= 1.0f)
1063:main.cpp      ****         {
1064:main.cpp      ****             g_rings_strum_phase -= 1.0f;
1065:main.cpp      ****             g_rings_perf.strum = g_rings_gate;
1066:main.cpp      ****         }
1067:main.cpp      ****         else
1068:main.cpp      ****         {
1069:main.cpp      ****             g_rings_perf.strum = false;
ARM GAS  /var/folders/9k/zk1mgrrd7wg4__6zvxvr9w8m0000gn/T//ccuDf5uE.s 			page 36


1070:main.cpp      ****         }
1071:main.cpp      ****     }
1072:main.cpp      ****     g_rings_prev_gate = g_rings_gate;
1073:main.cpp      **** }
1074:main.cpp      **** 
1075:main.cpp      **** 
1076:main.cpp      **** static void DrawToneControlScene()
1077:main.cpp      **** {
1078:main.cpp      ****     constexpr int16_t  kKnobCx      = 190;
1079:main.cpp      ****     constexpr int16_t  kKnobCy      = 220;
1080:main.cpp      ****     constexpr int16_t  kKnobR       = 82;
1081:main.cpp      ****     constexpr int16_t  kSliderX     = 520;
1082:main.cpp      ****     constexpr int16_t  kSliderY0    = 90;
1083:main.cpp      ****     constexpr int16_t  kSliderY1    = 350;
1084:main.cpp      ****     constexpr int16_t  kSliderW     = 34;
1085:main.cpp      ****     constexpr float    kKnobStart   = (5.0f * kTwoPi) / 8.0f; // 225 deg
1086:main.cpp      ****     constexpr float    kKnobSweep   = (3.0f * kTwoPi) / 4.0f; // 270 deg
1087:main.cpp      ****     char               line[96];
1088:main.cpp      **** 
1089:main.cpp      ****     if(!g_touch_tone_ctrl_layout_ready)
1090:main.cpp      ****     {
1091:main.cpp      ****         LCD_SetColor(0xff10161F);
1092:main.cpp      ****         LCD_SetBackColor(0xff10161F);
1093:main.cpp      ****         LCD_Clear();
1094:main.cpp      ****         LCD_SetTextFont(&CH_Font24);
1095:main.cpp      ****         LCD_SetColor(LCD_WHITE);
1096:main.cpp      ****         LCD_DisplayString(18, 12, const_cast<char*>("Touch Tone Control"));
1097:main.cpp      ****         LCD_SetTextFont(&CH_Font16);
1098:main.cpp      ****         LCD_DisplayString(18, 46, const_cast<char*>("Knob: pitch (C2..C7)  Slider: volume"));
1099:main.cpp      ****         LCD_DisplayString(18, 70, const_cast<char*>("Bottom hold: switch mode"));
1100:main.cpp      **** 
1101:main.cpp      ****         LCD_SetColor(0xff2C3E55);
1102:main.cpp      ****         LCD_DrawCircle(static_cast<uint16_t>(kKnobCx), static_cast<uint16_t>(kKnobCy), static_cast<
1103:main.cpp      ****         LCD_DrawCircle(static_cast<uint16_t>(kKnobCx), static_cast<uint16_t>(kKnobCy), static_cast<
1104:main.cpp      ****         LCD_SetColor(0xff1D2634);
1105:main.cpp      ****         LCD_FillCircle(static_cast<uint16_t>(kKnobCx), static_cast<uint16_t>(kKnobCy), static_cast<
1106:main.cpp      **** 
1107:main.cpp      ****         LCD_SetColor(0xff2C3E55);
1108:main.cpp      ****         LCD_DrawRect(static_cast<uint16_t>(kSliderX - 2),
1109:main.cpp      ****                      static_cast<uint16_t>(kSliderY0 - 2),
1110:main.cpp      ****                      static_cast<uint16_t>(kSliderW + 4),
1111:main.cpp      ****                      static_cast<uint16_t>(kSliderY1 - kSliderY0 + 4));
1112:main.cpp      ****         LCD_SetColor(0xff1D2634);
1113:main.cpp      ****         LCD_FillRect(static_cast<uint16_t>(kSliderX),
1114:main.cpp      ****                      static_cast<uint16_t>(kSliderY0),
1115:main.cpp      ****                      static_cast<uint16_t>(kSliderW),
1116:main.cpp      ****                      static_cast<uint16_t>(kSliderY1 - kSliderY0));
1117:main.cpp      ****         g_touch_tone_ctrl_layout_ready = true;
1118:main.cpp      ****     }
1119:main.cpp      **** 
1120:main.cpp      ****     const uint32_t now_ms      = System::GetNow();
1121:main.cpp      ****     const bool     touch_active = (touchInfo.flag != 0u) && (touchInfo.num > 0u);
1122:main.cpp      ****     bool           slider_touch = false;
1123:main.cpp      ****     if(touch_active)
1124:main.cpp      ****     {
1125:main.cpp      ****         const int16_t tx = static_cast<int16_t>(touchInfo.x[0]);
1126:main.cpp      ****         const int16_t ty = static_cast<int16_t>(touchInfo.y[0]);
ARM GAS  /var/folders/9k/zk1mgrrd7wg4__6zvxvr9w8m0000gn/T//ccuDf5uE.s 			page 37


1127:main.cpp      ****         if(ty < static_cast<int16_t>(kTouchSwitchYMin))
1128:main.cpp      ****         {
1129:main.cpp      ****             const int16_t dx = tx - kKnobCx;
1130:main.cpp      ****             const int16_t dy = ty - kKnobCy;
1131:main.cpp      ****             const int32_t d2 = static_cast<int32_t>(dx) * static_cast<int32_t>(dx)
1132:main.cpp      ****                                + static_cast<int32_t>(dy) * static_cast<int32_t>(dy);
1133:main.cpp      ****             if(d2 <= static_cast<int32_t>(kKnobR + 18) * static_cast<int32_t>(kKnobR + 18))
1134:main.cpp      ****             {
1135:main.cpp      ****                 float a = atan2f(static_cast<float>(kKnobCy - ty),
1136:main.cpp      ****                                  static_cast<float>(tx - kKnobCx)); // [ -pi, pi ]
1137:main.cpp      ****                 if(a < 0.0f)
1138:main.cpp      ****                     a += kTwoPi;
1139:main.cpp      ****                 float rel = a - kKnobStart;
1140:main.cpp      ****                 if(rel < 0.0f)
1141:main.cpp      ****                     rel += kTwoPi;
1142:main.cpp      ****                 if(rel > kKnobSweep)
1143:main.cpp      ****                     rel = kKnobSweep;
1144:main.cpp      ****                 g_tone_ctrl_knob_norm = rel / kKnobSweep;
1145:main.cpp      ****             }
1146:main.cpp      **** 
1147:main.cpp      ****             if(tx >= (kSliderX - 24) && tx <= (kSliderX + kSliderW + 24)
1148:main.cpp      ****                && ty >= kSliderY0 && ty <= kSliderY1)
1149:main.cpp      ****             {
1150:main.cpp      ****                 float n = 1.0f - (static_cast<float>(ty - kSliderY0)
1151:main.cpp      ****                                   / static_cast<float>(kSliderY1 - kSliderY0));
1152:main.cpp      ****                 g_tone_ctrl_vol_norm = Clampf(n, 0.0f, 1.0f);
1153:main.cpp      ****                 slider_touch          = true;
1154:main.cpp      ****             }
1155:main.cpp      ****         }
1156:main.cpp      ****     }
1157:main.cpp      **** 
1158:main.cpp      ****     if(slider_touch)
1159:main.cpp      ****     {
1160:main.cpp      ****         if(!g_slider_touch_prev)
1161:main.cpp      ****         {
1162:main.cpp      ****             g_slider_rec_active   = true;
1163:main.cpp      ****             g_slider_play_active  = false;
1164:main.cpp      ****             g_slider_rec_len      = 0u;
1165:main.cpp      ****             g_slider_play_idx     = 0u;
1166:main.cpp      ****             g_slider_last_step_ms = 0u;
1167:main.cpp      ****         }
1168:main.cpp      **** 
1169:main.cpp      ****         if(g_slider_rec_active
1170:main.cpp      ****            && (g_slider_last_step_ms == 0u
1171:main.cpp      ****                || (now_ms - g_slider_last_step_ms) >= kSliderRecStepMs))
1172:main.cpp      ****         {
1173:main.cpp      ****             if(g_slider_rec_len < kSliderRecMaxSamples)
1174:main.cpp      ****                 g_slider_rec_buf[g_slider_rec_len++] = g_tone_ctrl_vol_norm;
1175:main.cpp      ****             g_slider_last_step_ms = now_ms;
1176:main.cpp      **** 
1177:main.cpp      ****             if(g_slider_rec_len >= kSliderRecMaxSamples)
1178:main.cpp      ****             {
1179:main.cpp      ****                 g_slider_rec_active   = false;
1180:main.cpp      ****                 g_slider_play_active  = true;
1181:main.cpp      ****                 g_slider_play_idx     = 0u;
1182:main.cpp      ****                 g_slider_last_step_ms = 0u;
1183:main.cpp      ****             }
ARM GAS  /var/folders/9k/zk1mgrrd7wg4__6zvxvr9w8m0000gn/T//ccuDf5uE.s 			page 38


1184:main.cpp      ****         }
1185:main.cpp      ****     }
1186:main.cpp      ****     else
1187:main.cpp      ****     {
1188:main.cpp      ****         if(g_slider_touch_prev && g_slider_rec_active)
1189:main.cpp      ****         {
1190:main.cpp      ****             g_slider_rec_active   = false;
1191:main.cpp      ****             g_slider_play_active  = g_slider_rec_len > 0u;
1192:main.cpp      ****             g_slider_play_idx     = 0u;
1193:main.cpp      ****             g_slider_last_step_ms = 0u;
1194:main.cpp      ****         }
1195:main.cpp      **** 
1196:main.cpp      ****         if(g_slider_play_active && g_slider_rec_len > 0u
1197:main.cpp      ****            && (g_slider_last_step_ms == 0u
1198:main.cpp      ****                || (now_ms - g_slider_last_step_ms) >= kSliderRecStepMs))
1199:main.cpp      ****         {
1200:main.cpp      ****             g_tone_ctrl_vol_norm = g_slider_rec_buf[g_slider_play_idx];
1201:main.cpp      ****             g_slider_play_idx++;
1202:main.cpp      ****             if(g_slider_play_idx >= g_slider_rec_len)
1203:main.cpp      ****                 g_slider_play_idx = 0u;
1204:main.cpp      ****             g_slider_last_step_ms = now_ms;
1205:main.cpp      ****         }
1206:main.cpp      ****     }
1207:main.cpp      ****     g_slider_touch_prev = slider_touch;
1208:main.cpp      **** 
1209:main.cpp      ****     g_tone_ctrl_knob_norm = Clampf(g_tone_ctrl_knob_norm, 0.0f, 1.0f);
1210:main.cpp      ****     g_tone_ctrl_vol_norm  = Clampf(g_tone_ctrl_vol_norm, 0.0f, 1.0f);
1211:main.cpp      **** 
1212:main.cpp      ****     const float midi_note = 36.0f + (g_tone_ctrl_knob_norm * 60.0f); // C2..C7
1213:main.cpp      ****     const float freq      = MidiToFreq(midi_note);
1214:main.cpp      ****     g_tone_freq_hz        = freq;
1215:main.cpp      ****     g_tone_amp            = g_tone_ctrl_vol_norm;
1216:main.cpp      ****     g_stream_mode         = StreamMode::TEST_TONE_1K;
1217:main.cpp      ****     g_run_mode            = RunMode::ACTIVE;
1218:main.cpp      **** 
1219:main.cpp      ****     LCD_SetColor(0xff10161F);
1220:main.cpp      ****     LCD_FillRect(18, 372, 760, 98);
1221:main.cpp      ****     LCD_SetColor(LCD_WHITE);
1222:main.cpp      ****     LCD_SetTextFont(&CH_Font16);
1223:main.cpp      ****     snprintf(line,
1224:main.cpp      ****              sizeof(line),
1225:main.cpp      ****              "Freq: %.1f Hz  MIDI: %.1f  Volume: %.2f",
1226:main.cpp      ****              static_cast<double>(freq),
1227:main.cpp      ****              static_cast<double>(midi_note),
1228:main.cpp      ****              static_cast<double>(g_tone_ctrl_vol_norm));
1229:main.cpp      ****     LCD_DisplayString(20, 384, line);
1230:main.cpp      ****     snprintf(line,
1231:main.cpp      ****              sizeof(line),
1232:main.cpp      ****              "Slider: %s  RecLen: %.2fs / 10.00s",
1233:main.cpp      ****              g_slider_rec_active ? "REC" : (g_slider_play_active ? "PLAY" : "IDLE"),
1234:main.cpp      ****              static_cast<double>(static_cast<float>(g_slider_rec_len)
1235:main.cpp      ****                                  * (static_cast<float>(kSliderRecStepMs) / 1000.0f)));
1236:main.cpp      ****     LCD_DisplayString(20, 410, line);
1237:main.cpp      ****     LCD_DisplayString(20, 436, const_cast<char*>("Serial: l(loop) / t(tone) still available"));
1238:main.cpp      **** 
1239:main.cpp      ****     LCD_SetColor(0xff1D2634);
1240:main.cpp      ****     LCD_FillCircle(static_cast<uint16_t>(kKnobCx), static_cast<uint16_t>(kKnobCy), static_cast<uint
ARM GAS  /var/folders/9k/zk1mgrrd7wg4__6zvxvr9w8m0000gn/T//ccuDf5uE.s 			page 39


1241:main.cpp      ****     const float  a  = kKnobStart + g_tone_ctrl_knob_norm * kKnobSweep;
1242:main.cpp      ****     const int16_t px = static_cast<int16_t>(kKnobCx + cosf(a) * static_cast<float>(kKnobR - 18));
1243:main.cpp      ****     const int16_t py = static_cast<int16_t>(kKnobCy - sinf(a) * static_cast<float>(kKnobR - 18));
1244:main.cpp      ****     LCD_SetColor(0xff00D4FF);
1245:main.cpp      ****     LCD_DrawLine(static_cast<uint16_t>(kKnobCx), static_cast<uint16_t>(kKnobCy),
1246:main.cpp      ****                  static_cast<uint16_t>(px), static_cast<uint16_t>(py));
1247:main.cpp      ****     LCD_FillCircle(static_cast<uint16_t>(kKnobCx), static_cast<uint16_t>(kKnobCy), 8u);
1248:main.cpp      **** 
1249:main.cpp      ****     const int16_t sy = static_cast<int16_t>(
1250:main.cpp      ****         kSliderY1 - g_tone_ctrl_vol_norm * static_cast<float>(kSliderY1 - kSliderY0));
1251:main.cpp      ****     LCD_SetColor(0xff1D2634);
1252:main.cpp      ****     LCD_FillRect(static_cast<uint16_t>(kSliderX), static_cast<uint16_t>(kSliderY0),
1253:main.cpp      ****                  static_cast<uint16_t>(kSliderW), static_cast<uint16_t>(kSliderY1 - kSliderY0));
1254:main.cpp      ****     LCD_SetColor(0xff2ECC71);
1255:main.cpp      ****     LCD_FillRect(static_cast<uint16_t>(kSliderX),
1256:main.cpp      ****                  static_cast<uint16_t>(sy),
1257:main.cpp      ****                  static_cast<uint16_t>(kSliderW),
1258:main.cpp      ****                  static_cast<uint16_t>(kSliderY1 - sy));
1259:main.cpp      ****     LCD_SetColor(0xffF5F5F5);
1260:main.cpp      ****     LCD_FillRect(static_cast<uint16_t>(kSliderX - 6),
1261:main.cpp      ****                  static_cast<uint16_t>(sy - 5),
1262:main.cpp      ****                  static_cast<uint16_t>(kSliderW + 12),
1263:main.cpp      ****                  10u);
1264:main.cpp      **** 
1265:main.cpp      **** }
1266:main.cpp      **** 
1267:main.cpp      **** static void DrawRingsCtrlScene()
1268:main.cpp      **** {
1269:main.cpp      ****     constexpr float kScale = 800.0f / 380.0f;
1270:main.cpp      ****     constexpr int16_t kPanelY = static_cast<int16_t>((LCD_Height - rings_panel_h) / 2);
1271:main.cpp      ****     auto RX = [](float y) -> int16_t { return static_cast<int16_t>(y * kScale + 0.5f); };
1272:main.cpp      ****     auto RY = [&](float x) -> int16_t { return static_cast<int16_t>((210.0f - x) * kScale + 0.5f) +
1273:main.cpp      ****     constexpr float kRogan3Half = 25.921875f;
1274:main.cpp      ****     constexpr float kRogan1Half = 19.84180f;
1275:main.cpp      **** 
1276:main.cpp      ****     constexpr int16_t kBtnY    = 40;
1277:main.cpp      ****     constexpr int16_t kBtnH    = 34;
1278:main.cpp      ****     constexpr int16_t kGateX   = 8;
1279:main.cpp      ****     constexpr int16_t kGateW   = 120;
1280:main.cpp      ****     constexpr int16_t kModeAX  = 138;
1281:main.cpp      ****     constexpr int16_t kModeW   = 88;
1282:main.cpp      ****     constexpr int16_t kModeGap = 12;
1283:main.cpp      ****     constexpr int16_t kPolyX   = 430;
1284:main.cpp      ****     constexpr int16_t kPolyW   = 80;
1285:main.cpp      ****     constexpr int16_t kResoX   = 520;
1286:main.cpp      ****     constexpr int16_t kResoW   = 80;
1287:main.cpp      ****     constexpr int16_t kKRBig   = 44;
1288:main.cpp      ****     constexpr int16_t kKRSmall = 33;
1289:main.cpp      ****     const int16_t     kKFreqX  = RX(72.0f + kRogan3Half);
1290:main.cpp      ****     const int16_t     kKStruX  = RX(72.0f + kRogan3Half);
1291:main.cpp      ****     const int16_t     kKBriX   = RX(158.0f + kRogan1Half);
1292:main.cpp      ****     const int16_t     kKDmpX   = RX(158.0f + kRogan1Half);
1293:main.cpp      ****     const int16_t     kKPosX   = RX(158.0f + kRogan1Half);
1294:main.cpp      ****     const int16_t     kKRevX   = RX(229.0f + kRogan1Half);
1295:main.cpp      ****     const int16_t     kFreqY   = RY(29.0f + kRogan3Half);
1296:main.cpp      ****     const int16_t     kStruY   = RY(126.0f + kRogan3Half);
1297:main.cpp      ****     const int16_t     kBriY    = RY(13.0f + kRogan1Half);
ARM GAS  /var/folders/9k/zk1mgrrd7wg4__6zvxvr9w8m0000gn/T//ccuDf5uE.s 			page 40


1298:main.cpp      ****     const int16_t     kDmpY    = RY(83.0f + kRogan1Half);
1299:main.cpp      ****     const int16_t     kPosY    = RY(154.0f + kRogan1Half);
1300:main.cpp      ****     const int16_t     kRevY    = RY(57.0f + kRogan1Half);
1301:main.cpp      ****     char              line[192];
1302:main.cpp      **** 
1303:main.cpp      ****     if(!g_touch_tone_ctrl_layout_ready)
1304:main.cpp      ****     {
1305:main.cpp      ****         LCD_SetColor(0xff111111);
1306:main.cpp      ****         LCD_SetBackColor(0xff111111);
1307:main.cpp      ****         LCD_Clear();
1308:main.cpp      ****         DrawRgb565Image(0,
1309:main.cpp      ****                         static_cast<int16_t>((LCD_Height - rings_panel_h) / 2),
1310:main.cpp      ****                         rings_panel_w,
1311:main.cpp      ****                         rings_panel_h,
1312:main.cpp      ****                         rings_panel_rgb565);
1313:main.cpp      ****         LCD_SetTextFont(&CH_Font16);
1314:main.cpp      ****         LCD_SetColor(0xff101010);
1315:main.cpp      ****         LCD_DisplayString(8, 8, const_cast<char*>("RINGS"));
1316:main.cpp      ****         g_touch_tone_ctrl_layout_ready = true;
1317:main.cpp      ****     }
1318:main.cpp      **** 
1319:main.cpp      ****     const bool touch_active = (touchInfo.flag != 0u) && (touchInfo.num > 0u);
1320:main.cpp      ****     bool       gate_hit     = false;
1321:main.cpp      ****     bool       mode_hit     = false;
1322:main.cpp      ****     uint8_t    mode_sel     = g_rings_audrey_mode;
1323:main.cpp      ****     if(touch_active)
1324:main.cpp      ****     {
1325:main.cpp      ****         const int16_t tx = static_cast<int16_t>(touchInfo.x[0]);
1326:main.cpp      ****         const int16_t ty = static_cast<int16_t>(touchInfo.y[0]);
1327:main.cpp      ****         if(ty < static_cast<int16_t>(kTouchSwitchYMin))
1328:main.cpp      ****         {
1329:main.cpp      ****             TouchAdjustKnob(tx, ty, kKFreqX, kFreqY, kKRBig, g_rings_pitch_norm);
1330:main.cpp      ****             TouchAdjustKnob(tx, ty, kKStruX, kStruY, kKRBig, g_rings_structure_norm);
1331:main.cpp      ****             TouchAdjustKnob(tx, ty, kKBriX, kBriY, kKRSmall, g_rings_brightness_norm);
1332:main.cpp      ****             TouchAdjustKnob(tx, ty, kKDmpX, kDmpY, kKRSmall, g_rings_damping_norm);
1333:main.cpp      ****             TouchAdjustKnob(tx, ty, kKPosX, kPosY, kKRSmall, g_rings_feedback_norm);
1334:main.cpp      ****             TouchAdjustKnob(tx, ty, kKRevX, kRevY, kKRSmall, g_rings_reverb_mix_norm);
1335:main.cpp      **** 
1336:main.cpp      ****             if(tx >= kGateX && tx <= (kGateX + kGateW) && ty >= kBtnY && ty <= (kBtnY + kBtnH))
1337:main.cpp      ****                 gate_hit = true;
1338:main.cpp      **** 
1339:main.cpp      ****             for(uint8_t i = 0; i < 3u; ++i)
1340:main.cpp      ****             {
1341:main.cpp      ****                 const int16_t bx = static_cast<int16_t>(kModeAX + i * (kModeW + kModeGap));
1342:main.cpp      ****                 if(tx >= bx && tx <= (bx + kModeW) && ty >= kBtnY && ty <= (kBtnY + kBtnH))
1343:main.cpp      ****                 {
1344:main.cpp      ****                     mode_hit = true;
1345:main.cpp      ****                     mode_sel = i;
1346:main.cpp      ****                 }
1347:main.cpp      ****             }
1348:main.cpp      ****         }
1349:main.cpp      ****     }
1350:main.cpp      **** 
1351:main.cpp      ****     if(gate_hit && !g_rings_gate_btn_latch)
1352:main.cpp      ****     {
1353:main.cpp      ****         g_rings_gate           = !g_rings_gate;
1354:main.cpp      ****         g_rings_gate_btn_latch = true;
ARM GAS  /var/folders/9k/zk1mgrrd7wg4__6zvxvr9w8m0000gn/T//ccuDf5uE.s 			page 41


1355:main.cpp      ****     }
1356:main.cpp      ****     else if(!gate_hit)
1357:main.cpp      ****     {
1358:main.cpp      ****         g_rings_gate_btn_latch = false;
1359:main.cpp      ****     }
1360:main.cpp      **** 
1361:main.cpp      ****     if(mode_hit && !g_rings_mode_btn_latch)
1362:main.cpp      ****     {
1363:main.cpp      ****         g_rings_audrey_mode    = static_cast<uint8_t>(mode_sel % 3u);
1364:main.cpp      ****         g_rings_mode_btn_latch = true;
1365:main.cpp      ****     }
1366:main.cpp      ****     else if(!mode_hit)
1367:main.cpp      ****     {
1368:main.cpp      ****         g_rings_mode_btn_latch = false;
1369:main.cpp      ****     }
1370:main.cpp      **** 
1371:main.cpp      ****     g_stream_mode = StreamMode::RINGS_TEST_SQUARE;
1372:main.cpp      ****     g_run_mode    = kUiOnlyVcv ? RunMode::STOP : RunMode::ACTIVE;
1373:main.cpp      **** 
1374:main.cpp      ****     const bool rings_ui_dirty
1375:main.cpp      ****         = !g_rings_ui_cache.valid || touch_active
1376:main.cpp      ****           || DiffEnough(g_rings_ui_cache.pitch_norm, g_rings_pitch_norm)
1377:main.cpp      ****           || DiffEnough(g_rings_ui_cache.structure_norm, g_rings_structure_norm)
1378:main.cpp      ****           || DiffEnough(g_rings_ui_cache.brightness_norm, g_rings_brightness_norm)
1379:main.cpp      ****           || DiffEnough(g_rings_ui_cache.damping_norm, g_rings_damping_norm)
1380:main.cpp      ****           || DiffEnough(g_rings_ui_cache.feedback_norm, g_rings_feedback_norm)
1381:main.cpp      ****           || DiffEnough(g_rings_ui_cache.reverb_norm, g_rings_reverb_mix_norm)
1382:main.cpp      ****           || (g_rings_ui_cache.gate != g_rings_gate)
1383:main.cpp      ****           || (g_rings_ui_cache.mode != g_rings_audrey_mode);
1384:main.cpp      ****     if(!rings_ui_dirty)
1385:main.cpp      ****         return;
1386:main.cpp      **** 
1387:main.cpp      ****     DrawRgb565Image(0,
1388:main.cpp      ****                     static_cast<int16_t>((LCD_Height - rings_panel_h) / 2),
1389:main.cpp      ****                     rings_panel_w,
1390:main.cpp      ****                     rings_panel_h,
1391:main.cpp      ****                     rings_panel_rgb565);
1392:main.cpp      ****     DrawKnob(kKFreqX, kFreqY, kKRBig, g_rings_pitch_norm, "", 0xff4CC3FF);
1393:main.cpp      ****     DrawKnob(kKStruX, kStruY, kKRBig, g_rings_structure_norm, "", 0xff4CF6FF);
1394:main.cpp      ****     DrawKnob(kKBriX, kBriY, kKRSmall, g_rings_brightness_norm, "", 0xffFFD166);
1395:main.cpp      ****     DrawKnob(kKDmpX, kDmpY, kKRSmall, g_rings_damping_norm, "", 0xff8DEB7A);
1396:main.cpp      ****     DrawKnob(kKPosX, kPosY, kKRSmall, g_rings_feedback_norm, "", 0xffFF8FA3);
1397:main.cpp      ****     DrawKnob(kKRevX, kRevY, kKRSmall, g_rings_reverb_mix_norm, "", 0xffC5A3FF);
1398:main.cpp      **** 
1399:main.cpp      ****     LCD_SetColor(g_rings_gate ? 0xff2ECC71 : 0xffAA3344);
1400:main.cpp      ****     LCD_SetColor(LCD_WHITE);
1401:main.cpp      ****     LCD_DrawRect(static_cast<uint16_t>(kGateX), static_cast<uint16_t>(kBtnY), static_cast<uint16_t>
1402:main.cpp      ****     LCD_SetTextFont(&CH_Font16);
1403:main.cpp      ****     LCD_DisplayString(static_cast<uint16_t>(kGateX + 16), static_cast<uint16_t>(kBtnY + 10),
1404:main.cpp      ****                       g_rings_gate ? const_cast<char*>("GATE ON") : const_cast<char*>("GATE OFF"));
1405:main.cpp      **** 
1406:main.cpp      ****     for(uint8_t i = 0; i < 3u; ++i)
1407:main.cpp      ****     {
1408:main.cpp      ****         const int16_t bx = static_cast<int16_t>(kModeAX + i * (kModeW + kModeGap));
1409:main.cpp      ****         LCD_SetColor((g_rings_audrey_mode == i) ? 0xff3B6BFF : 0xff1F2B42);
1410:main.cpp      ****         LCD_SetColor(LCD_WHITE);
1411:main.cpp      ****         LCD_DrawRect(static_cast<uint16_t>(bx), static_cast<uint16_t>(kBtnY), static_cast<uint16_t>
ARM GAS  /var/folders/9k/zk1mgrrd7wg4__6zvxvr9w8m0000gn/T//ccuDf5uE.s 			page 42


1412:main.cpp      ****         LCD_DisplayString(static_cast<uint16_t>(bx + 12), static_cast<uint16_t>(kBtnY + 10),
1413:main.cpp      ****                           (i == 0u) ? const_cast<char*>("AUD A")
1414:main.cpp      ****                                      : ((i == 1u) ? const_cast<char*>("AUD B")
1415:main.cpp      ****                                                    : const_cast<char*>("AUD C")));
1416:main.cpp      ****     }
1417:main.cpp      **** 
1418:main.cpp      ****     LCD_SetColor(0xff2A3A58);
1419:main.cpp      ****     LCD_SetColor(LCD_WHITE);
1420:main.cpp      ****     LCD_DrawRect(static_cast<uint16_t>(kPolyX), static_cast<uint16_t>(kBtnY), static_cast<uint16_t>
1421:main.cpp      ****     LCD_DrawRect(static_cast<uint16_t>(kResoX), static_cast<uint16_t>(kBtnY), static_cast<uint16_t>
1422:main.cpp      ****     LCD_DisplayString(static_cast<uint16_t>(kPolyX + 14), static_cast<uint16_t>(kBtnY + 10), const_
1423:main.cpp      ****     LCD_DisplayString(static_cast<uint16_t>(kResoX + 14), static_cast<uint16_t>(kBtnY + 10), const_
1424:main.cpp      **** 
1425:main.cpp      ****     const float pitch_note = 30.0f + (g_rings_pitch_norm * 54.0f);
1426:main.cpp      ****     const float freq       = MidiToFreq(pitch_note);
1427:main.cpp      ****     LCD_SetColor(0xff101010);
1428:main.cpp      ****     LCD_SetBackColor(0xffE6E6E6);
1429:main.cpp      ****     snprintf(line,
1430:main.cpp      ****              sizeof(line),
1431:main.cpp      ****              "Mode=%s  Freq=%.1fHz  Body=%.2f Nerv=%.2f Decay=%.2f Fb=%.2f Rev=%.2f",
1432:main.cpp      ****              RingsAudreyModeName(g_rings_audrey_mode),
1433:main.cpp      ****              static_cast<double>(freq),
1434:main.cpp      ****              static_cast<double>(g_rings_structure_norm),
1435:main.cpp      ****              static_cast<double>(g_rings_brightness_norm),
1436:main.cpp      ****              static_cast<double>(g_rings_damping_norm),
1437:main.cpp      ****              static_cast<double>(g_rings_feedback_norm),
1438:main.cpp      ****              static_cast<double>(g_rings_reverb_mix_norm));
1439:main.cpp      ****     LCD_DisplayString(8, 458, line);
1440:main.cpp      **** 
1441:main.cpp      ****     g_rings_ui_cache.valid           = true;
1442:main.cpp      ****     g_rings_ui_cache.pitch_norm      = g_rings_pitch_norm;
1443:main.cpp      ****     g_rings_ui_cache.structure_norm  = g_rings_structure_norm;
1444:main.cpp      ****     g_rings_ui_cache.brightness_norm = g_rings_brightness_norm;
1445:main.cpp      ****     g_rings_ui_cache.damping_norm    = g_rings_damping_norm;
1446:main.cpp      ****     g_rings_ui_cache.feedback_norm   = g_rings_feedback_norm;
1447:main.cpp      ****     g_rings_ui_cache.reverb_norm     = g_rings_reverb_mix_norm;
1448:main.cpp      ****     g_rings_ui_cache.gate            = g_rings_gate;
1449:main.cpp      ****     g_rings_ui_cache.mode            = g_rings_audrey_mode;
1450:main.cpp      **** }
1451:main.cpp      **** 
1452:main.cpp      **** static void DrawPlaitsCtrlScene()
1453:main.cpp      **** {
1454:main.cpp      ****     constexpr float kScale = 800.0f / 128.69331f;
1455:main.cpp      ****     constexpr int16_t kPanelY = static_cast<int16_t>((LCD_Height - plaits_panel_h) / 2);
1456:main.cpp      ****     auto PX = [](float y_mm) -> int16_t { return static_cast<int16_t>(y_mm * kScale + 0.5f); };
1457:main.cpp      ****     auto PY = [&](float x_mm) -> int16_t { return static_cast<int16_t>((60.959999f - x_mm) * kScale
1458:main.cpp      ****     constexpr float kRogan3HalfMm = 8.7800f;
1459:main.cpp      ****     constexpr float kRogan1HalfMm = 6.7200f;
1460:main.cpp      **** 
1461:main.cpp      ****     constexpr int16_t kBtnY    = 40;
1462:main.cpp      ****     constexpr int16_t kBtnH    = 34;
1463:main.cpp      ****     constexpr int16_t kGateX   = 8;
1464:main.cpp      ****     constexpr int16_t kGateW   = 118;
1465:main.cpp      ****     constexpr int16_t kModeBtnX = 136;
1466:main.cpp      ****     constexpr int16_t kModeBtnW = 170;
1467:main.cpp      ****     constexpr int16_t kMorphBtnX = 316;
1468:main.cpp      ****     constexpr int16_t kMorphBtnW = 170;
ARM GAS  /var/folders/9k/zk1mgrrd7wg4__6zvxvr9w8m0000gn/T//ccuDf5uE.s 			page 43


1469:main.cpp      ****     constexpr int16_t kModelPlusX = 496;
1470:main.cpp      ****     constexpr int16_t kModelW = 80;
1471:main.cpp      ****     constexpr int16_t kKRBig   = 44;
1472:main.cpp      ****     constexpr int16_t kKRSmall = 33;
1473:main.cpp      ****     const int16_t     kKFreqX  = PX(20.21088f + kRogan3HalfMm);
1474:main.cpp      ****     const int16_t     kKHarmX  = PX(20.21088f + kRogan3HalfMm);
1475:main.cpp      ****     const int16_t     kKTimX   = PX(49.6562f + kRogan1HalfMm);
1476:main.cpp      ****     const int16_t     kKMorX   = PX(49.6562f + kRogan1HalfMm);
1477:main.cpp      ****     const int16_t     kKModelX = PX(14.6539f + kRogan1HalfMm);
1478:main.cpp      ****     const int16_t     kFreqY   = PY(3.1577f + kRogan3HalfMm);
1479:main.cpp      ****     const int16_t     kHarmY   = PY(39.3327f + kRogan3HalfMm);
1480:main.cpp      ****     const int16_t     kTimY    = PY(4.04171f + kRogan1HalfMm);
1481:main.cpp      ****     const int16_t     kMorY    = PY(42.71716f + kRogan1HalfMm);
1482:main.cpp      ****     const int16_t     kModelY  = PY(27.7f + kRogan1HalfMm);
1483:main.cpp      ****     char              line[192];
1484:main.cpp      **** 
1485:main.cpp      ****     if(!g_touch_tone_ctrl_layout_ready)
1486:main.cpp      ****     {
1487:main.cpp      ****         LCD_SetColor(0xff111111);
1488:main.cpp      ****         LCD_SetBackColor(0xff111111);
1489:main.cpp      ****         LCD_Clear();
1490:main.cpp      ****         DrawRgb565Image(0,
1491:main.cpp      ****                         static_cast<int16_t>((LCD_Height - plaits_panel_h) / 2),
1492:main.cpp      ****                         plaits_panel_w,
1493:main.cpp      ****                         plaits_panel_h,
1494:main.cpp      ****                         plaits_panel_rgb565);
1495:main.cpp      ****         LCD_SetTextFont(&CH_Font16);
1496:main.cpp      ****         LCD_SetColor(0xff101010);
1497:main.cpp      ****         LCD_DisplayString(8, 8, const_cast<char*>("PLAITS"));
1498:main.cpp      ****         g_touch_tone_ctrl_layout_ready = true;
1499:main.cpp      ****     }
1500:main.cpp      **** 
1501:main.cpp      ****     g_plaits_model_index = static_cast<uint8_t>(Clampf(g_plaits_model_norm, 0.0f, 1.0f) * 23.0f + 0
1502:main.cpp      **** 
1503:main.cpp      ****     const bool touch_active = (touchInfo.flag != 0u) && (touchInfo.num > 0u);
1504:main.cpp      ****     bool       gate_hit     = false;
1505:main.cpp      ****     bool       model_mode_hit = false;
1506:main.cpp      ****     bool       morph_mode_hit = false;
1507:main.cpp      ****     bool       model_minus_hit = false;
1508:main.cpp      ****     bool       model_plus_hit  = false;
1509:main.cpp      ****     if(touch_active)
1510:main.cpp      ****     {
1511:main.cpp      ****         const int16_t tx = static_cast<int16_t>(touchInfo.x[0]);
1512:main.cpp      ****         const int16_t ty = static_cast<int16_t>(touchInfo.y[0]);
1513:main.cpp      ****         if(ty < static_cast<int16_t>(kTouchSwitchYMin))
1514:main.cpp      ****         {
1515:main.cpp      ****             TouchAdjustKnob(tx, ty, kKFreqX, kFreqY, kKRBig, g_plaits_pitch_norm);
1516:main.cpp      ****             TouchAdjustKnob(tx, ty, kKHarmX, kHarmY, kKRBig, g_plaits_harmonics_norm);
1517:main.cpp      ****             TouchAdjustKnob(tx, ty, kKTimX, kTimY, kKRSmall, g_plaits_timbre_norm);
1518:main.cpp      ****             TouchAdjustKnob(tx, ty, kKMorX, kMorY, kKRSmall, g_plaits_morph_norm);
1519:main.cpp      ****             TouchAdjustKnob(tx, ty, kKModelX, kModelY, kKRSmall, g_plaits_model_norm);
1520:main.cpp      **** 
1521:main.cpp      ****             if(tx >= kGateX && tx <= (kGateX + kGateW) && ty >= kBtnY && ty <= (kBtnY + kBtnH))
1522:main.cpp      ****                 gate_hit = true;
1523:main.cpp      ****             if(tx >= kModeBtnX && tx <= (kModeBtnX + kModeBtnW) && ty >= kBtnY && ty <= (kBtnY + kB
1524:main.cpp      ****                 model_mode_hit = true;
1525:main.cpp      ****             if(tx >= kMorphBtnX && tx <= (kMorphBtnX + kMorphBtnW) && ty >= kBtnY && ty <= (kBtnY +
ARM GAS  /var/folders/9k/zk1mgrrd7wg4__6zvxvr9w8m0000gn/T//ccuDf5uE.s 			page 44


1526:main.cpp      ****                 morph_mode_hit = true;
1527:main.cpp      ****             if(tx >= kModelPlusX && tx <= (kModelPlusX + kModelW) && ty >= kBtnY && ty <= (kBtnY + 
1528:main.cpp      ****                 model_plus_hit = true;
1529:main.cpp      ****             if(tx >= static_cast<int16_t>(kModelPlusX + kModelW + 12)
1530:main.cpp      ****                && tx <= static_cast<int16_t>(kModelPlusX + 2 * kModelW + 12)
1531:main.cpp      ****                && ty >= kBtnY && ty <= (kBtnY + kBtnH))
1532:main.cpp      ****                 model_minus_hit = true;
1533:main.cpp      ****         }
1534:main.cpp      ****     }
1535:main.cpp      **** 
1536:main.cpp      ****     if(gate_hit && !g_plaits_gate_btn_latch)
1537:main.cpp      ****     {
1538:main.cpp      ****         g_plaits_gate           = !g_plaits_gate;
1539:main.cpp      ****         g_plaits_gate_btn_latch = true;
1540:main.cpp      ****     }
1541:main.cpp      ****     else if(!gate_hit)
1542:main.cpp      ****     {
1543:main.cpp      ****         g_plaits_gate_btn_latch = false;
1544:main.cpp      ****     }
1545:main.cpp      **** 
1546:main.cpp      ****     if(model_mode_hit && !g_plaits_model_btn_latch)
1547:main.cpp      ****     {
1548:main.cpp      ****         g_plaits_model_index = static_cast<uint8_t>((g_plaits_model_index + 1u) % 24u);
1549:main.cpp      ****         g_plaits_model_norm = static_cast<float>(g_plaits_model_index) / 23.0f;
1550:main.cpp      ****         g_plaits_model_btn_latch = true;
1551:main.cpp      ****     }
1552:main.cpp      ****     else if(!model_mode_hit)
1553:main.cpp      ****     {
1554:main.cpp      ****         g_plaits_model_btn_latch = false;
1555:main.cpp      ****     }
1556:main.cpp      **** 
1557:main.cpp      ****     if(morph_mode_hit && !g_plaits_morph_btn_latch)
1558:main.cpp      ****     {
1559:main.cpp      ****         g_plaits_morph_mode = static_cast<uint8_t>((g_plaits_morph_mode + 1u) % 5u);
1560:main.cpp      ****         g_plaits_morph_btn_latch = true;
1561:main.cpp      ****     }
1562:main.cpp      ****     else if(!morph_mode_hit)
1563:main.cpp      ****     {
1564:main.cpp      ****         g_plaits_morph_btn_latch = false;
1565:main.cpp      ****     }
1566:main.cpp      **** 
1567:main.cpp      ****     if(model_plus_hit)
1568:main.cpp      ****     {
1569:main.cpp      ****         g_plaits_model_index = static_cast<uint8_t>((g_plaits_model_index + 1u) % 24u);
1570:main.cpp      ****         g_plaits_model_norm = static_cast<float>(g_plaits_model_index) / 23.0f;
1571:main.cpp      ****     }
1572:main.cpp      ****     if(model_minus_hit)
1573:main.cpp      ****     {
1574:main.cpp      ****         g_plaits_model_index = static_cast<uint8_t>((g_plaits_model_index + 23u) % 24u);
1575:main.cpp      ****         g_plaits_model_norm = static_cast<float>(g_plaits_model_index) / 23.0f;
1576:main.cpp      ****     }
1577:main.cpp      **** 
1578:main.cpp      ****     g_stream_mode = StreamMode::PLAITS_TEST_SQUARE;
1579:main.cpp      ****     g_run_mode    = kUiOnlyVcv ? RunMode::STOP : RunMode::ACTIVE;
1580:main.cpp      **** 
1581:main.cpp      ****     const bool plaits_ui_dirty
1582:main.cpp      ****         = !g_plaits_ui_cache.valid || touch_active
ARM GAS  /var/folders/9k/zk1mgrrd7wg4__6zvxvr9w8m0000gn/T//ccuDf5uE.s 			page 45


1583:main.cpp      ****           || DiffEnough(g_plaits_ui_cache.pitch_norm, g_plaits_pitch_norm)
1584:main.cpp      ****           || DiffEnough(g_plaits_ui_cache.timbre_norm, g_plaits_timbre_norm)
1585:main.cpp      ****           || DiffEnough(g_plaits_ui_cache.morph_norm, g_plaits_morph_norm)
1586:main.cpp      ****           || DiffEnough(g_plaits_ui_cache.harmonics_norm, g_plaits_harmonics_norm)
1587:main.cpp      ****           || DiffEnough(g_plaits_ui_cache.model_norm, g_plaits_model_norm)
1588:main.cpp      ****           || (g_plaits_ui_cache.gate != g_plaits_gate)
1589:main.cpp      ****           || (g_plaits_ui_cache.model_index != g_plaits_model_index)
1590:main.cpp      ****           || (g_plaits_ui_cache.morph_mode != g_plaits_morph_mode);
1591:main.cpp      ****     if(!plaits_ui_dirty)
1592:main.cpp      ****         return;
1593:main.cpp      **** 
1594:main.cpp      ****     DrawRgb565Image(0,
1595:main.cpp      ****                     static_cast<int16_t>((LCD_Height - plaits_panel_h) / 2),
1596:main.cpp      ****                     plaits_panel_w,
1597:main.cpp      ****                     plaits_panel_h,
1598:main.cpp      ****                     plaits_panel_rgb565);
1599:main.cpp      ****     DrawKnob(kKFreqX, kFreqY, kKRBig, g_plaits_pitch_norm, "", 0xffFF9AD5);
1600:main.cpp      ****     DrawKnob(kKHarmX, kHarmY, kKRBig, g_plaits_harmonics_norm, "", 0xffFFD166);
1601:main.cpp      ****     DrawKnob(kKTimX, kTimY, kKRSmall, g_plaits_timbre_norm, "", 0xffB38BFF);
1602:main.cpp      ****     DrawKnob(kKMorX, kMorY, kKRSmall, g_plaits_morph_norm, "", 0xff6CDBFF);
1603:main.cpp      ****     DrawKnob(kKModelX, kModelY, kKRSmall, g_plaits_model_norm, "", 0xff7EF29A);
1604:main.cpp      **** 
1605:main.cpp      ****     LCD_SetColor(g_plaits_gate ? 0xffAA66FF : 0xff59306D);
1606:main.cpp      ****     LCD_SetColor(LCD_WHITE);
1607:main.cpp      ****     LCD_DrawRect(static_cast<uint16_t>(kGateX), static_cast<uint16_t>(kBtnY), static_cast<uint16_t>
1608:main.cpp      ****     LCD_DisplayString(static_cast<uint16_t>(kGateX + 14), static_cast<uint16_t>(kBtnY + 10),
1609:main.cpp      ****                       g_plaits_gate ? const_cast<char*>("GATE ON") : const_cast<char*>("GATE OFF"))
1610:main.cpp      **** 
1611:main.cpp      ****     LCD_SetColor(0xff2C2444);
1612:main.cpp      ****     LCD_SetColor(LCD_WHITE);
1613:main.cpp      ****     LCD_DrawRect(static_cast<uint16_t>(kModeBtnX), static_cast<uint16_t>(kBtnY), static_cast<uint16
1614:main.cpp      ****     snprintf(line, sizeof(line), "MODEL NEXT (%02u)", static_cast<unsigned>(g_plaits_model_index));
1615:main.cpp      ****     LCD_DisplayString(static_cast<uint16_t>(kModeBtnX + 10), static_cast<uint16_t>(kBtnY + 10), lin
1616:main.cpp      **** 
1617:main.cpp      ****     LCD_SetColor(0xff2F234C);
1618:main.cpp      ****     LCD_SetColor(LCD_WHITE);
1619:main.cpp      ****     LCD_DrawRect(static_cast<uint16_t>(kMorphBtnX), static_cast<uint16_t>(kBtnY), static_cast<uint1
1620:main.cpp      ****     snprintf(line, sizeof(line), "MORPH MODE: %s", PlaitsMorphModeName(g_plaits_morph_mode));
1621:main.cpp      ****     LCD_DisplayString(static_cast<uint16_t>(kMorphBtnX + 10), static_cast<uint16_t>(kBtnY + 10), li
1622:main.cpp      **** 
1623:main.cpp      ****     LCD_SetColor(0xff173349);
1624:main.cpp      ****     LCD_SetColor(LCD_WHITE);
1625:main.cpp      ****     LCD_DrawRect(static_cast<uint16_t>(kModelPlusX), static_cast<uint16_t>(kBtnY), static_cast<uint
1626:main.cpp      ****     LCD_DrawRect(static_cast<uint16_t>(kModelPlusX + kModelW + 12), static_cast<uint16_t>(kBtnY), s
1627:main.cpp      ****     LCD_DisplayString(static_cast<uint16_t>(kModelPlusX + 36), static_cast<uint16_t>(kBtnY + 10), c
1628:main.cpp      ****     LCD_DisplayString(static_cast<uint16_t>(kModelPlusX + kModelW + 46), static_cast<uint16_t>(kBtn
1629:main.cpp      **** 
1630:main.cpp      ****     const float pitch_note = 36.0f + (g_plaits_pitch_norm * 60.0f);
1631:main.cpp      ****     const float freq       = MidiToFreq(pitch_note);
1632:main.cpp      ****     LCD_SetColor(0xff101010);
1633:main.cpp      ****     LCD_SetBackColor(0xffE6E6E6);
1634:main.cpp      ****     snprintf(line,
1635:main.cpp      ****              sizeof(line),
1636:main.cpp      ****              "Model=%u  Freq=%.1fHz  Timbre=%.2f Morph=%.2f Harm=%.2f  MorphMode=%s",
1637:main.cpp      ****              static_cast<unsigned>(g_plaits_model_index),
1638:main.cpp      ****              static_cast<double>(freq),
1639:main.cpp      ****              static_cast<double>(g_plaits_timbre_norm),
ARM GAS  /var/folders/9k/zk1mgrrd7wg4__6zvxvr9w8m0000gn/T//ccuDf5uE.s 			page 46


1640:main.cpp      ****              static_cast<double>(g_plaits_morph_norm),
1641:main.cpp      ****              static_cast<double>(g_plaits_harmonics_norm),
1642:main.cpp      ****              PlaitsMorphModeName(g_plaits_morph_mode));
1643:main.cpp      ****     LCD_DisplayString(8, 458, line);
1644:main.cpp      **** 
1645:main.cpp      ****     g_plaits_ui_cache.valid          = true;
1646:main.cpp      ****     g_plaits_ui_cache.pitch_norm     = g_plaits_pitch_norm;
1647:main.cpp      ****     g_plaits_ui_cache.timbre_norm    = g_plaits_timbre_norm;
1648:main.cpp      ****     g_plaits_ui_cache.morph_norm     = g_plaits_morph_norm;
1649:main.cpp      ****     g_plaits_ui_cache.harmonics_norm = g_plaits_harmonics_norm;
1650:main.cpp      ****     g_plaits_ui_cache.model_norm     = g_plaits_model_norm;
1651:main.cpp      ****     g_plaits_ui_cache.gate           = g_plaits_gate;
1652:main.cpp      ****     g_plaits_ui_cache.model_index    = g_plaits_model_index;
1653:main.cpp      ****     g_plaits_ui_cache.morph_mode     = g_plaits_morph_mode;
1654:main.cpp      **** }
1655:main.cpp      **** 
1656:main.cpp      **** static void DrawRingsVcvUiScene()
1657:main.cpp      **** {
1658:main.cpp      ****     g_run_mode = RunMode::STOP;
1659:main.cpp      ****     constexpr float kScale = 800.0f / 380.0f;
1660:main.cpp      ****     constexpr int16_t kPanelY = static_cast<int16_t>((LCD_Height - rings_panel_h) / 2u);
1661:main.cpp      ****     auto RX = [](float y_mm) -> int16_t { return static_cast<int16_t>(y_mm * kScale + 0.5f); };
1662:main.cpp      ****     auto RY = [&](float x_mm) -> int16_t { return static_cast<int16_t>((210.0f - x_mm) * kScale + 0
1663:main.cpp      ****     constexpr float kRogan3Half = 25.921875f;
1664:main.cpp      ****     constexpr float kRogan1Half = 19.84180f;
1665:main.cpp      ****     constexpr int16_t kKRBig = 44;
1666:main.cpp      ****     constexpr int16_t kKRSmall = 34;
1667:main.cpp      ****     const int16_t     kKFreqX  = RX(72.0f + kRogan3Half);
1668:main.cpp      ****     const int16_t     kKStruX  = RX(72.0f + kRogan3Half);
1669:main.cpp      ****     const int16_t     kKBriX   = RX(158.0f + kRogan1Half);
1670:main.cpp      ****     const int16_t     kKDmpX   = RX(158.0f + kRogan1Half);
1671:main.cpp      ****     const int16_t     kKPosX   = RX(158.0f + kRogan1Half);
1672:main.cpp      ****     const int16_t     kFreqY   = RY(29.0f + kRogan3Half);
1673:main.cpp      ****     const int16_t     kStruY   = RY(126.0f + kRogan3Half);
1674:main.cpp      ****     const int16_t     kBriY    = RY(13.0f + kRogan1Half);
1675:main.cpp      ****     const int16_t     kDmpY    = RY(83.0f + kRogan1Half);
1676:main.cpp      ****     const int16_t     kPosY    = RY(154.0f + kRogan1Half);
1677:main.cpp      ****     const int16_t     kPolyX   = RX(244.5f);
1678:main.cpp      ****     const int16_t     kPolyY   = RY(175.0f);
1679:main.cpp      ****     const int16_t     kResoX   = RX(244.5f);
1680:main.cpp      ****     const int16_t     kResoY   = RY(140.0f);
1681:main.cpp      ****     constexpr int16_t kBtnR    = 18;
1682:main.cpp      ****     constexpr float   kStart   = -2.35619449f;
1683:main.cpp      ****     constexpr float   kEnd     = 2.35619449f;
1684:main.cpp      ****     char              line[160];
1685:main.cpp      **** 
1686:main.cpp      ****     const bool touch_active = (touchInfo.flag != 0u) && (touchInfo.num > 0u);
1687:main.cpp      ****     bool       poly_hit     = false;
1688:main.cpp      ****     bool       reso_hit     = false;
1689:main.cpp      ****     if(touch_active)
1690:main.cpp      ****     {
1691:main.cpp      ****         const int16_t tx = static_cast<int16_t>(touchInfo.x[0]);
1692:main.cpp      ****         const int16_t ty = static_cast<int16_t>(touchInfo.y[0]);
1693:main.cpp      ****         if(ty < static_cast<int16_t>(kTouchSwitchYMin))
1694:main.cpp      ****         {
1695:main.cpp      ****             TouchAdjustKnob(tx, ty, kKFreqX, kFreqY, kKRBig, g_rings_pitch_norm);
1696:main.cpp      ****             TouchAdjustKnob(tx, ty, kKStruX, kStruY, kKRBig, g_rings_structure_norm);
ARM GAS  /var/folders/9k/zk1mgrrd7wg4__6zvxvr9w8m0000gn/T//ccuDf5uE.s 			page 47


1697:main.cpp      ****             TouchAdjustKnob(tx, ty, kKBriX, kBriY, kKRSmall, g_rings_brightness_norm);
1698:main.cpp      ****             TouchAdjustKnob(tx, ty, kKDmpX, kDmpY, kKRSmall, g_rings_damping_norm);
1699:main.cpp      ****             TouchAdjustKnob(tx, ty, kKPosX, kPosY, kKRSmall, g_rings_feedback_norm);
1700:main.cpp      ****             const int32_t pdx = static_cast<int32_t>(tx) - static_cast<int32_t>(kPolyX);
1701:main.cpp      ****             const int32_t pdy = static_cast<int32_t>(ty) - static_cast<int32_t>(kPolyY);
1702:main.cpp      ****             const int32_t rdx = static_cast<int32_t>(tx) - static_cast<int32_t>(kResoX);
1703:main.cpp      ****             const int32_t rdy = static_cast<int32_t>(ty) - static_cast<int32_t>(kResoY);
1704:main.cpp      ****             poly_hit = (pdx * pdx + pdy * pdy) <= (kBtnR * kBtnR);
1705:main.cpp      ****             reso_hit = (rdx * rdx + rdy * rdy) <= (kBtnR * kBtnR);
1706:main.cpp      ****         }
1707:main.cpp      ****     }
1708:main.cpp      ****     if(poly_hit && !g_rings_mode_btn_latch)
1709:main.cpp      ****     {
1710:main.cpp      ****         g_rings_audrey_mode = static_cast<uint8_t>((g_rings_audrey_mode + 1u) % 3u);
1711:main.cpp      ****         g_rings_mode_btn_latch = true;
1712:main.cpp      ****     }
1713:main.cpp      ****     else if(!poly_hit)
1714:main.cpp      ****     {
1715:main.cpp      ****         g_rings_mode_btn_latch = false;
1716:main.cpp      ****     }
1717:main.cpp      ****     if(reso_hit && !g_rings_gate_btn_latch)
1718:main.cpp      ****     {
1719:main.cpp      ****         g_rings_gate = !g_rings_gate;
1720:main.cpp      ****         g_rings_gate_btn_latch = true;
1721:main.cpp      ****     }
1722:main.cpp      ****     else if(!reso_hit)
1723:main.cpp      ****     {
1724:main.cpp      ****         g_rings_gate_btn_latch = false;
1725:main.cpp      ****     }
1726:main.cpp      **** 
1727:main.cpp      ****     DrawRgb565Image(0,
1728:main.cpp      ****                     static_cast<int16_t>((LCD_Height - rings_panel_h) / 2),
1729:main.cpp      ****                     rings_panel_w,
1730:main.cpp      ****                     rings_panel_h,
1731:main.cpp      ****                     rings_panel_rgb565);
1732:main.cpp      ****     const float freq_angle = kStart + Clampf(g_rings_pitch_norm, 0.0f, 1.0f) * (kEnd - kStart);
1733:main.cpp      ****     const float stru_angle = kStart + Clampf(g_rings_structure_norm, 0.0f, 1.0f) * (kEnd - kStart);
1734:main.cpp      ****     const float bri_angle = kStart + Clampf(g_rings_brightness_norm, 0.0f, 1.0f) * (kEnd - kStart);
1735:main.cpp      ****     const float dmp_angle = kStart + Clampf(g_rings_damping_norm, 0.0f, 1.0f) * (kEnd - kStart);
1736:main.cpp      ****     const float pos_angle = kStart + Clampf(g_rings_feedback_norm, 0.0f, 1.0f) * (kEnd - kStart);
1737:main.cpp      **** 
1738:main.cpp      ****     DrawRotatedRgbaSprite(vcv_knob_big_rgba, vcv_knob_big_w, vcv_knob_big_h, kKFreqX, kFreqY, freq_
1739:main.cpp      ****     DrawRotatedRgbaSprite(vcv_knob_big_rgba, vcv_knob_big_w, vcv_knob_big_h, kKStruX, kStruY, stru_
1740:main.cpp      ****     DrawRotatedRgbaSprite(vcv_knob_small_rgba, vcv_knob_small_w, vcv_knob_small_h, kKBriX, kBriY, b
1741:main.cpp      ****     DrawRotatedRgbaSprite(vcv_knob_small_rgba, vcv_knob_small_w, vcv_knob_small_h, kKDmpX, kDmpY, d
1742:main.cpp      ****     DrawRotatedRgbaSprite(vcv_knob_small_rgba, vcv_knob_small_w, vcv_knob_small_h, kKPosX, kPosY, p
1743:main.cpp      **** 
1744:main.cpp      ****     LCD_SetColor(g_rings_audrey_mode != 0u ? 0xffF2F2F2 : 0xff606060);
1745:main.cpp      ****     LCD_FillCircle(static_cast<uint16_t>(kPolyX), static_cast<uint16_t>(kPolyY), 5u);
1746:main.cpp      ****     LCD_SetColor(g_rings_gate ? 0xffF2F2F2 : 0xff606060);
1747:main.cpp      ****     LCD_FillCircle(static_cast<uint16_t>(kResoX), static_cast<uint16_t>(kResoY), 5u);
1748:main.cpp      **** 
1749:main.cpp      ****     LCD_SetColor(0xff101010);
1750:main.cpp      ****     LCD_SetBackColor(0xffE6E6E6);
1751:main.cpp      ****     snprintf(line, sizeof(line), "RINGS_VCV_UI  F=%.2f S=%.2f B=%.2f D=%.2f P=%.2f",
1752:main.cpp      ****              static_cast<double>(g_rings_pitch_norm),
1753:main.cpp      ****              static_cast<double>(g_rings_structure_norm),
ARM GAS  /var/folders/9k/zk1mgrrd7wg4__6zvxvr9w8m0000gn/T//ccuDf5uE.s 			page 48


1754:main.cpp      ****              static_cast<double>(g_rings_brightness_norm),
1755:main.cpp      ****              static_cast<double>(g_rings_damping_norm),
1756:main.cpp      ****              static_cast<double>(g_rings_feedback_norm));
1757:main.cpp      ****     LCD_DisplayString(8, 458, line);
1758:main.cpp      **** }
1759:main.cpp      **** 
1760:main.cpp      **** static void DrawPlaitsVcvUiScene()
1761:main.cpp      **** {
1762:main.cpp      ****     g_run_mode = RunMode::STOP;
1763:main.cpp      ****     constexpr float kScale = 800.0f / 128.69331f;
1764:main.cpp      ****     constexpr int16_t kPanelY = static_cast<int16_t>((LCD_Height - plaits_panel_h) / 2u);
1765:main.cpp      ****     auto PX = [](float y_mm) -> int16_t { return static_cast<int16_t>(y_mm * kScale + 0.5f); };
1766:main.cpp      ****     auto PY = [&](float x_mm) -> int16_t { return static_cast<int16_t>((60.959999f - x_mm) * kScale
1767:main.cpp      ****     constexpr float kRogan3HalfMm = 8.7800f;
1768:main.cpp      ****     constexpr float kRogan1HalfMm = 6.7200f;
1769:main.cpp      ****     constexpr int16_t kKRBig = 44;
1770:main.cpp      ****     constexpr int16_t kKRSmall = 34;
1771:main.cpp      ****     const int16_t     kKFreqX  = PX(20.21088f + kRogan3HalfMm);
1772:main.cpp      ****     const int16_t     kKHarmX  = PX(20.21088f + kRogan3HalfMm);
1773:main.cpp      ****     const int16_t     kKTimX   = PX(49.6562f + kRogan1HalfMm);
1774:main.cpp      ****     const int16_t     kKMorX   = PX(49.6562f + kRogan1HalfMm);
1775:main.cpp      ****     const int16_t     kFreqY   = PY(3.1577f + kRogan3HalfMm);
1776:main.cpp      ****     const int16_t     kHarmY   = PY(39.3327f + kRogan3HalfMm);
1777:main.cpp      ****     const int16_t     kTimY    = PY(4.04171f + kRogan1HalfMm);
1778:main.cpp      ****     const int16_t     kMorY    = PY(42.71716f + kRogan1HalfMm);
1779:main.cpp      ****     const int16_t     kModelBtn1X = PX(15.8f);
1780:main.cpp      ****     const int16_t     kModelBtn2X = PX(22.0f);
1781:main.cpp      ****     const int16_t     kModelBtnY  = PY(27.5f);
1782:main.cpp      ****     constexpr int16_t kModelBtnR = 11;
1783:main.cpp      ****     constexpr float   kStart = -2.35619449f;
1784:main.cpp      ****     constexpr float   kEnd   = 2.35619449f;
1785:main.cpp      ****     char              line[160];
1786:main.cpp      **** 
1787:main.cpp      ****     g_plaits_model_index = static_cast<uint8_t>(Clampf(g_plaits_model_norm, 0.0f, 1.0f) * 23.0f + 0
1788:main.cpp      ****     const bool touch_active = (touchInfo.flag != 0u) && (touchInfo.num > 0u);
1789:main.cpp      ****     bool       model_up_hit = false;
1790:main.cpp      ****     bool       model_dn_hit = false;
1791:main.cpp      ****     if(touch_active)
1792:main.cpp      ****     {
1793:main.cpp      ****         const int16_t tx = static_cast<int16_t>(touchInfo.x[0]);
1794:main.cpp      ****         const int16_t ty = static_cast<int16_t>(touchInfo.y[0]);
1795:main.cpp      ****         if(ty < static_cast<int16_t>(kTouchSwitchYMin))
1796:main.cpp      ****         {
1797:main.cpp      ****             TouchAdjustKnob(tx, ty, kKFreqX, kFreqY, kKRBig, g_plaits_pitch_norm);
1798:main.cpp      ****             TouchAdjustKnob(tx, ty, kKHarmX, kHarmY, kKRBig, g_plaits_harmonics_norm);
1799:main.cpp      ****             TouchAdjustKnob(tx, ty, kKTimX, kTimY, kKRSmall, g_plaits_timbre_norm);
1800:main.cpp      ****             TouchAdjustKnob(tx, ty, kKMorX, kMorY, kKRSmall, g_plaits_morph_norm);
1801:main.cpp      ****             const int32_t dx1 = static_cast<int32_t>(tx) - static_cast<int32_t>(kModelBtn1X);
1802:main.cpp      ****             const int32_t dy1 = static_cast<int32_t>(ty) - static_cast<int32_t>(kModelBtnY);
1803:main.cpp      ****             const int32_t dx2 = static_cast<int32_t>(tx) - static_cast<int32_t>(kModelBtn2X);
1804:main.cpp      ****             const int32_t dy2 = static_cast<int32_t>(ty) - static_cast<int32_t>(kModelBtnY);
1805:main.cpp      ****             model_up_hit = (dx1 * dx1 + dy1 * dy1) <= (kModelBtnR * kModelBtnR);
1806:main.cpp      ****             model_dn_hit = (dx2 * dx2 + dy2 * dy2) <= (kModelBtnR * kModelBtnR);
1807:main.cpp      ****         }
1808:main.cpp      ****     }
1809:main.cpp      ****     if(model_up_hit && !g_plaits_model_btn_latch)
1810:main.cpp      ****     {
ARM GAS  /var/folders/9k/zk1mgrrd7wg4__6zvxvr9w8m0000gn/T//ccuDf5uE.s 			page 49


1811:main.cpp      ****         g_plaits_model_index = static_cast<uint8_t>((g_plaits_model_index + 1u) % 24u);
1812:main.cpp      ****         g_plaits_model_norm = static_cast<float>(g_plaits_model_index) / 23.0f;
1813:main.cpp      ****         g_plaits_model_btn_latch = true;
1814:main.cpp      ****     }
1815:main.cpp      ****     else if(model_dn_hit && !g_plaits_model_btn_latch)
1816:main.cpp      ****     {
1817:main.cpp      ****         g_plaits_model_index = static_cast<uint8_t>((g_plaits_model_index + 23u) % 24u);
1818:main.cpp      ****         g_plaits_model_norm = static_cast<float>(g_plaits_model_index) / 23.0f;
1819:main.cpp      ****         g_plaits_model_btn_latch = true;
1820:main.cpp      ****     }
1821:main.cpp      ****     else if(!model_up_hit && !model_dn_hit)
1822:main.cpp      ****     {
1823:main.cpp      ****         g_plaits_model_btn_latch = false;
1824:main.cpp      ****     }
1825:main.cpp      **** 
1826:main.cpp      ****     DrawRgb565Image(0,
1827:main.cpp      ****                     static_cast<int16_t>((LCD_Height - plaits_panel_h) / 2),
1828:main.cpp      ****                     plaits_panel_w,
1829:main.cpp      ****                     plaits_panel_h,
1830:main.cpp      ****                     plaits_panel_rgb565);
1831:main.cpp      ****     const float freq_angle = kStart + Clampf(g_plaits_pitch_norm, 0.0f, 1.0f) * (kEnd - kStart);
1832:main.cpp      ****     const float harm_angle = kStart + Clampf(g_plaits_harmonics_norm, 0.0f, 1.0f) * (kEnd - kStart)
1833:main.cpp      ****     const float tim_angle  = kStart + Clampf(g_plaits_timbre_norm, 0.0f, 1.0f) * (kEnd - kStart);
1834:main.cpp      ****     const float mor_angle  = kStart + Clampf(g_plaits_morph_norm, 0.0f, 1.0f) * (kEnd - kStart);
1835:main.cpp      **** 
1836:main.cpp      ****     DrawRotatedRgbaSprite(vcv_knob_big_rgba, vcv_knob_big_w, vcv_knob_big_h, kKFreqX, kFreqY, freq_
1837:main.cpp      ****     DrawRotatedRgbaSprite(vcv_knob_big_rgba, vcv_knob_big_w, vcv_knob_big_h, kKHarmX, kHarmY, harm_
1838:main.cpp      ****     DrawRotatedRgbaSprite(vcv_knob_small_rgba, vcv_knob_small_w, vcv_knob_small_h, kKTimX, kTimY, t
1839:main.cpp      ****     DrawRotatedRgbaSprite(vcv_knob_small_rgba, vcv_knob_small_w, vcv_knob_small_h, kKMorX, kMorY, m
1840:main.cpp      **** 
1841:main.cpp      ****     LCD_SetColor(model_up_hit ? 0xffF2F2F2 : 0xff6A6A6A);
1842:main.cpp      ****     LCD_FillCircle(static_cast<uint16_t>(kModelBtn1X), static_cast<uint16_t>(kModelBtnY), 5u);
1843:main.cpp      ****     LCD_SetColor(model_dn_hit ? 0xffF2F2F2 : 0xff6A6A6A);
1844:main.cpp      ****     LCD_FillCircle(static_cast<uint16_t>(kModelBtn2X), static_cast<uint16_t>(kModelBtnY), 5u);
1845:main.cpp      **** 
1846:main.cpp      ****     LCD_SetColor(0xff101010);
1847:main.cpp      ****     LCD_SetBackColor(0xffE6E6E6);
1848:main.cpp      ****     snprintf(line, sizeof(line), "PLAITS_VCV_UI  Model=%u P=%.2f H=%.2f T=%.2f M=%.2f",
1849:main.cpp      ****              static_cast<unsigned>(g_plaits_model_index),
1850:main.cpp      ****              static_cast<double>(g_plaits_pitch_norm),
1851:main.cpp      ****              static_cast<double>(g_plaits_harmonics_norm),
1852:main.cpp      ****              static_cast<double>(g_plaits_timbre_norm),
1853:main.cpp      ****              static_cast<double>(g_plaits_morph_norm));
1854:main.cpp      ****     LCD_DisplayString(8, 458, line);
1855:main.cpp      **** }
1856:main.cpp      **** 
1857:main.cpp      **** static void SceneApplyStyle()
1858:main.cpp      **** {
1859:main.cpp      ****     g_touch_demo_layout_ready = false;
1860:main.cpp      ****     g_touch_paint_layout_ready = false;
1861:main.cpp      ****     g_touch_tone_ctrl_layout_ready = false;
1862:main.cpp      ****     g_rings_ui_cache.valid = false;
1863:main.cpp      ****     g_plaits_ui_cache.valid = false;
1864:main.cpp      ****     memset(g_vis_l, 0, sizeof(g_vis_l));
1865:main.cpp      ****     memset(g_vis_r, 0, sizeof(g_vis_r));
1866:main.cpp      ****     g_vis_wr = 0;
1867:main.cpp      ****     LCD_SetColor(LCD_BLACK);
ARM GAS  /var/folders/9k/zk1mgrrd7wg4__6zvxvr9w8m0000gn/T//ccuDf5uE.s 			page 50


1868:main.cpp      ****     LCD_Clear();
1869:main.cpp      ****     switch(g_ui_scene)
1870:main.cpp      ****     {
1871:main.cpp      ****         case UiScene::SCOPE: break;
1872:main.cpp      ****         case UiScene::VECTOR: DrawModeHeader("TLQ VECTORSCOPE", LCD_BLACK, LCD_BLUE); break;
1873:main.cpp      ****         case UiScene::SPECTRUM: DrawModeHeader("TLQ SPECTRUM", LCD_BLACK, LCD_CYAN); break;
1874:main.cpp      ****         case UiScene::NEON: DrawModeHeader("TLQ NEON WAVE", LCD_BLACK, 0xffB060FF); break;
1875:main.cpp      ****         case UiScene::ORBIT: DrawModeHeader("TLQ ORBIT", LCD_BLACK, 0xff5FC7FF); break;
1876:main.cpp      ****         case UiScene::RINGS_CTRL: break;
1877:main.cpp      ****         case UiScene::PLAITS_CTRL: break;
1878:main.cpp      ****         case UiScene::RINGS_VCV_UI: break;
1879:main.cpp      ****         case UiScene::PLAITS_VCV_UI: break;
1880:main.cpp      ****         default: break;
1881:main.cpp      ****     }
1882:main.cpp      **** }
1883:main.cpp      **** 
1884:main.cpp      **** static void DrawTouchOverlay()
1885:main.cpp      **** {
1886:main.cpp      ****     char line[128];
1887:main.cpp      ****     LCD_SetColor(0xff101010);
1888:main.cpp      ****     LCD_FillRect(0, 372, LCD_Width, 108);
1889:main.cpp      ****     LCD_SetColor(0xff404040);
1890:main.cpp      ****     LCD_DrawRect(8, 376, LCD_Width - 16, 96);
1891:main.cpp      **** 
1892:main.cpp      ****     LCD_SetColor(LCD_WHITE);
1893:main.cpp      ****     LCD_SetTextFont(&CH_Font16);
1894:main.cpp      ****     snprintf(line, sizeof(line), "Mode:%s  TouchNum:%u",
1895:main.cpp      ****              UiSceneName(g_ui_scene),
1896:main.cpp      ****              static_cast<unsigned>(touchInfo.num));
1897:main.cpp      ****     LCD_DisplayString(14, 386, line);
1898:main.cpp      **** 
1899:main.cpp      ****     snprintf(line,
1900:main.cpp      ****              sizeof(line),
1901:main.cpp      ****              "X0:%u Y0:%u  X1:%u Y1:%u",
1902:main.cpp      ****              static_cast<unsigned>(touchInfo.x[0]),
1903:main.cpp      ****              static_cast<unsigned>(touchInfo.y[0]),
1904:main.cpp      ****              static_cast<unsigned>(touchInfo.x[1]),
1905:main.cpp      ****              static_cast<unsigned>(touchInfo.y[1]));
1906:main.cpp      ****     LCD_DisplayString(14, 412, line);
1907:main.cpp      **** 
1908:main.cpp      ****     LCD_DisplayString(14, 438, const_cast<char*>("Touch bottom area: switch mode"));
1909:main.cpp      **** }
1910:main.cpp      **** 
1911:main.cpp      **** static void RenderUiFrame(float left, float right)
1912:main.cpp      **** {
1913:main.cpp      ****     VisPushSample(left, right);
1914:main.cpp      ****     g_phase_l = Wrap01(g_phase_l + 0.0031f);
1915:main.cpp      ****     g_phase_r = Wrap01(g_phase_r + 0.0023f);
1916:main.cpp      **** 
1917:main.cpp      ****     switch(g_ui_scene)
1918:main.cpp      ****     {
1919:main.cpp      ****         case UiScene::SCOPE: DrawScopeScene(); break;
1920:main.cpp      ****         case UiScene::VECTOR: DrawVectorScene(); break;
1921:main.cpp      ****         case UiScene::SPECTRUM: DrawSpectrumScene(); break;
1922:main.cpp      ****         case UiScene::NEON: DrawNeonScene(); break;
1923:main.cpp      ****         case UiScene::ORBIT: DrawOrbitScene(); break;
1924:main.cpp      ****         case UiScene::RINGS_CTRL: DrawRingsCtrlScene(); break;
ARM GAS  /var/folders/9k/zk1mgrrd7wg4__6zvxvr9w8m0000gn/T//ccuDf5uE.s 			page 51


1925:main.cpp      ****         case UiScene::PLAITS_CTRL: DrawPlaitsCtrlScene(); break;
1926:main.cpp      ****         case UiScene::RINGS_VCV_UI: DrawRingsVcvUiScene(); break;
1927:main.cpp      ****         case UiScene::PLAITS_VCV_UI: DrawPlaitsVcvUiScene(); break;
1928:main.cpp      ****         default: break;
1929:main.cpp      ****     }
1930:main.cpp      ****     if(g_ui_scene == UiScene::SCOPE
1931:main.cpp      ****        || g_ui_scene == UiScene::RINGS_CTRL
1932:main.cpp      ****        || g_ui_scene == UiScene::PLAITS_CTRL
1933:main.cpp      ****        || g_ui_scene == UiScene::RINGS_VCV_UI
1934:main.cpp      ****        || g_ui_scene == UiScene::PLAITS_VCV_UI)
1935:main.cpp      ****         return;
1936:main.cpp      **** 
1937:main.cpp      ****     static uint8_t overlay_div = 0;
1938:main.cpp      ****     overlay_div++;
1939:main.cpp      ****     if(overlay_div >= 3u)
1940:main.cpp      ****     {
1941:main.cpp      ****         overlay_div = 0;
1942:main.cpp      ****         DrawTouchOverlay();
1943:main.cpp      ****     }
1944:main.cpp      **** }
1945:main.cpp      **** 
1946:main.cpp      **** static void UartPrint(const char* format, ...)
1947:main.cpp      **** {
 163              		.loc 14 1947 1 is_stmt 1 view -0
 164              		.cfi_startproc
 165              		@ args = 4, pretend = 16, frame = 392
 166              		@ frame_needed = 0, uses_anonymous_args = 1
1948:main.cpp      ****     char    buffer[192];
 167              		.loc 14 1948 5 view .LVU25
1949:main.cpp      ****     va_list va;
 168              		.loc 14 1949 5 view .LVU26
1950:main.cpp      ****     va_start(va, format);
 169              		.loc 14 1950 5 view .LVU27
1947:main.cpp      ****     char    buffer[192];
 170              		.loc 14 1947 1 is_stmt 0 view .LVU28
 171 0000 0FB4     		push	{r0, r1, r2, r3}
 172              		.cfi_def_cfa_offset 16
 173              		.cfi_offset 0, -16
 174              		.cfi_offset 1, -12
 175              		.cfi_offset 2, -8
 176              		.cfi_offset 3, -4
 177 0002 10B5     		push	{r4, lr}
 178              		.cfi_def_cfa_offset 24
 179              		.cfi_offset 4, -24
 180              		.cfi_offset 14, -20
 181 0004 E2B0     		sub	sp, sp, #392
 182              		.cfi_def_cfa_offset 416
1951:main.cpp      ****     const int written = vsnprintf(buffer, sizeof(buffer), format, va);
 183              		.loc 14 1951 34 view .LVU29
 184 0006 C021     		movs	r1, #192
1947:main.cpp      ****     char    buffer[192];
 185              		.loc 14 1947 1 view .LVU30
 186 0008 64AB     		add	r3, sp, #400
 187              		.loc 14 1951 34 view .LVU31
 188 000a 02A8     		add	r0, sp, #8
1947:main.cpp      ****     char    buffer[192];
 189              		.loc 14 1947 1 view .LVU32
ARM GAS  /var/folders/9k/zk1mgrrd7wg4__6zvxvr9w8m0000gn/T//ccuDf5uE.s 			page 52


 190 000c 53F8042B 		ldr	r2, [r3], #4
1950:main.cpp      ****     va_start(va, format);
 191              		.loc 14 1950 5 view .LVU33
 192 0010 0193     		str	r3, [sp, #4]
 193              		.loc 14 1951 5 is_stmt 1 view .LVU34
 194              		.loc 14 1951 34 is_stmt 0 view .LVU35
 195 0012 FFF7FEFF 		bl	vsnprintf
 196              	.LVL4:
1952:main.cpp      ****     va_end(va);
 197              		.loc 14 1952 5 is_stmt 1 view .LVU36
1953:main.cpp      ****     if(written <= 0)
 198              		.loc 14 1953 5 view .LVU37
 199 0016 041E     		subs	r4, r0, #0
 200 0018 24DD     		ble	.L5
1954:main.cpp      ****         return;
1955:main.cpp      **** 
1956:main.cpp      ****     size_t len = static_cast<size_t>(written);
 201              		.loc 14 1956 5 view .LVU38
 202              	.LVL5:
1957:main.cpp      ****     if(len >= sizeof(buffer))
 203              		.loc 14 1957 5 view .LVU39
1958:main.cpp      ****         len = sizeof(buffer) - 1;
1959:main.cpp      **** 
1960:main.cpp      ****     if(g_uart_ready)
 204              		.loc 14 1960 5 is_stmt 0 view .LVU40
 205 001a 184B     		ldr	r3, .L28
 206 001c BF2C     		cmp	r4, #191
 207 001e 1B78     		ldrb	r3, [r3]	@ zero_extendqisi2
 208 0020 28BF     		it	cs
 209 0022 BF24     		movcs	r4, #191
 210              	.LVL6:
 211              		.loc 14 1960 5 is_stmt 1 view .LVU41
 212 0024 1BBB     		cbnz	r3, .L26
 213              	.LVL7:
 214              	.L8:
1961:main.cpp      ****         debug_uart.BlockingTransmit(reinterpret_cast<uint8_t*>(buffer), len, 10);
1962:main.cpp      **** 
1963:main.cpp      ****     char line[192];
 215              		.loc 14 1963 5 view .LVU42
1964:main.cpp      ****     size_t copy_len = len;
 216              		.loc 14 1964 5 view .LVU43
1965:main.cpp      ****     while(copy_len > 0
 217              		.loc 14 1965 5 view .LVU44
1966:main.cpp      ****           && (buffer[copy_len - 1] == '\n' || buffer[copy_len - 1] == '\r'))
 218              		.loc 14 1966 11 view .LVU45
 219 0026 631E     		subs	r3, r4, #1
 220 0028 02AA     		add	r2, sp, #8
 221 002a D118     		adds	r1, r2, r3
 222              	.LVL8:
 223              	.L9:
1965:main.cpp      ****     while(copy_len > 0
 224              		.loc 14 1965 5 discriminator 1 view .LVU46
 225              		.loc 14 1966 11 discriminator 1 view .LVU47
 226              		.loc 14 1966 34 is_stmt 0 discriminator 1 view .LVU48
 227 002c 11F80129 		ldrb	r2, [r1], #-1	@ zero_extendqisi2
 228 0030 2046     		mov	r0, r4
 229              		.loc 14 1966 31 discriminator 1 view .LVU49
ARM GAS  /var/folders/9k/zk1mgrrd7wg4__6zvxvr9w8m0000gn/T//ccuDf5uE.s 			page 53


 230 0032 1C46     		mov	r4, r3
 231              	.LVL9:
 232              		.loc 14 1966 44 discriminator 1 view .LVU50
 233 0034 0D2A     		cmp	r2, #13
 234 0036 01D0     		beq	.L11
 235 0038 0A2A     		cmp	r2, #10
 236 003a 02D1     		bne	.L27
 237              	.L11:
 238              		.loc 14 1966 11 view .LVU51
 239 003c 13B1     		cbz	r3, .L10
 240 003e 013B     		subs	r3, r3, #1
 241 0040 F4E7     		b	.L9
 242              	.L27:
 243 0042 0446     		mov	r4, r0
 244              	.L10:
1967:main.cpp      ****     {
1968:main.cpp      ****         copy_len--;
1969:main.cpp      ****     }
1970:main.cpp      ****     if(copy_len >= sizeof(line))
 245              		.loc 14 1970 5 is_stmt 1 view .LVU52
 246              	.LVL10:
1971:main.cpp      ****         copy_len = sizeof(line) - 1;
1972:main.cpp      ****     memcpy(line, buffer, copy_len);
 247              		.loc 14 1972 5 view .LVU53
 248              		.loc 14 1972 11 is_stmt 0 view .LVU54
 249 0044 02A9     		add	r1, sp, #8
 250 0046 2246     		mov	r2, r4
 251 0048 32A8     		add	r0, sp, #200
 252 004a FFF7FEFF 		bl	memcpy
 253              	.LVL11:
1973:main.cpp      ****     line[copy_len] = '\0';
 254              		.loc 14 1973 5 is_stmt 1 view .LVU55
 255              		.loc 14 1973 20 is_stmt 0 view .LVU56
 256 004e 04F5C473 		add	r3, r4, #392
 257              	.LBB1138:
 258              	.LBB1139:
  23:../libdaisy_IIT6/libDaisy/src/daisy_seed.h **** 
  24:../libdaisy_IIT6/libDaisy/src/daisy_seed.h ****     /** This function used to provide a pre-initialization configuraiton 
  25:../libdaisy_IIT6/libDaisy/src/daisy_seed.h ****      *  it has since been deprecated, and does nothing.
  26:../libdaisy_IIT6/libDaisy/src/daisy_seed.h ****      */
  27:../libdaisy_IIT6/libDaisy/src/daisy_seed.h ****     void Configure();
  28:../libdaisy_IIT6/libDaisy/src/daisy_seed.h **** 
  29:../libdaisy_IIT6/libDaisy/src/daisy_seed.h ****     /** 
  30:../libdaisy_IIT6/libDaisy/src/daisy_seed.h ****     Initializes the Daisy Seed and the following peripherals:
  31:../libdaisy_IIT6/libDaisy/src/daisy_seed.h ****     SDRAM, QSPI, 24-bit 48kHz Audio via AK4556, Internal USB,
  32:../libdaisy_IIT6/libDaisy/src/daisy_seed.h ****     as well as the built-in LED and Testpoint.
  33:../libdaisy_IIT6/libDaisy/src/daisy_seed.h **** 
  34:../libdaisy_IIT6/libDaisy/src/daisy_seed.h ****     ADCs, DACs, and other special peripherals (such as I2C, SPI, etc.)
  35:../libdaisy_IIT6/libDaisy/src/daisy_seed.h ****     can be initialized using their specific initializers within libdaisy
  36:../libdaisy_IIT6/libDaisy/src/daisy_seed.h ****     for a specific application.
  37:../libdaisy_IIT6/libDaisy/src/daisy_seed.h ****     */
  38:../libdaisy_IIT6/libDaisy/src/daisy_seed.h ****     void Init(bool boost = false);
  39:../libdaisy_IIT6/libDaisy/src/daisy_seed.h **** 
  40:../libdaisy_IIT6/libDaisy/src/daisy_seed.h ****     /** 
  41:../libdaisy_IIT6/libDaisy/src/daisy_seed.h ****     Deinitializes all peripherals automatically handled by `Init`.
  42:../libdaisy_IIT6/libDaisy/src/daisy_seed.h ****     */
  43:../libdaisy_IIT6/libDaisy/src/daisy_seed.h ****     void DeInit();
ARM GAS  /var/folders/9k/zk1mgrrd7wg4__6zvxvr9w8m0000gn/T//ccuDf5uE.s 			page 54


  44:../libdaisy_IIT6/libDaisy/src/daisy_seed.h **** 
  45:../libdaisy_IIT6/libDaisy/src/daisy_seed.h ****     /** 
  46:../libdaisy_IIT6/libDaisy/src/daisy_seed.h ****     Wait some ms before going on.
  47:../libdaisy_IIT6/libDaisy/src/daisy_seed.h ****     \param del Delay time in ms.
  48:../libdaisy_IIT6/libDaisy/src/daisy_seed.h ****     */
  49:../libdaisy_IIT6/libDaisy/src/daisy_seed.h ****     void DelayMs(size_t del);
  50:../libdaisy_IIT6/libDaisy/src/daisy_seed.h **** 
  51:../libdaisy_IIT6/libDaisy/src/daisy_seed.h ****     /** 
  52:../libdaisy_IIT6/libDaisy/src/daisy_seed.h ****     Returns the gpio_pin corresponding to the index 0-31.
  53:../libdaisy_IIT6/libDaisy/src/daisy_seed.h ****     For the given GPIO on the Daisy Seed (labeled 1-32 in docs).
  54:../libdaisy_IIT6/libDaisy/src/daisy_seed.h ****     */
  55:../libdaisy_IIT6/libDaisy/src/daisy_seed.h ****     static Pin GetPin(uint8_t pin_idx);
  56:../libdaisy_IIT6/libDaisy/src/daisy_seed.h **** 
  57:../libdaisy_IIT6/libDaisy/src/daisy_seed.h ****     /** Begins the audio for the seeds builtin audio.
  58:../libdaisy_IIT6/libDaisy/src/daisy_seed.h ****     the specified callback will get called whenever
  59:../libdaisy_IIT6/libDaisy/src/daisy_seed.h ****     new data is ready to be prepared.
  60:../libdaisy_IIT6/libDaisy/src/daisy_seed.h ****     */
  61:../libdaisy_IIT6/libDaisy/src/daisy_seed.h ****     void StartAudio(AudioHandle::InterleavingAudioCallback cb);
  62:../libdaisy_IIT6/libDaisy/src/daisy_seed.h **** 
  63:../libdaisy_IIT6/libDaisy/src/daisy_seed.h ****     /** Begins the audio for the seeds builtin audio.
  64:../libdaisy_IIT6/libDaisy/src/daisy_seed.h ****     the specified callback will get called whenever
  65:../libdaisy_IIT6/libDaisy/src/daisy_seed.h ****     new data is ready to be prepared.
  66:../libdaisy_IIT6/libDaisy/src/daisy_seed.h ****     This will use the newer non-interleaved callback.
  67:../libdaisy_IIT6/libDaisy/src/daisy_seed.h ****     */
  68:../libdaisy_IIT6/libDaisy/src/daisy_seed.h ****     void StartAudio(AudioHandle::AudioCallback cb);
  69:../libdaisy_IIT6/libDaisy/src/daisy_seed.h **** 
  70:../libdaisy_IIT6/libDaisy/src/daisy_seed.h ****     /** Changes to a new interleaved callback
  71:../libdaisy_IIT6/libDaisy/src/daisy_seed.h ****      */
  72:../libdaisy_IIT6/libDaisy/src/daisy_seed.h ****     void ChangeAudioCallback(AudioHandle::InterleavingAudioCallback cb);
  73:../libdaisy_IIT6/libDaisy/src/daisy_seed.h **** 
  74:../libdaisy_IIT6/libDaisy/src/daisy_seed.h ****     /** Changes to a new multichannel callback
  75:../libdaisy_IIT6/libDaisy/src/daisy_seed.h ****      */
  76:../libdaisy_IIT6/libDaisy/src/daisy_seed.h ****     void ChangeAudioCallback(AudioHandle::AudioCallback cb);
  77:../libdaisy_IIT6/libDaisy/src/daisy_seed.h **** 
  78:../libdaisy_IIT6/libDaisy/src/daisy_seed.h ****     /** Stops the audio if it is running. */
  79:../libdaisy_IIT6/libDaisy/src/daisy_seed.h ****     void StopAudio();
  80:../libdaisy_IIT6/libDaisy/src/daisy_seed.h **** 
  81:../libdaisy_IIT6/libDaisy/src/daisy_seed.h ****     /** Updates the Audio Sample Rate, and reinitializes.
  82:../libdaisy_IIT6/libDaisy/src/daisy_seed.h ****      ** Audio must be stopped for this to work.
  83:../libdaisy_IIT6/libDaisy/src/daisy_seed.h ****      */
  84:../libdaisy_IIT6/libDaisy/src/daisy_seed.h ****     void SetAudioSampleRate(SaiHandle::Config::SampleRate samplerate);
  85:../libdaisy_IIT6/libDaisy/src/daisy_seed.h **** 
  86:../libdaisy_IIT6/libDaisy/src/daisy_seed.h ****     /** Returns the audio sample rate in Hz as a floating point number.
  87:../libdaisy_IIT6/libDaisy/src/daisy_seed.h ****      */
  88:../libdaisy_IIT6/libDaisy/src/daisy_seed.h ****     float AudioSampleRate();
  89:../libdaisy_IIT6/libDaisy/src/daisy_seed.h **** 
  90:../libdaisy_IIT6/libDaisy/src/daisy_seed.h ****     /** Sets the number of samples processed per channel by the audio callback.
  91:../libdaisy_IIT6/libDaisy/src/daisy_seed.h ****      */
  92:../libdaisy_IIT6/libDaisy/src/daisy_seed.h ****     void SetAudioBlockSize(size_t blocksize);
  93:../libdaisy_IIT6/libDaisy/src/daisy_seed.h **** 
  94:../libdaisy_IIT6/libDaisy/src/daisy_seed.h ****     /** Returns the number of samples per channel in a block of audio. */
  95:../libdaisy_IIT6/libDaisy/src/daisy_seed.h ****     size_t AudioBlockSize();
  96:../libdaisy_IIT6/libDaisy/src/daisy_seed.h **** 
  97:../libdaisy_IIT6/libDaisy/src/daisy_seed.h ****     /** Returns the rate in Hz that the Audio callback is called */
  98:../libdaisy_IIT6/libDaisy/src/daisy_seed.h ****     float AudioCallbackRate() const;
  99:../libdaisy_IIT6/libDaisy/src/daisy_seed.h **** 
 100:../libdaisy_IIT6/libDaisy/src/daisy_seed.h ****     /** Returns the SAI Handle for the Daisy Seed 
ARM GAS  /var/folders/9k/zk1mgrrd7wg4__6zvxvr9w8m0000gn/T//ccuDf5uE.s 			page 55


 101:../libdaisy_IIT6/libDaisy/src/daisy_seed.h ****      *  This can be useful when adding a secondary codec,
 102:../libdaisy_IIT6/libDaisy/src/daisy_seed.h ****      *  the result of this function can be passed to the audio reinit 
 103:../libdaisy_IIT6/libDaisy/src/daisy_seed.h ****      *  with an SAI2 configuration
 104:../libdaisy_IIT6/libDaisy/src/daisy_seed.h ****      */
 105:../libdaisy_IIT6/libDaisy/src/daisy_seed.h ****     const SaiHandle& AudioSaiHandle() const;
 106:../libdaisy_IIT6/libDaisy/src/daisy_seed.h **** 
 107:../libdaisy_IIT6/libDaisy/src/daisy_seed.h ****     /** Sets the state of the built in LED
 108:../libdaisy_IIT6/libDaisy/src/daisy_seed.h ****      */
 109:../libdaisy_IIT6/libDaisy/src/daisy_seed.h ****     void SetLed(bool state);
 110:../libdaisy_IIT6/libDaisy/src/daisy_seed.h **** 
 111:../libdaisy_IIT6/libDaisy/src/daisy_seed.h ****     /** Sets the state of the test point near pin 10
 112:../libdaisy_IIT6/libDaisy/src/daisy_seed.h ****      */
 113:../libdaisy_IIT6/libDaisy/src/daisy_seed.h ****     void SetTestPoint(bool state);
 114:../libdaisy_IIT6/libDaisy/src/daisy_seed.h **** 
 115:../libdaisy_IIT6/libDaisy/src/daisy_seed.h ****     /** Print formatted debug log message
 116:../libdaisy_IIT6/libDaisy/src/daisy_seed.h ****      */
 117:../libdaisy_IIT6/libDaisy/src/daisy_seed.h ****     template <typename... VA>
 118:../libdaisy_IIT6/libDaisy/src/daisy_seed.h ****     static void Print(const char* format, VA... va)
 119:../libdaisy_IIT6/libDaisy/src/daisy_seed.h ****     {
 120:../libdaisy_IIT6/libDaisy/src/daisy_seed.h ****         Log::Print(format, va...);
 121:../libdaisy_IIT6/libDaisy/src/daisy_seed.h ****     }
 122:../libdaisy_IIT6/libDaisy/src/daisy_seed.h **** 
 123:../libdaisy_IIT6/libDaisy/src/daisy_seed.h ****     /** Print formatted debug log message with automatic line termination
 124:../libdaisy_IIT6/libDaisy/src/daisy_seed.h ****     */
 125:../libdaisy_IIT6/libDaisy/src/daisy_seed.h ****     template <typename... VA>
 126:../libdaisy_IIT6/libDaisy/src/daisy_seed.h ****     static void PrintLine(const char* format, VA... va)
 127:../libdaisy_IIT6/libDaisy/src/daisy_seed.h ****     {
 128:../libdaisy_IIT6/libDaisy/src/daisy_seed.h ****         Log::PrintLine(format, va...);
 259              		.loc 2 128 23 view .LVU57
 260 0052 32A9     		add	r1, sp, #200
 261 0054 0A48     		ldr	r0, .L28+4
 262              	.LBE1139:
 263              	.LBE1138:
 264              		.loc 14 1973 20 view .LVU58
 265 0056 0DEB0304 		add	r4, sp, r3
 266              	.LVL12:
 267              		.loc 14 1973 20 view .LVU59
 268 005a 0023     		movs	r3, #0
 269              	.LVL13:
 270              		.loc 14 1973 20 view .LVU60
 271 005c 04F8C03C 		strb	r3, [r4, #-192]
1974:main.cpp      ****     hw.PrintLine("%s", line);
 272              		.loc 14 1974 5 is_stmt 1 view .LVU61
 273              	.LVL14:
 274              	.LBB1141:
 275              	.LBI1138:
 126:../libdaisy_IIT6/libDaisy/src/daisy_seed.h ****     {
 276              		.loc 2 126 17 view .LVU62
 277              	.LBB1140:
 278              		.loc 2 128 23 is_stmt 0 view .LVU63
 279 0060 FFF7FEFF 		bl	_ZN5daisy6LoggerILNS_17LoggerDestinationE1EE9PrintLineEPKcz
 280              	.LVL15:
 281              	.L5:
 282              		.loc 2 128 23 view .LVU64
 283              	.LBE1140:
 284              	.LBE1141:
1975:main.cpp      **** }
ARM GAS  /var/folders/9k/zk1mgrrd7wg4__6zvxvr9w8m0000gn/T//ccuDf5uE.s 			page 56


 285              		.loc 14 1975 1 view .LVU65
 286 0064 62B0     		add	sp, sp, #392
 287              		.cfi_remember_state
 288              		.cfi_def_cfa_offset 24
 289              		@ sp needed
 290 0066 BDE81040 		pop	{r4, lr}
 291              		.cfi_restore 14
 292              		.cfi_restore 4
 293              		.cfi_def_cfa_offset 16
 294 006a 04B0     		add	sp, sp, #16
 295              		.cfi_restore 3
 296              		.cfi_restore 2
 297              		.cfi_restore 1
 298              		.cfi_restore 0
 299              		.cfi_def_cfa_offset 0
 300 006c 7047     		bx	lr
 301              	.LVL16:
 302              	.L26:
 303              		.cfi_restore_state
1961:main.cpp      **** 
 304              		.loc 14 1961 9 is_stmt 1 view .LVU66
1961:main.cpp      **** 
 305              		.loc 14 1961 36 is_stmt 0 view .LVU67
 306 006e 0A23     		movs	r3, #10
 307 0070 2246     		mov	r2, r4
 308 0072 02A9     		add	r1, sp, #8
 309 0074 0348     		ldr	r0, .L28+8
 310              	.LVL17:
1961:main.cpp      **** 
 311              		.loc 14 1961 36 view .LVU68
 312 0076 FFF7FEFF 		bl	_ZN5daisy11UartHandler16BlockingTransmitEPhjm
 313              	.LVL18:
 314 007a D4E7     		b	.L8
 315              	.L29:
 316              		.align	2
 317              	.L28:
 318 007c 00000000 		.word	.LANCHOR0
 319 0080 00000000 		.word	.LC1
 320 0084 00000000 		.word	.LANCHOR1
 321              		.cfi_endproc
 322              	.LFE5562:
 324              		.section	.text._ZL12UsbControlRxPhPm,"ax",%progbits
 325              		.align	1
 326              		.p2align 2,,3
 327              		.syntax unified
 328              		.thumb
 329              		.thumb_func
 331              	_ZL12UsbControlRxPhPm:
 332              	.LVL19:
 333              	.LFB5564:
1976:main.cpp      **** 
1977:main.cpp      **** static void HandleControlByte(uint8_t c)
1978:main.cpp      **** {
1979:main.cpp      ****     if(kUiOnlyVcv)
1980:main.cpp      ****     {
1981:main.cpp      ****         UartPrint("[CTRL] UI-only build, audio command ignored: %c\r\n", c);
1982:main.cpp      ****         return;
ARM GAS  /var/folders/9k/zk1mgrrd7wg4__6zvxvr9w8m0000gn/T//ccuDf5uE.s 			page 57


1983:main.cpp      ****     }
1984:main.cpp      ****     if(c == '.')
1985:main.cpp      ****     {
1986:main.cpp      ****         g_run_mode = RunMode::STOP;
1987:main.cpp      ****         UartPrint("[CTRL] stop(.) -> %s\r\n", RunModeName(g_run_mode));
1988:main.cpp      ****     }
1989:main.cpp      ****     else if(c == 't' || c == 'T')
1990:main.cpp      ****     {
1991:main.cpp      ****         g_stream_mode = StreamMode::TEST_TONE_1K;
1992:main.cpp      ****         g_run_mode    = RunMode::ACTIVE;
1993:main.cpp      ****         UartPrint("[CTRL] -> %s in=%u out=%u\r\n",
1994:main.cpp      ****                   StreamModeName(g_stream_mode),
1995:main.cpp      ****                   static_cast<unsigned>(g_in_channels),
1996:main.cpp      ****                   static_cast<unsigned>(g_out_channels));
1997:main.cpp      ****     }
1998:main.cpp      ****     else if(c == 'l' || c == 'L')
1999:main.cpp      ****     {
2000:main.cpp      ****         g_stream_mode = StreamMode::LOOP_4IN_4OUT;
2001:main.cpp      ****         g_run_mode    = RunMode::ACTIVE;
2002:main.cpp      ****         UartPrint("[CTRL] -> %s in=%u out=%u\r\n",
2003:main.cpp      ****                   StreamModeName(g_stream_mode),
2004:main.cpp      ****                   static_cast<unsigned>(g_in_channels),
2005:main.cpp      ****                   static_cast<unsigned>(g_out_channels));
2006:main.cpp      ****     }
2007:main.cpp      ****     else if(c == 'r' || c == 'R')
2008:main.cpp      ****     {
2009:main.cpp      ****         g_stream_mode = StreamMode::RINGS_TEST_SQUARE;
2010:main.cpp      ****         g_run_mode    = RunMode::ACTIVE;
2011:main.cpp      ****         UartPrint("[CTRL] -> %s\r\n", StreamModeName(g_stream_mode));
2012:main.cpp      ****     }
2013:main.cpp      ****     else if(c == 'p' || c == 'P')
2014:main.cpp      ****     {
2015:main.cpp      ****         g_stream_mode = StreamMode::PLAITS_TEST_SQUARE;
2016:main.cpp      ****         g_run_mode    = RunMode::ACTIVE;
2017:main.cpp      ****         UartPrint("[CTRL] -> %s\r\n", StreamModeName(g_stream_mode));
2018:main.cpp      ****     }
2019:main.cpp      ****     else if(c == 'g' || c == 'G')
2020:main.cpp      ****     {
2021:main.cpp      ****         g_rings_gate  = !g_rings_gate;
2022:main.cpp      ****         g_plaits_gate = !g_plaits_gate;
2023:main.cpp      ****         UartPrint("[CTRL] gate rings=%u plaits=%u\r\n",
2024:main.cpp      ****                   static_cast<unsigned>(g_rings_gate ? 1 : 0),
2025:main.cpp      ****                   static_cast<unsigned>(g_plaits_gate ? 1 : 0));
2026:main.cpp      ****     }
2027:main.cpp      ****     else
2028:main.cpp      ****     {
2029:main.cpp      ****         g_stream_mode = g_stream_mode == StreamMode::LOOP_4IN_4OUT
2030:main.cpp      ****                             ? StreamMode::TEST_TONE_1K
2031:main.cpp      ****                             : StreamMode::LOOP_4IN_4OUT;
2032:main.cpp      ****         g_run_mode    = RunMode::ACTIVE;
2033:main.cpp      ****         UartPrint("[CTRL] toggle -> %s in=%u out=%u\r\n",
2034:main.cpp      ****                   StreamModeName(g_stream_mode),
2035:main.cpp      ****                   static_cast<unsigned>(g_in_channels),
2036:main.cpp      ****                   static_cast<unsigned>(g_out_channels));
2037:main.cpp      ****     }
2038:main.cpp      **** }
2039:main.cpp      **** 
ARM GAS  /var/folders/9k/zk1mgrrd7wg4__6zvxvr9w8m0000gn/T//ccuDf5uE.s 			page 58


2040:main.cpp      **** static void UsbControlRx(uint8_t* buff, uint32_t* len)
2041:main.cpp      **** {
 334              		.loc 14 2041 1 is_stmt 1 view -0
 335              		.cfi_startproc
 336              		@ args = 0, pretend = 0, frame = 0
 337              		@ frame_needed = 0, uses_anonymous_args = 0
2042:main.cpp      ****     if(buff == nullptr || len == nullptr || *len == 0)
 338              		.loc 14 2042 5 view .LVU70
 339 0000 10B3     		cbz	r0, .L44
 340 0002 09B3     		cbz	r1, .L44
2041:main.cpp      ****     if(buff == nullptr || len == nullptr || *len == 0)
 341              		.loc 14 2041 1 is_stmt 0 discriminator 1 view .LVU71
 342 0004 F0B5     		push	{r4, r5, r6, r7, lr}
 343              		.cfi_def_cfa_offset 20
 344              		.cfi_offset 4, -20
 345              		.cfi_offset 5, -16
 346              		.cfi_offset 6, -12
 347              		.cfi_offset 7, -8
 348              		.cfi_offset 14, -4
 349              		.loc 14 2042 42 discriminator 1 view .LVU72
 350 0006 0C68     		ldr	r4, [r1]
 351 0008 ECB1     		cbz	r4, .L30
 352 000a 00F1FF3E 		add	lr, r0, #-1
 353 000e 05E0     		b	.L36
 354              	.LVL20:
 355              	.L34:
 356              	.LBB1147:
 357              	.LBB1148:
 358              	.LBB1149:
2043:main.cpp      ****         return;
2044:main.cpp      **** 
2045:main.cpp      ****     for(uint32_t i = 0; i < *len; i++)
2046:main.cpp      ****     {
2047:main.cpp      ****         const uint8_t c = buff[i];
2048:main.cpp      ****         if(c == '\r' || c == '\n' || c == 0)
2049:main.cpp      ****             continue;
2050:main.cpp      ****         g_usb_cmd_byte    = c;
 359              		.loc 14 2050 27 view .LVU73
 360 0010 87F800C0 		strb	ip, [r7]
2051:main.cpp      ****         g_usb_cmd_pending = true;
 361              		.loc 14 2051 9 is_stmt 1 view .LVU74
 362 0014 0C68     		ldr	r4, [r1]
 363              		.loc 14 2051 27 is_stmt 0 view .LVU75
 364 0016 2E70     		strb	r6, [r5]
 365              	.LBE1149:
2045:main.cpp      ****     {
 366              		.loc 14 2045 27 view .LVU76
 367 0018 9C42     		cmp	r4, r3
 368 001a 14D9     		bls	.L30
 369              	.LVL21:
 370              	.L36:
 371              	.LBB1150:
2047:main.cpp      ****         if(c == '\r' || c == '\n' || c == 0)
 372              		.loc 14 2047 9 is_stmt 1 view .LVU77
2050:main.cpp      ****         g_usb_cmd_pending = true;
 373              		.loc 14 2050 9 view .LVU78
 374              	.LBE1150:
ARM GAS  /var/folders/9k/zk1mgrrd7wg4__6zvxvr9w8m0000gn/T//ccuDf5uE.s 			page 59


2045:main.cpp      ****     {
 375              		.loc 14 2045 5 view .LVU79
 376 001c 7346     		mov	r3, lr
 377              	.LBB1151:
2047:main.cpp      ****         if(c == '\r' || c == '\n' || c == 0)
 378              		.loc 14 2047 23 is_stmt 0 view .LVU80
 379 001e 1EF801CF 		ldrb	ip, [lr, #1]!	@ zero_extendqisi2
 380              	.LVL22:
2048:main.cpp      ****             continue;
 381              		.loc 14 2048 9 is_stmt 1 view .LVU81
2048:main.cpp      ****             continue;
 382              		.loc 14 2048 9 is_stmt 0 view .LVU82
 383              	.LBE1151:
2045:main.cpp      ****     {
 384              		.loc 14 2045 27 is_stmt 1 view .LVU83
 385              	.LBB1152:
2048:main.cpp      ****             continue;
 386              		.loc 14 2048 35 is_stmt 0 view .LVU84
 387 0022 42F20142 		movw	r2, #9217
2050:main.cpp      ****         g_usb_cmd_pending = true;
 388              		.loc 14 2050 27 view .LVU85
 389 0026 094F     		ldr	r7, .L48
 390              	.LBE1152:
2045:main.cpp      ****     {
 391              		.loc 14 2045 27 view .LVU86
 392 0028 0233     		adds	r3, r3, #2
 393              	.LBB1153:
2048:main.cpp      ****             continue;
 394              		.loc 14 2048 35 view .LVU87
 395 002a BCF10D0F 		cmp	ip, #13
 396              		.loc 14 2051 27 view .LVU88
 397 002e 084D     		ldr	r5, .L48+4
2048:main.cpp      ****             continue;
 398              		.loc 14 2048 35 view .LVU89
 399 0030 22FA0CF2 		lsr	r2, r2, ip
 400              	.LBE1153:
2045:main.cpp      ****     {
 401              		.loc 14 2045 27 view .LVU90
 402 0034 A3EB0003 		sub	r3, r3, r0
 403              	.LBB1154:
 404              		.loc 14 2051 27 view .LVU91
 405 0038 4FF00106 		mov	r6, #1
2048:main.cpp      ****             continue;
 406              		.loc 14 2048 35 view .LVU92
 407 003c E8D8     		bhi	.L34
 408 003e D207     		lsls	r2, r2, #31
 409 0040 E6D5     		bpl	.L34
 410              	.LBE1154:
2045:main.cpp      ****     {
 411              		.loc 14 2045 27 view .LVU93
 412 0042 9C42     		cmp	r4, r3
 413 0044 EAD8     		bhi	.L36
 414              	.LVL23:
 415              	.L30:
2045:main.cpp      ****     {
 416              		.loc 14 2045 27 view .LVU94
 417              	.LBE1148:
ARM GAS  /var/folders/9k/zk1mgrrd7wg4__6zvxvr9w8m0000gn/T//ccuDf5uE.s 			page 60


 418              	.LBE1147:
2052:main.cpp      ****     }
2053:main.cpp      **** }
 419              		.loc 14 2053 1 view .LVU95
 420 0046 F0BD     		pop	{r4, r5, r6, r7, pc}
 421              	.L44:
 422              		.cfi_def_cfa_offset 0
 423              		.cfi_restore 4
 424              		.cfi_restore 5
 425              		.cfi_restore 6
 426              		.cfi_restore 7
 427              		.cfi_restore 14
 428 0048 7047     		bx	lr
 429              	.L49:
 430 004a 00BF     		.align	2
 431              	.L48:
 432 004c 00000000 		.word	.LANCHOR2
 433 0050 00000000 		.word	.LANCHOR3
 434              		.cfi_endproc
 435              	.LFE5564:
 437              		.section	.text._ZL21DrawRotatedRgbaSpritePKhttssf.part.0,"ax",%progbits
 438              		.align	1
 439              		.p2align 2,,3
 440              		.syntax unified
 441              		.thumb
 442              		.thumb_func
 444              	_ZL21DrawRotatedRgbaSpritePKhttssf.part.0:
 445              	.LVL24:
 446              	.LFB6305:
 473:main.cpp      ****                                   uint16_t       w,
 447              		.loc 14 473 13 is_stmt 1 view -0
 448              		.cfi_startproc
 449              		@ args = 4, pretend = 0, frame = 24
 450              		@ frame_needed = 0, uses_anonymous_args = 0
 482:main.cpp      ****     const float c = cosf(radians);
 451              		.loc 14 482 5 view .LVU97
 483:main.cpp      ****     const float s = sinf(radians);
 452              		.loc 14 483 5 view .LVU98
 473:main.cpp      ****                                   uint16_t       w,
 453              		.loc 14 473 13 is_stmt 0 view .LVU99
 454 0000 2DE9F04F 		push	{r4, r5, r6, r7, r8, r9, r10, fp, lr}
 455              		.cfi_def_cfa_offset 36
 456              		.cfi_offset 4, -36
 457              		.cfi_offset 5, -32
 458              		.cfi_offset 6, -28
 459              		.cfi_offset 7, -24
 460              		.cfi_offset 8, -20
 461              		.cfi_offset 9, -16
 462              		.cfi_offset 10, -12
 463              		.cfi_offset 11, -8
 464              		.cfi_offset 14, -4
 465 0004 2DED028B 		vpush.64	{d8}
 466              		.cfi_def_cfa_offset 44
 467              		.cfi_offset 80, -44
 468              		.cfi_offset 81, -40
 469 0008 F0EE408A 		vmov.f32	s17, s0
 470 000c 87B0     		sub	sp, sp, #28
ARM GAS  /var/folders/9k/zk1mgrrd7wg4__6zvxvr9w8m0000gn/T//ccuDf5uE.s 			page 61


 471              		.cfi_def_cfa_offset 72
 473:main.cpp      ****                                   uint16_t       w,
 472              		.loc 14 473 13 view .LVU100
 473 000e 0C46     		mov	r4, r1
 474 0010 9046     		mov	r8, r2
 475 0012 1E46     		mov	r6, r3
 476 0014 0290     		str	r0, [sp, #8]
 483:main.cpp      ****     const float s = sinf(radians);
 477              		.loc 14 483 25 view .LVU101
 478 0016 FFF7FEFF 		bl	cosf
 479              	.LVL25:
 483:main.cpp      ****     const float s = sinf(radians);
 480              		.loc 14 483 25 view .LVU102
 481 001a B0EE408A 		vmov.f32	s16, s0
 484:main.cpp      ****     const float sx_center = (static_cast<float>(w) - 1.0f) * 0.5f;
 482              		.loc 14 484 25 view .LVU103
 483 001e B0EE680A 		vmov.f32	s0, s17
 484              	.LVL26:
 484:main.cpp      ****     const float sx_center = (static_cast<float>(w) - 1.0f) * 0.5f;
 485              		.loc 14 484 5 is_stmt 1 view .LVU104
 473:main.cpp      ****                                   uint16_t       w,
 486              		.loc 14 473 13 is_stmt 0 view .LVU105
 487 0022 BDF94850 		ldrsh	r5, [sp, #72]
 484:main.cpp      ****     const float sx_center = (static_cast<float>(w) - 1.0f) * 0.5f;
 488              		.loc 14 484 25 view .LVU106
 489 0026 FFF7FEFF 		bl	sinf
 490              	.LVL27:
 485:main.cpp      ****     const float sy_center = (static_cast<float>(h) - 1.0f) * 0.5f;
 491              		.loc 14 485 5 is_stmt 1 view .LVU107
 485:main.cpp      ****     const float sy_center = (static_cast<float>(h) - 1.0f) * 0.5f;
 492              		.loc 14 485 30 is_stmt 0 view .LVU108
 493 002a 07EE904A 		vmov	s15, r4	@ int
 485:main.cpp      ****     const float sy_center = (static_cast<float>(h) - 1.0f) * 0.5f;
 494              		.loc 14 485 52 view .LVU109
 495 002e B7EE007A 		vmov.f32	s14, #1.0e+0
 487:main.cpp      ****     const int16_t y0 = static_cast<int16_t>(cy - static_cast<int16_t>(h / 2u));
 496              		.loc 14 487 48 view .LVU110
 497 0032 A6EB5406 		sub	r6, r6, r4, lsr #1
 485:main.cpp      ****     const float sy_center = (static_cast<float>(h) - 1.0f) * 0.5f;
 498              		.loc 14 485 30 view .LVU111
 499 0036 F8EE675A 		vcvt.f32.u32	s11, s15
 486:main.cpp      ****     const int16_t x0 = static_cast<int16_t>(cx - static_cast<int16_t>(w / 2u));
 500              		.loc 14 486 30 view .LVU112
 501 003a 07EE908A 		vmov	s15, r8	@ int
 487:main.cpp      ****     const int16_t y0 = static_cast<int16_t>(cy - static_cast<int16_t>(h / 2u));
 502              		.loc 14 487 48 view .LVU113
 503 003e B3B2     		uxth	r3, r6
 488:main.cpp      **** 
 504              		.loc 14 488 48 view .LVU114
 505 0040 4FF0000C 		mov	ip, #0
 486:main.cpp      ****     const int16_t x0 = static_cast<int16_t>(cx - static_cast<int16_t>(w / 2u));
 506              		.loc 14 486 30 view .LVU115
 507 0044 F8EE674A 		vcvt.f32.u32	s9, s15
 488:main.cpp      **** 
 508              		.loc 14 488 48 view .LVU116
 509 0048 A5EB5805 		sub	r5, r5, r8, lsr #1
 485:main.cpp      ****     const float sy_center = (static_cast<float>(h) - 1.0f) * 0.5f;
ARM GAS  /var/folders/9k/zk1mgrrd7wg4__6zvxvr9w8m0000gn/T//ccuDf5uE.s 			page 62


 510              		.loc 14 485 17 view .LVU117
 511 004c F6EE007A 		vmov.f32	s15, #5.0e-1
 487:main.cpp      ****     const int16_t y0 = static_cast<int16_t>(cy - static_cast<int16_t>(h / 2u));
 512              		.loc 14 487 48 view .LVU118
 513 0050 0193     		str	r3, [sp, #4]
 485:main.cpp      ****     const float sy_center = (static_cast<float>(h) - 1.0f) * 0.5f;
 514              		.loc 14 485 52 view .LVU119
 515 0052 75EEC75A 		vsub.f32	s11, s11, s14
 516 0056 ADB2     		uxth	r5, r5
 486:main.cpp      ****     const int16_t x0 = static_cast<int16_t>(cx - static_cast<int16_t>(w / 2u));
 517              		.loc 14 486 52 view .LVU120
 518 0058 74EEC74A 		vsub.f32	s9, s9, s14
 519 005c 4FF44873 		mov	r3, #800
 485:main.cpp      ****     const float sy_center = (static_cast<float>(h) - 1.0f) * 0.5f;
 520              		.loc 14 485 17 view .LVU121
 521 0060 65EEA75A 		vmul.f32	s11, s11, s15
 522              	.LVL28:
 486:main.cpp      ****     const int16_t x0 = static_cast<int16_t>(cx - static_cast<int16_t>(w / 2u));
 523              		.loc 14 486 5 is_stmt 1 view .LVU122
 524 0064 03FB05FB 		mul	fp, r3, r5
 486:main.cpp      ****     const int16_t x0 = static_cast<int16_t>(cx - static_cast<int16_t>(w / 2u));
 525              		.loc 14 486 17 is_stmt 0 view .LVU123
 526 0068 64EEA74A 		vmul.f32	s9, s9, s15
 527              	.LVL29:
 487:main.cpp      ****     const int16_t y0 = static_cast<int16_t>(cy - static_cast<int16_t>(h / 2u));
 528              		.loc 14 487 5 is_stmt 1 view .LVU124
 488:main.cpp      **** 
 529              		.loc 14 488 5 view .LVU125
 490:main.cpp      ****     {
 530              		.loc 14 490 5 view .LVU126
 531              	.LBB1161:
 490:main.cpp      ****     {
 532              		.loc 14 490 29 view .LVU127
 533              	.L54:
 534              	.LBB1162:
 492:main.cpp      ****         if(py < 0 || py >= static_cast<int16_t>(LCD_Height))
 535              		.loc 14 492 9 view .LVU128
 493:main.cpp      ****             continue;
 536              		.loc 14 493 9 view .LVU129
 537              	.LBB1163:
 495:main.cpp      ****         {
 538              		.loc 14 495 33 view .LVU130
 539              	.LBB1164:
 502:main.cpp      ****             const float src_xf = tx * c + ty * s + sx_center;
 540              		.loc 14 502 30 is_stmt 0 view .LVU131
 541 006c 1FFA8CF2 		uxth	r2, ip
 504:main.cpp      ****             const int   src_x  = static_cast<int>(src_xf + 0.5f);
 542              		.loc 14 504 47 view .LVU132
 543 0070 0023     		movs	r3, #0
 502:main.cpp      ****             const float src_xf = tx * c + ty * s + sx_center;
 544              		.loc 14 502 30 view .LVU133
 545 0072 07EE902A 		vmov	s15, r2	@ int
 546 0076 F8EE677A 		vcvt.f32.u32	s15, s15
 502:main.cpp      ****             const float src_xf = tx * c + ty * s + sx_center;
 547              		.loc 14 502 25 view .LVU134
 548 007a 77EEE47A 		vsub.f32	s15, s15, s9
 503:main.cpp      ****             const float src_yf = -tx * s + ty * c + sy_center;
ARM GAS  /var/folders/9k/zk1mgrrd7wg4__6zvxvr9w8m0000gn/T//ccuDf5uE.s 			page 63


 549              		.loc 14 503 46 view .LVU135
 550 007e 20EE275A 		vmul.f32	s10, s0, s15
 504:main.cpp      ****             const int   src_x  = static_cast<int>(src_xf + 0.5f);
 551              		.loc 14 504 47 view .LVU136
 552 0082 68EE276A 		vmul.f32	s13, s16, s15
 553              	.LVL30:
 554              	.L53:
 504:main.cpp      ****             const int   src_x  = static_cast<int>(src_xf + 0.5f);
 555              		.loc 14 504 47 view .LVU137
 556 0086 9AB2     		uxth	r2, r3
 557              	.LVL31:
 497:main.cpp      ****             if(px < 0 || px >= static_cast<int16_t>(LCD_Width))
 558              		.loc 14 497 13 is_stmt 1 view .LVU138
 498:main.cpp      ****                 continue;
 559              		.loc 14 498 13 view .LVU139
 501:main.cpp      ****             const float ty = static_cast<float>(dy) - sy_center;
 560              		.loc 14 501 13 view .LVU140
 505:main.cpp      ****             const int   src_y  = static_cast<int>(src_yf + 0.5f);
 561              		.loc 14 505 58 is_stmt 0 view .LVU141
 562 0088 B6EE006A 		vmov.f32	s12, #5.0e-1
 501:main.cpp      ****             const float ty = static_cast<float>(dy) - sy_center;
 563              		.loc 14 501 30 view .LVU142
 564 008c 07EE902A 		vmov	s15, r2	@ int
 565 0090 B8EE677A 		vcvt.f32.u32	s14, s15
 503:main.cpp      ****             const float src_yf = -tx * s + ty * c + sy_center;
 566              		.loc 14 503 41 view .LVU143
 567 0094 F0EE457A 		vmov.f32	s15, s10
 501:main.cpp      ****             const float ty = static_cast<float>(dy) - sy_center;
 568              		.loc 14 501 25 view .LVU144
 569 0098 37EE657A 		vsub.f32	s14, s14, s11
 570              	.LVL32:
 502:main.cpp      ****             const float src_xf = tx * c + ty * s + sx_center;
 571              		.loc 14 502 13 is_stmt 1 view .LVU145
 503:main.cpp      ****             const float src_yf = -tx * s + ty * c + sy_center;
 572              		.loc 14 503 13 view .LVU146
 503:main.cpp      ****             const float src_yf = -tx * s + ty * c + sy_center;
 573              		.loc 14 503 41 is_stmt 0 view .LVU147
 574 009c E8EE077A 		vfma.f32	s15, s16, s14
 575              	.LVL33:
 504:main.cpp      ****             const int   src_x  = static_cast<int>(src_xf + 0.5f);
 576              		.loc 14 504 13 is_stmt 1 view .LVU148
 505:main.cpp      ****             const int   src_y  = static_cast<int>(src_yf + 0.5f);
 577              		.loc 14 505 13 view .LVU149
 506:main.cpp      ****             if(src_x < 0 || src_x >= static_cast<int>(w) || src_y < 0
 578              		.loc 14 506 13 view .LVU150
 507:main.cpp      ****                || src_y >= static_cast<int>(h))
 579              		.loc 14 507 13 view .LVU151
 503:main.cpp      ****             const float src_yf = -tx * s + ty * c + sy_center;
 580              		.loc 14 503 25 is_stmt 0 view .LVU152
 581 00a0 75EEA77A 		vadd.f32	s15, s11, s15
 582              	.LVL34:
 505:main.cpp      ****             const int   src_y  = static_cast<int>(src_yf + 0.5f);
 583              		.loc 14 505 58 view .LVU153
 584 00a4 77EE867A 		vadd.f32	s15, s15, s12
 585              	.LVL35:
 505:main.cpp      ****             const int   src_y  = static_cast<int>(src_yf + 0.5f);
 586              		.loc 14 505 25 view .LVU154
ARM GAS  /var/folders/9k/zk1mgrrd7wg4__6zvxvr9w8m0000gn/T//ccuDf5uE.s 			page 64


 587 00a8 FDEEE77A 		vcvt.s32.f32	s15, s15
 588 00ac 17EE901A 		vmov	r1, s15	@ int
 507:main.cpp      ****                || src_y >= static_cast<int>(h))
 589              		.loc 14 507 58 view .LVU155
 590 00b0 A142     		cmp	r1, r4
 591 00b2 7ED2     		bcs	.L51
 511:main.cpp      ****             const uint8_t sr = rgba[src_idx + 0u];
 592              		.loc 14 511 13 is_stmt 1 view .LVU156
 504:main.cpp      ****             const int   src_x  = static_cast<int>(src_xf + 0.5f);
 593              		.loc 14 504 42 is_stmt 0 view .LVU157
 594 00b4 F0EE667A 		vmov.f32	s15, s13
 497:main.cpp      ****             if(px < 0 || px >= static_cast<int16_t>(LCD_Width))
 595              		.loc 14 497 56 view .LVU158
 596 00b8 0198     		ldr	r0, [sp, #4]
 515:main.cpp      ****             if(sa == 0u)
 597              		.loc 14 515 27 view .LVU159
 598 00ba 029D     		ldr	r5, [sp, #8]
 497:main.cpp      ****             if(px < 0 || px >= static_cast<int16_t>(LCD_Width))
 599              		.loc 14 497 56 view .LVU160
 600 00bc 0244     		add	r2, r2, r0
 601              	.LVL36:
 504:main.cpp      ****             const int   src_x  = static_cast<int>(src_xf + 0.5f);
 602              		.loc 14 504 42 view .LVU161
 603 00be E7EE407A 		vfms.f32	s15, s14, s0
 519:main.cpp      ****             if(sa == 255u)
 604              		.loc 14 519 41 view .LVU162
 605 00c2 1BFA82F2 		uxtah	r2, fp, r2
 519:main.cpp      ****             if(sa == 255u)
 606              		.loc 14 519 68 view .LVU163
 607 00c6 5200     		lsls	r2, r2, #1
 518:main.cpp      ****                                         + static_cast<uint32_t>(px)];
 608              		.loc 14 518 23 view .LVU164
 609 00c8 02F14042 		add	r2, r2, #-1073741824
 504:main.cpp      ****             const int   src_x  = static_cast<int>(src_xf + 0.5f);
 610              		.loc 14 504 25 view .LVU165
 611 00cc 74EEA77A 		vadd.f32	s15, s9, s15
 506:main.cpp      ****             if(src_x < 0 || src_x >= static_cast<int>(w) || src_y < 0
 612              		.loc 14 506 58 view .LVU166
 613 00d0 37EE866A 		vadd.f32	s12, s15, s12
 506:main.cpp      ****             if(src_x < 0 || src_x >= static_cast<int>(w) || src_y < 0
 614              		.loc 14 506 25 view .LVU167
 615 00d4 FDEEC67A 		vcvt.s32.f32	s15, s12
 616 00d8 17EE900A 		vmov	r0, s15	@ int
 511:main.cpp      ****             const uint8_t sr = rgba[src_idx + 0u];
 617              		.loc 14 511 68 view .LVU168
 618 00dc 04FB0011 		mla	r1, r4, r0, r1
 619              	.LVL37:
 512:main.cpp      ****             const uint8_t sg = rgba[src_idx + 1u];
 620              		.loc 14 512 13 is_stmt 1 view .LVU169
 513:main.cpp      ****             const uint8_t sb = rgba[src_idx + 2u];
 621              		.loc 14 513 13 view .LVU170
 514:main.cpp      ****             const uint8_t sa = rgba[src_idx + 3u];
 622              		.loc 14 514 13 view .LVU171
 515:main.cpp      ****             if(sa == 0u)
 623              		.loc 14 515 13 view .LVU172
 508:main.cpp      ****                 continue;
 624              		.loc 14 508 16 is_stmt 0 view .LVU173
ARM GAS  /var/folders/9k/zk1mgrrd7wg4__6zvxvr9w8m0000gn/T//ccuDf5uE.s 			page 65


 625 00e0 4045     		cmp	r0, r8
 515:main.cpp      ****             if(sa == 0u)
 626              		.loc 14 515 27 view .LVU174
 627 00e2 05EB8100 		add	r0, r5, r1, lsl #2
 628              	.LVL38:
 508:main.cpp      ****                 continue;
 629              		.loc 14 508 16 view .LVU175
 630 00e6 64D2     		bcs	.L51
 524:main.cpp      ****         }
 631              		.loc 14 524 17 is_stmt 1 view .LVU176
 515:main.cpp      ****             if(sa == 0u)
 632              		.loc 14 515 27 is_stmt 0 view .LVU177
 633 00e8 90F80390 		ldrb	r9, [r0, #3]	@ zero_extendqisi2
 634              	.LVL39:
 516:main.cpp      ****                 continue;
 635              		.loc 14 516 13 is_stmt 1 view .LVU178
 636              	.LBB1165:
 637              	.LBB1166:
 463:main.cpp      ****     const uint8_t bb = static_cast<uint8_t>((bg & 0x1f) * 255 / 31);
 638              		.loc 14 463 71 is_stmt 0 view .LVU179
 639 00ec DFF814E1 		ldr	lr, .L62+4
 465:main.cpp      ****     const uint8_t rr = static_cast<uint8_t>((sr * a + br * inva) / 255u);
 640              		.loc 14 465 20 view .LVU180
 641 00f0 C9F1FF07 		rsb	r7, r9, #255
 642              	.LBE1166:
 643              	.LBE1165:
 516:main.cpp      ****                 continue;
 644              		.loc 14 516 13 view .LVU181
 645 00f4 B9F1000F 		cmp	r9, #0
 646 00f8 5BD0     		beq	.L51
 512:main.cpp      ****             const uint8_t sg = rgba[src_idx + 1u];
 647              		.loc 14 512 27 view .LVU182
 648 00fa 15F82160 		ldrb	r6, [r5, r1, lsl #2]	@ zero_extendqisi2
 520:main.cpp      ****                 dst = static_cast<uint16_t>(((sr * 31u / 255u) << 11) | ((sg * 63u / 255u) << 5)
 649              		.loc 14 520 13 view .LVU183
 650 00fe B9F1FF0F 		cmp	r9, #255
 513:main.cpp      ****             const uint8_t sb = rgba[src_idx + 2u];
 651              		.loc 14 513 27 view .LVU184
 652 0102 4578     		ldrb	r5, [r0, #1]	@ zero_extendqisi2
 653              	.LVL40:
 654              	.LBB1170:
 655              	.LBB1167:
 466:main.cpp      ****     const uint8_t rg = static_cast<uint8_t>((sg * a + bgc * inva) / 255u);
 656              		.loc 14 466 60 view .LVU185
 657 0104 BFB2     		uxth	r7, r7
 658              	.LBE1167:
 659              	.LBE1170:
 514:main.cpp      ****             const uint8_t sa = rgba[src_idx + 3u];
 660              		.loc 14 514 27 view .LVU186
 661 0106 8178     		ldrb	r1, [r0, #2]	@ zero_extendqisi2
 662              	.LVL41:
 518:main.cpp      ****                                         + static_cast<uint32_t>(px)];
 663              		.loc 14 518 13 is_stmt 1 view .LVU187
 520:main.cpp      ****                 dst = static_cast<uint16_t>(((sr * 31u / 255u) << 11) | ((sg * 63u / 255u) << 5)
 664              		.loc 14 520 13 view .LVU188
 665              	.LBB1171:
 666              	.LBB1168:
ARM GAS  /var/folders/9k/zk1mgrrd7wg4__6zvxvr9w8m0000gn/T//ccuDf5uE.s 			page 66


 466:main.cpp      ****     const uint8_t rg = static_cast<uint8_t>((sg * a + bgc * inva) / 255u);
 667              		.loc 14 466 49 is_stmt 0 view .LVU189
 668 0108 16FB09F0 		smulbb	r0, r6, r9
 669              	.LVL42:
 466:main.cpp      ****     const uint8_t rg = static_cast<uint8_t>((sg * a + bgc * inva) / 255u);
 670              		.loc 14 466 49 view .LVU190
 671 010c 0490     		str	r0, [sp, #16]
 672              	.LVL43:
 467:main.cpp      ****     const uint8_t rb = static_cast<uint8_t>((sb * a + bb * inva) / 255u);
 673              		.loc 14 467 49 view .LVU191
 674 010e 19FB05F0 		smulbb	r0, r9, r5
 675 0112 0390     		str	r0, [sp, #12]
 468:main.cpp      ****     return static_cast<uint16_t>(((rr * 31u / 255u) << 11) | ((rg * 63u / 255u) << 5)
 676              		.loc 14 468 49 view .LVU192
 677 0114 19FB01F0 		smulbb	r0, r9, r1
 678 0118 0590     		str	r0, [sp, #20]
 679              	.LBE1168:
 680              	.LBE1171:
 520:main.cpp      ****                 dst = static_cast<uint16_t>(((sr * 31u / 255u) << 11) | ((sg * 63u / 255u) << 5)
 681              		.loc 14 520 13 view .LVU193
 682 011a 5AD0     		beq	.L61
 524:main.cpp      ****         }
 683              		.loc 14 524 34 view .LVU194
 684 011c 1588     		ldrh	r5, [r2]
 685              	.LVL44:
 686              	.LBB1172:
 687              	.LBI1165:
 460:main.cpp      **** {
 688              		.loc 14 460 17 is_stmt 1 view .LVU195
 689              	.LBB1169:
 462:main.cpp      ****     const uint8_t bgc = static_cast<uint8_t>(((bg >> 5) & 0x3f) * 255 / 63);
 690              		.loc 14 462 5 view .LVU196
 463:main.cpp      ****     const uint8_t bb = static_cast<uint8_t>((bg & 0x1f) * 255 / 31);
 691              		.loc 14 463 5 view .LVU197
 464:main.cpp      ****     const uint16_t inva = static_cast<uint16_t>(255u - a);
 692              		.loc 14 464 5 view .LVU198
 465:main.cpp      ****     const uint8_t rr = static_cast<uint8_t>((sr * a + br * inva) / 255u);
 693              		.loc 14 465 5 view .LVU199
 466:main.cpp      ****     const uint8_t rg = static_cast<uint8_t>((sg * a + bgc * inva) / 255u);
 694              		.loc 14 466 5 view .LVU200
 467:main.cpp      ****     const uint8_t rb = static_cast<uint8_t>((sb * a + bb * inva) / 255u);
 695              		.loc 14 467 5 view .LVU201
 468:main.cpp      ****     return static_cast<uint16_t>(((rr * 31u / 255u) << 11) | ((rg * 63u / 255u) << 5)
 696              		.loc 14 468 5 view .LVU202
 469:main.cpp      ****                                  | (rb * 31u / 255u));
 697              		.loc 14 469 5 view .LVU203
 467:main.cpp      ****     const uint8_t rb = static_cast<uint8_t>((sb * a + bb * inva) / 255u);
 698              		.loc 14 467 67 is_stmt 0 view .LVU204
 699 011e DFF8E090 		ldr	r9, .L62
 700              	.LVL45:
 463:main.cpp      ****     const uint8_t bb = static_cast<uint8_t>((bg & 0x1f) * 255 / 31);
 701              		.loc 14 463 57 view .LVU205
 702 0122 C5F34516 		ubfx	r6, r5, #5, #6
 462:main.cpp      ****     const uint8_t bgc = static_cast<uint8_t>(((bg >> 5) & 0x3f) * 255 / 63);
 703              		.loc 14 462 57 view .LVU206
 704 0126 E90A     		lsrs	r1, r5, #11
 462:main.cpp      ****     const uint8_t bgc = static_cast<uint8_t>(((bg >> 5) & 0x3f) * 255 / 63);
ARM GAS  /var/folders/9k/zk1mgrrd7wg4__6zvxvr9w8m0000gn/T//ccuDf5uE.s 			page 67


 705              		.loc 14 462 71 view .LVU207
 706 0128 DFF8DCA0 		ldr	r10, .L62+8
 464:main.cpp      ****     const uint16_t inva = static_cast<uint16_t>(255u - a);
 707              		.loc 14 464 49 view .LVU208
 708 012c 05F01F05 		and	r5, r5, #31
 709              	.LVL46:
 463:main.cpp      ****     const uint8_t bb = static_cast<uint8_t>((bg & 0x1f) * 255 / 31);
 710              		.loc 14 463 65 view .LVU209
 711 0130 C6EB0626 		rsb	r6, r6, r6, lsl #8
 462:main.cpp      ****     const uint8_t bgc = static_cast<uint8_t>(((bg >> 5) & 0x3f) * 255 / 63);
 712              		.loc 14 462 65 view .LVU210
 713 0134 C1EB0121 		rsb	r1, r1, r1, lsl #8
 463:main.cpp      ****     const uint8_t bb = static_cast<uint8_t>((bg & 0x1f) * 255 / 31);
 714              		.loc 14 463 71 view .LVU211
 715 0138 8EFB060E 		smull	r0, lr, lr, r6
 467:main.cpp      ****     const uint8_t rb = static_cast<uint8_t>((sb * a + bb * inva) / 255u);
 716              		.loc 14 467 53 view .LVU212
 717 013c 0398     		ldr	r0, [sp, #12]
 464:main.cpp      ****     const uint16_t inva = static_cast<uint16_t>(255u - a);
 718              		.loc 14 464 57 view .LVU213
 719 013e C5EB0525 		rsb	r5, r5, r5, lsl #8
 463:main.cpp      ****     const uint8_t bb = static_cast<uint8_t>((bg & 0x1f) * 255 / 31);
 720              		.loc 14 463 71 view .LVU214
 721 0142 B644     		add	lr, lr, r6
 722 0144 F617     		asrs	r6, r6, #31
 723 0146 C6EB6E16 		rsb	r6, r6, lr, asr #5
 467:main.cpp      ****     const uint8_t rb = static_cast<uint8_t>((sb * a + bb * inva) / 255u);
 724              		.loc 14 467 53 view .LVU215
 725 014a 07FB0600 		mla	r0, r7, r6, r0
 467:main.cpp      ****     const uint8_t rb = static_cast<uint8_t>((sb * a + bb * inva) / 255u);
 726              		.loc 14 467 67 view .LVU216
 727 014e A9FB0060 		umull	r6, r0, r9, r0
 469:main.cpp      ****                                  | (rb * 31u / 255u));
 728              		.loc 14 469 67 view .LVU217
 729 0152 C0F3C710 		ubfx	r0, r0, #7, #8
 730 0156 C0EB8010 		rsb	r0, r0, r0, lsl #6
 469:main.cpp      ****                                  | (rb * 31u / 255u));
 731              		.loc 14 469 73 view .LVU218
 732 015a A9FB0060 		umull	r6, r0, r9, r0
 462:main.cpp      ****     const uint8_t bgc = static_cast<uint8_t>(((bg >> 5) & 0x3f) * 255 / 63);
 733              		.loc 14 462 71 view .LVU219
 734 015e 8AFB01E6 		smull	lr, r6, r10, r1
 464:main.cpp      ****     const uint16_t inva = static_cast<uint16_t>(255u - a);
 735              		.loc 14 464 63 view .LVU220
 736 0162 8AFB05EA 		smull	lr, r10, r10, r5
 469:main.cpp      ****                                  | (rb * 31u / 255u));
 737              		.loc 14 469 73 view .LVU221
 738 0166 C009     		lsrs	r0, r0, #7
 462:main.cpp      ****     const uint8_t bgc = static_cast<uint8_t>(((bg >> 5) & 0x3f) * 255 / 63);
 739              		.loc 14 462 71 view .LVU222
 740 0168 0E44     		add	r6, r6, r1
 741 016a C917     		asrs	r1, r1, #31
 464:main.cpp      ****     const uint16_t inva = static_cast<uint16_t>(255u - a);
 742              		.loc 14 464 63 view .LVU223
 743 016c AA44     		add	r10, r10, r5
 744 016e ED17     		asrs	r5, r5, #31
 462:main.cpp      ****     const uint8_t bgc = static_cast<uint8_t>(((bg >> 5) & 0x3f) * 255 / 63);
ARM GAS  /var/folders/9k/zk1mgrrd7wg4__6zvxvr9w8m0000gn/T//ccuDf5uE.s 			page 68


 745              		.loc 14 462 71 view .LVU224
 746 0170 C1EB2611 		rsb	r1, r1, r6, asr #4
 466:main.cpp      ****     const uint8_t rg = static_cast<uint8_t>((sg * a + bgc * inva) / 255u);
 747              		.loc 14 466 53 view .LVU225
 748 0174 049E     		ldr	r6, [sp, #16]
 464:main.cpp      ****     const uint16_t inva = static_cast<uint16_t>(255u - a);
 749              		.loc 14 464 63 view .LVU226
 750 0176 C5EB2A1A 		rsb	r10, r5, r10, asr #4
 468:main.cpp      ****     return static_cast<uint16_t>(((rr * 31u / 255u) << 11) | ((rg * 63u / 255u) << 5)
 751              		.loc 14 468 53 view .LVU227
 752 017a 059D     		ldr	r5, [sp, #20]
 466:main.cpp      ****     const uint8_t rg = static_cast<uint8_t>((sg * a + bgc * inva) / 255u);
 753              		.loc 14 466 53 view .LVU228
 754 017c 07FB0161 		mla	r1, r7, r1, r6
 468:main.cpp      ****     return static_cast<uint16_t>(((rr * 31u / 255u) << 11) | ((rg * 63u / 255u) << 5)
 755              		.loc 14 468 53 view .LVU229
 756 0180 07FB0A57 		mla	r7, r7, r10, r5
