ARM GAS  /var/folders/9k/zk1mgrrd7wg4__6zvxvr9w8m0000gn/T//ccqmKVLy.s 			page 1


   1              		.cpu cortex-m7
   2              		.arch armv7e-m
   3              		.fpu fpv5-d16
   4              		.eabi_attribute 28, 1
   5              		.eabi_attribute 20, 1
   6              		.eabi_attribute 21, 1
   7              		.eabi_attribute 23, 3
   8              		.eabi_attribute 24, 1
   9              		.eabi_attribute 25, 1
  10              		.eabi_attribute 26, 1
  11              		.eabi_attribute 30, 2
  12              		.eabi_attribute 34, 1
  13              		.eabi_attribute 18, 4
  14              		.file	"naive_speech_synth.cpp"
  15              		.text
  16              	.Ltext0:
  17              		.cfi_sections	.debug_frame
  18              		.section	.text._ZN6plaits16NaiveSpeechSynth4InitEv,"ax",%progbits
  19              		.align	1
  20              		.p2align 2,,3
  21              		.global	_ZN6plaits16NaiveSpeechSynth4InitEv
  22              		.syntax unified
  23              		.thumb
  24              		.thumb_func
  26              	_ZN6plaits16NaiveSpeechSynth4InitEv:
  27              	.LVL0:
  28              	.LFB1536:
  29              		.file 1 "mi/plaits/dsp/speech/naive_speech_synth.cpp"
   1:mi/plaits/dsp/speech/naive_speech_synth.cpp **** // Copyright 2016 Emilie Gillet.
   2:mi/plaits/dsp/speech/naive_speech_synth.cpp **** //
   3:mi/plaits/dsp/speech/naive_speech_synth.cpp **** // Author: Emilie Gillet (emilie.o.gillet@gmail.com)
   4:mi/plaits/dsp/speech/naive_speech_synth.cpp **** //
   5:mi/plaits/dsp/speech/naive_speech_synth.cpp **** // Permission is hereby granted, free of charge, to any person obtaining a copy
   6:mi/plaits/dsp/speech/naive_speech_synth.cpp **** // of this software and associated documentation files (the "Software"), to deal
   7:mi/plaits/dsp/speech/naive_speech_synth.cpp **** // in the Software without restriction, including without limitation the rights
   8:mi/plaits/dsp/speech/naive_speech_synth.cpp **** // to use, copy, modify, merge, publish, distribute, sublicense, and/or sell
   9:mi/plaits/dsp/speech/naive_speech_synth.cpp **** // copies of the Software, and to permit persons to whom the Software is
  10:mi/plaits/dsp/speech/naive_speech_synth.cpp **** // furnished to do so, subject to the following conditions:
  11:mi/plaits/dsp/speech/naive_speech_synth.cpp **** // 
  12:mi/plaits/dsp/speech/naive_speech_synth.cpp **** // The above copyright notice and this permission notice shall be included in
  13:mi/plaits/dsp/speech/naive_speech_synth.cpp **** // all copies or substantial portions of the Software.
  14:mi/plaits/dsp/speech/naive_speech_synth.cpp **** // 
  15:mi/plaits/dsp/speech/naive_speech_synth.cpp **** // THE SOFTWARE IS PROVIDED "AS IS", WITHOUT WARRANTY OF ANY KIND, EXPRESS OR
  16:mi/plaits/dsp/speech/naive_speech_synth.cpp **** // IMPLIED, INCLUDING BUT NOT LIMITED TO THE WARRANTIES OF MERCHANTABILITY,
  17:mi/plaits/dsp/speech/naive_speech_synth.cpp **** // FITNESS FOR A PARTICULAR PURPOSE AND NONINFRINGEMENT. IN NO EVENT SHALL THE
  18:mi/plaits/dsp/speech/naive_speech_synth.cpp **** // AUTHORS OR COPYRIGHT HOLDERS BE LIABLE FOR ANY CLAIM, DAMAGES OR OTHER
  19:mi/plaits/dsp/speech/naive_speech_synth.cpp **** // LIABILITY, WHETHER IN AN ACTION OF CONTRACT, TORT OR OTHERWISE, ARISING FROM,
  20:mi/plaits/dsp/speech/naive_speech_synth.cpp **** // OUT OF OR IN CONNECTION WITH THE SOFTWARE OR THE USE OR OTHER DEALINGS IN
  21:mi/plaits/dsp/speech/naive_speech_synth.cpp **** // THE SOFTWARE.
  22:mi/plaits/dsp/speech/naive_speech_synth.cpp **** // 
  23:mi/plaits/dsp/speech/naive_speech_synth.cpp **** // See http://creativecommons.org/licenses/MIT/ for more information.
  24:mi/plaits/dsp/speech/naive_speech_synth.cpp **** //
  25:mi/plaits/dsp/speech/naive_speech_synth.cpp **** // -----------------------------------------------------------------------------
  26:mi/plaits/dsp/speech/naive_speech_synth.cpp **** //
  27:mi/plaits/dsp/speech/naive_speech_synth.cpp **** // Naive speech synth - made from "synthesizer" building blocks (pulse
  28:mi/plaits/dsp/speech/naive_speech_synth.cpp **** // oscillator and zero-delay SVF).
  29:mi/plaits/dsp/speech/naive_speech_synth.cpp **** 
ARM GAS  /var/folders/9k/zk1mgrrd7wg4__6zvxvr9w8m0000gn/T//ccqmKVLy.s 			page 2


  30:mi/plaits/dsp/speech/naive_speech_synth.cpp **** #include "plaits/dsp/speech/naive_speech_synth.h"
  31:mi/plaits/dsp/speech/naive_speech_synth.cpp **** 
  32:mi/plaits/dsp/speech/naive_speech_synth.cpp **** #include <algorithm>
  33:mi/plaits/dsp/speech/naive_speech_synth.cpp **** 
  34:mi/plaits/dsp/speech/naive_speech_synth.cpp **** #include "stmlib/dsp/dsp.h"
  35:mi/plaits/dsp/speech/naive_speech_synth.cpp **** #include "stmlib/dsp/units.h"
  36:mi/plaits/dsp/speech/naive_speech_synth.cpp **** #include "stmlib/utils/random.h"
  37:mi/plaits/dsp/speech/naive_speech_synth.cpp **** 
  38:mi/plaits/dsp/speech/naive_speech_synth.cpp **** #include "plaits/resources.h"
  39:mi/plaits/dsp/speech/naive_speech_synth.cpp **** 
  40:mi/plaits/dsp/speech/naive_speech_synth.cpp **** namespace plaits {
  41:mi/plaits/dsp/speech/naive_speech_synth.cpp **** 
  42:mi/plaits/dsp/speech/naive_speech_synth.cpp **** using namespace std;
  43:mi/plaits/dsp/speech/naive_speech_synth.cpp **** using namespace stmlib;
  44:mi/plaits/dsp/speech/naive_speech_synth.cpp **** 
  45:mi/plaits/dsp/speech/naive_speech_synth.cpp **** /* static */
  46:mi/plaits/dsp/speech/naive_speech_synth.cpp **** const NaiveSpeechSynth::Phoneme NaiveSpeechSynth::phonemes_[][kNaiveSpeechNumRegisters] = {
  47:mi/plaits/dsp/speech/naive_speech_synth.cpp ****   {
  48:mi/plaits/dsp/speech/naive_speech_synth.cpp ****     { { { 74, 255 }, { 83, 114 }, { 97, 90 }, { 98, 90 }, { 100, 25 } } },
  49:mi/plaits/dsp/speech/naive_speech_synth.cpp ****     { { { 75, 255 }, { 84, 128 }, { 100, 114 }, { 101, 101 }, { 103, 20 } } },
  50:mi/plaits/dsp/speech/naive_speech_synth.cpp ****     { { { 76, 255 }, { 85, 128 }, { 100, 18 }, { 102, 16 }, { 104, 3 } } },
  51:mi/plaits/dsp/speech/naive_speech_synth.cpp ****     { { { 79, 255 }, { 85, 161 }, { 101, 25 }, { 104, 4 }, { 110, 0 } } },
  52:mi/plaits/dsp/speech/naive_speech_synth.cpp ****     { { { 79, 255 }, { 85, 128 }, { 101, 6 }, { 106, 25 }, { 110, 0 } } }
  53:mi/plaits/dsp/speech/naive_speech_synth.cpp ****   },
  54:mi/plaits/dsp/speech/naive_speech_synth.cpp ****   {
  55:mi/plaits/dsp/speech/naive_speech_synth.cpp ****     { { { 67, 255 }, { 91, 64 }, { 98, 90 }, { 101, 64 }, { 102, 32 } } },
  56:mi/plaits/dsp/speech/naive_speech_synth.cpp ****     { { { 67, 255 }, { 92, 51 }, { 99, 64 }, { 103, 51 }, { 105, 25 } } },
  57:mi/plaits/dsp/speech/naive_speech_synth.cpp ****     { { { 69, 255 }, { 93, 51 }, { 100, 32 }, { 102, 25 }, { 103, 25 } } },
  58:mi/plaits/dsp/speech/naive_speech_synth.cpp ****     { { { 67, 255 }, { 91, 16 }, { 100, 8 }, { 103, 4 }, { 110, 0 } } },
  59:mi/plaits/dsp/speech/naive_speech_synth.cpp ****     { { { 65, 255 }, { 95, 25 }, { 101, 45 }, { 105, 2 }, { 110, 0 } } }
  60:mi/plaits/dsp/speech/naive_speech_synth.cpp ****   },
  61:mi/plaits/dsp/speech/naive_speech_synth.cpp ****   {
  62:mi/plaits/dsp/speech/naive_speech_synth.cpp ****     { { { 59, 255 }, { 92, 8 }, { 99, 40 }, { 102, 20 }, { 104, 10 } } },
  63:mi/plaits/dsp/speech/naive_speech_synth.cpp ****     { { { 61, 255 }, { 94, 45 }, { 101, 32 }, { 103, 25 }, { 105, 8 } } },
  64:mi/plaits/dsp/speech/naive_speech_synth.cpp ****     { { { 60, 255 }, { 93, 16 }, { 101, 16 }, { 104, 4 }, { 105, 4 } } },
  65:mi/plaits/dsp/speech/naive_speech_synth.cpp ****     { { { 65, 255 }, { 92, 25 }, { 100, 8 }, { 105, 4 }, { 110, 0 } } },
  66:mi/plaits/dsp/speech/naive_speech_synth.cpp ****     { { { 60, 255 }, { 96, 64 }, { 101, 12 }, { 106, 12 }, { 110, 1 } } }
  67:mi/plaits/dsp/speech/naive_speech_synth.cpp ****   },
  68:mi/plaits/dsp/speech/naive_speech_synth.cpp ****   {
  69:mi/plaits/dsp/speech/naive_speech_synth.cpp ****     { { { 67, 255 }, { 78, 72 }, { 98, 22 }, { 99, 25 }, { 101, 2 } } },
  70:mi/plaits/dsp/speech/naive_speech_synth.cpp ****     { { { 67, 255 }, { 79, 80 }, { 99, 64 }, { 101, 64 }, { 102, 12 } } },
  71:mi/plaits/dsp/speech/naive_speech_synth.cpp ****     { { { 68, 255 }, { 79, 80 }, { 100, 12 }, { 102, 20 }, { 103, 5 } } },
  72:mi/plaits/dsp/speech/naive_speech_synth.cpp ****     { { { 69, 255 }, { 79, 90 }, { 101, 40 }, { 104, 10 }, { 110, 0 } } },
  73:mi/plaits/dsp/speech/naive_speech_synth.cpp ****     { { { 69, 255 }, { 79, 72 }, { 101, 20 }, { 106, 20 }, { 110, 0 } } }
  74:mi/plaits/dsp/speech/naive_speech_synth.cpp ****   },
  75:mi/plaits/dsp/speech/naive_speech_synth.cpp ****   {
  76:mi/plaits/dsp/speech/naive_speech_synth.cpp ****     { { { 65, 255 }, { 74, 25 }, { 98, 6 }, { 100, 10 }, { 101, 4 } } },
  77:mi/plaits/dsp/speech/naive_speech_synth.cpp ****     { { { 65, 255 }, { 74, 25 }, { 100, 36 }, { 101, 51 }, { 103, 12 } } },
  78:mi/plaits/dsp/speech/naive_speech_synth.cpp ****     { { { 66, 255 }, { 75, 25 }, { 100, 18 }, { 102, 8 }, { 104, 5 } } },
  79:mi/plaits/dsp/speech/naive_speech_synth.cpp ****     { { { 63, 255 }, { 77, 64 }, { 99, 8 }, { 104, 2 }, { 110, 0 } } },
  80:mi/plaits/dsp/speech/naive_speech_synth.cpp ****     { { { 63, 255 }, { 77, 40 }, { 100, 4 }, { 106, 2 }, { 110, 0 } } }
  81:mi/plaits/dsp/speech/naive_speech_synth.cpp ****   },
  82:mi/plaits/dsp/speech/naive_speech_synth.cpp **** };
  83:mi/plaits/dsp/speech/naive_speech_synth.cpp **** 
  84:mi/plaits/dsp/speech/naive_speech_synth.cpp **** void NaiveSpeechSynth::Init() {
  30              		.loc 1 84 31 view -0
  31              		.cfi_startproc
ARM GAS  /var/folders/9k/zk1mgrrd7wg4__6zvxvr9w8m0000gn/T//ccqmKVLy.s 			page 3


  32              		@ args = 0, pretend = 0, frame = 0
  33              		@ frame_needed = 0, uses_anonymous_args = 0
  85:mi/plaits/dsp/speech/naive_speech_synth.cpp ****   pulse_.Init();
  34              		.loc 1 85 3 view .LVU1
  84:mi/plaits/dsp/speech/naive_speech_synth.cpp ****   pulse_.Init();
  35              		.loc 1 84 31 is_stmt 0 view .LVU2
  36 0000 10B5     		push	{r4, lr}
  37              		.cfi_def_cfa_offset 8
  38              		.cfi_offset 4, -8
  39              		.cfi_offset 14, -4
  40              	.LBB99:
  41              	.LBB100:
  42              		.file 2 "mi/plaits/dsp/oscillator/oscillator.h"
   1:mi/plaits/dsp/oscillator/oscillator.h **** // Copyright 2016 Emilie Gillet.
   2:mi/plaits/dsp/oscillator/oscillator.h **** //
   3:mi/plaits/dsp/oscillator/oscillator.h **** // Author: Emilie Gillet (emilie.o.gillet@gmail.com)
   4:mi/plaits/dsp/oscillator/oscillator.h **** //
   5:mi/plaits/dsp/oscillator/oscillator.h **** // Permission is hereby granted, free of charge, to any person obtaining a copy
   6:mi/plaits/dsp/oscillator/oscillator.h **** // of this software and associated documentation files (the "Software"), to deal
   7:mi/plaits/dsp/oscillator/oscillator.h **** // in the Software without restriction, including without limitation the rights
   8:mi/plaits/dsp/oscillator/oscillator.h **** // to use, copy, modify, merge, publish, distribute, sublicense, and/or sell
   9:mi/plaits/dsp/oscillator/oscillator.h **** // copies of the Software, and to permit persons to whom the Software is
  10:mi/plaits/dsp/oscillator/oscillator.h **** // furnished to do so, subject to the following conditions:
  11:mi/plaits/dsp/oscillator/oscillator.h **** // 
  12:mi/plaits/dsp/oscillator/oscillator.h **** // The above copyright notice and this permission notice shall be included in
  13:mi/plaits/dsp/oscillator/oscillator.h **** // all copies or substantial portions of the Software.
  14:mi/plaits/dsp/oscillator/oscillator.h **** // 
  15:mi/plaits/dsp/oscillator/oscillator.h **** // THE SOFTWARE IS PROVIDED "AS IS", WITHOUT WARRANTY OF ANY KIND, EXPRESS OR
  16:mi/plaits/dsp/oscillator/oscillator.h **** // IMPLIED, INCLUDING BUT NOT LIMITED TO THE WARRANTIES OF MERCHANTABILITY,
  17:mi/plaits/dsp/oscillator/oscillator.h **** // FITNESS FOR A PARTICULAR PURPOSE AND NONINFRINGEMENT. IN NO EVENT SHALL THE
  18:mi/plaits/dsp/oscillator/oscillator.h **** // AUTHORS OR COPYRIGHT HOLDERS BE LIABLE FOR ANY CLAIM, DAMAGES OR OTHER
  19:mi/plaits/dsp/oscillator/oscillator.h **** // LIABILITY, WHETHER IN AN ACTION OF CONTRACT, TORT OR OTHERWISE, ARISING FROM,
  20:mi/plaits/dsp/oscillator/oscillator.h **** // OUT OF OR IN CONNECTION WITH THE SOFTWARE OR THE USE OR OTHER DEALINGS IN
  21:mi/plaits/dsp/oscillator/oscillator.h **** // THE SOFTWARE.
  22:mi/plaits/dsp/oscillator/oscillator.h **** // 
  23:mi/plaits/dsp/oscillator/oscillator.h **** // See http://creativecommons.org/licenses/MIT/ for more information.
  24:mi/plaits/dsp/oscillator/oscillator.h **** //
  25:mi/plaits/dsp/oscillator/oscillator.h **** // -----------------------------------------------------------------------------
  26:mi/plaits/dsp/oscillator/oscillator.h **** //
  27:mi/plaits/dsp/oscillator/oscillator.h **** // Single waveform oscillator. Can optionally do audio-rate linear FM, with
  28:mi/plaits/dsp/oscillator/oscillator.h **** // through-zero capabilities (negative frequencies).
  29:mi/plaits/dsp/oscillator/oscillator.h **** 
  30:mi/plaits/dsp/oscillator/oscillator.h **** #ifndef PLAITS_DSP_OSCILLATOR_OSCILLATOR_H_
  31:mi/plaits/dsp/oscillator/oscillator.h **** #define PLAITS_DSP_OSCILLATOR_OSCILLATOR_H_
  32:mi/plaits/dsp/oscillator/oscillator.h **** 
  33:mi/plaits/dsp/oscillator/oscillator.h **** #include "stmlib/dsp/dsp.h"
  34:mi/plaits/dsp/oscillator/oscillator.h **** #include "stmlib/dsp/parameter_interpolator.h"
  35:mi/plaits/dsp/oscillator/oscillator.h **** #include "stmlib/dsp/polyblep.h"
  36:mi/plaits/dsp/oscillator/oscillator.h **** 
  37:mi/plaits/dsp/oscillator/oscillator.h **** namespace plaits {
  38:mi/plaits/dsp/oscillator/oscillator.h **** 
  39:mi/plaits/dsp/oscillator/oscillator.h **** enum OscillatorShape {
  40:mi/plaits/dsp/oscillator/oscillator.h ****   OSCILLATOR_SHAPE_IMPULSE_TRAIN,
  41:mi/plaits/dsp/oscillator/oscillator.h ****   OSCILLATOR_SHAPE_SAW,
  42:mi/plaits/dsp/oscillator/oscillator.h ****   OSCILLATOR_SHAPE_TRIANGLE,
  43:mi/plaits/dsp/oscillator/oscillator.h ****   OSCILLATOR_SHAPE_SLOPE,
  44:mi/plaits/dsp/oscillator/oscillator.h ****   OSCILLATOR_SHAPE_SQUARE,
ARM GAS  /var/folders/9k/zk1mgrrd7wg4__6zvxvr9w8m0000gn/T//ccqmKVLy.s 			page 4


  45:mi/plaits/dsp/oscillator/oscillator.h ****   OSCILLATOR_SHAPE_SQUARE_BRIGHT,
  46:mi/plaits/dsp/oscillator/oscillator.h ****   OSCILLATOR_SHAPE_SQUARE_DARK,
  47:mi/plaits/dsp/oscillator/oscillator.h ****   OSCILLATOR_SHAPE_SQUARE_TRIANGLE
  48:mi/plaits/dsp/oscillator/oscillator.h **** };
  49:mi/plaits/dsp/oscillator/oscillator.h **** 
  50:mi/plaits/dsp/oscillator/oscillator.h **** const float kMaxFrequency = 0.25f;
  51:mi/plaits/dsp/oscillator/oscillator.h **** const float kMinFrequency = 0.000001f;
  52:mi/plaits/dsp/oscillator/oscillator.h **** 
  53:mi/plaits/dsp/oscillator/oscillator.h **** class Oscillator {
  54:mi/plaits/dsp/oscillator/oscillator.h ****  public:
  55:mi/plaits/dsp/oscillator/oscillator.h ****   Oscillator() { }
  56:mi/plaits/dsp/oscillator/oscillator.h ****   ~Oscillator() { }
  57:mi/plaits/dsp/oscillator/oscillator.h ****   
  58:mi/plaits/dsp/oscillator/oscillator.h ****   void Init() {
  59:mi/plaits/dsp/oscillator/oscillator.h ****     phase_ = 0.5f;
  60:mi/plaits/dsp/oscillator/oscillator.h ****     next_sample_ = 0.0f;
  61:mi/plaits/dsp/oscillator/oscillator.h ****     lp_state_ = 1.0f;
  43              		.loc 2 61 15 view .LVU3
  44 0002 4FF07E54 		mov	r4, #1065353216
  59:mi/plaits/dsp/oscillator/oscillator.h ****     next_sample_ = 0.0f;
  45              		.loc 2 59 12 view .LVU4
  46 0006 4FF07C53 		mov	r3, #1056964608
  62:mi/plaits/dsp/oscillator/oscillator.h ****     hp_state_ = 0.0f;
  63:mi/plaits/dsp/oscillator/oscillator.h ****     high_ = true;
  47              		.loc 2 63 11 view .LVU5
  48 000a 0121     		movs	r1, #1
  60:mi/plaits/dsp/oscillator/oscillator.h ****     lp_state_ = 1.0f;
  49              		.loc 2 60 18 view .LVU6
  50 000c 0022     		movs	r2, #0
  51              	.LVL1:
  60:mi/plaits/dsp/oscillator/oscillator.h ****     lp_state_ = 1.0f;
  52              		.loc 2 60 18 view .LVU7
  53              	.LBE100:
  54              	.LBI99:
  58:mi/plaits/dsp/oscillator/oscillator.h ****     phase_ = 0.5f;
  55              		.loc 2 58 8 is_stmt 1 view .LVU8
  56              	.LBB101:
  59:mi/plaits/dsp/oscillator/oscillator.h ****     next_sample_ = 0.0f;
  57              		.loc 2 59 5 view .LVU9
  61:mi/plaits/dsp/oscillator/oscillator.h ****     hp_state_ = 0.0f;
  58              		.loc 2 61 15 is_stmt 0 view .LVU10
  59 000e 8460     		str	r4, [r0, #8]	@ float
  64:mi/plaits/dsp/oscillator/oscillator.h **** 
  65:mi/plaits/dsp/oscillator/oscillator.h ****     frequency_ = 0.001f;
  60              		.loc 2 65 16 view .LVU11
  61 0010 154C     		ldr	r4, .L6
  59:mi/plaits/dsp/oscillator/oscillator.h ****     next_sample_ = 0.0f;
  62              		.loc 2 59 12 view .LVU12
  63 0012 0360     		str	r3, [r0]	@ float
  60:mi/plaits/dsp/oscillator/oscillator.h ****     lp_state_ = 1.0f;
  64              		.loc 2 60 5 is_stmt 1 view .LVU13
  63:mi/plaits/dsp/oscillator/oscillator.h **** 
  65              		.loc 2 63 11 is_stmt 0 view .LVU14
  66 0014 0174     		strb	r1, [r0, #16]
  67              	.LBE101:
  68              	.LBE99:
  86:mi/plaits/dsp/speech/naive_speech_synth.cpp ****   frequency_ = 0.0f;
ARM GAS  /var/folders/9k/zk1mgrrd7wg4__6zvxvr9w8m0000gn/T//ccqmKVLy.s 			page 5


  87:mi/plaits/dsp/speech/naive_speech_synth.cpp ****   click_duration_ = 0;
  69              		.loc 1 87 19 view .LVU15
  70 0016 0021     		movs	r1, #0
  71              	.LBB103:
  72              	.LBB102:
  66:mi/plaits/dsp/oscillator/oscillator.h ****     pw_ = 0.5f;
  73              		.loc 2 66 9 view .LVU16
  74 0018 8361     		str	r3, [r0, #24]	@ float
  75 001a 0346     		mov	r3, r0
  65:mi/plaits/dsp/oscillator/oscillator.h ****     pw_ = 0.5f;
  76              		.loc 2 65 16 view .LVU17
  77 001c 4461     		str	r4, [r0, #20]	@ float
  78 001e 00F16404 		add	r4, r0, #100
  60:mi/plaits/dsp/oscillator/oscillator.h ****     lp_state_ = 1.0f;
  79              		.loc 2 60 18 view .LVU18
  80 0022 4260     		str	r2, [r0, #4]	@ float
  61:mi/plaits/dsp/oscillator/oscillator.h ****     hp_state_ = 0.0f;
  81              		.loc 2 61 5 is_stmt 1 view .LVU19
  62:mi/plaits/dsp/oscillator/oscillator.h ****     high_ = true;
  82              		.loc 2 62 5 view .LVU20
  62:mi/plaits/dsp/oscillator/oscillator.h ****     high_ = true;
  83              		.loc 2 62 15 is_stmt 0 view .LVU21
  84 0024 C260     		str	r2, [r0, #12]	@ float
  63:mi/plaits/dsp/oscillator/oscillator.h **** 
  85              		.loc 2 63 5 is_stmt 1 view .LVU22
  65:mi/plaits/dsp/oscillator/oscillator.h ****     pw_ = 0.5f;
  86              		.loc 2 65 5 view .LVU23
  87              		.loc 2 66 5 view .LVU24
  88              	.LVL2:
  89              		.loc 2 66 5 is_stmt 0 view .LVU25
  90              	.LBE102:
  91              	.LBE103:
  86:mi/plaits/dsp/speech/naive_speech_synth.cpp ****   click_duration_ = 0;
  92              		.loc 1 86 3 is_stmt 1 view .LVU26
  86:mi/plaits/dsp/speech/naive_speech_synth.cpp ****   click_duration_ = 0;
  93              		.loc 1 86 14 is_stmt 0 view .LVU27
  94 0026 C261     		str	r2, [r0, #28]	@ float
  95              		.loc 1 87 3 is_stmt 1 view .LVU28
  96              		.loc 1 87 19 is_stmt 0 view .LVU29
  97 0028 0162     		str	r1, [r0, #32]
  88:mi/plaits/dsp/speech/naive_speech_synth.cpp ****   
  89:mi/plaits/dsp/speech/naive_speech_synth.cpp ****   for (int i = 0; i < kNaiveSpeechNumFormants; ++i) {
  98              		.loc 1 89 3 is_stmt 1 view .LVU30
  99              	.LVL3:
 100              	.LBB104:
 101              		.loc 1 89 21 view .LVU31
 102              	.L2:
  90:mi/plaits/dsp/speech/naive_speech_synth.cpp ****     filter_[i].Init();
 103              		.loc 1 90 5 discriminator 2 view .LVU32
 104              	.LBB105:
 105              	.LBI105:
 106              		.file 3 "mi/stmlib/dsp/filter.h"
   1:mi/stmlib/dsp/filter.h **** // Copyright 2014 Emilie Gillet.
   2:mi/stmlib/dsp/filter.h **** //
   3:mi/stmlib/dsp/filter.h **** // Author: Emilie Gillet (emilie.o.gillet@gmail.com)
   4:mi/stmlib/dsp/filter.h **** //
   5:mi/stmlib/dsp/filter.h **** // Permission is hereby granted, free of charge, to any person obtaining a copy
ARM GAS  /var/folders/9k/zk1mgrrd7wg4__6zvxvr9w8m0000gn/T//ccqmKVLy.s 			page 6


   6:mi/stmlib/dsp/filter.h **** // of this software and associated documentation files (the "Software"), to deal
   7:mi/stmlib/dsp/filter.h **** // in the Software without restriction, including without limitation the rights
   8:mi/stmlib/dsp/filter.h **** // to use, copy, modify, merge, publish, distribute, sublicense, and/or sell
   9:mi/stmlib/dsp/filter.h **** // copies of the Software, and to permit persons to whom the Software is
  10:mi/stmlib/dsp/filter.h **** // furnished to do so, subject to the following conditions:
  11:mi/stmlib/dsp/filter.h **** // 
  12:mi/stmlib/dsp/filter.h **** // The above copyright notice and this permission notice shall be included in
  13:mi/stmlib/dsp/filter.h **** // all copies or substantial portions of the Software.
  14:mi/stmlib/dsp/filter.h **** // 
  15:mi/stmlib/dsp/filter.h **** // THE SOFTWARE IS PROVIDED "AS IS", WITHOUT WARRANTY OF ANY KIND, EXPRESS OR
  16:mi/stmlib/dsp/filter.h **** // IMPLIED, INCLUDING BUT NOT LIMITED TO THE WARRANTIES OF MERCHANTABILITY,
  17:mi/stmlib/dsp/filter.h **** // FITNESS FOR A PARTICULAR PURPOSE AND NONINFRINGEMENT. IN NO EVENT SHALL THE
  18:mi/stmlib/dsp/filter.h **** // AUTHORS OR COPYRIGHT HOLDERS BE LIABLE FOR ANY CLAIM, DAMAGES OR OTHER
  19:mi/stmlib/dsp/filter.h **** // LIABILITY, WHETHER IN AN ACTION OF CONTRACT, TORT OR OTHERWISE, ARISING FROM,
  20:mi/stmlib/dsp/filter.h **** // OUT OF OR IN CONNECTION WITH THE SOFTWARE OR THE USE OR OTHER DEALINGS IN
  21:mi/stmlib/dsp/filter.h **** // THE SOFTWARE.
  22:mi/stmlib/dsp/filter.h **** // 
  23:mi/stmlib/dsp/filter.h **** // See http://creativecommons.org/licenses/MIT/ for more information.
  24:mi/stmlib/dsp/filter.h **** //
  25:mi/stmlib/dsp/filter.h **** // -----------------------------------------------------------------------------
  26:mi/stmlib/dsp/filter.h **** //
  27:mi/stmlib/dsp/filter.h **** // Zero-delay-feedback filters (one pole and SVF).
  28:mi/stmlib/dsp/filter.h **** // Naive SVF.
  29:mi/stmlib/dsp/filter.h **** 
  30:mi/stmlib/dsp/filter.h **** #ifndef STMLIB_DSP_FILTER_H_
  31:mi/stmlib/dsp/filter.h **** #define STMLIB_DSP_FILTER_H_
  32:mi/stmlib/dsp/filter.h **** 
  33:mi/stmlib/dsp/filter.h **** #include "stmlib/stmlib.h"
  34:mi/stmlib/dsp/filter.h **** 
  35:mi/stmlib/dsp/filter.h **** #include <cmath>
  36:mi/stmlib/dsp/filter.h **** #include <algorithm>
  37:mi/stmlib/dsp/filter.h **** 
  38:mi/stmlib/dsp/filter.h **** namespace stmlib {
  39:mi/stmlib/dsp/filter.h **** 
  40:mi/stmlib/dsp/filter.h **** enum FilterMode {
  41:mi/stmlib/dsp/filter.h ****   FILTER_MODE_LOW_PASS,
  42:mi/stmlib/dsp/filter.h ****   FILTER_MODE_BAND_PASS,
  43:mi/stmlib/dsp/filter.h ****   FILTER_MODE_BAND_PASS_NORMALIZED,
  44:mi/stmlib/dsp/filter.h ****   FILTER_MODE_HIGH_PASS
  45:mi/stmlib/dsp/filter.h **** };
  46:mi/stmlib/dsp/filter.h **** 
  47:mi/stmlib/dsp/filter.h **** enum FrequencyApproximation {
  48:mi/stmlib/dsp/filter.h ****   FREQUENCY_EXACT,
  49:mi/stmlib/dsp/filter.h ****   FREQUENCY_ACCURATE,
  50:mi/stmlib/dsp/filter.h ****   FREQUENCY_FAST,
  51:mi/stmlib/dsp/filter.h ****   FREQUENCY_DIRTY
  52:mi/stmlib/dsp/filter.h **** };
  53:mi/stmlib/dsp/filter.h **** 
  54:mi/stmlib/dsp/filter.h **** #define M_PI_F float(M_PI)
  55:mi/stmlib/dsp/filter.h **** #define M_PI_POW_2 M_PI * M_PI
  56:mi/stmlib/dsp/filter.h **** #define M_PI_POW_3 M_PI_POW_2 * M_PI
  57:mi/stmlib/dsp/filter.h **** #define M_PI_POW_5 M_PI_POW_3 * M_PI_POW_2
  58:mi/stmlib/dsp/filter.h **** #define M_PI_POW_7 M_PI_POW_5 * M_PI_POW_2
  59:mi/stmlib/dsp/filter.h **** #define M_PI_POW_9 M_PI_POW_7 * M_PI_POW_2
  60:mi/stmlib/dsp/filter.h **** #define M_PI_POW_11 M_PI_POW_9 * M_PI_POW_2
  61:mi/stmlib/dsp/filter.h **** 
  62:mi/stmlib/dsp/filter.h **** class DCBlocker {
ARM GAS  /var/folders/9k/zk1mgrrd7wg4__6zvxvr9w8m0000gn/T//ccqmKVLy.s 			page 7


  63:mi/stmlib/dsp/filter.h ****  public:
  64:mi/stmlib/dsp/filter.h ****   DCBlocker() { }
  65:mi/stmlib/dsp/filter.h ****   ~DCBlocker() { }
  66:mi/stmlib/dsp/filter.h ****   
  67:mi/stmlib/dsp/filter.h ****   void Init(float pole) {
  68:mi/stmlib/dsp/filter.h ****     x_ = 0.0f;
  69:mi/stmlib/dsp/filter.h ****     y_ = 0.0f;
  70:mi/stmlib/dsp/filter.h ****     pole_ = pole;
  71:mi/stmlib/dsp/filter.h ****   }
  72:mi/stmlib/dsp/filter.h ****   
  73:mi/stmlib/dsp/filter.h ****   inline void Process(float* in_out, size_t size) {
  74:mi/stmlib/dsp/filter.h ****     float x = x_;
  75:mi/stmlib/dsp/filter.h ****     float y = y_;
  76:mi/stmlib/dsp/filter.h ****     const float pole = pole_;
  77:mi/stmlib/dsp/filter.h ****     while (size--) {
  78:mi/stmlib/dsp/filter.h ****       float old_x = x;
  79:mi/stmlib/dsp/filter.h ****       x = *in_out;
  80:mi/stmlib/dsp/filter.h ****       *in_out++ = y = y * pole + x - old_x;
  81:mi/stmlib/dsp/filter.h ****     }
  82:mi/stmlib/dsp/filter.h ****     x_ = x;
  83:mi/stmlib/dsp/filter.h ****     y_ = y;
  84:mi/stmlib/dsp/filter.h ****   }
  85:mi/stmlib/dsp/filter.h ****   
  86:mi/stmlib/dsp/filter.h ****  private:
  87:mi/stmlib/dsp/filter.h ****   float pole_;
  88:mi/stmlib/dsp/filter.h ****   float x_;
  89:mi/stmlib/dsp/filter.h ****   float y_;
  90:mi/stmlib/dsp/filter.h **** };
  91:mi/stmlib/dsp/filter.h **** 
  92:mi/stmlib/dsp/filter.h **** class OnePole {
  93:mi/stmlib/dsp/filter.h ****  public:
  94:mi/stmlib/dsp/filter.h ****   OnePole() { }
  95:mi/stmlib/dsp/filter.h ****   ~OnePole() { }
  96:mi/stmlib/dsp/filter.h ****   
  97:mi/stmlib/dsp/filter.h ****   void Init() {
  98:mi/stmlib/dsp/filter.h ****     set_f<FREQUENCY_DIRTY>(0.01f);
  99:mi/stmlib/dsp/filter.h ****     Reset();
 100:mi/stmlib/dsp/filter.h ****   }
 101:mi/stmlib/dsp/filter.h ****   
 102:mi/stmlib/dsp/filter.h ****   void Reset() {
 103:mi/stmlib/dsp/filter.h ****     state_ = 0.0f;
 104:mi/stmlib/dsp/filter.h ****   }
 105:mi/stmlib/dsp/filter.h ****   
 106:mi/stmlib/dsp/filter.h ****   template<FrequencyApproximation approximation>
 107:mi/stmlib/dsp/filter.h ****   static inline float tan(float f) {
 108:mi/stmlib/dsp/filter.h ****     if (approximation == FREQUENCY_EXACT) {
 109:mi/stmlib/dsp/filter.h ****       // Clip coefficient to about 100.
 110:mi/stmlib/dsp/filter.h ****       f = f < 0.497f ? f : 0.497f;
 111:mi/stmlib/dsp/filter.h ****       return tanf(M_PI_F * f);
 112:mi/stmlib/dsp/filter.h ****     } else if (approximation == FREQUENCY_DIRTY) {
 113:mi/stmlib/dsp/filter.h ****       // Optimized for frequencies below 8kHz.
 114:mi/stmlib/dsp/filter.h ****       const float a = 3.736e-01f * M_PI_POW_3;
 115:mi/stmlib/dsp/filter.h ****       return f * (M_PI_F + a * f * f);
 116:mi/stmlib/dsp/filter.h ****     } else if (approximation == FREQUENCY_FAST) {
 117:mi/stmlib/dsp/filter.h ****       // The usual tangent approximation uses 3.1755e-01 and 2.033e-01, but
 118:mi/stmlib/dsp/filter.h ****       // the coefficients used here are optimized to minimize error for the
 119:mi/stmlib/dsp/filter.h ****       // 16Hz to 16kHz range, with a sample rate of 48kHz.
ARM GAS  /var/folders/9k/zk1mgrrd7wg4__6zvxvr9w8m0000gn/T//ccqmKVLy.s 			page 8


 120:mi/stmlib/dsp/filter.h ****       const float a = 3.260e-01f * M_PI_POW_3;
 121:mi/stmlib/dsp/filter.h ****       const float b = 1.823e-01f * M_PI_POW_5;
 122:mi/stmlib/dsp/filter.h ****       float f2 = f * f;
 123:mi/stmlib/dsp/filter.h ****       return f * (M_PI_F + f2 * (a + b * f2));
 124:mi/stmlib/dsp/filter.h ****     } else if (approximation == FREQUENCY_ACCURATE) {
 125:mi/stmlib/dsp/filter.h ****       // These coefficients don't need to be tweaked for the audio range.
 126:mi/stmlib/dsp/filter.h ****       const float a = 3.333314036e-01f * M_PI_POW_3;
 127:mi/stmlib/dsp/filter.h ****       const float b = 1.333923995e-01f * M_PI_POW_5;
 128:mi/stmlib/dsp/filter.h ****       const float c = 5.33740603e-02f * M_PI_POW_7;
 129:mi/stmlib/dsp/filter.h ****       const float d = 2.900525e-03f * M_PI_POW_9;
 130:mi/stmlib/dsp/filter.h ****       const float e = 9.5168091e-03f * M_PI_POW_11;
 131:mi/stmlib/dsp/filter.h ****       float f2 = f * f;
 132:mi/stmlib/dsp/filter.h ****       return f * (M_PI_F + f2 * (a + f2 * (b + f2 * (c + f2 * (d + f2 * e)))));
 133:mi/stmlib/dsp/filter.h ****     }
 134:mi/stmlib/dsp/filter.h ****   }
 135:mi/stmlib/dsp/filter.h ****   
 136:mi/stmlib/dsp/filter.h ****   // Set frequency and resonance from true units. Various approximations
 137:mi/stmlib/dsp/filter.h ****   // are available to avoid the cost of tanf.
 138:mi/stmlib/dsp/filter.h ****   template<FrequencyApproximation approximation>
 139:mi/stmlib/dsp/filter.h ****   inline void set_f(float f) {
 140:mi/stmlib/dsp/filter.h ****     g_ = tan<approximation>(f);
 141:mi/stmlib/dsp/filter.h ****     gi_ = 1.0f / (1.0f + g_);
 142:mi/stmlib/dsp/filter.h ****   }
 143:mi/stmlib/dsp/filter.h ****   
 144:mi/stmlib/dsp/filter.h ****   template<FilterMode mode>
 145:mi/stmlib/dsp/filter.h ****   inline float Process(float in) {
 146:mi/stmlib/dsp/filter.h ****     float lp;
 147:mi/stmlib/dsp/filter.h ****     lp = (g_ * in + state_) * gi_;
 148:mi/stmlib/dsp/filter.h ****     state_ = g_ * (in - lp) + lp;
 149:mi/stmlib/dsp/filter.h **** 
 150:mi/stmlib/dsp/filter.h ****     if (mode == FILTER_MODE_LOW_PASS) {
 151:mi/stmlib/dsp/filter.h ****       return lp;
 152:mi/stmlib/dsp/filter.h ****     } else if (mode == FILTER_MODE_HIGH_PASS) {
 153:mi/stmlib/dsp/filter.h ****       return in - lp;
 154:mi/stmlib/dsp/filter.h ****     } else {
 155:mi/stmlib/dsp/filter.h ****       return 0.0f;
 156:mi/stmlib/dsp/filter.h ****     }
 157:mi/stmlib/dsp/filter.h ****   }
 158:mi/stmlib/dsp/filter.h ****   
 159:mi/stmlib/dsp/filter.h ****   template<FilterMode mode>
 160:mi/stmlib/dsp/filter.h ****   inline void Process(float* in_out, size_t size) {
 161:mi/stmlib/dsp/filter.h ****     while (size--) {
 162:mi/stmlib/dsp/filter.h ****       *in_out = Process<mode>(*in_out);
 163:mi/stmlib/dsp/filter.h ****       ++in_out;
 164:mi/stmlib/dsp/filter.h ****     }
 165:mi/stmlib/dsp/filter.h ****   }
 166:mi/stmlib/dsp/filter.h ****   
 167:mi/stmlib/dsp/filter.h ****  private:
 168:mi/stmlib/dsp/filter.h ****   float g_;
 169:mi/stmlib/dsp/filter.h ****   float gi_;
 170:mi/stmlib/dsp/filter.h ****   float state_;
 171:mi/stmlib/dsp/filter.h ****   
 172:mi/stmlib/dsp/filter.h ****   DISALLOW_COPY_AND_ASSIGN(OnePole);
 173:mi/stmlib/dsp/filter.h **** };
 174:mi/stmlib/dsp/filter.h **** 
 175:mi/stmlib/dsp/filter.h **** 
 176:mi/stmlib/dsp/filter.h **** 
ARM GAS  /var/folders/9k/zk1mgrrd7wg4__6zvxvr9w8m0000gn/T//ccqmKVLy.s 			page 9


 177:mi/stmlib/dsp/filter.h **** class Svf {
 178:mi/stmlib/dsp/filter.h ****  public:
 179:mi/stmlib/dsp/filter.h ****   Svf() { }
 180:mi/stmlib/dsp/filter.h ****   ~Svf() { }
 181:mi/stmlib/dsp/filter.h ****   
 182:mi/stmlib/dsp/filter.h ****   void Init() {
 107              		.loc 3 182 8 discriminator 2 view .LVU33
 108              	.LBE105:
 109              	.LBE104:
 183:mi/stmlib/dsp/filter.h ****     set_f_q<FREQUENCY_DIRTY>(0.01f, 100.0f);
 110              		.loc 3 183 5 discriminator 2 view .LVU34
 111              	.LBB122:
 112              	.LBB119:
 113              	.LBB106:
 114              	.LBI106:
 184:mi/stmlib/dsp/filter.h ****     Reset();
 185:mi/stmlib/dsp/filter.h ****   }
 186:mi/stmlib/dsp/filter.h ****   
 187:mi/stmlib/dsp/filter.h ****   void Reset() {
 188:mi/stmlib/dsp/filter.h ****     state_1_ = state_2_ = 0.0f;
 189:mi/stmlib/dsp/filter.h ****   }
 190:mi/stmlib/dsp/filter.h ****   
 191:mi/stmlib/dsp/filter.h ****   // Copy settings from another filter.
 192:mi/stmlib/dsp/filter.h ****   inline void set(const Svf& f) {
 193:mi/stmlib/dsp/filter.h ****     g_ = f.g();
 194:mi/stmlib/dsp/filter.h ****     r_ = f.r();
 195:mi/stmlib/dsp/filter.h ****     h_ = f.h();
 196:mi/stmlib/dsp/filter.h ****   }
 197:mi/stmlib/dsp/filter.h **** 
 198:mi/stmlib/dsp/filter.h ****   // Set all parameters from LUT.
 199:mi/stmlib/dsp/filter.h ****   inline void set_g_r_h(float g, float r, float h) {
 200:mi/stmlib/dsp/filter.h ****     g_ = g;
 201:mi/stmlib/dsp/filter.h ****     r_ = r;
 202:mi/stmlib/dsp/filter.h ****     h_ = h;
 203:mi/stmlib/dsp/filter.h ****   }
 204:mi/stmlib/dsp/filter.h ****   
 205:mi/stmlib/dsp/filter.h ****   // Set frequency and resonance coefficients from LUT, adjust remaining
 206:mi/stmlib/dsp/filter.h ****   // parameter.
 207:mi/stmlib/dsp/filter.h ****   inline void set_g_r(float g, float r) {
 208:mi/stmlib/dsp/filter.h ****     g_ = g;
 209:mi/stmlib/dsp/filter.h ****     r_ = r;
 210:mi/stmlib/dsp/filter.h ****     h_ = 1.0f / (1.0f + r_ * g_ + g_ * g_);
 211:mi/stmlib/dsp/filter.h ****   }
 212:mi/stmlib/dsp/filter.h **** 
 213:mi/stmlib/dsp/filter.h ****   // Set frequency from LUT, resonance in true units, adjust the rest.
 214:mi/stmlib/dsp/filter.h ****   inline void set_g_q(float g, float resonance) {
 215:mi/stmlib/dsp/filter.h ****     g_ = g;
 216:mi/stmlib/dsp/filter.h ****     r_ = 1.0f / resonance;
 217:mi/stmlib/dsp/filter.h ****     h_ = 1.0f / (1.0f + r_ * g_ + g_ * g_);
 218:mi/stmlib/dsp/filter.h ****   }
 219:mi/stmlib/dsp/filter.h **** 
 220:mi/stmlib/dsp/filter.h ****   // Set frequency and resonance from true units. Various approximations
 221:mi/stmlib/dsp/filter.h ****   // are available to avoid the cost of tanf.
 222:mi/stmlib/dsp/filter.h ****   template<FrequencyApproximation approximation>
 223:mi/stmlib/dsp/filter.h ****   inline void set_f_q(float f, float resonance) {
 115              		.loc 3 223 15 discriminator 2 view .LVU35
 116              		.loc 3 223 15 is_stmt 0 discriminator 2 view .LVU36
ARM GAS  /var/folders/9k/zk1mgrrd7wg4__6zvxvr9w8m0000gn/T//ccqmKVLy.s 			page 10


 117              	.LBE106:
 118              	.LBB110:
 119              	.LBB111:
 188:mi/stmlib/dsp/filter.h ****   }
 120              		.loc 3 188 25 discriminator 2 view .LVU37
 121 002a 0022     		movs	r2, #0
 122              	.LBE111:
 123              	.LBE110:
 124              	.LBB114:
 125              	.LBB107:
 224:mi/stmlib/dsp/filter.h ****     g_ = OnePole::tan<approximation>(f);
 126              		.loc 3 224 8 discriminator 2 view .LVU38
 127 002c DFF848E0 		ldr	lr, .L6+16
 225:mi/stmlib/dsp/filter.h ****     r_ = 1.0f / resonance;
 128              		.loc 3 225 8 discriminator 2 view .LVU39
 129 0030 DFF848C0 		ldr	ip, .L6+20
 130              	.LBE107:
 131              	.LBE114:
 132              	.LBE119:
  89:mi/plaits/dsp/speech/naive_speech_synth.cpp ****     filter_[i].Init();
 133              		.loc 1 89 21 discriminator 2 view .LVU40
 134 0034 1433     		adds	r3, r3, #20
 135              	.LBB120:
 136              	.LBB115:
 137              	.LBB108:
 226:mi/stmlib/dsp/filter.h ****     h_ = 1.0f / (1.0f + r_ * g_ + g_ * g_);
 138              		.loc 3 226 8 discriminator 2 view .LVU41
 139 0036 0D49     		ldr	r1, .L6+4
 224:mi/stmlib/dsp/filter.h ****     r_ = 1.0f / resonance;
 140              		.loc 3 224 8 discriminator 2 view .LVU42
 141 0038 C3F810E0 		str	lr, [r3, #16]	@ float
 142              	.LBE108:
 143              	.LBE115:
 144              	.LBB116:
 145              	.LBB112:
 188:mi/stmlib/dsp/filter.h ****   }
 146              		.loc 3 188 25 discriminator 2 view .LVU43
 147 003c 1A62     		str	r2, [r3, #32]	@ float
 148              	.LBE112:
 149              	.LBE116:
 150              	.LBB117:
 151              	.LBB109:
 225:mi/stmlib/dsp/filter.h ****     h_ = 1.0f / (1.0f + r_ * g_ + g_ * g_);
 152              		.loc 3 225 8 discriminator 2 view .LVU44
 153 003e C3F814C0 		str	ip, [r3, #20]	@ float
 154              		.loc 3 226 8 discriminator 2 view .LVU45
 155 0042 9961     		str	r1, [r3, #24]	@ float
 156              	.LVL4:
 157              		.loc 3 226 8 discriminator 2 view .LVU46
 158              	.LBE109:
 159              	.LBE117:
 160              	.LBE120:
 161              	.LBE122:
 184:mi/stmlib/dsp/filter.h ****   }
 162              		.loc 3 184 5 is_stmt 1 discriminator 2 view .LVU47
 163              	.LBB123:
 164              	.LBB121:
ARM GAS  /var/folders/9k/zk1mgrrd7wg4__6zvxvr9w8m0000gn/T//ccqmKVLy.s 			page 11


 165              	.LBB118:
 166              	.LBI110:
 187:mi/stmlib/dsp/filter.h ****     state_1_ = state_2_ = 0.0f;
 167              		.loc 3 187 8 discriminator 2 view .LVU48
 168              	.LBB113:
 188:mi/stmlib/dsp/filter.h ****   }
 169              		.loc 3 188 5 discriminator 2 view .LVU49
 188:mi/stmlib/dsp/filter.h ****   }
 170              		.loc 3 188 14 is_stmt 0 discriminator 2 view .LVU50
 171 0044 DA61     		str	r2, [r3, #28]	@ float
 188:mi/stmlib/dsp/filter.h ****   }
 172              		.loc 3 188 14 discriminator 2 view .LVU51
 173              	.LBE113:
 174              	.LBE118:
 175              	.LBE121:
  89:mi/plaits/dsp/speech/naive_speech_synth.cpp ****     filter_[i].Init();
 176              		.loc 1 89 3 is_stmt 1 discriminator 2 view .LVU52
  89:mi/plaits/dsp/speech/naive_speech_synth.cpp ****     filter_[i].Init();
 177              		.loc 1 89 21 discriminator 2 view .LVU53
 178 0046 A342     		cmp	r3, r4
 179 0048 EFD1     		bne	.L2
 180              	.LBE123:
  91:mi/plaits/dsp/speech/naive_speech_synth.cpp ****   }
  92:mi/plaits/dsp/speech/naive_speech_synth.cpp ****   pulse_coloration_.Init();
 181              		.loc 1 92 3 view .LVU54
 182              	.LVL5:
 183              	.LBB124:
 184              	.LBI124:
 182:mi/stmlib/dsp/filter.h ****     set_f_q<FREQUENCY_DIRTY>(0.01f, 100.0f);
 185              		.loc 3 182 8 view .LVU55
 186              	.LBE124:
 183:mi/stmlib/dsp/filter.h ****     Reset();
 187              		.loc 3 183 5 view .LVU56
 184:mi/stmlib/dsp/filter.h ****   }
 188              		.loc 3 184 5 view .LVU57
 189              	.LBB129:
 190              	.LBB125:
 191              	.LBI125:
 187:mi/stmlib/dsp/filter.h ****     state_1_ = state_2_ = 0.0f;
 192              		.loc 3 187 8 view .LVU58
 193              	.LBB126:
 188:mi/stmlib/dsp/filter.h ****   }
 194              		.loc 3 188 5 view .LVU59
 195              	.LBE126:
 196              	.LBE125:
 197              	.LBE129:
 198              	.LBB130:
 199              	.LBB131:
 225:mi/stmlib/dsp/filter.h ****     h_ = 1.0f / (1.0f + r_ * g_ + g_ * g_);
 200              		.loc 3 225 8 is_stmt 0 view .LVU60
 201 004a 4FF08041 		mov	r1, #1073741824
 224:mi/stmlib/dsp/filter.h ****     r_ = 1.0f / resonance;
 202              		.loc 3 224 8 view .LVU61
 203 004e 084C     		ldr	r4, .L6+8
 204              		.loc 3 226 8 view .LVU62
 205 0050 084B     		ldr	r3, .L6+12
 206              	.LBE131:
ARM GAS  /var/folders/9k/zk1mgrrd7wg4__6zvxvr9w8m0000gn/T//ccqmKVLy.s 			page 12


 207              	.LBE130:
 208              	.LBB133:
 209              	.LBB128:
 210              	.LBB127:
 188:mi/stmlib/dsp/filter.h ****   }
 211              		.loc 3 188 25 view .LVU63
 212 0052 C0F89820 		str	r2, [r0, #152]	@ float
 188:mi/stmlib/dsp/filter.h ****   }
 213              		.loc 3 188 14 view .LVU64
 214 0056 C0F89420 		str	r2, [r0, #148]	@ float
 215              	.LVL6:
 188:mi/stmlib/dsp/filter.h ****   }
 216              		.loc 3 188 14 view .LVU65
 217              	.LBE127:
 218              	.LBE128:
 219              	.LBE133:
  93:mi/plaits/dsp/speech/naive_speech_synth.cpp ****   pulse_coloration_.set_f_q<FREQUENCY_DIRTY>(800.0f / kSampleRate, 0.5f);
 220              		.loc 1 93 3 is_stmt 1 view .LVU66
 221              	.LBB134:
 222              	.LBI130:
 223:mi/stmlib/dsp/filter.h ****     g_ = OnePole::tan<approximation>(f);
 223              		.loc 3 223 15 view .LVU67
 224              	.LBB132:
 224:mi/stmlib/dsp/filter.h ****     r_ = 1.0f / resonance;
 225              		.loc 3 224 8 is_stmt 0 view .LVU68
 226 005a C0F88840 		str	r4, [r0, #136]	@ float
 225:mi/stmlib/dsp/filter.h ****     h_ = 1.0f / (1.0f + r_ * g_ + g_ * g_);
 227              		.loc 3 225 8 view .LVU69
 228 005e C0F88C10 		str	r1, [r0, #140]	@ float
 229              		.loc 3 226 8 view .LVU70
 230 0062 C0F89030 		str	r3, [r0, #144]	@ float
 231              	.LVL7:
 232              		.loc 3 226 8 view .LVU71
 233              	.LBE132:
 234              	.LBE134:
  94:mi/plaits/dsp/speech/naive_speech_synth.cpp **** }
 235              		.loc 1 94 1 view .LVU72
 236 0066 10BD     		pop	{r4, pc}
 237              	.L7:
 238              		.align	2
 239              	.L6:
 240 0068 6F12833A 		.word	981668463
 241 006c CAAA7F3F 		.word	1065331402
 242 0070 8CAF563D 		.word	1029091212
 243 0074 C122673F 		.word	1063723713
 244 0078 22BA003D 		.word	1023457826
 245 007c 0AD7233C 		.word	1008981770
 246              		.cfi_endproc
 247              	.LFE1536:
 249              		.section	.text._ZN6plaits16NaiveSpeechSynth6RenderEbfffPfS1_S1_j,"ax",%progbits
 250              		.align	1
 251              		.p2align 2,,3
 252              		.global	_ZN6plaits16NaiveSpeechSynth6RenderEbfffPfS1_S1_j
 253              		.syntax unified
 254              		.thumb
 255              		.thumb_func
 257              	_ZN6plaits16NaiveSpeechSynth6RenderEbfffPfS1_S1_j:
ARM GAS  /var/folders/9k/zk1mgrrd7wg4__6zvxvr9w8m0000gn/T//ccqmKVLy.s 			page 13


 258              	.LVL8:
 259              	.LFB1537:
  95:mi/plaits/dsp/speech/naive_speech_synth.cpp **** 
  96:mi/plaits/dsp/speech/naive_speech_synth.cpp **** void NaiveSpeechSynth::Render(
  97:mi/plaits/dsp/speech/naive_speech_synth.cpp ****     bool click,
  98:mi/plaits/dsp/speech/naive_speech_synth.cpp ****     float frequency,
  99:mi/plaits/dsp/speech/naive_speech_synth.cpp ****     float phoneme,
 100:mi/plaits/dsp/speech/naive_speech_synth.cpp ****     float vocal_register,
 101:mi/plaits/dsp/speech/naive_speech_synth.cpp ****     float* temp,
 102:mi/plaits/dsp/speech/naive_speech_synth.cpp ****     float* excitation,
 103:mi/plaits/dsp/speech/naive_speech_synth.cpp ****     float* output,
 104:mi/plaits/dsp/speech/naive_speech_synth.cpp ****     size_t size) {
 260              		.loc 1 104 18 is_stmt 1 view -0
 261              		.cfi_startproc
 262              		@ args = 8, pretend = 0, frame = 8
 263              		@ frame_needed = 0, uses_anonymous_args = 0
 105:mi/plaits/dsp/speech/naive_speech_synth.cpp ****   if (click) {
 264              		.loc 1 105 3 view .LVU74
 104:mi/plaits/dsp/speech/naive_speech_synth.cpp ****   if (click) {
 265              		.loc 1 104 18 is_stmt 0 view .LVU75
 266 0000 2DE9F04F 		push	{r4, r5, r6, r7, r8, r9, r10, fp, lr}
 267              		.cfi_def_cfa_offset 36
 268              		.cfi_offset 4, -36
 269              		.cfi_offset 5, -32
 270              		.cfi_offset 6, -28
 271              		.cfi_offset 7, -24
 272              		.cfi_offset 8, -20
 273              		.cfi_offset 9, -16
 274              		.cfi_offset 10, -12
 275              		.cfi_offset 11, -8
 276              		.cfi_offset 14, -4
 277 0004 2DED028B 		vpush.64	{d8}
 278              		.cfi_def_cfa_offset 44
 279              		.cfi_offset 80, -44
 280              		.cfi_offset 81, -40
 281 0008 83B0     		sub	sp, sp, #12
 282              		.cfi_def_cfa_offset 56
 104:mi/plaits/dsp/speech/naive_speech_synth.cpp ****   if (click) {
 283              		.loc 1 104 18 view .LVU76
 284 000a 0446     		mov	r4, r0
 285 000c 1E46     		mov	r6, r3
 286 000e 0F9D     		ldr	r5, [sp, #60]
 287              		.loc 1 105 3 view .LVU77
 288 0010 0029     		cmp	r1, #0
 289 0012 40F00A82 		bne	.L29
 290              	.LBB182:
 291              	.LBB183:
 292              		.file 4 "/Library/DaisyToolchain/0.2.0/arm/arm-none-eabi/include/c++/10.3.1/bits/stl_algobase.h"
   1:/Library/DaisyToolchain/0.2.0/arm/arm-none-eabi/include/c++/10.3.1/bits/stl_algobase.h **** // Core algorithmic facilities -*- C++ -*-
   2:/Library/DaisyToolchain/0.2.0/arm/arm-none-eabi/include/c++/10.3.1/bits/stl_algobase.h **** 
   3:/Library/DaisyToolchain/0.2.0/arm/arm-none-eabi/include/c++/10.3.1/bits/stl_algobase.h **** // Copyright (C) 2001-2020 Free Software Foundation, Inc.
   4:/Library/DaisyToolchain/0.2.0/arm/arm-none-eabi/include/c++/10.3.1/bits/stl_algobase.h **** //
   5:/Library/DaisyToolchain/0.2.0/arm/arm-none-eabi/include/c++/10.3.1/bits/stl_algobase.h **** // This file is part of the GNU ISO C++ Library.  This library is free
   6:/Library/DaisyToolchain/0.2.0/arm/arm-none-eabi/include/c++/10.3.1/bits/stl_algobase.h **** // software; you can redistribute it and/or modify it under the
   7:/Library/DaisyToolchain/0.2.0/arm/arm-none-eabi/include/c++/10.3.1/bits/stl_algobase.h **** // terms of the GNU General Public License as published by the
   8:/Library/DaisyToolchain/0.2.0/arm/arm-none-eabi/include/c++/10.3.1/bits/stl_algobase.h **** // Free Software Foundation; either version 3, or (at your option)
   9:/Library/DaisyToolchain/0.2.0/arm/arm-none-eabi/include/c++/10.3.1/bits/stl_algobase.h **** // any later version.
ARM GAS  /var/folders/9k/zk1mgrrd7wg4__6zvxvr9w8m0000gn/T//ccqmKVLy.s 			page 14


  10:/Library/DaisyToolchain/0.2.0/arm/arm-none-eabi/include/c++/10.3.1/bits/stl_algobase.h **** 
  11:/Library/DaisyToolchain/0.2.0/arm/arm-none-eabi/include/c++/10.3.1/bits/stl_algobase.h **** // This library is distributed in the hope that it will be useful,
  12:/Library/DaisyToolchain/0.2.0/arm/arm-none-eabi/include/c++/10.3.1/bits/stl_algobase.h **** // but WITHOUT ANY WARRANTY; without even the implied warranty of
  13:/Library/DaisyToolchain/0.2.0/arm/arm-none-eabi/include/c++/10.3.1/bits/stl_algobase.h **** // MERCHANTABILITY or FITNESS FOR A PARTICULAR PURPOSE.  See the
  14:/Library/DaisyToolchain/0.2.0/arm/arm-none-eabi/include/c++/10.3.1/bits/stl_algobase.h **** // GNU General Public License for more details.
  15:/Library/DaisyToolchain/0.2.0/arm/arm-none-eabi/include/c++/10.3.1/bits/stl_algobase.h **** 
  16:/Library/DaisyToolchain/0.2.0/arm/arm-none-eabi/include/c++/10.3.1/bits/stl_algobase.h **** // Under Section 7 of GPL version 3, you are granted additional
  17:/Library/DaisyToolchain/0.2.0/arm/arm-none-eabi/include/c++/10.3.1/bits/stl_algobase.h **** // permissions described in the GCC Runtime Library Exception, version
  18:/Library/DaisyToolchain/0.2.0/arm/arm-none-eabi/include/c++/10.3.1/bits/stl_algobase.h **** // 3.1, as published by the Free Software Foundation.
  19:/Library/DaisyToolchain/0.2.0/arm/arm-none-eabi/include/c++/10.3.1/bits/stl_algobase.h **** 
  20:/Library/DaisyToolchain/0.2.0/arm/arm-none-eabi/include/c++/10.3.1/bits/stl_algobase.h **** // You should have received a copy of the GNU General Public License and
  21:/Library/DaisyToolchain/0.2.0/arm/arm-none-eabi/include/c++/10.3.1/bits/stl_algobase.h **** // a copy of the GCC Runtime Library Exception along with this program;
  22:/Library/DaisyToolchain/0.2.0/arm/arm-none-eabi/include/c++/10.3.1/bits/stl_algobase.h **** // see the files COPYING3 and COPYING.RUNTIME respectively.  If not, see
  23:/Library/DaisyToolchain/0.2.0/arm/arm-none-eabi/include/c++/10.3.1/bits/stl_algobase.h **** // <http://www.gnu.org/licenses/>.
  24:/Library/DaisyToolchain/0.2.0/arm/arm-none-eabi/include/c++/10.3.1/bits/stl_algobase.h **** 
  25:/Library/DaisyToolchain/0.2.0/arm/arm-none-eabi/include/c++/10.3.1/bits/stl_algobase.h **** /*
  26:/Library/DaisyToolchain/0.2.0/arm/arm-none-eabi/include/c++/10.3.1/bits/stl_algobase.h ****  *
  27:/Library/DaisyToolchain/0.2.0/arm/arm-none-eabi/include/c++/10.3.1/bits/stl_algobase.h ****  * Copyright (c) 1994
  28:/Library/DaisyToolchain/0.2.0/arm/arm-none-eabi/include/c++/10.3.1/bits/stl_algobase.h ****  * Hewlett-Packard Company
  29:/Library/DaisyToolchain/0.2.0/arm/arm-none-eabi/include/c++/10.3.1/bits/stl_algobase.h ****  *
  30:/Library/DaisyToolchain/0.2.0/arm/arm-none-eabi/include/c++/10.3.1/bits/stl_algobase.h ****  * Permission to use, copy, modify, distribute and sell this software
  31:/Library/DaisyToolchain/0.2.0/arm/arm-none-eabi/include/c++/10.3.1/bits/stl_algobase.h ****  * and its documentation for any purpose is hereby granted without fee,
  32:/Library/DaisyToolchain/0.2.0/arm/arm-none-eabi/include/c++/10.3.1/bits/stl_algobase.h ****  * provided that the above copyright notice appear in all copies and
  33:/Library/DaisyToolchain/0.2.0/arm/arm-none-eabi/include/c++/10.3.1/bits/stl_algobase.h ****  * that both that copyright notice and this permission notice appear
  34:/Library/DaisyToolchain/0.2.0/arm/arm-none-eabi/include/c++/10.3.1/bits/stl_algobase.h ****  * in supporting documentation.  Hewlett-Packard Company makes no
  35:/Library/DaisyToolchain/0.2.0/arm/arm-none-eabi/include/c++/10.3.1/bits/stl_algobase.h ****  * representations about the suitability of this software for any
  36:/Library/DaisyToolchain/0.2.0/arm/arm-none-eabi/include/c++/10.3.1/bits/stl_algobase.h ****  * purpose.  It is provided "as is" without express or implied warranty.
  37:/Library/DaisyToolchain/0.2.0/arm/arm-none-eabi/include/c++/10.3.1/bits/stl_algobase.h ****  *
  38:/Library/DaisyToolchain/0.2.0/arm/arm-none-eabi/include/c++/10.3.1/bits/stl_algobase.h ****  *
  39:/Library/DaisyToolchain/0.2.0/arm/arm-none-eabi/include/c++/10.3.1/bits/stl_algobase.h ****  * Copyright (c) 1996-1998
  40:/Library/DaisyToolchain/0.2.0/arm/arm-none-eabi/include/c++/10.3.1/bits/stl_algobase.h ****  * Silicon Graphics Computer Systems, Inc.
  41:/Library/DaisyToolchain/0.2.0/arm/arm-none-eabi/include/c++/10.3.1/bits/stl_algobase.h ****  *
  42:/Library/DaisyToolchain/0.2.0/arm/arm-none-eabi/include/c++/10.3.1/bits/stl_algobase.h ****  * Permission to use, copy, modify, distribute and sell this software
  43:/Library/DaisyToolchain/0.2.0/arm/arm-none-eabi/include/c++/10.3.1/bits/stl_algobase.h ****  * and its documentation for any purpose is hereby granted without fee,
  44:/Library/DaisyToolchain/0.2.0/arm/arm-none-eabi/include/c++/10.3.1/bits/stl_algobase.h ****  * provided that the above copyright notice appear in all copies and
  45:/Library/DaisyToolchain/0.2.0/arm/arm-none-eabi/include/c++/10.3.1/bits/stl_algobase.h ****  * that both that copyright notice and this permission notice appear
  46:/Library/DaisyToolchain/0.2.0/arm/arm-none-eabi/include/c++/10.3.1/bits/stl_algobase.h ****  * in supporting documentation.  Silicon Graphics makes no
  47:/Library/DaisyToolchain/0.2.0/arm/arm-none-eabi/include/c++/10.3.1/bits/stl_algobase.h ****  * representations about the suitability of this software for any
  48:/Library/DaisyToolchain/0.2.0/arm/arm-none-eabi/include/c++/10.3.1/bits/stl_algobase.h ****  * purpose.  It is provided "as is" without express or implied warranty.
  49:/Library/DaisyToolchain/0.2.0/arm/arm-none-eabi/include/c++/10.3.1/bits/stl_algobase.h ****  */
  50:/Library/DaisyToolchain/0.2.0/arm/arm-none-eabi/include/c++/10.3.1/bits/stl_algobase.h **** 
  51:/Library/DaisyToolchain/0.2.0/arm/arm-none-eabi/include/c++/10.3.1/bits/stl_algobase.h **** /** @file bits/stl_algobase.h
  52:/Library/DaisyToolchain/0.2.0/arm/arm-none-eabi/include/c++/10.3.1/bits/stl_algobase.h ****  *  This is an internal header file, included by other library headers.
  53:/Library/DaisyToolchain/0.2.0/arm/arm-none-eabi/include/c++/10.3.1/bits/stl_algobase.h ****  *  Do not attempt to use it directly. @headername{algorithm}
  54:/Library/DaisyToolchain/0.2.0/arm/arm-none-eabi/include/c++/10.3.1/bits/stl_algobase.h ****  */
  55:/Library/DaisyToolchain/0.2.0/arm/arm-none-eabi/include/c++/10.3.1/bits/stl_algobase.h **** 
  56:/Library/DaisyToolchain/0.2.0/arm/arm-none-eabi/include/c++/10.3.1/bits/stl_algobase.h **** #ifndef _STL_ALGOBASE_H
  57:/Library/DaisyToolchain/0.2.0/arm/arm-none-eabi/include/c++/10.3.1/bits/stl_algobase.h **** #define _STL_ALGOBASE_H 1
  58:/Library/DaisyToolchain/0.2.0/arm/arm-none-eabi/include/c++/10.3.1/bits/stl_algobase.h **** 
  59:/Library/DaisyToolchain/0.2.0/arm/arm-none-eabi/include/c++/10.3.1/bits/stl_algobase.h **** #include <bits/c++config.h>
  60:/Library/DaisyToolchain/0.2.0/arm/arm-none-eabi/include/c++/10.3.1/bits/stl_algobase.h **** #include <bits/functexcept.h>
  61:/Library/DaisyToolchain/0.2.0/arm/arm-none-eabi/include/c++/10.3.1/bits/stl_algobase.h **** #include <bits/cpp_type_traits.h>
  62:/Library/DaisyToolchain/0.2.0/arm/arm-none-eabi/include/c++/10.3.1/bits/stl_algobase.h **** #include <ext/type_traits.h>
  63:/Library/DaisyToolchain/0.2.0/arm/arm-none-eabi/include/c++/10.3.1/bits/stl_algobase.h **** #include <ext/numeric_traits.h>
  64:/Library/DaisyToolchain/0.2.0/arm/arm-none-eabi/include/c++/10.3.1/bits/stl_algobase.h **** #include <bits/stl_pair.h>
  65:/Library/DaisyToolchain/0.2.0/arm/arm-none-eabi/include/c++/10.3.1/bits/stl_algobase.h **** #include <bits/stl_iterator_base_types.h>
  66:/Library/DaisyToolchain/0.2.0/arm/arm-none-eabi/include/c++/10.3.1/bits/stl_algobase.h **** #include <bits/stl_iterator_base_funcs.h>
ARM GAS  /var/folders/9k/zk1mgrrd7wg4__6zvxvr9w8m0000gn/T//ccqmKVLy.s 			page 15


  67:/Library/DaisyToolchain/0.2.0/arm/arm-none-eabi/include/c++/10.3.1/bits/stl_algobase.h **** #include <bits/stl_iterator.h>
  68:/Library/DaisyToolchain/0.2.0/arm/arm-none-eabi/include/c++/10.3.1/bits/stl_algobase.h **** #include <bits/concept_check.h>
  69:/Library/DaisyToolchain/0.2.0/arm/arm-none-eabi/include/c++/10.3.1/bits/stl_algobase.h **** #include <debug/debug.h>
  70:/Library/DaisyToolchain/0.2.0/arm/arm-none-eabi/include/c++/10.3.1/bits/stl_algobase.h **** #include <bits/move.h> // For std::swap
  71:/Library/DaisyToolchain/0.2.0/arm/arm-none-eabi/include/c++/10.3.1/bits/stl_algobase.h **** #include <bits/predefined_ops.h>
  72:/Library/DaisyToolchain/0.2.0/arm/arm-none-eabi/include/c++/10.3.1/bits/stl_algobase.h **** #if __cplusplus >= 201103L
  73:/Library/DaisyToolchain/0.2.0/arm/arm-none-eabi/include/c++/10.3.1/bits/stl_algobase.h **** # include <type_traits>
  74:/Library/DaisyToolchain/0.2.0/arm/arm-none-eabi/include/c++/10.3.1/bits/stl_algobase.h **** #endif
  75:/Library/DaisyToolchain/0.2.0/arm/arm-none-eabi/include/c++/10.3.1/bits/stl_algobase.h **** #if __cplusplus > 201703L
  76:/Library/DaisyToolchain/0.2.0/arm/arm-none-eabi/include/c++/10.3.1/bits/stl_algobase.h **** # include <compare>
  77:/Library/DaisyToolchain/0.2.0/arm/arm-none-eabi/include/c++/10.3.1/bits/stl_algobase.h **** #endif
  78:/Library/DaisyToolchain/0.2.0/arm/arm-none-eabi/include/c++/10.3.1/bits/stl_algobase.h **** 
  79:/Library/DaisyToolchain/0.2.0/arm/arm-none-eabi/include/c++/10.3.1/bits/stl_algobase.h **** namespace std _GLIBCXX_VISIBILITY(default)
  80:/Library/DaisyToolchain/0.2.0/arm/arm-none-eabi/include/c++/10.3.1/bits/stl_algobase.h **** {
  81:/Library/DaisyToolchain/0.2.0/arm/arm-none-eabi/include/c++/10.3.1/bits/stl_algobase.h **** _GLIBCXX_BEGIN_NAMESPACE_VERSION
  82:/Library/DaisyToolchain/0.2.0/arm/arm-none-eabi/include/c++/10.3.1/bits/stl_algobase.h **** 
  83:/Library/DaisyToolchain/0.2.0/arm/arm-none-eabi/include/c++/10.3.1/bits/stl_algobase.h ****   /*
  84:/Library/DaisyToolchain/0.2.0/arm/arm-none-eabi/include/c++/10.3.1/bits/stl_algobase.h ****    * A constexpr wrapper for __builtin_memcmp.
  85:/Library/DaisyToolchain/0.2.0/arm/arm-none-eabi/include/c++/10.3.1/bits/stl_algobase.h ****    * @param __num The number of elements of type _Tp (not bytes).
  86:/Library/DaisyToolchain/0.2.0/arm/arm-none-eabi/include/c++/10.3.1/bits/stl_algobase.h ****    */
  87:/Library/DaisyToolchain/0.2.0/arm/arm-none-eabi/include/c++/10.3.1/bits/stl_algobase.h ****   template<typename _Tp, typename _Up>
  88:/Library/DaisyToolchain/0.2.0/arm/arm-none-eabi/include/c++/10.3.1/bits/stl_algobase.h ****     _GLIBCXX14_CONSTEXPR
  89:/Library/DaisyToolchain/0.2.0/arm/arm-none-eabi/include/c++/10.3.1/bits/stl_algobase.h ****     inline int
  90:/Library/DaisyToolchain/0.2.0/arm/arm-none-eabi/include/c++/10.3.1/bits/stl_algobase.h ****     __memcmp(const _Tp* __first1, const _Up* __first2, size_t __num)
  91:/Library/DaisyToolchain/0.2.0/arm/arm-none-eabi/include/c++/10.3.1/bits/stl_algobase.h ****     {
  92:/Library/DaisyToolchain/0.2.0/arm/arm-none-eabi/include/c++/10.3.1/bits/stl_algobase.h **** #if __cplusplus >= 201103L
  93:/Library/DaisyToolchain/0.2.0/arm/arm-none-eabi/include/c++/10.3.1/bits/stl_algobase.h ****       static_assert(sizeof(_Tp) == sizeof(_Up), "can be compared with memcmp");
  94:/Library/DaisyToolchain/0.2.0/arm/arm-none-eabi/include/c++/10.3.1/bits/stl_algobase.h **** #endif
  95:/Library/DaisyToolchain/0.2.0/arm/arm-none-eabi/include/c++/10.3.1/bits/stl_algobase.h **** #ifdef __cpp_lib_is_constant_evaluated
  96:/Library/DaisyToolchain/0.2.0/arm/arm-none-eabi/include/c++/10.3.1/bits/stl_algobase.h ****       if (std::is_constant_evaluated())
  97:/Library/DaisyToolchain/0.2.0/arm/arm-none-eabi/include/c++/10.3.1/bits/stl_algobase.h **** 	{
  98:/Library/DaisyToolchain/0.2.0/arm/arm-none-eabi/include/c++/10.3.1/bits/stl_algobase.h **** 	  for(; __num > 0; ++__first1, ++__first2, --__num)
  99:/Library/DaisyToolchain/0.2.0/arm/arm-none-eabi/include/c++/10.3.1/bits/stl_algobase.h **** 	    if (*__first1 != *__first2)
 100:/Library/DaisyToolchain/0.2.0/arm/arm-none-eabi/include/c++/10.3.1/bits/stl_algobase.h **** 	      return *__first1 < *__first2 ? -1 : 1;
 101:/Library/DaisyToolchain/0.2.0/arm/arm-none-eabi/include/c++/10.3.1/bits/stl_algobase.h **** 	  return 0;
 102:/Library/DaisyToolchain/0.2.0/arm/arm-none-eabi/include/c++/10.3.1/bits/stl_algobase.h **** 	}
 103:/Library/DaisyToolchain/0.2.0/arm/arm-none-eabi/include/c++/10.3.1/bits/stl_algobase.h ****       else
 104:/Library/DaisyToolchain/0.2.0/arm/arm-none-eabi/include/c++/10.3.1/bits/stl_algobase.h **** #endif
 105:/Library/DaisyToolchain/0.2.0/arm/arm-none-eabi/include/c++/10.3.1/bits/stl_algobase.h **** 	return __builtin_memcmp(__first1, __first2, sizeof(_Tp) * __num);
 106:/Library/DaisyToolchain/0.2.0/arm/arm-none-eabi/include/c++/10.3.1/bits/stl_algobase.h ****     }
 107:/Library/DaisyToolchain/0.2.0/arm/arm-none-eabi/include/c++/10.3.1/bits/stl_algobase.h **** 
 108:/Library/DaisyToolchain/0.2.0/arm/arm-none-eabi/include/c++/10.3.1/bits/stl_algobase.h **** #if __cplusplus < 201103L
 109:/Library/DaisyToolchain/0.2.0/arm/arm-none-eabi/include/c++/10.3.1/bits/stl_algobase.h ****   // See http://gcc.gnu.org/ml/libstdc++/2004-08/msg00167.html: in a
 110:/Library/DaisyToolchain/0.2.0/arm/arm-none-eabi/include/c++/10.3.1/bits/stl_algobase.h ****   // nutshell, we are partially implementing the resolution of DR 187,
 111:/Library/DaisyToolchain/0.2.0/arm/arm-none-eabi/include/c++/10.3.1/bits/stl_algobase.h ****   // when it's safe, i.e., the value_types are equal.
 112:/Library/DaisyToolchain/0.2.0/arm/arm-none-eabi/include/c++/10.3.1/bits/stl_algobase.h ****   template<bool _BoolType>
 113:/Library/DaisyToolchain/0.2.0/arm/arm-none-eabi/include/c++/10.3.1/bits/stl_algobase.h ****     struct __iter_swap
 114:/Library/DaisyToolchain/0.2.0/arm/arm-none-eabi/include/c++/10.3.1/bits/stl_algobase.h ****     {
 115:/Library/DaisyToolchain/0.2.0/arm/arm-none-eabi/include/c++/10.3.1/bits/stl_algobase.h ****       template<typename _ForwardIterator1, typename _ForwardIterator2>
 116:/Library/DaisyToolchain/0.2.0/arm/arm-none-eabi/include/c++/10.3.1/bits/stl_algobase.h **** 	static void
 117:/Library/DaisyToolchain/0.2.0/arm/arm-none-eabi/include/c++/10.3.1/bits/stl_algobase.h **** 	iter_swap(_ForwardIterator1 __a, _ForwardIterator2 __b)
 118:/Library/DaisyToolchain/0.2.0/arm/arm-none-eabi/include/c++/10.3.1/bits/stl_algobase.h **** 	{
 119:/Library/DaisyToolchain/0.2.0/arm/arm-none-eabi/include/c++/10.3.1/bits/stl_algobase.h **** 	  typedef typename iterator_traits<_ForwardIterator1>::value_type
 120:/Library/DaisyToolchain/0.2.0/arm/arm-none-eabi/include/c++/10.3.1/bits/stl_algobase.h **** 	    _ValueType1;
 121:/Library/DaisyToolchain/0.2.0/arm/arm-none-eabi/include/c++/10.3.1/bits/stl_algobase.h **** 	  _ValueType1 __tmp = *__a;
 122:/Library/DaisyToolchain/0.2.0/arm/arm-none-eabi/include/c++/10.3.1/bits/stl_algobase.h **** 	  *__a = *__b;
 123:/Library/DaisyToolchain/0.2.0/arm/arm-none-eabi/include/c++/10.3.1/bits/stl_algobase.h **** 	  *__b = __tmp;
ARM GAS  /var/folders/9k/zk1mgrrd7wg4__6zvxvr9w8m0000gn/T//ccqmKVLy.s 			page 16


 124:/Library/DaisyToolchain/0.2.0/arm/arm-none-eabi/include/c++/10.3.1/bits/stl_algobase.h **** 	}
 125:/Library/DaisyToolchain/0.2.0/arm/arm-none-eabi/include/c++/10.3.1/bits/stl_algobase.h ****     };
 126:/Library/DaisyToolchain/0.2.0/arm/arm-none-eabi/include/c++/10.3.1/bits/stl_algobase.h **** 
 127:/Library/DaisyToolchain/0.2.0/arm/arm-none-eabi/include/c++/10.3.1/bits/stl_algobase.h ****   template<>
 128:/Library/DaisyToolchain/0.2.0/arm/arm-none-eabi/include/c++/10.3.1/bits/stl_algobase.h ****     struct __iter_swap<true>
 129:/Library/DaisyToolchain/0.2.0/arm/arm-none-eabi/include/c++/10.3.1/bits/stl_algobase.h ****     {
 130:/Library/DaisyToolchain/0.2.0/arm/arm-none-eabi/include/c++/10.3.1/bits/stl_algobase.h ****       template<typename _ForwardIterator1, typename _ForwardIterator2>
 131:/Library/DaisyToolchain/0.2.0/arm/arm-none-eabi/include/c++/10.3.1/bits/stl_algobase.h **** 	static void
 132:/Library/DaisyToolchain/0.2.0/arm/arm-none-eabi/include/c++/10.3.1/bits/stl_algobase.h **** 	iter_swap(_ForwardIterator1 __a, _ForwardIterator2 __b)
 133:/Library/DaisyToolchain/0.2.0/arm/arm-none-eabi/include/c++/10.3.1/bits/stl_algobase.h **** 	{
 134:/Library/DaisyToolchain/0.2.0/arm/arm-none-eabi/include/c++/10.3.1/bits/stl_algobase.h **** 	  swap(*__a, *__b);
 135:/Library/DaisyToolchain/0.2.0/arm/arm-none-eabi/include/c++/10.3.1/bits/stl_algobase.h **** 	}
 136:/Library/DaisyToolchain/0.2.0/arm/arm-none-eabi/include/c++/10.3.1/bits/stl_algobase.h ****     };
 137:/Library/DaisyToolchain/0.2.0/arm/arm-none-eabi/include/c++/10.3.1/bits/stl_algobase.h **** #endif // C++03
 138:/Library/DaisyToolchain/0.2.0/arm/arm-none-eabi/include/c++/10.3.1/bits/stl_algobase.h **** 
 139:/Library/DaisyToolchain/0.2.0/arm/arm-none-eabi/include/c++/10.3.1/bits/stl_algobase.h ****   /**
 140:/Library/DaisyToolchain/0.2.0/arm/arm-none-eabi/include/c++/10.3.1/bits/stl_algobase.h ****    *  @brief Swaps the contents of two iterators.
 141:/Library/DaisyToolchain/0.2.0/arm/arm-none-eabi/include/c++/10.3.1/bits/stl_algobase.h ****    *  @ingroup mutating_algorithms
 142:/Library/DaisyToolchain/0.2.0/arm/arm-none-eabi/include/c++/10.3.1/bits/stl_algobase.h ****    *  @param  __a  An iterator.
 143:/Library/DaisyToolchain/0.2.0/arm/arm-none-eabi/include/c++/10.3.1/bits/stl_algobase.h ****    *  @param  __b  Another iterator.
 144:/Library/DaisyToolchain/0.2.0/arm/arm-none-eabi/include/c++/10.3.1/bits/stl_algobase.h ****    *  @return   Nothing.
 145:/Library/DaisyToolchain/0.2.0/arm/arm-none-eabi/include/c++/10.3.1/bits/stl_algobase.h ****    *
 146:/Library/DaisyToolchain/0.2.0/arm/arm-none-eabi/include/c++/10.3.1/bits/stl_algobase.h ****    *  This function swaps the values pointed to by two iterators, not the
 147:/Library/DaisyToolchain/0.2.0/arm/arm-none-eabi/include/c++/10.3.1/bits/stl_algobase.h ****    *  iterators themselves.
 148:/Library/DaisyToolchain/0.2.0/arm/arm-none-eabi/include/c++/10.3.1/bits/stl_algobase.h ****   */
 149:/Library/DaisyToolchain/0.2.0/arm/arm-none-eabi/include/c++/10.3.1/bits/stl_algobase.h ****   template<typename _ForwardIterator1, typename _ForwardIterator2>
 150:/Library/DaisyToolchain/0.2.0/arm/arm-none-eabi/include/c++/10.3.1/bits/stl_algobase.h ****     _GLIBCXX20_CONSTEXPR
 151:/Library/DaisyToolchain/0.2.0/arm/arm-none-eabi/include/c++/10.3.1/bits/stl_algobase.h ****     inline void
 152:/Library/DaisyToolchain/0.2.0/arm/arm-none-eabi/include/c++/10.3.1/bits/stl_algobase.h ****     iter_swap(_ForwardIterator1 __a, _ForwardIterator2 __b)
 153:/Library/DaisyToolchain/0.2.0/arm/arm-none-eabi/include/c++/10.3.1/bits/stl_algobase.h ****     {
 154:/Library/DaisyToolchain/0.2.0/arm/arm-none-eabi/include/c++/10.3.1/bits/stl_algobase.h ****       // concept requirements
 155:/Library/DaisyToolchain/0.2.0/arm/arm-none-eabi/include/c++/10.3.1/bits/stl_algobase.h ****       __glibcxx_function_requires(_Mutable_ForwardIteratorConcept<
 156:/Library/DaisyToolchain/0.2.0/arm/arm-none-eabi/include/c++/10.3.1/bits/stl_algobase.h **** 				  _ForwardIterator1>)
 157:/Library/DaisyToolchain/0.2.0/arm/arm-none-eabi/include/c++/10.3.1/bits/stl_algobase.h ****       __glibcxx_function_requires(_Mutable_ForwardIteratorConcept<
 158:/Library/DaisyToolchain/0.2.0/arm/arm-none-eabi/include/c++/10.3.1/bits/stl_algobase.h **** 				  _ForwardIterator2>)
 159:/Library/DaisyToolchain/0.2.0/arm/arm-none-eabi/include/c++/10.3.1/bits/stl_algobase.h **** 
 160:/Library/DaisyToolchain/0.2.0/arm/arm-none-eabi/include/c++/10.3.1/bits/stl_algobase.h **** #if __cplusplus < 201103L
 161:/Library/DaisyToolchain/0.2.0/arm/arm-none-eabi/include/c++/10.3.1/bits/stl_algobase.h ****       typedef typename iterator_traits<_ForwardIterator1>::value_type
 162:/Library/DaisyToolchain/0.2.0/arm/arm-none-eabi/include/c++/10.3.1/bits/stl_algobase.h **** 	_ValueType1;
 163:/Library/DaisyToolchain/0.2.0/arm/arm-none-eabi/include/c++/10.3.1/bits/stl_algobase.h ****       typedef typename iterator_traits<_ForwardIterator2>::value_type
 164:/Library/DaisyToolchain/0.2.0/arm/arm-none-eabi/include/c++/10.3.1/bits/stl_algobase.h **** 	_ValueType2;
 165:/Library/DaisyToolchain/0.2.0/arm/arm-none-eabi/include/c++/10.3.1/bits/stl_algobase.h **** 
 166:/Library/DaisyToolchain/0.2.0/arm/arm-none-eabi/include/c++/10.3.1/bits/stl_algobase.h ****       __glibcxx_function_requires(_ConvertibleConcept<_ValueType1,
 167:/Library/DaisyToolchain/0.2.0/arm/arm-none-eabi/include/c++/10.3.1/bits/stl_algobase.h **** 				  _ValueType2>)
 168:/Library/DaisyToolchain/0.2.0/arm/arm-none-eabi/include/c++/10.3.1/bits/stl_algobase.h ****       __glibcxx_function_requires(_ConvertibleConcept<_ValueType2,
 169:/Library/DaisyToolchain/0.2.0/arm/arm-none-eabi/include/c++/10.3.1/bits/stl_algobase.h **** 				  _ValueType1>)
 170:/Library/DaisyToolchain/0.2.0/arm/arm-none-eabi/include/c++/10.3.1/bits/stl_algobase.h **** 
 171:/Library/DaisyToolchain/0.2.0/arm/arm-none-eabi/include/c++/10.3.1/bits/stl_algobase.h ****       typedef typename iterator_traits<_ForwardIterator1>::reference
 172:/Library/DaisyToolchain/0.2.0/arm/arm-none-eabi/include/c++/10.3.1/bits/stl_algobase.h **** 	_ReferenceType1;
 173:/Library/DaisyToolchain/0.2.0/arm/arm-none-eabi/include/c++/10.3.1/bits/stl_algobase.h ****       typedef typename iterator_traits<_ForwardIterator2>::reference
 174:/Library/DaisyToolchain/0.2.0/arm/arm-none-eabi/include/c++/10.3.1/bits/stl_algobase.h **** 	_ReferenceType2;
 175:/Library/DaisyToolchain/0.2.0/arm/arm-none-eabi/include/c++/10.3.1/bits/stl_algobase.h ****       std::__iter_swap<__are_same<_ValueType1, _ValueType2>::__value
 176:/Library/DaisyToolchain/0.2.0/arm/arm-none-eabi/include/c++/10.3.1/bits/stl_algobase.h **** 	&& __are_same<_ValueType1&, _ReferenceType1>::__value
 177:/Library/DaisyToolchain/0.2.0/arm/arm-none-eabi/include/c++/10.3.1/bits/stl_algobase.h **** 	&& __are_same<_ValueType2&, _ReferenceType2>::__value>::
 178:/Library/DaisyToolchain/0.2.0/arm/arm-none-eabi/include/c++/10.3.1/bits/stl_algobase.h **** 	iter_swap(__a, __b);
 179:/Library/DaisyToolchain/0.2.0/arm/arm-none-eabi/include/c++/10.3.1/bits/stl_algobase.h **** #else
 180:/Library/DaisyToolchain/0.2.0/arm/arm-none-eabi/include/c++/10.3.1/bits/stl_algobase.h ****       // _GLIBCXX_RESOLVE_LIB_DEFECTS
ARM GAS  /var/folders/9k/zk1mgrrd7wg4__6zvxvr9w8m0000gn/T//ccqmKVLy.s 			page 17


 181:/Library/DaisyToolchain/0.2.0/arm/arm-none-eabi/include/c++/10.3.1/bits/stl_algobase.h ****       // 187. iter_swap underspecified
 182:/Library/DaisyToolchain/0.2.0/arm/arm-none-eabi/include/c++/10.3.1/bits/stl_algobase.h ****       swap(*__a, *__b);
 183:/Library/DaisyToolchain/0.2.0/arm/arm-none-eabi/include/c++/10.3.1/bits/stl_algobase.h **** #endif
 184:/Library/DaisyToolchain/0.2.0/arm/arm-none-eabi/include/c++/10.3.1/bits/stl_algobase.h ****     }
 185:/Library/DaisyToolchain/0.2.0/arm/arm-none-eabi/include/c++/10.3.1/bits/stl_algobase.h **** 
 186:/Library/DaisyToolchain/0.2.0/arm/arm-none-eabi/include/c++/10.3.1/bits/stl_algobase.h ****   /**
 187:/Library/DaisyToolchain/0.2.0/arm/arm-none-eabi/include/c++/10.3.1/bits/stl_algobase.h ****    *  @brief Swap the elements of two sequences.
 188:/Library/DaisyToolchain/0.2.0/arm/arm-none-eabi/include/c++/10.3.1/bits/stl_algobase.h ****    *  @ingroup mutating_algorithms
 189:/Library/DaisyToolchain/0.2.0/arm/arm-none-eabi/include/c++/10.3.1/bits/stl_algobase.h ****    *  @param  __first1  A forward iterator.
 190:/Library/DaisyToolchain/0.2.0/arm/arm-none-eabi/include/c++/10.3.1/bits/stl_algobase.h ****    *  @param  __last1   A forward iterator.
 191:/Library/DaisyToolchain/0.2.0/arm/arm-none-eabi/include/c++/10.3.1/bits/stl_algobase.h ****    *  @param  __first2  A forward iterator.
 192:/Library/DaisyToolchain/0.2.0/arm/arm-none-eabi/include/c++/10.3.1/bits/stl_algobase.h ****    *  @return   An iterator equal to @p first2+(last1-first1).
 193:/Library/DaisyToolchain/0.2.0/arm/arm-none-eabi/include/c++/10.3.1/bits/stl_algobase.h ****    *
 194:/Library/DaisyToolchain/0.2.0/arm/arm-none-eabi/include/c++/10.3.1/bits/stl_algobase.h ****    *  Swaps each element in the range @p [first1,last1) with the
 195:/Library/DaisyToolchain/0.2.0/arm/arm-none-eabi/include/c++/10.3.1/bits/stl_algobase.h ****    *  corresponding element in the range @p [first2,(last1-first1)).
 196:/Library/DaisyToolchain/0.2.0/arm/arm-none-eabi/include/c++/10.3.1/bits/stl_algobase.h ****    *  The ranges must not overlap.
 197:/Library/DaisyToolchain/0.2.0/arm/arm-none-eabi/include/c++/10.3.1/bits/stl_algobase.h ****   */
 198:/Library/DaisyToolchain/0.2.0/arm/arm-none-eabi/include/c++/10.3.1/bits/stl_algobase.h ****   template<typename _ForwardIterator1, typename _ForwardIterator2>
 199:/Library/DaisyToolchain/0.2.0/arm/arm-none-eabi/include/c++/10.3.1/bits/stl_algobase.h ****     _GLIBCXX20_CONSTEXPR
 200:/Library/DaisyToolchain/0.2.0/arm/arm-none-eabi/include/c++/10.3.1/bits/stl_algobase.h ****     _ForwardIterator2
 201:/Library/DaisyToolchain/0.2.0/arm/arm-none-eabi/include/c++/10.3.1/bits/stl_algobase.h ****     swap_ranges(_ForwardIterator1 __first1, _ForwardIterator1 __last1,
 202:/Library/DaisyToolchain/0.2.0/arm/arm-none-eabi/include/c++/10.3.1/bits/stl_algobase.h **** 		_ForwardIterator2 __first2)
 203:/Library/DaisyToolchain/0.2.0/arm/arm-none-eabi/include/c++/10.3.1/bits/stl_algobase.h ****     {
 204:/Library/DaisyToolchain/0.2.0/arm/arm-none-eabi/include/c++/10.3.1/bits/stl_algobase.h ****       // concept requirements
 205:/Library/DaisyToolchain/0.2.0/arm/arm-none-eabi/include/c++/10.3.1/bits/stl_algobase.h ****       __glibcxx_function_requires(_Mutable_ForwardIteratorConcept<
 206:/Library/DaisyToolchain/0.2.0/arm/arm-none-eabi/include/c++/10.3.1/bits/stl_algobase.h **** 				  _ForwardIterator1>)
 207:/Library/DaisyToolchain/0.2.0/arm/arm-none-eabi/include/c++/10.3.1/bits/stl_algobase.h ****       __glibcxx_function_requires(_Mutable_ForwardIteratorConcept<
 208:/Library/DaisyToolchain/0.2.0/arm/arm-none-eabi/include/c++/10.3.1/bits/stl_algobase.h **** 				  _ForwardIterator2>)
 209:/Library/DaisyToolchain/0.2.0/arm/arm-none-eabi/include/c++/10.3.1/bits/stl_algobase.h ****       __glibcxx_requires_valid_range(__first1, __last1);
 210:/Library/DaisyToolchain/0.2.0/arm/arm-none-eabi/include/c++/10.3.1/bits/stl_algobase.h **** 
 211:/Library/DaisyToolchain/0.2.0/arm/arm-none-eabi/include/c++/10.3.1/bits/stl_algobase.h ****       for (; __first1 != __last1; ++__first1, (void)++__first2)
 212:/Library/DaisyToolchain/0.2.0/arm/arm-none-eabi/include/c++/10.3.1/bits/stl_algobase.h **** 	std::iter_swap(__first1, __first2);
 213:/Library/DaisyToolchain/0.2.0/arm/arm-none-eabi/include/c++/10.3.1/bits/stl_algobase.h ****       return __first2;
 214:/Library/DaisyToolchain/0.2.0/arm/arm-none-eabi/include/c++/10.3.1/bits/stl_algobase.h ****     }
 215:/Library/DaisyToolchain/0.2.0/arm/arm-none-eabi/include/c++/10.3.1/bits/stl_algobase.h **** 
 216:/Library/DaisyToolchain/0.2.0/arm/arm-none-eabi/include/c++/10.3.1/bits/stl_algobase.h ****   /**
 217:/Library/DaisyToolchain/0.2.0/arm/arm-none-eabi/include/c++/10.3.1/bits/stl_algobase.h ****    *  @brief This does what you think it does.
 218:/Library/DaisyToolchain/0.2.0/arm/arm-none-eabi/include/c++/10.3.1/bits/stl_algobase.h ****    *  @ingroup sorting_algorithms
 219:/Library/DaisyToolchain/0.2.0/arm/arm-none-eabi/include/c++/10.3.1/bits/stl_algobase.h ****    *  @param  __a  A thing of arbitrary type.
 220:/Library/DaisyToolchain/0.2.0/arm/arm-none-eabi/include/c++/10.3.1/bits/stl_algobase.h ****    *  @param  __b  Another thing of arbitrary type.
 221:/Library/DaisyToolchain/0.2.0/arm/arm-none-eabi/include/c++/10.3.1/bits/stl_algobase.h ****    *  @return   The lesser of the parameters.
 222:/Library/DaisyToolchain/0.2.0/arm/arm-none-eabi/include/c++/10.3.1/bits/stl_algobase.h ****    *
 223:/Library/DaisyToolchain/0.2.0/arm/arm-none-eabi/include/c++/10.3.1/bits/stl_algobase.h ****    *  This is the simple classic generic implementation.  It will work on
 224:/Library/DaisyToolchain/0.2.0/arm/arm-none-eabi/include/c++/10.3.1/bits/stl_algobase.h ****    *  temporary expressions, since they are only evaluated once, unlike a
 225:/Library/DaisyToolchain/0.2.0/arm/arm-none-eabi/include/c++/10.3.1/bits/stl_algobase.h ****    *  preprocessor macro.
 226:/Library/DaisyToolchain/0.2.0/arm/arm-none-eabi/include/c++/10.3.1/bits/stl_algobase.h ****   */
 227:/Library/DaisyToolchain/0.2.0/arm/arm-none-eabi/include/c++/10.3.1/bits/stl_algobase.h ****   template<typename _Tp>
 228:/Library/DaisyToolchain/0.2.0/arm/arm-none-eabi/include/c++/10.3.1/bits/stl_algobase.h ****     _GLIBCXX14_CONSTEXPR
 229:/Library/DaisyToolchain/0.2.0/arm/arm-none-eabi/include/c++/10.3.1/bits/stl_algobase.h ****     inline const _Tp&
 230:/Library/DaisyToolchain/0.2.0/arm/arm-none-eabi/include/c++/10.3.1/bits/stl_algobase.h ****     min(const _Tp& __a, const _Tp& __b)
 231:/Library/DaisyToolchain/0.2.0/arm/arm-none-eabi/include/c++/10.3.1/bits/stl_algobase.h ****     {
 232:/Library/DaisyToolchain/0.2.0/arm/arm-none-eabi/include/c++/10.3.1/bits/stl_algobase.h ****       // concept requirements
 233:/Library/DaisyToolchain/0.2.0/arm/arm-none-eabi/include/c++/10.3.1/bits/stl_algobase.h ****       __glibcxx_function_requires(_LessThanComparableConcept<_Tp>)
 234:/Library/DaisyToolchain/0.2.0/arm/arm-none-eabi/include/c++/10.3.1/bits/stl_algobase.h ****       //return __b < __a ? __b : __a;
 235:/Library/DaisyToolchain/0.2.0/arm/arm-none-eabi/include/c++/10.3.1/bits/stl_algobase.h ****       if (__b < __a)
 293              		.loc 4 235 15 view .LVU78
 294 0016 026A     		ldr	r2, [r0, #32]
ARM GAS  /var/folders/9k/zk1mgrrd7wg4__6zvxvr9w8m0000gn/T//ccqmKVLy.s 			page 18


 295              	.LVL9:
 296              		.loc 4 235 15 view .LVU79
 297              	.LBE183:
 298              	.LBE182:
 106:mi/plaits/dsp/speech/naive_speech_synth.cpp ****     click_duration_ = kSampleRate * 0.05f;
 107:mi/plaits/dsp/speech/naive_speech_synth.cpp ****   }
 108:mi/plaits/dsp/speech/naive_speech_synth.cpp ****   click_duration_ -= min(click_duration_, size);
 299              		.loc 1 108 3 is_stmt 1 view .LVU80
 300              	.LBB186:
 301              	.LBI182:
 230:/Library/DaisyToolchain/0.2.0/arm/arm-none-eabi/include/c++/10.3.1/bits/stl_algobase.h ****     {
 302              		.loc 4 230 5 view .LVU81
 303              	.LBB184:
 304              		.loc 4 235 7 is_stmt 0 view .LVU82
 305 0018 9542     		cmp	r5, r2
 306 001a C0F00B82 		bcc	.L56
 307              	.LVL10:
 308              	.L10:
 309              		.loc 4 235 7 view .LVU83
 310              	.LBE184:
 311              	.LBE186:
 312              		.loc 1 108 19 view .LVU84
 313 001e 0022     		movs	r2, #0
 314 0020 2262     		str	r2, [r4, #32]
 109:mi/plaits/dsp/speech/naive_speech_synth.cpp ****   
 110:mi/plaits/dsp/speech/naive_speech_synth.cpp ****   if (click_duration_) {
 315              		.loc 1 110 3 is_stmt 1 view .LVU85
 108:mi/plaits/dsp/speech/naive_speech_synth.cpp ****   
 316              		.loc 1 108 19 is_stmt 0 view .LVU86
 317 0022 0192     		str	r2, [sp, #4]
 318              	.LVL11:
 319              	.L28:
 111:mi/plaits/dsp/speech/naive_speech_synth.cpp ****     frequency *= 0.5f;
 112:mi/plaits/dsp/speech/naive_speech_synth.cpp ****   }
 113:mi/plaits/dsp/speech/naive_speech_synth.cpp ****   
 114:mi/plaits/dsp/speech/naive_speech_synth.cpp ****   // Generate excitation signal (glottal pulse).
 115:mi/plaits/dsp/speech/naive_speech_synth.cpp ****   pulse_.Render<OSCILLATOR_SHAPE_IMPULSE_TRAIN>(
 320              		.loc 1 115 3 is_stmt 1 view .LVU87
 321              	.LBB187:
 322              	.LBI187:
  67:mi/plaits/dsp/oscillator/oscillator.h ****   }
  68:mi/plaits/dsp/oscillator/oscillator.h **** 
  69:mi/plaits/dsp/oscillator/oscillator.h ****   template<OscillatorShape shape>
  70:mi/plaits/dsp/oscillator/oscillator.h ****   void Render(float frequency, float pw, float* out, size_t size) {
 323              		.loc 2 70 8 view .LVU88
 324              	.LBB188:
 325              	.LBI188:
  71:mi/plaits/dsp/oscillator/oscillator.h ****     Render<shape, false, false>(frequency, pw, NULL, out, size);
  72:mi/plaits/dsp/oscillator/oscillator.h ****   }
  73:mi/plaits/dsp/oscillator/oscillator.h ****   
  74:mi/plaits/dsp/oscillator/oscillator.h ****   template<OscillatorShape shape>
  75:mi/plaits/dsp/oscillator/oscillator.h ****   void Render(
  76:mi/plaits/dsp/oscillator/oscillator.h ****       float frequency,
  77:mi/plaits/dsp/oscillator/oscillator.h ****       float pw,
  78:mi/plaits/dsp/oscillator/oscillator.h ****       const float* fm,
  79:mi/plaits/dsp/oscillator/oscillator.h ****       float* out,
  80:mi/plaits/dsp/oscillator/oscillator.h ****       size_t size) {
ARM GAS  /var/folders/9k/zk1mgrrd7wg4__6zvxvr9w8m0000gn/T//ccqmKVLy.s 			page 19


  81:mi/plaits/dsp/oscillator/oscillator.h ****     if (!fm) {
  82:mi/plaits/dsp/oscillator/oscillator.h ****       Render<shape, false, false>(frequency, pw, NULL, out, size);
  83:mi/plaits/dsp/oscillator/oscillator.h ****     } else {
  84:mi/plaits/dsp/oscillator/oscillator.h ****       Render<shape, true, true>(frequency, pw, fm, out, size);
  85:mi/plaits/dsp/oscillator/oscillator.h ****     }
  86:mi/plaits/dsp/oscillator/oscillator.h ****   }
  87:mi/plaits/dsp/oscillator/oscillator.h **** 
  88:mi/plaits/dsp/oscillator/oscillator.h ****   template<OscillatorShape shape, bool has_external_fm, bool through_zero_fm>
  89:mi/plaits/dsp/oscillator/oscillator.h ****   void Render(
 326              		.loc 2 89 8 view .LVU89
 327              	.LBB189:
  90:mi/plaits/dsp/oscillator/oscillator.h ****       float frequency,
  91:mi/plaits/dsp/oscillator/oscillator.h ****       float pw,
  92:mi/plaits/dsp/oscillator/oscillator.h ****       const float* external_fm,
  93:mi/plaits/dsp/oscillator/oscillator.h ****       float* out,
  94:mi/plaits/dsp/oscillator/oscillator.h ****       size_t size) {
  95:mi/plaits/dsp/oscillator/oscillator.h ****     
  96:mi/plaits/dsp/oscillator/oscillator.h ****     if (!has_external_fm) {
  97:mi/plaits/dsp/oscillator/oscillator.h ****       if (!through_zero_fm) {
  98:mi/plaits/dsp/oscillator/oscillator.h ****         CONSTRAIN(frequency, kMinFrequency, kMaxFrequency);
 328              		.loc 2 98 9 is_stmt 0 view .LVU90
 329 0024 DFEDD37A 		vldr.32	s15, .L61
 330 0028 B4EEE70A 		vcmpe.f32	s0, s15
 331 002c F1EE10FA 		vmrs	APSR_nzcv, FPSCR
 332 0030 06D4     		bmi	.L31
 333              		.loc 2 98 9 view .LVU91
 334 0032 F5EE007A 		vmov.f32	s15, #2.5e-1
 335 0036 B4EEE70A 		vcmpe.f32	s0, s15
 336 003a F1EE10FA 		vmrs	APSR_nzcv, FPSCR
 337 003e 69DD     		ble	.L57
 338              	.L31:
 339              		.loc 2 98 9 view .LVU92
 340 0040 B0EE670A 		vmov.f32	s0, s15
 341              	.LVL12:
 342              		.loc 2 98 9 view .LVU93
 343              	.LBE189:
 344              	.LBE188:
 345              	.LBE187:
 108:mi/plaits/dsp/speech/naive_speech_synth.cpp ****   
 346              		.loc 1 108 19 view .LVU94
 347 0044 F6EE007A 		vmov.f32	s15, #5.0e-1
 348              	.L12:
 349              	.LVL13:
 350              	.LBB272:
 351              	.LBB267:
 352              	.LBB262:
 353              	.LBB190:
 354              	.LBI190:
 355              		.file 5 "mi/stmlib/dsp/parameter_interpolator.h"
   1:mi/stmlib/dsp/parameter_interpolator.h **** // Copyright 2015 Emilie Gillet.
   2:mi/stmlib/dsp/parameter_interpolator.h **** //
   3:mi/stmlib/dsp/parameter_interpolator.h **** // Author: Emilie Gillet (emilie.o.gillet@gmail.com)
   4:mi/stmlib/dsp/parameter_interpolator.h **** //
   5:mi/stmlib/dsp/parameter_interpolator.h **** // Permission is hereby granted, free of charge, to any person obtaining a copy
   6:mi/stmlib/dsp/parameter_interpolator.h **** // of this software and associated documentation files (the "Software"), to deal
   7:mi/stmlib/dsp/parameter_interpolator.h **** // in the Software without restriction, including without limitation the rights
   8:mi/stmlib/dsp/parameter_interpolator.h **** // to use, copy, modify, merge, publish, distribute, sublicense, and/or sell
ARM GAS  /var/folders/9k/zk1mgrrd7wg4__6zvxvr9w8m0000gn/T//ccqmKVLy.s 			page 20


   9:mi/stmlib/dsp/parameter_interpolator.h **** // copies of the Software, and to permit persons to whom the Software is
  10:mi/stmlib/dsp/parameter_interpolator.h **** // furnished to do so, subject to the following conditions:
  11:mi/stmlib/dsp/parameter_interpolator.h **** // 
  12:mi/stmlib/dsp/parameter_interpolator.h **** // The above copyright notice and this permission notice shall be included in
  13:mi/stmlib/dsp/parameter_interpolator.h **** // all copies or substantial portions of the Software.
  14:mi/stmlib/dsp/parameter_interpolator.h **** // 
  15:mi/stmlib/dsp/parameter_interpolator.h **** // THE SOFTWARE IS PROVIDED "AS IS", WITHOUT WARRANTY OF ANY KIND, EXPRESS OR
  16:mi/stmlib/dsp/parameter_interpolator.h **** // IMPLIED, INCLUDING BUT NOT LIMITED TO THE WARRANTIES OF MERCHANTABILITY,
  17:mi/stmlib/dsp/parameter_interpolator.h **** // FITNESS FOR A PARTICULAR PURPOSE AND NONINFRINGEMENT. IN NO EVENT SHALL THE
  18:mi/stmlib/dsp/parameter_interpolator.h **** // AUTHORS OR COPYRIGHT HOLDERS BE LIABLE FOR ANY CLAIM, DAMAGES OR OTHER
  19:mi/stmlib/dsp/parameter_interpolator.h **** // LIABILITY, WHETHER IN AN ACTION OF CONTRACT, TORT OR OTHERWISE, ARISING FROM,
  20:mi/stmlib/dsp/parameter_interpolator.h **** // OUT OF OR IN CONNECTION WITH THE SOFTWARE OR THE USE OR OTHER DEALINGS IN
  21:mi/stmlib/dsp/parameter_interpolator.h **** // THE SOFTWARE.
  22:mi/stmlib/dsp/parameter_interpolator.h **** // 
  23:mi/stmlib/dsp/parameter_interpolator.h **** // See http://creativecommons.org/licenses/MIT/ for more information.
  24:mi/stmlib/dsp/parameter_interpolator.h **** //
  25:mi/stmlib/dsp/parameter_interpolator.h **** // -----------------------------------------------------------------------------
  26:mi/stmlib/dsp/parameter_interpolator.h **** //
  27:mi/stmlib/dsp/parameter_interpolator.h **** // Linear interpolation of parameters in rendering loops.
  28:mi/stmlib/dsp/parameter_interpolator.h **** 
  29:mi/stmlib/dsp/parameter_interpolator.h **** #ifndef STMLIB_DSP_PARAMETER_INTERPOLATOR_H_
  30:mi/stmlib/dsp/parameter_interpolator.h **** #define STMLIB_DSP_PARAMETER_INTERPOLATOR_H_
  31:mi/stmlib/dsp/parameter_interpolator.h **** 
  32:mi/stmlib/dsp/parameter_interpolator.h **** #include "stmlib/stmlib.h"
  33:mi/stmlib/dsp/parameter_interpolator.h **** 
  34:mi/stmlib/dsp/parameter_interpolator.h **** namespace stmlib {
  35:mi/stmlib/dsp/parameter_interpolator.h **** 
  36:mi/stmlib/dsp/parameter_interpolator.h **** class ParameterInterpolator {
  37:mi/stmlib/dsp/parameter_interpolator.h ****  public:
  38:mi/stmlib/dsp/parameter_interpolator.h ****   ParameterInterpolator() { }
  39:mi/stmlib/dsp/parameter_interpolator.h ****   ParameterInterpolator(float* state, float new_value, size_t size) {
 356              		.loc 5 39 3 is_stmt 1 view .LVU95
 357              	.LBE190:
 358              	.LBE262:
 359              	.LBE267:
 360              	.LBE272:
  40:mi/stmlib/dsp/parameter_interpolator.h ****     Init(state, new_value, size);
 361              		.loc 5 40 5 view .LVU96
 362              	.LBB273:
 363              	.LBB268:
 364              	.LBB263:
 365              	.LBB199:
 366              	.LBB191:
 367              	.LBI191:
  41:mi/stmlib/dsp/parameter_interpolator.h ****   }
  42:mi/stmlib/dsp/parameter_interpolator.h **** 
  43:mi/stmlib/dsp/parameter_interpolator.h ****   ParameterInterpolator(float* state, float new_value, float step) {
  44:mi/stmlib/dsp/parameter_interpolator.h ****     state_ = state;
  45:mi/stmlib/dsp/parameter_interpolator.h ****     value_ = *state;
  46:mi/stmlib/dsp/parameter_interpolator.h ****     increment_ = (new_value - *state) * step;
  47:mi/stmlib/dsp/parameter_interpolator.h ****   }
  48:mi/stmlib/dsp/parameter_interpolator.h **** 
  49:mi/stmlib/dsp/parameter_interpolator.h ****   ~ParameterInterpolator() {
  50:mi/stmlib/dsp/parameter_interpolator.h ****     *state_ = value_;
  51:mi/stmlib/dsp/parameter_interpolator.h ****   }
  52:mi/stmlib/dsp/parameter_interpolator.h ****   
  53:mi/stmlib/dsp/parameter_interpolator.h ****   inline void Init(float* state, float new_value, size_t size) {
ARM GAS  /var/folders/9k/zk1mgrrd7wg4__6zvxvr9w8m0000gn/T//ccqmKVLy.s 			page 21


 368              		.loc 5 53 15 view .LVU97
 369              	.LBB192:
  54:mi/stmlib/dsp/parameter_interpolator.h ****     state_ = state;
 370              		.loc 5 54 5 view .LVU98
  55:mi/stmlib/dsp/parameter_interpolator.h ****     value_ = *state;
 371              		.loc 5 55 5 view .LVU99
 372              		.loc 5 55 14 is_stmt 0 view .LVU100
 373 0048 94ED055A 		vldr.32	s10, [r4, #20]
 374              	.LVL14:
  56:mi/stmlib/dsp/parameter_interpolator.h ****     increment_ = (new_value - *state) / static_cast<float>(size);
 375              		.loc 5 56 5 is_stmt 1 view .LVU101
 376              		.loc 5 56 41 is_stmt 0 view .LVU102
 377 004c 07EE105A 		vmov	s14, r5	@ int
 378              	.LBE192:
 379              	.LBE191:
 380              	.LBE199:
 381              	.LBB200:
 382              	.LBB201:
 383              	.LBB202:
  55:mi/stmlib/dsp/parameter_interpolator.h ****     value_ = *state;
 384              		.loc 5 55 14 view .LVU103
 385 0050 D4ED063A 		vldr.32	s7, [r4, #24]
 386              	.LBE202:
 387              	.LBE201:
 388              	.LBE200:
  99:mi/plaits/dsp/oscillator/oscillator.h ****       } else {
 100:mi/plaits/dsp/oscillator/oscillator.h ****         CONSTRAIN(frequency, -kMaxFrequency, kMaxFrequency);
 101:mi/plaits/dsp/oscillator/oscillator.h ****       }
 102:mi/plaits/dsp/oscillator/oscillator.h ****       CONSTRAIN(pw, fabsf(frequency) * 2.0f, 1.0f - 2.0f * fabsf(frequency))
 103:mi/plaits/dsp/oscillator/oscillator.h ****     }
 104:mi/plaits/dsp/oscillator/oscillator.h ****     
 105:mi/plaits/dsp/oscillator/oscillator.h ****     stmlib::ParameterInterpolator fm(&frequency_, frequency, size);
 106:mi/plaits/dsp/oscillator/oscillator.h ****     stmlib::ParameterInterpolator pwm(&pw_, pw, size);
 107:mi/plaits/dsp/oscillator/oscillator.h ****   
 108:mi/plaits/dsp/oscillator/oscillator.h ****     float next_sample = next_sample_;
 109:mi/plaits/dsp/oscillator/oscillator.h ****   
 110:mi/plaits/dsp/oscillator/oscillator.h ****     while (size--) {
 389              		.loc 2 110 5 view .LVU104
 390 0054 6A1E     		subs	r2, r5, #1
 391              	.LBB207:
 392              	.LBB196:
 393              	.LBB193:
 394              		.loc 5 56 41 view .LVU105
 395 0056 B8EE477A 		vcvt.f32.u32	s14, s14
 396              	.LBE193:
 397              	.LBE196:
 398              	.LBE207:
 108:mi/plaits/dsp/oscillator/oscillator.h ****   
 399              		.loc 2 108 11 view .LVU106
 400 005a D4ED014A 		vldr.32	s9, [r4, #4]
 401              	.LBB208:
 402              	.LBB197:
 403              	.LBB194:
 404              		.loc 5 56 29 view .LVU107
 405 005e 30EE450A 		vsub.f32	s0, s0, s10
 406              	.LVL15:
 407              		.loc 5 56 29 view .LVU108
ARM GAS  /var/folders/9k/zk1mgrrd7wg4__6zvxvr9w8m0000gn/T//ccqmKVLy.s 			page 22


 408              	.LBE194:
 409              	.LBE197:
 410              	.LBE208:
 411              	.LBB209:
 412              	.LBB205:
 413              	.LBB203:
 414 0062 77EEE37A 		vsub.f32	s15, s15, s7
 415              	.LVL16:
 416              		.loc 5 56 29 view .LVU109
 417              	.LBE203:
 418              	.LBE205:
 419              	.LBE209:
 420              	.LBB210:
 421              	.LBB198:
 422              	.LBB195:
 423              		.loc 5 56 39 view .LVU110
 424 0066 80EE072A 		vdiv.f32	s4, s0, s14
 425              	.LVL17:
 426              		.loc 5 56 39 view .LVU111
 427              	.LBE195:
 428              	.LBE198:
 429              	.LBE210:
 430              	.LBB211:
 431              	.LBI200:
  39:mi/stmlib/dsp/parameter_interpolator.h ****     Init(state, new_value, size);
 432              		.loc 5 39 3 is_stmt 1 view .LVU112
 433              	.LBE211:
 434              	.LBE263:
 435              	.LBE268:
 436              	.LBE273:
  40:mi/stmlib/dsp/parameter_interpolator.h ****   }
 437              		.loc 5 40 5 view .LVU113
 438              	.LBB274:
 439              	.LBB269:
 440              	.LBB264:
 441              	.LBB212:
 442              	.LBB206:
 443              	.LBI201:
  53:mi/stmlib/dsp/parameter_interpolator.h ****     state_ = state;
 444              		.loc 5 53 15 view .LVU114
 445              	.LBB204:
  54:mi/stmlib/dsp/parameter_interpolator.h ****     value_ = *state;
 446              		.loc 5 54 5 view .LVU115
  55:mi/stmlib/dsp/parameter_interpolator.h ****     increment_ = (new_value - *state) / static_cast<float>(size);
 447              		.loc 5 55 5 view .LVU116
 448              		.loc 5 56 5 view .LVU117
 449              		.loc 5 56 39 is_stmt 0 view .LVU118
 450 006a C7EE871A 		vdiv.f32	s3, s15, s14
 451              	.LVL18:
 452              		.loc 5 56 39 view .LVU119
 453              	.LBE204:
 454              	.LBE206:
 455              	.LBE212:
 456              		.loc 2 110 5 is_stmt 1 view .LVU120
 457              		.loc 2 110 5 is_stmt 0 view .LVU121
 458 006e 002D     		cmp	r5, #0
 459 0070 00F0E981 		beq	.L14
ARM GAS  /var/folders/9k/zk1mgrrd7wg4__6zvxvr9w8m0000gn/T//ccqmKVLy.s 			page 23


 460              	.LBB213:
 461              	.LBB214:
 111:mi/plaits/dsp/oscillator/oscillator.h ****       float this_sample = next_sample;
 112:mi/plaits/dsp/oscillator/oscillator.h ****       next_sample = 0.0f;
 113:mi/plaits/dsp/oscillator/oscillator.h **** 
 114:mi/plaits/dsp/oscillator/oscillator.h ****       float frequency = fm.Next();
 115:mi/plaits/dsp/oscillator/oscillator.h ****       if (has_external_fm) {
 116:mi/plaits/dsp/oscillator/oscillator.h ****         frequency *= (1.0f + *external_fm++);
 117:mi/plaits/dsp/oscillator/oscillator.h ****         if (!through_zero_fm) {
 118:mi/plaits/dsp/oscillator/oscillator.h ****           CONSTRAIN(frequency, kMinFrequency, kMaxFrequency);
 119:mi/plaits/dsp/oscillator/oscillator.h ****         } else {
 120:mi/plaits/dsp/oscillator/oscillator.h ****           CONSTRAIN(frequency, -kMaxFrequency, kMaxFrequency);
 121:mi/plaits/dsp/oscillator/oscillator.h ****         }
 122:mi/plaits/dsp/oscillator/oscillator.h ****       }
 123:mi/plaits/dsp/oscillator/oscillator.h ****       float pw = (shape == OSCILLATOR_SHAPE_SQUARE_TRIANGLE ||
 124:mi/plaits/dsp/oscillator/oscillator.h ****                   shape == OSCILLATOR_SHAPE_TRIANGLE) ? 0.5f : pwm.Next();
 125:mi/plaits/dsp/oscillator/oscillator.h ****       if (has_external_fm) {
 126:mi/plaits/dsp/oscillator/oscillator.h ****         CONSTRAIN(pw, fabsf(frequency) * 2.0f, 1.0f - 2.0f * fabsf(frequency))
 127:mi/plaits/dsp/oscillator/oscillator.h ****       }
 128:mi/plaits/dsp/oscillator/oscillator.h ****       phase_ += frequency;
 129:mi/plaits/dsp/oscillator/oscillator.h ****       
 130:mi/plaits/dsp/oscillator/oscillator.h ****       if (shape <= OSCILLATOR_SHAPE_SAW) {
 131:mi/plaits/dsp/oscillator/oscillator.h ****         if (phase_ >= 1.0f) {
 132:mi/plaits/dsp/oscillator/oscillator.h ****           phase_ -= 1.0f;
 133:mi/plaits/dsp/oscillator/oscillator.h ****           float t = phase_ / frequency;
 134:mi/plaits/dsp/oscillator/oscillator.h ****           this_sample -= stmlib::ThisBlepSample(t);
 135:mi/plaits/dsp/oscillator/oscillator.h ****           next_sample -= stmlib::NextBlepSample(t);
 136:mi/plaits/dsp/oscillator/oscillator.h ****         } else if (through_zero_fm && phase_ < 0.0f) {
 137:mi/plaits/dsp/oscillator/oscillator.h ****           float t = phase_ / frequency;
 138:mi/plaits/dsp/oscillator/oscillator.h ****           phase_ += 1.0f;
 139:mi/plaits/dsp/oscillator/oscillator.h ****           this_sample += stmlib::ThisBlepSample(t);
 140:mi/plaits/dsp/oscillator/oscillator.h ****           next_sample += stmlib::NextBlepSample(t);
 141:mi/plaits/dsp/oscillator/oscillator.h ****         }
 142:mi/plaits/dsp/oscillator/oscillator.h ****         next_sample += phase_;
 143:mi/plaits/dsp/oscillator/oscillator.h **** 
 144:mi/plaits/dsp/oscillator/oscillator.h ****         if (shape == OSCILLATOR_SHAPE_SAW) {
 145:mi/plaits/dsp/oscillator/oscillator.h ****           *out++ = 2.0f * this_sample - 1.0f;
 146:mi/plaits/dsp/oscillator/oscillator.h ****         } else {
 147:mi/plaits/dsp/oscillator/oscillator.h ****           lp_state_ += 0.25f * ((hp_state_ - this_sample) - lp_state_);
 462              		.loc 2 147 34 view .LVU122
 463 0074 94ED033A 		vldr.32	s6, [r4, #12]
 464 0078 3046     		mov	r0, r6
 465              	.LVL19:
 466              		.loc 2 147 34 view .LVU123
 467 007a 1146     		mov	r1, r2
 468              	.LVL20:
 469              		.loc 2 147 34 view .LVU124
 470 007c 2EE0     		b	.L17
 471              	.LVL21:
 472              	.L15:
 473              	.LBB215:
 474              	.LBB216:
 132:mi/plaits/dsp/oscillator/oscillator.h ****           float t = phase_ / frequency;
 475              		.loc 2 132 18 view .LVU125
 476 007e 77EEC77A 		vsub.f32	s15, s15, s14
 133:mi/plaits/dsp/oscillator/oscillator.h ****           this_sample -= stmlib::ThisBlepSample(t);
 477              		.loc 2 133 17 view .LVU126
ARM GAS  /var/folders/9k/zk1mgrrd7wg4__6zvxvr9w8m0000gn/T//ccqmKVLy.s 			page 24


 478 0082 87EE854A 		vdiv.f32	s8, s15, s10
 479              	.LVL22:
 480              	.LBB217:
 481              	.LBI217:
 482              		.file 6 "mi/stmlib/dsp/polyblep.h"
   1:mi/stmlib/dsp/polyblep.h **** // Copyright 2017 Emilie Gillet.
   2:mi/stmlib/dsp/polyblep.h **** //
   3:mi/stmlib/dsp/polyblep.h **** // Author: Emilie Gillet (emilie.o.gillet@gmail.com)
   4:mi/stmlib/dsp/polyblep.h **** //
   5:mi/stmlib/dsp/polyblep.h **** // Permission is hereby granted, free of charge, to any person obtaining a copy
   6:mi/stmlib/dsp/polyblep.h **** // of this software and associated documentation files (the "Software"), to deal
   7:mi/stmlib/dsp/polyblep.h **** // in the Software without restriction, including without limitation the rights
   8:mi/stmlib/dsp/polyblep.h **** // to use, copy, modify, merge, publish, distribute, sublicense, and/or sell
   9:mi/stmlib/dsp/polyblep.h **** // copies of the Software, and to permit persons to whom the Software is
  10:mi/stmlib/dsp/polyblep.h **** // furnished to do so, subject to the following conditions:
  11:mi/stmlib/dsp/polyblep.h **** // 
  12:mi/stmlib/dsp/polyblep.h **** // The above copyright notice and this permission notice shall be included in
  13:mi/stmlib/dsp/polyblep.h **** // all copies or substantial portions of the Software.
  14:mi/stmlib/dsp/polyblep.h **** // 
  15:mi/stmlib/dsp/polyblep.h **** // THE SOFTWARE IS PROVIDED "AS IS", WITHOUT WARRANTY OF ANY KIND, EXPRESS OR
  16:mi/stmlib/dsp/polyblep.h **** // IMPLIED, INCLUDING BUT NOT LIMITED TO THE WARRANTIES OF MERCHANTABILITY,
  17:mi/stmlib/dsp/polyblep.h **** // FITNESS FOR A PARTICULAR PURPOSE AND NONINFRINGEMENT. IN NO EVENT SHALL THE
  18:mi/stmlib/dsp/polyblep.h **** // AUTHORS OR COPYRIGHT HOLDERS BE LIABLE FOR ANY CLAIM, DAMAGES OR OTHER
  19:mi/stmlib/dsp/polyblep.h **** // LIABILITY, WHETHER IN AN ACTION OF CONTRACT, TORT OR OTHERWISE, ARISING FROM,
  20:mi/stmlib/dsp/polyblep.h **** // OUT OF OR IN CONNECTION WITH THE SOFTWARE OR THE USE OR OTHER DEALINGS IN
  21:mi/stmlib/dsp/polyblep.h **** // THE SOFTWARE.
  22:mi/stmlib/dsp/polyblep.h **** // 
  23:mi/stmlib/dsp/polyblep.h **** // See http://creativecommons.org/licenses/MIT/ for more information.
  24:mi/stmlib/dsp/polyblep.h **** //
  25:mi/stmlib/dsp/polyblep.h **** // -----------------------------------------------------------------------------
  26:mi/stmlib/dsp/polyblep.h **** //
  27:mi/stmlib/dsp/polyblep.h **** // Polynomial approximation of band-limited step for band-limited waveform
  28:mi/stmlib/dsp/polyblep.h **** // synthesis.
  29:mi/stmlib/dsp/polyblep.h **** 
  30:mi/stmlib/dsp/polyblep.h **** #ifndef STMLIB_DSP_POLYBLEP_H_
  31:mi/stmlib/dsp/polyblep.h **** #define STMLIB_DSP_POLYBLEP_H_
  32:mi/stmlib/dsp/polyblep.h **** 
  33:mi/stmlib/dsp/polyblep.h **** #include "stmlib/stmlib.h"
  34:mi/stmlib/dsp/polyblep.h **** 
  35:mi/stmlib/dsp/polyblep.h **** namespace stmlib {
  36:mi/stmlib/dsp/polyblep.h **** 
  37:mi/stmlib/dsp/polyblep.h **** inline float ThisBlepSample(float t) {
 483              		.loc 6 37 14 is_stmt 1 view .LVU127
 484              	.LBB218:
  38:mi/stmlib/dsp/polyblep.h ****   return 0.5f * t * t;
 485              		.loc 6 38 3 view .LVU128
 486              		.loc 6 38 3 is_stmt 0 view .LVU129
 487              	.LBE218:
 488              	.LBE217:
 132:mi/plaits/dsp/oscillator/oscillator.h ****           float t = phase_ / frequency;
 489              		.loc 2 132 18 view .LVU130
 490 0086 C4ED007A 		vstr.32	s15, [r4]
 491              	.LBB221:
 492              	.LBB222:
  39:mi/stmlib/dsp/polyblep.h **** }
  40:mi/stmlib/dsp/polyblep.h **** 
  41:mi/stmlib/dsp/polyblep.h **** inline float NextBlepSample(float t) {
ARM GAS  /var/folders/9k/zk1mgrrd7wg4__6zvxvr9w8m0000gn/T//ccqmKVLy.s 			page 25


  42:mi/stmlib/dsp/polyblep.h ****   t = 1.0f - t;
 493              		.loc 6 42 5 view .LVU131
 494 008a 37EE447A 		vsub.f32	s14, s14, s8
 495              	.LBE222:
 496              	.LBE221:
 497              	.LBB226:
 498              	.LBB219:
  38:mi/stmlib/dsp/polyblep.h **** }
 499              		.loc 6 38 15 view .LVU132
 500 008e 64EE255A 		vmul.f32	s11, s8, s11
 501              	.LBE219:
 502              	.LBE226:
 503              	.LBB227:
 504              	.LBB223:
  43:mi/stmlib/dsp/polyblep.h ****   return -0.5f * t * t;
 505              		.loc 6 43 16 view .LVU133
 506 0092 27EE066A 		vmul.f32	s12, s14, s12
 507              	.LBE223:
 508              	.LBE227:
 134:mi/plaits/dsp/oscillator/oscillator.h ****           next_sample -= stmlib::NextBlepSample(t);
 509              		.loc 2 134 23 view .LVU134
 510 0096 E4EE656A 		vfms.f32	s13, s8, s11
 511              	.LVL23:
 512              	.LBB228:
 513              	.LBI221:
  41:mi/stmlib/dsp/polyblep.h ****   t = 1.0f - t;
 514              		.loc 6 41 14 is_stmt 1 view .LVU135
 515              	.LBB224:
  42:mi/stmlib/dsp/polyblep.h ****   return -0.5f * t * t;
 516              		.loc 6 42 3 view .LVU136
 517              		.loc 6 43 3 view .LVU137
 518              		.loc 6 43 3 is_stmt 0 view .LVU138
 519              	.LBE224:
 520              	.LBE228:
 135:mi/plaits/dsp/oscillator/oscillator.h ****         } else if (through_zero_fm && phase_ < 0.0f) {
 521              		.loc 2 135 23 view .LVU139
 522 009a B0EE624A 		vmov.f32	s8, s5
 523              	.LVL24:
 135:mi/plaits/dsp/oscillator/oscillator.h ****         } else if (through_zero_fm && phase_ < 0.0f) {
 524              		.loc 2 135 23 view .LVU140
 525 009e A7EE464A 		vfms.f32	s8, s14, s12
 526              	.LVL25:
 527              	.L16:
 135:mi/plaits/dsp/oscillator/oscillator.h ****         } else if (through_zero_fm && phase_ < 0.0f) {
 528              		.loc 2 135 23 view .LVU141
 529              	.LBE216:
 530              	.LBE215:
 531              		.loc 2 147 44 view .LVU142
 532 00a2 73EE665A 		vsub.f32	s11, s6, s13
 533              		.loc 2 147 21 view .LVU143
 534 00a6 94ED027A 		vldr.32	s14, [r4, #8]
 535 00aa F5EE002A 		vmov.f32	s5, #2.5e-1
 536              	.LBE214:
 537              	.LBE213:
 110:mi/plaits/dsp/oscillator/oscillator.h ****       float this_sample = next_sample;
 538              		.loc 2 110 5 view .LVU144
 539 00ae 0139     		subs	r1, r1, #1
ARM GAS  /var/folders/9k/zk1mgrrd7wg4__6zvxvr9w8m0000gn/T//ccqmKVLy.s 			page 26


 540              	.LVL26:
 541              	.LBB250:
 542              	.LBB237:
 142:mi/plaits/dsp/oscillator/oscillator.h **** 
 543              		.loc 2 142 21 view .LVU145
 544 00b0 74EE274A 		vadd.f32	s9, s8, s15
 545              	.LVL27:
 546              		.loc 2 147 59 view .LVU146
 547 00b4 75EEC75A 		vsub.f32	s11, s11, s14
 548              	.LBE237:
 549              	.LBE250:
 110:mi/plaits/dsp/oscillator/oscillator.h ****       float this_sample = next_sample;
 550              		.loc 2 110 5 view .LVU147
 551 00b8 4F1C     		adds	r7, r1, #1
 552              	.LBB251:
 553              	.LBB238:
 554              		.loc 2 147 21 view .LVU148
 555 00ba F0EE477A 		vmov.f32	s15, s14
 148:mi/plaits/dsp/oscillator/oscillator.h ****           *out++ = 4.0f * lp_state_;
 556              		.loc 2 148 25 view .LVU149
 557 00be B1EE006A 		vmov.f32	s12, #4.0e+0
 558              	.LBE238:
 559              	.LBE251:
 560 00c2 B0EE663A 		vmov.f32	s6, s13
 561              	.LBB252:
 562              	.LBB239:
 147:mi/plaits/dsp/oscillator/oscillator.h ****           *out++ = 4.0f * lp_state_;
 563              		.loc 2 147 21 view .LVU150
 564 00c6 E5EEA27A 		vfma.f32	s15, s11, s5
 565              		.loc 2 148 25 view .LVU151
 566 00ca 27EE867A 		vmul.f32	s14, s15, s12
 147:mi/plaits/dsp/oscillator/oscillator.h ****           *out++ = 4.0f * lp_state_;
 567              		.loc 2 147 21 view .LVU152
 568 00ce C4ED027A 		vstr.32	s15, [r4, #8]
 569              	.LVL28:
 570              		.loc 2 148 18 view .LVU153
 571 00d2 A0EC017A 		vstmia.32	r0!, {s14}
 572              	.LVL29:
 149:mi/plaits/dsp/oscillator/oscillator.h ****           hp_state_ = this_sample;
 573              		.loc 2 149 21 view .LVU154
 574 00d6 C4ED036A 		vstr.32	s13, [r4, #12]
 575              	.LVL30:
 576              		.loc 2 149 21 view .LVU155
 577              	.LBE239:
 578              	.LBE252:
 110:mi/plaits/dsp/oscillator/oscillator.h ****       float this_sample = next_sample;
 579              		.loc 2 110 5 is_stmt 1 view .LVU156
 110:mi/plaits/dsp/oscillator/oscillator.h ****       float this_sample = next_sample;
 580              		.loc 2 110 5 is_stmt 0 view .LVU157
 581 00da 32D0     		beq	.L58
 582              	.LVL31:
 583              	.L17:
 584              	.LBB253:
 585              	.LBB240:
 586              	.LBI240:
  57:mi/stmlib/dsp/parameter_interpolator.h ****   }
  58:mi/stmlib/dsp/parameter_interpolator.h **** 
ARM GAS  /var/folders/9k/zk1mgrrd7wg4__6zvxvr9w8m0000gn/T//ccqmKVLy.s 			page 27


  59:mi/stmlib/dsp/parameter_interpolator.h ****   inline float Next() {
 587              		.loc 5 59 16 is_stmt 1 view .LVU158
 588              	.LBB241:
  60:mi/stmlib/dsp/parameter_interpolator.h ****     value_ += increment_;
 589              		.loc 5 60 5 view .LVU159
 590              		.loc 5 60 12 is_stmt 0 view .LVU160
 591 00dc 35EE025A 		vadd.f32	s10, s10, s4
 592              	.LVL32:
  61:mi/stmlib/dsp/parameter_interpolator.h ****     return value_;
 593              		.loc 5 61 5 is_stmt 1 view .LVU161
 594              		.loc 5 61 5 is_stmt 0 view .LVU162
 595              	.LBE241:
 596              	.LBE240:
 597              	.LBB242:
 598              	.LBI242:
  59:mi/stmlib/dsp/parameter_interpolator.h ****     value_ += increment_;
 599              		.loc 5 59 16 is_stmt 1 view .LVU163
 600              	.LBB243:
  60:mi/stmlib/dsp/parameter_interpolator.h ****     value_ += increment_;
 601              		.loc 5 60 5 view .LVU164
 602              	.LBE243:
 603              	.LBE242:
 128:mi/plaits/dsp/oscillator/oscillator.h ****       
 604              		.loc 2 128 14 is_stmt 0 view .LVU165
 605 00e0 D4ED007A 		vldr.32	s15, [r4]
 606              	.LBB245:
 607              	.LBB233:
 131:mi/plaits/dsp/oscillator/oscillator.h ****           phase_ -= 1.0f;
 608              		.loc 2 131 9 view .LVU166
 609 00e4 B7EE007A 		vmov.f32	s14, #1.0e+0
 610              	.LBB231:
 135:mi/plaits/dsp/oscillator/oscillator.h ****         } else if (through_zero_fm && phase_ < 0.0f) {
 611              		.loc 2 135 23 view .LVU167
 612 00e8 DFEDA32A 		vldr.32	s5, .L61+4
 613              	.LBB229:
 614              	.LBB220:
  38:mi/stmlib/dsp/polyblep.h **** }
 615              		.loc 6 38 15 view .LVU168
 616 00ec F6EE005A 		vmov.f32	s11, #5.0e-1
 617              	.LBE220:
 618              	.LBE229:
 619              	.LBE231:
 620              	.LBE233:
 621              	.LBE245:
 128:mi/plaits/dsp/oscillator/oscillator.h ****       
 622              		.loc 2 128 14 view .LVU169
 623 00f0 75EE277A 		vadd.f32	s15, s10, s15
 624              	.LBB246:
 625              	.LBB234:
 626              	.LBB232:
 627              	.LBB230:
 628              	.LBB225:
 629              		.loc 6 43 16 view .LVU170
 630 00f4 BEEE006A 		vmov.f32	s12, #-5.0e-1
 631              	.LBE225:
 632              	.LBE230:
 633              	.LBE232:
ARM GAS  /var/folders/9k/zk1mgrrd7wg4__6zvxvr9w8m0000gn/T//ccqmKVLy.s 			page 28


 634              	.LBE234:
 635              	.LBE246:
 636              	.LBB247:
 637              	.LBB244:
  60:mi/stmlib/dsp/parameter_interpolator.h ****     return value_;
 638              		.loc 5 60 12 view .LVU171
 639 00f8 73EEA13A 		vadd.f32	s7, s7, s3
 640              	.LVL33:
 641              		.loc 5 61 5 is_stmt 1 view .LVU172
 642              		.loc 5 61 5 is_stmt 0 view .LVU173
 643              	.LBE244:
 644              	.LBE247:
 645              	.LBB248:
 646              	.LBB235:
 131:mi/plaits/dsp/oscillator/oscillator.h ****           phase_ -= 1.0f;
 647              		.loc 2 131 9 view .LVU174
 648 00fc F4EEC77A 		vcmpe.f32	s15, s14
 649              	.LBE235:
 650              	.LBE248:
 128:mi/plaits/dsp/oscillator/oscillator.h ****       
 651              		.loc 2 128 14 view .LVU175
 652 0100 F0EE646A 		vmov.f32	s13, s9
 112:mi/plaits/dsp/oscillator/oscillator.h **** 
 653              		.loc 2 112 19 view .LVU176
 654 0104 B0EE624A 		vmov.f32	s8, s5
 655              	.LBB249:
 656              	.LBB236:
 131:mi/plaits/dsp/oscillator/oscillator.h ****           phase_ -= 1.0f;
 657              		.loc 2 131 9 view .LVU177
 658 0108 F1EE10FA 		vmrs	APSR_nzcv, FPSCR
 659 010c B7DA     		bge	.L15
 131:mi/plaits/dsp/oscillator/oscillator.h ****           phase_ -= 1.0f;
 660              		.loc 2 131 9 view .LVU178
 661              	.LBE236:
 662              	.LBE249:
 128:mi/plaits/dsp/oscillator/oscillator.h ****       
 663              		.loc 2 128 14 view .LVU179
 664 010e C4ED007A 		vstr.32	s15, [r4]
 665 0112 C6E7     		b	.L16
 666              	.LVL34:
 667              	.L57:
 128:mi/plaits/dsp/oscillator/oscillator.h ****       
 668              		.loc 2 128 14 view .LVU180
 669              	.LBE253:
 102:mi/plaits/dsp/oscillator/oscillator.h ****     }
 670              		.loc 2 102 7 view .LVU181
 671 0114 F0EEC07A 		vabs.f32	s15, s0
 672 0118 B6EE007A 		vmov.f32	s14, #5.0e-1
 673 011c 77EEA77A 		vadd.f32	s15, s15, s15
 674 0120 F4EEC77A 		vcmpe.f32	s15, s14
 675 0124 F1EE10FA 		vmrs	APSR_nzcv, FPSCR
 676 0128 8EDC     		bgt	.L12
 677 012a F7EE006A 		vmov.f32	s13, #1.0e+0
 678 012e 76EEE77A 		vsub.f32	s15, s13, s15
 102:mi/plaits/dsp/oscillator/oscillator.h ****     }
 679              		.loc 2 102 7 view .LVU182
 680 0132 F4EEC77A 		vcmpe.f32	s15, s14
ARM GAS  /var/folders/9k/zk1mgrrd7wg4__6zvxvr9w8m0000gn/T//ccqmKVLy.s 			page 29


 681 0136 F1EE10FA 		vmrs	APSR_nzcv, FPSCR
 682 013a 58BF     		it	pl
 683 013c F0EE477A 		vmovpl.f32	s15, s14
 684 0140 82E7     		b	.L12
 685              	.LVL35:
 686              	.L58:
 102:mi/plaits/dsp/oscillator/oscillator.h ****     }
 687              		.loc 2 102 7 view .LVU183
 688              	.LBE264:
 689              	.LBE269:
 690              	.LBE274:
 691              	.LBB275:
 692              	.LBB276:
 227:mi/stmlib/dsp/filter.h ****   }
 228:mi/stmlib/dsp/filter.h ****   
 229:mi/stmlib/dsp/filter.h ****   template<FilterMode mode>
 230:mi/stmlib/dsp/filter.h ****   inline float Process(float in) {
 231:mi/stmlib/dsp/filter.h ****     float hp, bp, lp;
 232:mi/stmlib/dsp/filter.h ****     hp = (in - r_ * state_1_ - g_ * state_1_ - state_2_) * h_;
 233:mi/stmlib/dsp/filter.h ****     bp = g_ * hp + state_1_;
 234:mi/stmlib/dsp/filter.h ****     state_1_ = g_ * hp + bp;
 235:mi/stmlib/dsp/filter.h ****     lp = g_ * bp + state_2_;
 236:mi/stmlib/dsp/filter.h ****     state_2_ = g_ * bp + lp;
 237:mi/stmlib/dsp/filter.h ****     
 238:mi/stmlib/dsp/filter.h ****     if (mode == FILTER_MODE_LOW_PASS) {
 239:mi/stmlib/dsp/filter.h ****       return lp;
 240:mi/stmlib/dsp/filter.h ****     } else if (mode == FILTER_MODE_BAND_PASS) {
 241:mi/stmlib/dsp/filter.h ****       return bp;
 242:mi/stmlib/dsp/filter.h ****     } else if (mode == FILTER_MODE_BAND_PASS_NORMALIZED) {
 243:mi/stmlib/dsp/filter.h ****       return bp * r_;
 244:mi/stmlib/dsp/filter.h ****     } else if (mode == FILTER_MODE_HIGH_PASS) {
 245:mi/stmlib/dsp/filter.h ****       return hp;
 246:mi/stmlib/dsp/filter.h ****     }
 247:mi/stmlib/dsp/filter.h ****   }
 248:mi/stmlib/dsp/filter.h ****   
 249:mi/stmlib/dsp/filter.h ****   template<FilterMode mode_1, FilterMode mode_2>
 250:mi/stmlib/dsp/filter.h ****   inline void Process(float in, float* out_1, float* out_2) {
 251:mi/stmlib/dsp/filter.h ****     float hp, bp, lp;
 252:mi/stmlib/dsp/filter.h ****     hp = (in - r_ * state_1_ - g_ * state_1_ - state_2_) * h_;
 253:mi/stmlib/dsp/filter.h ****     bp = g_ * hp + state_1_;
 254:mi/stmlib/dsp/filter.h ****     state_1_ = g_ * hp + bp;
 255:mi/stmlib/dsp/filter.h ****     lp = g_ * bp + state_2_;
 256:mi/stmlib/dsp/filter.h ****     state_2_ = g_ * bp + lp;
 257:mi/stmlib/dsp/filter.h ****     
 258:mi/stmlib/dsp/filter.h ****     if (mode_1 == FILTER_MODE_LOW_PASS) {
 259:mi/stmlib/dsp/filter.h ****       *out_1 = lp;
 260:mi/stmlib/dsp/filter.h ****     } else if (mode_1 == FILTER_MODE_BAND_PASS) {
 261:mi/stmlib/dsp/filter.h ****       *out_1 = bp;
 262:mi/stmlib/dsp/filter.h ****     } else if (mode_1 == FILTER_MODE_BAND_PASS_NORMALIZED) {
 263:mi/stmlib/dsp/filter.h ****       *out_1 = bp * r_;
 264:mi/stmlib/dsp/filter.h ****     } else if (mode_1 == FILTER_MODE_HIGH_PASS) {
 265:mi/stmlib/dsp/filter.h ****       *out_1 = hp;
 266:mi/stmlib/dsp/filter.h ****     }
 267:mi/stmlib/dsp/filter.h **** 
 268:mi/stmlib/dsp/filter.h ****     if (mode_2 == FILTER_MODE_LOW_PASS) {
 269:mi/stmlib/dsp/filter.h ****       *out_2 = lp;
 270:mi/stmlib/dsp/filter.h ****     } else if (mode_2 == FILTER_MODE_BAND_PASS) {
ARM GAS  /var/folders/9k/zk1mgrrd7wg4__6zvxvr9w8m0000gn/T//ccqmKVLy.s 			page 30


 271:mi/stmlib/dsp/filter.h ****       *out_2 = bp;
 272:mi/stmlib/dsp/filter.h ****     } else if (mode_2 == FILTER_MODE_BAND_PASS_NORMALIZED) {
 273:mi/stmlib/dsp/filter.h ****       *out_2 = bp * r_;
 274:mi/stmlib/dsp/filter.h ****     } else if (mode_2 == FILTER_MODE_HIGH_PASS) {
 275:mi/stmlib/dsp/filter.h ****       *out_2 = hp;
 276:mi/stmlib/dsp/filter.h ****     }
 277:mi/stmlib/dsp/filter.h ****   }
 278:mi/stmlib/dsp/filter.h ****   
 279:mi/stmlib/dsp/filter.h ****   template<FilterMode mode>
 280:mi/stmlib/dsp/filter.h ****   inline void Process(const float* in, float* out, size_t size) {
 281:mi/stmlib/dsp/filter.h ****     float hp, bp, lp;
 282:mi/stmlib/dsp/filter.h ****     float state_1 = state_1_;
 693              		.loc 3 282 11 view .LVU184
 694 0142 D4ED255A 		vldr.32	s11, [r4, #148]
 283:mi/stmlib/dsp/filter.h ****     float state_2 = state_2_;
 695              		.loc 3 283 11 view .LVU185
 696 0146 3146     		mov	r1, r6
 697              	.LVL36:
 698              		.loc 3 283 11 view .LVU186
 699 0148 D4ED266A 		vldr.32	s13, [r4, #152]
 700              	.LBE276:
 701              	.LBE275:
 702              	.LBB282:
 703              	.LBB270:
 704              	.LBB265:
 150:mi/plaits/dsp/oscillator/oscillator.h ****         }
 151:mi/plaits/dsp/oscillator/oscillator.h ****       } else if (shape <= OSCILLATOR_SHAPE_SLOPE) {
 152:mi/plaits/dsp/oscillator/oscillator.h ****         float slope_up = 2.0f;
 153:mi/plaits/dsp/oscillator/oscillator.h ****         float slope_down = 2.0f;
 154:mi/plaits/dsp/oscillator/oscillator.h ****         if (shape == OSCILLATOR_SHAPE_SLOPE) {
 155:mi/plaits/dsp/oscillator/oscillator.h ****           slope_up = 1.0f / (pw);
 156:mi/plaits/dsp/oscillator/oscillator.h ****           slope_down = 1.0f / (1.0f - pw);
 157:mi/plaits/dsp/oscillator/oscillator.h ****         }
 158:mi/plaits/dsp/oscillator/oscillator.h ****         if (high_ ^ (phase_ < pw)) {
 159:mi/plaits/dsp/oscillator/oscillator.h ****           float t = (phase_ - pw) / frequency;
 160:mi/plaits/dsp/oscillator/oscillator.h ****           float discontinuity = (slope_up + slope_down) * frequency;
 161:mi/plaits/dsp/oscillator/oscillator.h ****           if (through_zero_fm && frequency < 0.0f) {
 162:mi/plaits/dsp/oscillator/oscillator.h ****             discontinuity = -discontinuity;
 163:mi/plaits/dsp/oscillator/oscillator.h ****           }
 164:mi/plaits/dsp/oscillator/oscillator.h ****           this_sample -= stmlib::ThisIntegratedBlepSample(t) * discontinuity;
 165:mi/plaits/dsp/oscillator/oscillator.h ****           next_sample -= stmlib::NextIntegratedBlepSample(t) * discontinuity;
 166:mi/plaits/dsp/oscillator/oscillator.h ****           high_ = phase_ < pw;
 167:mi/plaits/dsp/oscillator/oscillator.h ****         }
 168:mi/plaits/dsp/oscillator/oscillator.h ****         if (phase_ >= 1.0f) {
 169:mi/plaits/dsp/oscillator/oscillator.h ****           phase_ -= 1.0f;
 170:mi/plaits/dsp/oscillator/oscillator.h ****           float t = phase_ / frequency;
 171:mi/plaits/dsp/oscillator/oscillator.h ****           float discontinuity = (slope_up + slope_down) * frequency;
 172:mi/plaits/dsp/oscillator/oscillator.h ****           this_sample += stmlib::ThisIntegratedBlepSample(t) * discontinuity;
 173:mi/plaits/dsp/oscillator/oscillator.h ****           next_sample += stmlib::NextIntegratedBlepSample(t) * discontinuity;
 174:mi/plaits/dsp/oscillator/oscillator.h ****           high_ = true;
 175:mi/plaits/dsp/oscillator/oscillator.h ****         } else if (through_zero_fm && phase_ < 0.0f) {
 176:mi/plaits/dsp/oscillator/oscillator.h ****           float t = phase_ / frequency;
 177:mi/plaits/dsp/oscillator/oscillator.h ****           phase_ += 1.0f;
 178:mi/plaits/dsp/oscillator/oscillator.h ****           float discontinuity = (slope_up + slope_down) * frequency;
 179:mi/plaits/dsp/oscillator/oscillator.h ****           this_sample -= stmlib::ThisIntegratedBlepSample(t) * discontinuity;
 180:mi/plaits/dsp/oscillator/oscillator.h ****           next_sample -= stmlib::NextIntegratedBlepSample(t) * discontinuity;
 181:mi/plaits/dsp/oscillator/oscillator.h ****           high_ = false;
ARM GAS  /var/folders/9k/zk1mgrrd7wg4__6zvxvr9w8m0000gn/T//ccqmKVLy.s 			page 31


 182:mi/plaits/dsp/oscillator/oscillator.h ****         }
 183:mi/plaits/dsp/oscillator/oscillator.h ****         next_sample += high_
 184:mi/plaits/dsp/oscillator/oscillator.h ****           ? phase_ * slope_up
 185:mi/plaits/dsp/oscillator/oscillator.h ****           : 1.0f - (phase_ - pw) * slope_down;
 186:mi/plaits/dsp/oscillator/oscillator.h ****         *out++ = 2.0f * this_sample - 1.0f;
 187:mi/plaits/dsp/oscillator/oscillator.h ****       } else {
 188:mi/plaits/dsp/oscillator/oscillator.h ****         if (high_ ^ (phase_ >= pw)) {
 189:mi/plaits/dsp/oscillator/oscillator.h ****           float t = (phase_ - pw) / frequency;
 190:mi/plaits/dsp/oscillator/oscillator.h ****           float discontinuity = 1.0f;
 191:mi/plaits/dsp/oscillator/oscillator.h ****           if (through_zero_fm && frequency < 0.0f) {
 192:mi/plaits/dsp/oscillator/oscillator.h ****             discontinuity = -discontinuity;
 193:mi/plaits/dsp/oscillator/oscillator.h ****           }
 194:mi/plaits/dsp/oscillator/oscillator.h ****           this_sample += stmlib::ThisBlepSample(t) * discontinuity;
 195:mi/plaits/dsp/oscillator/oscillator.h ****           next_sample += stmlib::NextBlepSample(t) * discontinuity;
 196:mi/plaits/dsp/oscillator/oscillator.h ****           high_ = phase_ >= pw;
 197:mi/plaits/dsp/oscillator/oscillator.h ****         }
 198:mi/plaits/dsp/oscillator/oscillator.h ****         if (phase_ >= 1.0f) {
 199:mi/plaits/dsp/oscillator/oscillator.h ****           phase_ -= 1.0f;
 200:mi/plaits/dsp/oscillator/oscillator.h ****           float t = phase_ / frequency;
 201:mi/plaits/dsp/oscillator/oscillator.h ****           this_sample -= stmlib::ThisBlepSample(t);
 202:mi/plaits/dsp/oscillator/oscillator.h ****           next_sample -= stmlib::NextBlepSample(t);
 203:mi/plaits/dsp/oscillator/oscillator.h ****           high_ = false;
 204:mi/plaits/dsp/oscillator/oscillator.h ****         } else if (through_zero_fm && phase_ < 0.0f) {
 205:mi/plaits/dsp/oscillator/oscillator.h ****           float t = phase_ / frequency;
 206:mi/plaits/dsp/oscillator/oscillator.h ****           phase_ += 1.0f;
 207:mi/plaits/dsp/oscillator/oscillator.h ****           this_sample += stmlib::ThisBlepSample(t);
 208:mi/plaits/dsp/oscillator/oscillator.h ****           next_sample += stmlib::NextBlepSample(t);
 209:mi/plaits/dsp/oscillator/oscillator.h ****           high_ = true;
 210:mi/plaits/dsp/oscillator/oscillator.h ****         }
 211:mi/plaits/dsp/oscillator/oscillator.h ****         next_sample += phase_ < pw ? 0.0f : 1.0f;
 212:mi/plaits/dsp/oscillator/oscillator.h ****         
 213:mi/plaits/dsp/oscillator/oscillator.h ****         if (shape == OSCILLATOR_SHAPE_SQUARE_TRIANGLE) {
 214:mi/plaits/dsp/oscillator/oscillator.h ****           const float integrator_coefficient = frequency * 0.0625f;
 215:mi/plaits/dsp/oscillator/oscillator.h ****           this_sample = 128.0f * (this_sample - 0.5f);
 216:mi/plaits/dsp/oscillator/oscillator.h ****           lp_state_ += integrator_coefficient * (this_sample - lp_state_);
 217:mi/plaits/dsp/oscillator/oscillator.h ****           *out++ = lp_state_;
 218:mi/plaits/dsp/oscillator/oscillator.h ****         } else if (shape == OSCILLATOR_SHAPE_SQUARE_DARK) {
 219:mi/plaits/dsp/oscillator/oscillator.h ****           const float integrator_coefficient = frequency * 2.0f;
 220:mi/plaits/dsp/oscillator/oscillator.h ****           this_sample = 4.0f * (this_sample - 0.5f);
 221:mi/plaits/dsp/oscillator/oscillator.h ****           lp_state_ += integrator_coefficient * (this_sample - lp_state_);
 222:mi/plaits/dsp/oscillator/oscillator.h ****           *out++ = lp_state_;
 223:mi/plaits/dsp/oscillator/oscillator.h ****         } else if (shape == OSCILLATOR_SHAPE_SQUARE_BRIGHT) {
 224:mi/plaits/dsp/oscillator/oscillator.h ****           const float integrator_coefficient = frequency * 2.0f;
 225:mi/plaits/dsp/oscillator/oscillator.h ****           this_sample = 2.0f * this_sample - 1.0f;
 226:mi/plaits/dsp/oscillator/oscillator.h ****           lp_state_ += integrator_coefficient * (this_sample - lp_state_);
 227:mi/plaits/dsp/oscillator/oscillator.h ****           *out++ = (this_sample - lp_state_) * 0.5f;
 228:mi/plaits/dsp/oscillator/oscillator.h ****         } else {
 229:mi/plaits/dsp/oscillator/oscillator.h ****           this_sample = 2.0f * this_sample - 1.0f;
 230:mi/plaits/dsp/oscillator/oscillator.h ****           *out++ = this_sample;
 231:mi/plaits/dsp/oscillator/oscillator.h ****         }
 232:mi/plaits/dsp/oscillator/oscillator.h ****       }
 233:mi/plaits/dsp/oscillator/oscillator.h ****     }
 234:mi/plaits/dsp/oscillator/oscillator.h ****     next_sample_ = next_sample;
 705              		.loc 2 234 18 view .LVU187
 706 014c C4ED014A 		vstr.32	s9, [r4, #4]
 707              	.LVL37:
 708              	.LBB254:
ARM GAS  /var/folders/9k/zk1mgrrd7wg4__6zvxvr9w8m0000gn/T//ccqmKVLy.s 			page 32


 709              	.LBI254:
  49:mi/stmlib/dsp/parameter_interpolator.h ****     *state_ = value_;
 710              		.loc 5 49 3 is_stmt 1 view .LVU188
 711              	.LBB255:
  50:mi/stmlib/dsp/parameter_interpolator.h ****   }
 712              		.loc 5 50 5 view .LVU189
  50:mi/stmlib/dsp/parameter_interpolator.h ****   }
 713              		.loc 5 50 13 is_stmt 0 view .LVU190
 714 0150 C4ED063A 		vstr.32	s7, [r4, #24]
 715              	.LVL38:
  50:mi/stmlib/dsp/parameter_interpolator.h ****   }
 716              		.loc 5 50 13 view .LVU191
 717              	.LBE255:
 718              	.LBE254:
 719              	.LBB257:
 720              	.LBI257:
  49:mi/stmlib/dsp/parameter_interpolator.h ****     *state_ = value_;
 721              		.loc 5 49 3 is_stmt 1 view .LVU192
 722              	.LBB258:
  50:mi/stmlib/dsp/parameter_interpolator.h ****   }
 723              		.loc 5 50 5 view .LVU193
  50:mi/stmlib/dsp/parameter_interpolator.h ****   }
 724              		.loc 5 50 13 is_stmt 0 view .LVU194
 725 0154 84ED055A 		vstr.32	s10, [r4, #20]
 726              	.LVL39:
  50:mi/stmlib/dsp/parameter_interpolator.h ****   }
 727              		.loc 5 50 13 view .LVU195
 728              	.LBE258:
 729              	.LBE257:
 730              	.LBE265:
 731              	.LBE270:
 732              	.LBE282:
 116:mi/plaits/dsp/speech/naive_speech_synth.cpp ****       frequency, 0.5f, excitation, size);
 117:mi/plaits/dsp/speech/naive_speech_synth.cpp ****   pulse_coloration_.Process<FILTER_MODE_BAND_PASS>(
 733              		.loc 1 117 3 is_stmt 1 view .LVU196
 734              	.LBB283:
 735              	.LBI275:
 280:mi/stmlib/dsp/filter.h ****     float hp, bp, lp;
 736              		.loc 3 280 15 view .LVU197
 737              	.LBB280:
 284:mi/stmlib/dsp/filter.h ****     
 285:mi/stmlib/dsp/filter.h ****     while (size--) {
 738              		.loc 3 285 5 view .LVU198
 739              	.L19:
 740              	.LBB277:
 286:mi/stmlib/dsp/filter.h ****       hp = (*in - r_ * state_1 - g_ * state_1 - state_2) * h_;
 741              		.loc 3 286 17 is_stmt 0 view .LVU199
 742 0158 94ED235A 		vldr.32	s10, [r4, #140]
 743              	.LBE277:
 285:mi/stmlib/dsp/filter.h ****       hp = (*in - r_ * state_1 - g_ * state_1 - state_2) * h_;
 744              		.loc 3 285 5 view .LVU200
 745 015c 013A     		subs	r2, r2, #1
 746              	.LBB278:
 747              		.loc 3 286 17 view .LVU201
 748 015e D1ED007A 		vldr.32	s15, [r1]
 749              		.loc 3 286 34 view .LVU202
 750 0162 94ED227A 		vldr.32	s14, [r4, #136]
ARM GAS  /var/folders/9k/zk1mgrrd7wg4__6zvxvr9w8m0000gn/T//ccqmKVLy.s 			page 33


 751              	.LBE278:
 285:mi/stmlib/dsp/filter.h ****       hp = (*in - r_ * state_1 - g_ * state_1 - state_2) * h_;
 752              		.loc 3 285 5 view .LVU203
 753 0166 531C     		adds	r3, r2, #1
 754              	.LBB279:
 755              		.loc 3 286 17 view .LVU204
 756 0168 E5EE657A 		vfms.f32	s15, s10, s11
 757              		.loc 3 286 10 view .LVU205
 758 016c 94ED246A 		vldr.32	s12, [r4, #144]
 759              		.loc 3 286 32 view .LVU206
 760 0170 E7EE657A 		vfms.f32	s15, s14, s11
 761              		.loc 3 286 47 view .LVU207
 762 0174 77EEE67A 		vsub.f32	s15, s15, s13
 763              		.loc 3 286 10 view .LVU208
 764 0178 67EE867A 		vmul.f32	s15, s15, s12
 765              	.LVL40:
 287:mi/stmlib/dsp/filter.h ****       bp = g_ * hp + state_1;
 766              		.loc 3 287 10 view .LVU209
 767 017c B0EE656A 		vmov.f32	s12, s11
 768 0180 A7EE276A 		vfma.f32	s12, s14, s15
 769              	.LVL41:
 288:mi/stmlib/dsp/filter.h ****       state_1 = g_ * hp + bp;
 289:mi/stmlib/dsp/filter.h ****       lp = g_ * bp + state_2;
 770              		.loc 3 289 10 view .LVU210
 771 0184 E7EE066A 		vfma.f32	s13, s14, s12
 772              	.LVL42:
 290:mi/stmlib/dsp/filter.h ****       state_2 = g_ * bp + lp;
 291:mi/stmlib/dsp/filter.h ****     
 292:mi/stmlib/dsp/filter.h ****       float value;
 293:mi/stmlib/dsp/filter.h ****       if (mode == FILTER_MODE_LOW_PASS) {
 294:mi/stmlib/dsp/filter.h ****         value = lp;
 295:mi/stmlib/dsp/filter.h ****       } else if (mode == FILTER_MODE_BAND_PASS) {
 296:mi/stmlib/dsp/filter.h ****         value = bp;
 297:mi/stmlib/dsp/filter.h ****       } else if (mode == FILTER_MODE_BAND_PASS_NORMALIZED) {
 298:mi/stmlib/dsp/filter.h ****         value = bp * r_;
 299:mi/stmlib/dsp/filter.h ****       } else if (mode == FILTER_MODE_HIGH_PASS) {
 300:mi/stmlib/dsp/filter.h ****         value = hp;
 301:mi/stmlib/dsp/filter.h ****       }
 302:mi/stmlib/dsp/filter.h ****       
 303:mi/stmlib/dsp/filter.h ****       *out = value;
 773              		.loc 3 303 12 view .LVU211
 774 0188 A1EC016A 		vstmia.32	r1!, {s12}
 775              	.LVL43:
 288:mi/stmlib/dsp/filter.h ****       state_1 = g_ * hp + bp;
 776              		.loc 3 288 15 view .LVU212
 777 018c F0EE465A 		vmov.f32	s11, s12
 778              	.LVL44:
 288:mi/stmlib/dsp/filter.h ****       state_1 = g_ * hp + bp;
 779              		.loc 3 288 15 view .LVU213
 780 0190 E7EE275A 		vfma.f32	s11, s14, s15
 781              	.LVL45:
 290:mi/stmlib/dsp/filter.h ****       state_2 = g_ * bp + lp;
 782              		.loc 3 290 15 view .LVU214
 783 0194 E7EE066A 		vfma.f32	s13, s14, s12
 784              	.LVL46:
 290:mi/stmlib/dsp/filter.h ****       state_2 = g_ * bp + lp;
 785              		.loc 3 290 15 view .LVU215
ARM GAS  /var/folders/9k/zk1mgrrd7wg4__6zvxvr9w8m0000gn/T//ccqmKVLy.s 			page 34


 786              	.LBE279:
 285:mi/stmlib/dsp/filter.h ****       hp = (*in - r_ * state_1 - g_ * state_1 - state_2) * h_;
 787              		.loc 3 285 5 is_stmt 1 view .LVU216
 285:mi/stmlib/dsp/filter.h ****       hp = (*in - r_ * state_1 - g_ * state_1 - state_2) * h_;
 788              		.loc 3 285 5 is_stmt 0 view .LVU217
 789 0198 DED1     		bne	.L19
 790 019a 3146     		mov	r1, r6
 791              	.LVL47:
 285:mi/stmlib/dsp/filter.h ****       hp = (*in - r_ * state_1 - g_ * state_1 - state_2) * h_;
 792              		.loc 3 285 5 view .LVU218
 793 019c AF00     		lsls	r7, r5, #2
 794 019e 06EB8500 		add	r0, r6, r5, lsl #2
 304:mi/stmlib/dsp/filter.h ****       ++out;
 305:mi/stmlib/dsp/filter.h ****       ++in;
 306:mi/stmlib/dsp/filter.h ****     }
 307:mi/stmlib/dsp/filter.h ****     state_1_ = state_1;
 795              		.loc 3 307 14 view .LVU219
 796 01a2 C4ED255A 		vstr.32	s11, [r4, #148]
 308:mi/stmlib/dsp/filter.h ****     state_2_ = state_2;
 797              		.loc 3 308 14 view .LVU220
 798 01a6 C4ED266A 		vstr.32	s13, [r4, #152]
 799              	.LVL48:
 800              		.loc 3 308 14 view .LVU221
 801              	.LBE280:
 802              	.LBE283:
 803              	.LBB284:
 118:mi/plaits/dsp/speech/naive_speech_synth.cpp ****       excitation, excitation, size);
 119:mi/plaits/dsp/speech/naive_speech_synth.cpp ****   for (size_t i = 0; i < size; ++i) {
 804              		.loc 1 119 24 is_stmt 1 view .LVU222
 805              	.L21:
 120:mi/plaits/dsp/speech/naive_speech_synth.cpp ****     excitation[i] *= 4.0f;
 806              		.loc 1 120 5 discriminator 2 view .LVU223
 807              		.loc 1 120 19 is_stmt 0 discriminator 2 view .LVU224
 808 01aa B1EE007A 		vmov.f32	s14, #4.0e+0
 809 01ae D1ED007A 		vldr.32	s15, [r1]
 810 01b2 67EE877A 		vmul.f32	s15, s15, s14
 811 01b6 E1EC017A 		vstmia.32	r1!, {s15}
 119:mi/plaits/dsp/speech/naive_speech_synth.cpp ****     excitation[i] *= 4.0f;
 812              		.loc 1 119 3 is_stmt 1 discriminator 2 view .LVU225
 119:mi/plaits/dsp/speech/naive_speech_synth.cpp ****     excitation[i] *= 4.0f;
 813              		.loc 1 119 24 discriminator 2 view .LVU226
 814 01ba 8842     		cmp	r0, r1
 815 01bc F5D1     		bne	.L21
 816              	.LBE284:
 121:mi/plaits/dsp/speech/naive_speech_synth.cpp ****   }
 122:mi/plaits/dsp/speech/naive_speech_synth.cpp ****   
 123:mi/plaits/dsp/speech/naive_speech_synth.cpp ****   float p = phoneme * (kNaiveSpeechNumPhonemes - 1.001f);
 817              		.loc 1 123 3 view .LVU227
 818              		.loc 1 123 9 is_stmt 0 view .LVU228
 819 01be 9FED7A8A 		vldr.32	s16, .L61+52
 820 01c2 60EE880A 		vmul.f32	s1, s1, s16
 821              	.LVL49:
 124:mi/plaits/dsp/speech/naive_speech_synth.cpp ****   float r = vocal_register * (kNaiveSpeechNumRegisters - 1.001f);
 822              		.loc 1 124 3 is_stmt 1 view .LVU229
 823              		.loc 1 124 9 is_stmt 0 view .LVU230
 824 01c6 21EE081A 		vmul.f32	s2, s2, s16
 825              	.LVL50:
ARM GAS  /var/folders/9k/zk1mgrrd7wg4__6zvxvr9w8m0000gn/T//ccqmKVLy.s 			page 35


 125:mi/plaits/dsp/speech/naive_speech_synth.cpp ****   
 126:mi/plaits/dsp/speech/naive_speech_synth.cpp ****   MAKE_INTEGRAL_FRACTIONAL(p);
 826              		.loc 1 126 3 is_stmt 1 view .LVU231
 827 01ca FDEEE07A 		vcvt.s32.f32	s15, s1
 828 01ce F8EEE78A 		vcvt.f32.s32	s17, s15
 829 01d2 17EE909A 		vmov	r9, s15	@ int
 830              	.LVL51:
 831              		.loc 1 126 3 view .LVU232
 127:mi/plaits/dsp/speech/naive_speech_synth.cpp ****   MAKE_INTEGRAL_FRACTIONAL(r);
 832              		.loc 1 127 3 is_stmt 0 view .LVU233
 833 01d6 FDEEC17A 		vcvt.s32.f32	s15, s2
 126:mi/plaits/dsp/speech/naive_speech_synth.cpp ****   MAKE_INTEGRAL_FRACTIONAL(r);
 834              		.loc 1 126 3 view .LVU234
 835 01da 70EEE88A 		vsub.f32	s17, s1, s17
 836              	.LVL52:
 126:mi/plaits/dsp/speech/naive_speech_synth.cpp ****   MAKE_INTEGRAL_FRACTIONAL(r);
 837              		.loc 1 126 30 is_stmt 1 view .LVU235
 838              		.loc 1 127 3 view .LVU236
 839 01de B8EEE78A 		vcvt.f32.s32	s16, s15
 840 01e2 17EE908A 		vmov	r8, s15	@ int
 841              	.LVL53:
 842              		.loc 1 127 3 view .LVU237
 843 01e6 31EE488A 		vsub.f32	s16, s2, s16
 844              	.LVL54:
 845              		.loc 1 127 30 view .LVU238
 128:mi/plaits/dsp/speech/naive_speech_synth.cpp ****   
 129:mi/plaits/dsp/speech/naive_speech_synth.cpp ****   fill(&output[0], &output[size], 0.0f);
 846              		.loc 1 129 3 view .LVU239
 847              	.LBB285:
 848              	.LBI285:
 236:/Library/DaisyToolchain/0.2.0/arm/arm-none-eabi/include/c++/10.3.1/bits/stl_algobase.h **** 	return __b;
 237:/Library/DaisyToolchain/0.2.0/arm/arm-none-eabi/include/c++/10.3.1/bits/stl_algobase.h ****       return __a;
 238:/Library/DaisyToolchain/0.2.0/arm/arm-none-eabi/include/c++/10.3.1/bits/stl_algobase.h ****     }
 239:/Library/DaisyToolchain/0.2.0/arm/arm-none-eabi/include/c++/10.3.1/bits/stl_algobase.h **** 
 240:/Library/DaisyToolchain/0.2.0/arm/arm-none-eabi/include/c++/10.3.1/bits/stl_algobase.h ****   /**
 241:/Library/DaisyToolchain/0.2.0/arm/arm-none-eabi/include/c++/10.3.1/bits/stl_algobase.h ****    *  @brief This does what you think it does.
 242:/Library/DaisyToolchain/0.2.0/arm/arm-none-eabi/include/c++/10.3.1/bits/stl_algobase.h ****    *  @ingroup sorting_algorithms
 243:/Library/DaisyToolchain/0.2.0/arm/arm-none-eabi/include/c++/10.3.1/bits/stl_algobase.h ****    *  @param  __a  A thing of arbitrary type.
 244:/Library/DaisyToolchain/0.2.0/arm/arm-none-eabi/include/c++/10.3.1/bits/stl_algobase.h ****    *  @param  __b  Another thing of arbitrary type.
 245:/Library/DaisyToolchain/0.2.0/arm/arm-none-eabi/include/c++/10.3.1/bits/stl_algobase.h ****    *  @return   The greater of the parameters.
 246:/Library/DaisyToolchain/0.2.0/arm/arm-none-eabi/include/c++/10.3.1/bits/stl_algobase.h ****    *
 247:/Library/DaisyToolchain/0.2.0/arm/arm-none-eabi/include/c++/10.3.1/bits/stl_algobase.h ****    *  This is the simple classic generic implementation.  It will work on
 248:/Library/DaisyToolchain/0.2.0/arm/arm-none-eabi/include/c++/10.3.1/bits/stl_algobase.h ****    *  temporary expressions, since they are only evaluated once, unlike a
 249:/Library/DaisyToolchain/0.2.0/arm/arm-none-eabi/include/c++/10.3.1/bits/stl_algobase.h ****    *  preprocessor macro.
 250:/Library/DaisyToolchain/0.2.0/arm/arm-none-eabi/include/c++/10.3.1/bits/stl_algobase.h ****   */
 251:/Library/DaisyToolchain/0.2.0/arm/arm-none-eabi/include/c++/10.3.1/bits/stl_algobase.h ****   template<typename _Tp>
 252:/Library/DaisyToolchain/0.2.0/arm/arm-none-eabi/include/c++/10.3.1/bits/stl_algobase.h ****     _GLIBCXX14_CONSTEXPR
 253:/Library/DaisyToolchain/0.2.0/arm/arm-none-eabi/include/c++/10.3.1/bits/stl_algobase.h ****     inline const _Tp&
 254:/Library/DaisyToolchain/0.2.0/arm/arm-none-eabi/include/c++/10.3.1/bits/stl_algobase.h ****     max(const _Tp& __a, const _Tp& __b)
 255:/Library/DaisyToolchain/0.2.0/arm/arm-none-eabi/include/c++/10.3.1/bits/stl_algobase.h ****     {
 256:/Library/DaisyToolchain/0.2.0/arm/arm-none-eabi/include/c++/10.3.1/bits/stl_algobase.h ****       // concept requirements
 257:/Library/DaisyToolchain/0.2.0/arm/arm-none-eabi/include/c++/10.3.1/bits/stl_algobase.h ****       __glibcxx_function_requires(_LessThanComparableConcept<_Tp>)
 258:/Library/DaisyToolchain/0.2.0/arm/arm-none-eabi/include/c++/10.3.1/bits/stl_algobase.h ****       //return  __a < __b ? __b : __a;
 259:/Library/DaisyToolchain/0.2.0/arm/arm-none-eabi/include/c++/10.3.1/bits/stl_algobase.h ****       if (__a < __b)
 260:/Library/DaisyToolchain/0.2.0/arm/arm-none-eabi/include/c++/10.3.1/bits/stl_algobase.h **** 	return __b;
 261:/Library/DaisyToolchain/0.2.0/arm/arm-none-eabi/include/c++/10.3.1/bits/stl_algobase.h ****       return __a;
 262:/Library/DaisyToolchain/0.2.0/arm/arm-none-eabi/include/c++/10.3.1/bits/stl_algobase.h ****     }
ARM GAS  /var/folders/9k/zk1mgrrd7wg4__6zvxvr9w8m0000gn/T//ccqmKVLy.s 			page 36


 263:/Library/DaisyToolchain/0.2.0/arm/arm-none-eabi/include/c++/10.3.1/bits/stl_algobase.h **** 
 264:/Library/DaisyToolchain/0.2.0/arm/arm-none-eabi/include/c++/10.3.1/bits/stl_algobase.h ****   /**
 265:/Library/DaisyToolchain/0.2.0/arm/arm-none-eabi/include/c++/10.3.1/bits/stl_algobase.h ****    *  @brief This does what you think it does.
 266:/Library/DaisyToolchain/0.2.0/arm/arm-none-eabi/include/c++/10.3.1/bits/stl_algobase.h ****    *  @ingroup sorting_algorithms
 267:/Library/DaisyToolchain/0.2.0/arm/arm-none-eabi/include/c++/10.3.1/bits/stl_algobase.h ****    *  @param  __a  A thing of arbitrary type.
 268:/Library/DaisyToolchain/0.2.0/arm/arm-none-eabi/include/c++/10.3.1/bits/stl_algobase.h ****    *  @param  __b  Another thing of arbitrary type.
 269:/Library/DaisyToolchain/0.2.0/arm/arm-none-eabi/include/c++/10.3.1/bits/stl_algobase.h ****    *  @param  __comp  A @link comparison_functors comparison functor@endlink.
 270:/Library/DaisyToolchain/0.2.0/arm/arm-none-eabi/include/c++/10.3.1/bits/stl_algobase.h ****    *  @return   The lesser of the parameters.
 271:/Library/DaisyToolchain/0.2.0/arm/arm-none-eabi/include/c++/10.3.1/bits/stl_algobase.h ****    *
 272:/Library/DaisyToolchain/0.2.0/arm/arm-none-eabi/include/c++/10.3.1/bits/stl_algobase.h ****    *  This will work on temporary expressions, since they are only evaluated
 273:/Library/DaisyToolchain/0.2.0/arm/arm-none-eabi/include/c++/10.3.1/bits/stl_algobase.h ****    *  once, unlike a preprocessor macro.
 274:/Library/DaisyToolchain/0.2.0/arm/arm-none-eabi/include/c++/10.3.1/bits/stl_algobase.h ****   */
 275:/Library/DaisyToolchain/0.2.0/arm/arm-none-eabi/include/c++/10.3.1/bits/stl_algobase.h ****   template<typename _Tp, typename _Compare>
 276:/Library/DaisyToolchain/0.2.0/arm/arm-none-eabi/include/c++/10.3.1/bits/stl_algobase.h ****     _GLIBCXX14_CONSTEXPR
 277:/Library/DaisyToolchain/0.2.0/arm/arm-none-eabi/include/c++/10.3.1/bits/stl_algobase.h ****     inline const _Tp&
 278:/Library/DaisyToolchain/0.2.0/arm/arm-none-eabi/include/c++/10.3.1/bits/stl_algobase.h ****     min(const _Tp& __a, const _Tp& __b, _Compare __comp)
 279:/Library/DaisyToolchain/0.2.0/arm/arm-none-eabi/include/c++/10.3.1/bits/stl_algobase.h ****     {
 280:/Library/DaisyToolchain/0.2.0/arm/arm-none-eabi/include/c++/10.3.1/bits/stl_algobase.h ****       //return __comp(__b, __a) ? __b : __a;
 281:/Library/DaisyToolchain/0.2.0/arm/arm-none-eabi/include/c++/10.3.1/bits/stl_algobase.h ****       if (__comp(__b, __a))
 282:/Library/DaisyToolchain/0.2.0/arm/arm-none-eabi/include/c++/10.3.1/bits/stl_algobase.h **** 	return __b;
 283:/Library/DaisyToolchain/0.2.0/arm/arm-none-eabi/include/c++/10.3.1/bits/stl_algobase.h ****       return __a;
 284:/Library/DaisyToolchain/0.2.0/arm/arm-none-eabi/include/c++/10.3.1/bits/stl_algobase.h ****     }
 285:/Library/DaisyToolchain/0.2.0/arm/arm-none-eabi/include/c++/10.3.1/bits/stl_algobase.h **** 
 286:/Library/DaisyToolchain/0.2.0/arm/arm-none-eabi/include/c++/10.3.1/bits/stl_algobase.h ****   /**
 287:/Library/DaisyToolchain/0.2.0/arm/arm-none-eabi/include/c++/10.3.1/bits/stl_algobase.h ****    *  @brief This does what you think it does.
 288:/Library/DaisyToolchain/0.2.0/arm/arm-none-eabi/include/c++/10.3.1/bits/stl_algobase.h ****    *  @ingroup sorting_algorithms
 289:/Library/DaisyToolchain/0.2.0/arm/arm-none-eabi/include/c++/10.3.1/bits/stl_algobase.h ****    *  @param  __a  A thing of arbitrary type.
 290:/Library/DaisyToolchain/0.2.0/arm/arm-none-eabi/include/c++/10.3.1/bits/stl_algobase.h ****    *  @param  __b  Another thing of arbitrary type.
 291:/Library/DaisyToolchain/0.2.0/arm/arm-none-eabi/include/c++/10.3.1/bits/stl_algobase.h ****    *  @param  __comp  A @link comparison_functors comparison functor@endlink.
 292:/Library/DaisyToolchain/0.2.0/arm/arm-none-eabi/include/c++/10.3.1/bits/stl_algobase.h ****    *  @return   The greater of the parameters.
 293:/Library/DaisyToolchain/0.2.0/arm/arm-none-eabi/include/c++/10.3.1/bits/stl_algobase.h ****    *
 294:/Library/DaisyToolchain/0.2.0/arm/arm-none-eabi/include/c++/10.3.1/bits/stl_algobase.h ****    *  This will work on temporary expressions, since they are only evaluated
 295:/Library/DaisyToolchain/0.2.0/arm/arm-none-eabi/include/c++/10.3.1/bits/stl_algobase.h ****    *  once, unlike a preprocessor macro.
 296:/Library/DaisyToolchain/0.2.0/arm/arm-none-eabi/include/c++/10.3.1/bits/stl_algobase.h ****   */
 297:/Library/DaisyToolchain/0.2.0/arm/arm-none-eabi/include/c++/10.3.1/bits/stl_algobase.h ****   template<typename _Tp, typename _Compare>
 298:/Library/DaisyToolchain/0.2.0/arm/arm-none-eabi/include/c++/10.3.1/bits/stl_algobase.h ****     _GLIBCXX14_CONSTEXPR
 299:/Library/DaisyToolchain/0.2.0/arm/arm-none-eabi/include/c++/10.3.1/bits/stl_algobase.h ****     inline const _Tp&
 300:/Library/DaisyToolchain/0.2.0/arm/arm-none-eabi/include/c++/10.3.1/bits/stl_algobase.h ****     max(const _Tp& __a, const _Tp& __b, _Compare __comp)
 301:/Library/DaisyToolchain/0.2.0/arm/arm-none-eabi/include/c++/10.3.1/bits/stl_algobase.h ****     {
 302:/Library/DaisyToolchain/0.2.0/arm/arm-none-eabi/include/c++/10.3.1/bits/stl_algobase.h ****       //return __comp(__a, __b) ? __b : __a;
 303:/Library/DaisyToolchain/0.2.0/arm/arm-none-eabi/include/c++/10.3.1/bits/stl_algobase.h ****       if (__comp(__a, __b))
 304:/Library/DaisyToolchain/0.2.0/arm/arm-none-eabi/include/c++/10.3.1/bits/stl_algobase.h **** 	return __b;
 305:/Library/DaisyToolchain/0.2.0/arm/arm-none-eabi/include/c++/10.3.1/bits/stl_algobase.h ****       return __a;
 306:/Library/DaisyToolchain/0.2.0/arm/arm-none-eabi/include/c++/10.3.1/bits/stl_algobase.h ****     }
 307:/Library/DaisyToolchain/0.2.0/arm/arm-none-eabi/include/c++/10.3.1/bits/stl_algobase.h **** 
 308:/Library/DaisyToolchain/0.2.0/arm/arm-none-eabi/include/c++/10.3.1/bits/stl_algobase.h ****   // Fallback implementation of the function in bits/stl_iterator.h used to
 309:/Library/DaisyToolchain/0.2.0/arm/arm-none-eabi/include/c++/10.3.1/bits/stl_algobase.h ****   // remove the __normal_iterator wrapper. See copy, fill, ...
 310:/Library/DaisyToolchain/0.2.0/arm/arm-none-eabi/include/c++/10.3.1/bits/stl_algobase.h ****   template<typename _Iterator>
 311:/Library/DaisyToolchain/0.2.0/arm/arm-none-eabi/include/c++/10.3.1/bits/stl_algobase.h ****     _GLIBCXX20_CONSTEXPR
 312:/Library/DaisyToolchain/0.2.0/arm/arm-none-eabi/include/c++/10.3.1/bits/stl_algobase.h ****     inline _Iterator
 313:/Library/DaisyToolchain/0.2.0/arm/arm-none-eabi/include/c++/10.3.1/bits/stl_algobase.h ****     __niter_base(_Iterator __it)
 314:/Library/DaisyToolchain/0.2.0/arm/arm-none-eabi/include/c++/10.3.1/bits/stl_algobase.h ****     _GLIBCXX_NOEXCEPT_IF(std::is_nothrow_copy_constructible<_Iterator>::value)
 315:/Library/DaisyToolchain/0.2.0/arm/arm-none-eabi/include/c++/10.3.1/bits/stl_algobase.h ****     { return __it; }
 316:/Library/DaisyToolchain/0.2.0/arm/arm-none-eabi/include/c++/10.3.1/bits/stl_algobase.h **** 
 317:/Library/DaisyToolchain/0.2.0/arm/arm-none-eabi/include/c++/10.3.1/bits/stl_algobase.h ****   // Reverse the __niter_base transformation to get a
 318:/Library/DaisyToolchain/0.2.0/arm/arm-none-eabi/include/c++/10.3.1/bits/stl_algobase.h ****   // __normal_iterator back again (this assumes that __normal_iterator
 319:/Library/DaisyToolchain/0.2.0/arm/arm-none-eabi/include/c++/10.3.1/bits/stl_algobase.h ****   // is only used to wrap random access iterators, like pointers).
ARM GAS  /var/folders/9k/zk1mgrrd7wg4__6zvxvr9w8m0000gn/T//ccqmKVLy.s 			page 37


 320:/Library/DaisyToolchain/0.2.0/arm/arm-none-eabi/include/c++/10.3.1/bits/stl_algobase.h ****   template<typename _From, typename _To>
 321:/Library/DaisyToolchain/0.2.0/arm/arm-none-eabi/include/c++/10.3.1/bits/stl_algobase.h ****     _GLIBCXX20_CONSTEXPR
 322:/Library/DaisyToolchain/0.2.0/arm/arm-none-eabi/include/c++/10.3.1/bits/stl_algobase.h ****     inline _From
 323:/Library/DaisyToolchain/0.2.0/arm/arm-none-eabi/include/c++/10.3.1/bits/stl_algobase.h ****     __niter_wrap(_From __from, _To __res)
 324:/Library/DaisyToolchain/0.2.0/arm/arm-none-eabi/include/c++/10.3.1/bits/stl_algobase.h ****     { return __from + (__res - std::__niter_base(__from)); }
 325:/Library/DaisyToolchain/0.2.0/arm/arm-none-eabi/include/c++/10.3.1/bits/stl_algobase.h **** 
 326:/Library/DaisyToolchain/0.2.0/arm/arm-none-eabi/include/c++/10.3.1/bits/stl_algobase.h ****   // No need to wrap, iterator already has the right type.
 327:/Library/DaisyToolchain/0.2.0/arm/arm-none-eabi/include/c++/10.3.1/bits/stl_algobase.h ****   template<typename _Iterator>
 328:/Library/DaisyToolchain/0.2.0/arm/arm-none-eabi/include/c++/10.3.1/bits/stl_algobase.h ****     _GLIBCXX20_CONSTEXPR
 329:/Library/DaisyToolchain/0.2.0/arm/arm-none-eabi/include/c++/10.3.1/bits/stl_algobase.h ****     inline _Iterator
 330:/Library/DaisyToolchain/0.2.0/arm/arm-none-eabi/include/c++/10.3.1/bits/stl_algobase.h ****     __niter_wrap(const _Iterator&, _Iterator __res)
 331:/Library/DaisyToolchain/0.2.0/arm/arm-none-eabi/include/c++/10.3.1/bits/stl_algobase.h ****     { return __res; }
 332:/Library/DaisyToolchain/0.2.0/arm/arm-none-eabi/include/c++/10.3.1/bits/stl_algobase.h **** 
 333:/Library/DaisyToolchain/0.2.0/arm/arm-none-eabi/include/c++/10.3.1/bits/stl_algobase.h ****   // All of these auxiliary structs serve two purposes.  (1) Replace
 334:/Library/DaisyToolchain/0.2.0/arm/arm-none-eabi/include/c++/10.3.1/bits/stl_algobase.h ****   // calls to copy with memmove whenever possible.  (Memmove, not memcpy,
 335:/Library/DaisyToolchain/0.2.0/arm/arm-none-eabi/include/c++/10.3.1/bits/stl_algobase.h ****   // because the input and output ranges are permitted to overlap.)
 336:/Library/DaisyToolchain/0.2.0/arm/arm-none-eabi/include/c++/10.3.1/bits/stl_algobase.h ****   // (2) If we're using random access iterators, then write the loop as
 337:/Library/DaisyToolchain/0.2.0/arm/arm-none-eabi/include/c++/10.3.1/bits/stl_algobase.h ****   // a for loop with an explicit count.
 338:/Library/DaisyToolchain/0.2.0/arm/arm-none-eabi/include/c++/10.3.1/bits/stl_algobase.h **** 
 339:/Library/DaisyToolchain/0.2.0/arm/arm-none-eabi/include/c++/10.3.1/bits/stl_algobase.h ****   template<bool _IsMove, bool _IsSimple, typename _Category>
 340:/Library/DaisyToolchain/0.2.0/arm/arm-none-eabi/include/c++/10.3.1/bits/stl_algobase.h ****     struct __copy_move
 341:/Library/DaisyToolchain/0.2.0/arm/arm-none-eabi/include/c++/10.3.1/bits/stl_algobase.h ****     {
 342:/Library/DaisyToolchain/0.2.0/arm/arm-none-eabi/include/c++/10.3.1/bits/stl_algobase.h ****       template<typename _II, typename _OI>
 343:/Library/DaisyToolchain/0.2.0/arm/arm-none-eabi/include/c++/10.3.1/bits/stl_algobase.h **** 	_GLIBCXX20_CONSTEXPR
 344:/Library/DaisyToolchain/0.2.0/arm/arm-none-eabi/include/c++/10.3.1/bits/stl_algobase.h **** 	static _OI
 345:/Library/DaisyToolchain/0.2.0/arm/arm-none-eabi/include/c++/10.3.1/bits/stl_algobase.h **** 	__copy_m(_II __first, _II __last, _OI __result)
 346:/Library/DaisyToolchain/0.2.0/arm/arm-none-eabi/include/c++/10.3.1/bits/stl_algobase.h **** 	{
 347:/Library/DaisyToolchain/0.2.0/arm/arm-none-eabi/include/c++/10.3.1/bits/stl_algobase.h **** 	  for (; __first != __last; ++__result, (void)++__first)
 348:/Library/DaisyToolchain/0.2.0/arm/arm-none-eabi/include/c++/10.3.1/bits/stl_algobase.h **** 	    *__result = *__first;
 349:/Library/DaisyToolchain/0.2.0/arm/arm-none-eabi/include/c++/10.3.1/bits/stl_algobase.h **** 	  return __result;
 350:/Library/DaisyToolchain/0.2.0/arm/arm-none-eabi/include/c++/10.3.1/bits/stl_algobase.h **** 	}
 351:/Library/DaisyToolchain/0.2.0/arm/arm-none-eabi/include/c++/10.3.1/bits/stl_algobase.h ****     };
 352:/Library/DaisyToolchain/0.2.0/arm/arm-none-eabi/include/c++/10.3.1/bits/stl_algobase.h **** 
 353:/Library/DaisyToolchain/0.2.0/arm/arm-none-eabi/include/c++/10.3.1/bits/stl_algobase.h **** #if __cplusplus >= 201103L
 354:/Library/DaisyToolchain/0.2.0/arm/arm-none-eabi/include/c++/10.3.1/bits/stl_algobase.h ****   template<typename _Category>
 355:/Library/DaisyToolchain/0.2.0/arm/arm-none-eabi/include/c++/10.3.1/bits/stl_algobase.h ****     struct __copy_move<true, false, _Category>
 356:/Library/DaisyToolchain/0.2.0/arm/arm-none-eabi/include/c++/10.3.1/bits/stl_algobase.h ****     {
 357:/Library/DaisyToolchain/0.2.0/arm/arm-none-eabi/include/c++/10.3.1/bits/stl_algobase.h ****       template<typename _II, typename _OI>
 358:/Library/DaisyToolchain/0.2.0/arm/arm-none-eabi/include/c++/10.3.1/bits/stl_algobase.h **** 	_GLIBCXX20_CONSTEXPR
 359:/Library/DaisyToolchain/0.2.0/arm/arm-none-eabi/include/c++/10.3.1/bits/stl_algobase.h **** 	static _OI
 360:/Library/DaisyToolchain/0.2.0/arm/arm-none-eabi/include/c++/10.3.1/bits/stl_algobase.h **** 	__copy_m(_II __first, _II __last, _OI __result)
 361:/Library/DaisyToolchain/0.2.0/arm/arm-none-eabi/include/c++/10.3.1/bits/stl_algobase.h **** 	{
 362:/Library/DaisyToolchain/0.2.0/arm/arm-none-eabi/include/c++/10.3.1/bits/stl_algobase.h **** 	  for (; __first != __last; ++__result, (void)++__first)
 363:/Library/DaisyToolchain/0.2.0/arm/arm-none-eabi/include/c++/10.3.1/bits/stl_algobase.h **** 	    *__result = std::move(*__first);
 364:/Library/DaisyToolchain/0.2.0/arm/arm-none-eabi/include/c++/10.3.1/bits/stl_algobase.h **** 	  return __result;
 365:/Library/DaisyToolchain/0.2.0/arm/arm-none-eabi/include/c++/10.3.1/bits/stl_algobase.h **** 	}
 366:/Library/DaisyToolchain/0.2.0/arm/arm-none-eabi/include/c++/10.3.1/bits/stl_algobase.h ****     };
 367:/Library/DaisyToolchain/0.2.0/arm/arm-none-eabi/include/c++/10.3.1/bits/stl_algobase.h **** #endif
 368:/Library/DaisyToolchain/0.2.0/arm/arm-none-eabi/include/c++/10.3.1/bits/stl_algobase.h **** 
 369:/Library/DaisyToolchain/0.2.0/arm/arm-none-eabi/include/c++/10.3.1/bits/stl_algobase.h ****   template<>
 370:/Library/DaisyToolchain/0.2.0/arm/arm-none-eabi/include/c++/10.3.1/bits/stl_algobase.h ****     struct __copy_move<false, false, random_access_iterator_tag>
 371:/Library/DaisyToolchain/0.2.0/arm/arm-none-eabi/include/c++/10.3.1/bits/stl_algobase.h ****     {
 372:/Library/DaisyToolchain/0.2.0/arm/arm-none-eabi/include/c++/10.3.1/bits/stl_algobase.h ****       template<typename _II, typename _OI>
 373:/Library/DaisyToolchain/0.2.0/arm/arm-none-eabi/include/c++/10.3.1/bits/stl_algobase.h **** 	_GLIBCXX20_CONSTEXPR
 374:/Library/DaisyToolchain/0.2.0/arm/arm-none-eabi/include/c++/10.3.1/bits/stl_algobase.h **** 	static _OI
 375:/Library/DaisyToolchain/0.2.0/arm/arm-none-eabi/include/c++/10.3.1/bits/stl_algobase.h **** 	__copy_m(_II __first, _II __last, _OI __result)
 376:/Library/DaisyToolchain/0.2.0/arm/arm-none-eabi/include/c++/10.3.1/bits/stl_algobase.h **** 	{
ARM GAS  /var/folders/9k/zk1mgrrd7wg4__6zvxvr9w8m0000gn/T//ccqmKVLy.s 			page 38


 377:/Library/DaisyToolchain/0.2.0/arm/arm-none-eabi/include/c++/10.3.1/bits/stl_algobase.h **** 	  typedef typename iterator_traits<_II>::difference_type _Distance;
 378:/Library/DaisyToolchain/0.2.0/arm/arm-none-eabi/include/c++/10.3.1/bits/stl_algobase.h **** 	  for(_Distance __n = __last - __first; __n > 0; --__n)
 379:/Library/DaisyToolchain/0.2.0/arm/arm-none-eabi/include/c++/10.3.1/bits/stl_algobase.h **** 	    {
 380:/Library/DaisyToolchain/0.2.0/arm/arm-none-eabi/include/c++/10.3.1/bits/stl_algobase.h **** 	      *__result = *__first;
 381:/Library/DaisyToolchain/0.2.0/arm/arm-none-eabi/include/c++/10.3.1/bits/stl_algobase.h **** 	      ++__first;
 382:/Library/DaisyToolchain/0.2.0/arm/arm-none-eabi/include/c++/10.3.1/bits/stl_algobase.h **** 	      ++__result;
 383:/Library/DaisyToolchain/0.2.0/arm/arm-none-eabi/include/c++/10.3.1/bits/stl_algobase.h **** 	    }
 384:/Library/DaisyToolchain/0.2.0/arm/arm-none-eabi/include/c++/10.3.1/bits/stl_algobase.h **** 	  return __result;
 385:/Library/DaisyToolchain/0.2.0/arm/arm-none-eabi/include/c++/10.3.1/bits/stl_algobase.h **** 	}
 386:/Library/DaisyToolchain/0.2.0/arm/arm-none-eabi/include/c++/10.3.1/bits/stl_algobase.h ****     };
 387:/Library/DaisyToolchain/0.2.0/arm/arm-none-eabi/include/c++/10.3.1/bits/stl_algobase.h **** 
 388:/Library/DaisyToolchain/0.2.0/arm/arm-none-eabi/include/c++/10.3.1/bits/stl_algobase.h **** #if __cplusplus >= 201103L
 389:/Library/DaisyToolchain/0.2.0/arm/arm-none-eabi/include/c++/10.3.1/bits/stl_algobase.h ****   template<>
 390:/Library/DaisyToolchain/0.2.0/arm/arm-none-eabi/include/c++/10.3.1/bits/stl_algobase.h ****     struct __copy_move<true, false, random_access_iterator_tag>
 391:/Library/DaisyToolchain/0.2.0/arm/arm-none-eabi/include/c++/10.3.1/bits/stl_algobase.h ****     {
 392:/Library/DaisyToolchain/0.2.0/arm/arm-none-eabi/include/c++/10.3.1/bits/stl_algobase.h ****       template<typename _II, typename _OI>
 393:/Library/DaisyToolchain/0.2.0/arm/arm-none-eabi/include/c++/10.3.1/bits/stl_algobase.h **** 	_GLIBCXX20_CONSTEXPR
 394:/Library/DaisyToolchain/0.2.0/arm/arm-none-eabi/include/c++/10.3.1/bits/stl_algobase.h **** 	static _OI
 395:/Library/DaisyToolchain/0.2.0/arm/arm-none-eabi/include/c++/10.3.1/bits/stl_algobase.h **** 	__copy_m(_II __first, _II __last, _OI __result)
 396:/Library/DaisyToolchain/0.2.0/arm/arm-none-eabi/include/c++/10.3.1/bits/stl_algobase.h **** 	{
 397:/Library/DaisyToolchain/0.2.0/arm/arm-none-eabi/include/c++/10.3.1/bits/stl_algobase.h **** 	  typedef typename iterator_traits<_II>::difference_type _Distance;
 398:/Library/DaisyToolchain/0.2.0/arm/arm-none-eabi/include/c++/10.3.1/bits/stl_algobase.h **** 	  for(_Distance __n = __last - __first; __n > 0; --__n)
 399:/Library/DaisyToolchain/0.2.0/arm/arm-none-eabi/include/c++/10.3.1/bits/stl_algobase.h **** 	    {
 400:/Library/DaisyToolchain/0.2.0/arm/arm-none-eabi/include/c++/10.3.1/bits/stl_algobase.h **** 	      *__result = std::move(*__first);
 401:/Library/DaisyToolchain/0.2.0/arm/arm-none-eabi/include/c++/10.3.1/bits/stl_algobase.h **** 	      ++__first;
 402:/Library/DaisyToolchain/0.2.0/arm/arm-none-eabi/include/c++/10.3.1/bits/stl_algobase.h **** 	      ++__result;
 403:/Library/DaisyToolchain/0.2.0/arm/arm-none-eabi/include/c++/10.3.1/bits/stl_algobase.h **** 	    }
 404:/Library/DaisyToolchain/0.2.0/arm/arm-none-eabi/include/c++/10.3.1/bits/stl_algobase.h **** 	  return __result;
 405:/Library/DaisyToolchain/0.2.0/arm/arm-none-eabi/include/c++/10.3.1/bits/stl_algobase.h **** 	}
 406:/Library/DaisyToolchain/0.2.0/arm/arm-none-eabi/include/c++/10.3.1/bits/stl_algobase.h ****     };
 407:/Library/DaisyToolchain/0.2.0/arm/arm-none-eabi/include/c++/10.3.1/bits/stl_algobase.h **** #endif
 408:/Library/DaisyToolchain/0.2.0/arm/arm-none-eabi/include/c++/10.3.1/bits/stl_algobase.h **** 
 409:/Library/DaisyToolchain/0.2.0/arm/arm-none-eabi/include/c++/10.3.1/bits/stl_algobase.h ****   template<bool _IsMove>
 410:/Library/DaisyToolchain/0.2.0/arm/arm-none-eabi/include/c++/10.3.1/bits/stl_algobase.h ****     struct __copy_move<_IsMove, true, random_access_iterator_tag>
 411:/Library/DaisyToolchain/0.2.0/arm/arm-none-eabi/include/c++/10.3.1/bits/stl_algobase.h ****     {
 412:/Library/DaisyToolchain/0.2.0/arm/arm-none-eabi/include/c++/10.3.1/bits/stl_algobase.h ****       template<typename _Tp>
 413:/Library/DaisyToolchain/0.2.0/arm/arm-none-eabi/include/c++/10.3.1/bits/stl_algobase.h **** 	_GLIBCXX20_CONSTEXPR
 414:/Library/DaisyToolchain/0.2.0/arm/arm-none-eabi/include/c++/10.3.1/bits/stl_algobase.h **** 	static _Tp*
 415:/Library/DaisyToolchain/0.2.0/arm/arm-none-eabi/include/c++/10.3.1/bits/stl_algobase.h **** 	__copy_m(const _Tp* __first, const _Tp* __last, _Tp* __result)
 416:/Library/DaisyToolchain/0.2.0/arm/arm-none-eabi/include/c++/10.3.1/bits/stl_algobase.h **** 	{
 417:/Library/DaisyToolchain/0.2.0/arm/arm-none-eabi/include/c++/10.3.1/bits/stl_algobase.h **** #if __cplusplus >= 201103L
 418:/Library/DaisyToolchain/0.2.0/arm/arm-none-eabi/include/c++/10.3.1/bits/stl_algobase.h **** 	  using __assignable = conditional<_IsMove,
 419:/Library/DaisyToolchain/0.2.0/arm/arm-none-eabi/include/c++/10.3.1/bits/stl_algobase.h **** 					   is_move_assignable<_Tp>,
 420:/Library/DaisyToolchain/0.2.0/arm/arm-none-eabi/include/c++/10.3.1/bits/stl_algobase.h **** 					   is_copy_assignable<_Tp>>;
 421:/Library/DaisyToolchain/0.2.0/arm/arm-none-eabi/include/c++/10.3.1/bits/stl_algobase.h **** 	  // trivial types can have deleted assignment
 422:/Library/DaisyToolchain/0.2.0/arm/arm-none-eabi/include/c++/10.3.1/bits/stl_algobase.h **** 	  static_assert( __assignable::type::value, "type is not assignable" );
 423:/Library/DaisyToolchain/0.2.0/arm/arm-none-eabi/include/c++/10.3.1/bits/stl_algobase.h **** #endif
 424:/Library/DaisyToolchain/0.2.0/arm/arm-none-eabi/include/c++/10.3.1/bits/stl_algobase.h **** 	  const ptrdiff_t _Num = __last - __first;
 425:/Library/DaisyToolchain/0.2.0/arm/arm-none-eabi/include/c++/10.3.1/bits/stl_algobase.h **** 	  if (_Num)
 426:/Library/DaisyToolchain/0.2.0/arm/arm-none-eabi/include/c++/10.3.1/bits/stl_algobase.h **** 	    __builtin_memmove(__result, __first, sizeof(_Tp) * _Num);
 427:/Library/DaisyToolchain/0.2.0/arm/arm-none-eabi/include/c++/10.3.1/bits/stl_algobase.h **** 	  return __result + _Num;
 428:/Library/DaisyToolchain/0.2.0/arm/arm-none-eabi/include/c++/10.3.1/bits/stl_algobase.h **** 	}
 429:/Library/DaisyToolchain/0.2.0/arm/arm-none-eabi/include/c++/10.3.1/bits/stl_algobase.h ****     };
 430:/Library/DaisyToolchain/0.2.0/arm/arm-none-eabi/include/c++/10.3.1/bits/stl_algobase.h **** 
 431:/Library/DaisyToolchain/0.2.0/arm/arm-none-eabi/include/c++/10.3.1/bits/stl_algobase.h ****   // Helpers for streambuf iterators (either istream or ostream).
 432:/Library/DaisyToolchain/0.2.0/arm/arm-none-eabi/include/c++/10.3.1/bits/stl_algobase.h ****   // NB: avoid including <iosfwd>, relatively large.
 433:/Library/DaisyToolchain/0.2.0/arm/arm-none-eabi/include/c++/10.3.1/bits/stl_algobase.h ****   template<typename _CharT>
ARM GAS  /var/folders/9k/zk1mgrrd7wg4__6zvxvr9w8m0000gn/T//ccqmKVLy.s 			page 39


 434:/Library/DaisyToolchain/0.2.0/arm/arm-none-eabi/include/c++/10.3.1/bits/stl_algobase.h ****     struct char_traits;
 435:/Library/DaisyToolchain/0.2.0/arm/arm-none-eabi/include/c++/10.3.1/bits/stl_algobase.h **** 
 436:/Library/DaisyToolchain/0.2.0/arm/arm-none-eabi/include/c++/10.3.1/bits/stl_algobase.h ****   template<typename _CharT, typename _Traits>
 437:/Library/DaisyToolchain/0.2.0/arm/arm-none-eabi/include/c++/10.3.1/bits/stl_algobase.h ****     class istreambuf_iterator;
 438:/Library/DaisyToolchain/0.2.0/arm/arm-none-eabi/include/c++/10.3.1/bits/stl_algobase.h **** 
 439:/Library/DaisyToolchain/0.2.0/arm/arm-none-eabi/include/c++/10.3.1/bits/stl_algobase.h ****   template<typename _CharT, typename _Traits>
 440:/Library/DaisyToolchain/0.2.0/arm/arm-none-eabi/include/c++/10.3.1/bits/stl_algobase.h ****     class ostreambuf_iterator;
 441:/Library/DaisyToolchain/0.2.0/arm/arm-none-eabi/include/c++/10.3.1/bits/stl_algobase.h **** 
 442:/Library/DaisyToolchain/0.2.0/arm/arm-none-eabi/include/c++/10.3.1/bits/stl_algobase.h ****   template<bool _IsMove, typename _CharT>
 443:/Library/DaisyToolchain/0.2.0/arm/arm-none-eabi/include/c++/10.3.1/bits/stl_algobase.h ****     typename __gnu_cxx::__enable_if<__is_char<_CharT>::__value,
 444:/Library/DaisyToolchain/0.2.0/arm/arm-none-eabi/include/c++/10.3.1/bits/stl_algobase.h **** 	     ostreambuf_iterator<_CharT, char_traits<_CharT> > >::__type
 445:/Library/DaisyToolchain/0.2.0/arm/arm-none-eabi/include/c++/10.3.1/bits/stl_algobase.h ****     __copy_move_a2(_CharT*, _CharT*,
 446:/Library/DaisyToolchain/0.2.0/arm/arm-none-eabi/include/c++/10.3.1/bits/stl_algobase.h **** 		   ostreambuf_iterator<_CharT, char_traits<_CharT> >);
 447:/Library/DaisyToolchain/0.2.0/arm/arm-none-eabi/include/c++/10.3.1/bits/stl_algobase.h **** 
 448:/Library/DaisyToolchain/0.2.0/arm/arm-none-eabi/include/c++/10.3.1/bits/stl_algobase.h ****   template<bool _IsMove, typename _CharT>
 449:/Library/DaisyToolchain/0.2.0/arm/arm-none-eabi/include/c++/10.3.1/bits/stl_algobase.h ****     typename __gnu_cxx::__enable_if<__is_char<_CharT>::__value,
 450:/Library/DaisyToolchain/0.2.0/arm/arm-none-eabi/include/c++/10.3.1/bits/stl_algobase.h **** 	     ostreambuf_iterator<_CharT, char_traits<_CharT> > >::__type
 451:/Library/DaisyToolchain/0.2.0/arm/arm-none-eabi/include/c++/10.3.1/bits/stl_algobase.h ****     __copy_move_a2(const _CharT*, const _CharT*,
 452:/Library/DaisyToolchain/0.2.0/arm/arm-none-eabi/include/c++/10.3.1/bits/stl_algobase.h **** 		   ostreambuf_iterator<_CharT, char_traits<_CharT> >);
 453:/Library/DaisyToolchain/0.2.0/arm/arm-none-eabi/include/c++/10.3.1/bits/stl_algobase.h **** 
 454:/Library/DaisyToolchain/0.2.0/arm/arm-none-eabi/include/c++/10.3.1/bits/stl_algobase.h ****   template<bool _IsMove, typename _CharT>
 455:/Library/DaisyToolchain/0.2.0/arm/arm-none-eabi/include/c++/10.3.1/bits/stl_algobase.h ****     typename __gnu_cxx::__enable_if<__is_char<_CharT>::__value,
 456:/Library/DaisyToolchain/0.2.0/arm/arm-none-eabi/include/c++/10.3.1/bits/stl_algobase.h **** 				    _CharT*>::__type
 457:/Library/DaisyToolchain/0.2.0/arm/arm-none-eabi/include/c++/10.3.1/bits/stl_algobase.h ****     __copy_move_a2(istreambuf_iterator<_CharT, char_traits<_CharT> >,
 458:/Library/DaisyToolchain/0.2.0/arm/arm-none-eabi/include/c++/10.3.1/bits/stl_algobase.h **** 		   istreambuf_iterator<_CharT, char_traits<_CharT> >, _CharT*);
 459:/Library/DaisyToolchain/0.2.0/arm/arm-none-eabi/include/c++/10.3.1/bits/stl_algobase.h **** 
 460:/Library/DaisyToolchain/0.2.0/arm/arm-none-eabi/include/c++/10.3.1/bits/stl_algobase.h ****   template<bool _IsMove, typename _II, typename _OI>
 461:/Library/DaisyToolchain/0.2.0/arm/arm-none-eabi/include/c++/10.3.1/bits/stl_algobase.h ****     _GLIBCXX20_CONSTEXPR
 462:/Library/DaisyToolchain/0.2.0/arm/arm-none-eabi/include/c++/10.3.1/bits/stl_algobase.h ****     inline _OI
 463:/Library/DaisyToolchain/0.2.0/arm/arm-none-eabi/include/c++/10.3.1/bits/stl_algobase.h ****     __copy_move_a2(_II __first, _II __last, _OI __result)
 464:/Library/DaisyToolchain/0.2.0/arm/arm-none-eabi/include/c++/10.3.1/bits/stl_algobase.h ****     {
 465:/Library/DaisyToolchain/0.2.0/arm/arm-none-eabi/include/c++/10.3.1/bits/stl_algobase.h ****       typedef typename iterator_traits<_II>::iterator_category _Category;
 466:/Library/DaisyToolchain/0.2.0/arm/arm-none-eabi/include/c++/10.3.1/bits/stl_algobase.h **** #ifdef __cpp_lib_is_constant_evaluated
 467:/Library/DaisyToolchain/0.2.0/arm/arm-none-eabi/include/c++/10.3.1/bits/stl_algobase.h ****       if (std::is_constant_evaluated())
 468:/Library/DaisyToolchain/0.2.0/arm/arm-none-eabi/include/c++/10.3.1/bits/stl_algobase.h **** 	return std::__copy_move<_IsMove, false, _Category>::
 469:/Library/DaisyToolchain/0.2.0/arm/arm-none-eabi/include/c++/10.3.1/bits/stl_algobase.h **** 	  __copy_m(__first, __last, __result);
 470:/Library/DaisyToolchain/0.2.0/arm/arm-none-eabi/include/c++/10.3.1/bits/stl_algobase.h **** #endif
 471:/Library/DaisyToolchain/0.2.0/arm/arm-none-eabi/include/c++/10.3.1/bits/stl_algobase.h ****       return std::__copy_move<_IsMove, __memcpyable<_OI, _II>::__value,
 472:/Library/DaisyToolchain/0.2.0/arm/arm-none-eabi/include/c++/10.3.1/bits/stl_algobase.h **** 			      _Category>::__copy_m(__first, __last, __result);
 473:/Library/DaisyToolchain/0.2.0/arm/arm-none-eabi/include/c++/10.3.1/bits/stl_algobase.h ****     }
 474:/Library/DaisyToolchain/0.2.0/arm/arm-none-eabi/include/c++/10.3.1/bits/stl_algobase.h **** 
 475:/Library/DaisyToolchain/0.2.0/arm/arm-none-eabi/include/c++/10.3.1/bits/stl_algobase.h **** _GLIBCXX_BEGIN_NAMESPACE_CONTAINER
 476:/Library/DaisyToolchain/0.2.0/arm/arm-none-eabi/include/c++/10.3.1/bits/stl_algobase.h **** 
 477:/Library/DaisyToolchain/0.2.0/arm/arm-none-eabi/include/c++/10.3.1/bits/stl_algobase.h ****   template<typename _Tp, typename _Ref, typename _Ptr>
 478:/Library/DaisyToolchain/0.2.0/arm/arm-none-eabi/include/c++/10.3.1/bits/stl_algobase.h ****     struct _Deque_iterator;
 479:/Library/DaisyToolchain/0.2.0/arm/arm-none-eabi/include/c++/10.3.1/bits/stl_algobase.h **** 
 480:/Library/DaisyToolchain/0.2.0/arm/arm-none-eabi/include/c++/10.3.1/bits/stl_algobase.h **** _GLIBCXX_END_NAMESPACE_CONTAINER
 481:/Library/DaisyToolchain/0.2.0/arm/arm-none-eabi/include/c++/10.3.1/bits/stl_algobase.h **** 
 482:/Library/DaisyToolchain/0.2.0/arm/arm-none-eabi/include/c++/10.3.1/bits/stl_algobase.h ****   template<bool _IsMove,
 483:/Library/DaisyToolchain/0.2.0/arm/arm-none-eabi/include/c++/10.3.1/bits/stl_algobase.h **** 	   typename _Tp, typename _Ref, typename _Ptr, typename _OI>
 484:/Library/DaisyToolchain/0.2.0/arm/arm-none-eabi/include/c++/10.3.1/bits/stl_algobase.h ****     _OI
 485:/Library/DaisyToolchain/0.2.0/arm/arm-none-eabi/include/c++/10.3.1/bits/stl_algobase.h ****     __copy_move_a1(_GLIBCXX_STD_C::_Deque_iterator<_Tp, _Ref, _Ptr>,
 486:/Library/DaisyToolchain/0.2.0/arm/arm-none-eabi/include/c++/10.3.1/bits/stl_algobase.h **** 		   _GLIBCXX_STD_C::_Deque_iterator<_Tp, _Ref, _Ptr>,
 487:/Library/DaisyToolchain/0.2.0/arm/arm-none-eabi/include/c++/10.3.1/bits/stl_algobase.h **** 		   _OI);
 488:/Library/DaisyToolchain/0.2.0/arm/arm-none-eabi/include/c++/10.3.1/bits/stl_algobase.h **** 
 489:/Library/DaisyToolchain/0.2.0/arm/arm-none-eabi/include/c++/10.3.1/bits/stl_algobase.h ****   template<bool _IsMove,
 490:/Library/DaisyToolchain/0.2.0/arm/arm-none-eabi/include/c++/10.3.1/bits/stl_algobase.h **** 	   typename _ITp, typename _IRef, typename _IPtr, typename _OTp>
ARM GAS  /var/folders/9k/zk1mgrrd7wg4__6zvxvr9w8m0000gn/T//ccqmKVLy.s 			page 40


 491:/Library/DaisyToolchain/0.2.0/arm/arm-none-eabi/include/c++/10.3.1/bits/stl_algobase.h ****     _GLIBCXX_STD_C::_Deque_iterator<_OTp, _OTp&, _OTp*>
 492:/Library/DaisyToolchain/0.2.0/arm/arm-none-eabi/include/c++/10.3.1/bits/stl_algobase.h ****     __copy_move_a1(_GLIBCXX_STD_C::_Deque_iterator<_ITp, _IRef, _IPtr>,
 493:/Library/DaisyToolchain/0.2.0/arm/arm-none-eabi/include/c++/10.3.1/bits/stl_algobase.h **** 		   _GLIBCXX_STD_C::_Deque_iterator<_ITp, _IRef, _IPtr>,
 494:/Library/DaisyToolchain/0.2.0/arm/arm-none-eabi/include/c++/10.3.1/bits/stl_algobase.h **** 		   _GLIBCXX_STD_C::_Deque_iterator<_OTp, _OTp&, _OTp*>);
 495:/Library/DaisyToolchain/0.2.0/arm/arm-none-eabi/include/c++/10.3.1/bits/stl_algobase.h **** 
 496:/Library/DaisyToolchain/0.2.0/arm/arm-none-eabi/include/c++/10.3.1/bits/stl_algobase.h ****   template<bool _IsMove, typename _II, typename _Tp>
 497:/Library/DaisyToolchain/0.2.0/arm/arm-none-eabi/include/c++/10.3.1/bits/stl_algobase.h ****     typename __gnu_cxx::__enable_if<
 498:/Library/DaisyToolchain/0.2.0/arm/arm-none-eabi/include/c++/10.3.1/bits/stl_algobase.h ****       __is_random_access_iter<_II>::__value,
 499:/Library/DaisyToolchain/0.2.0/arm/arm-none-eabi/include/c++/10.3.1/bits/stl_algobase.h ****       _GLIBCXX_STD_C::_Deque_iterator<_Tp, _Tp&, _Tp*> >::__type
 500:/Library/DaisyToolchain/0.2.0/arm/arm-none-eabi/include/c++/10.3.1/bits/stl_algobase.h ****     __copy_move_a1(_II, _II, _GLIBCXX_STD_C::_Deque_iterator<_Tp, _Tp&, _Tp*>);
 501:/Library/DaisyToolchain/0.2.0/arm/arm-none-eabi/include/c++/10.3.1/bits/stl_algobase.h **** 
 502:/Library/DaisyToolchain/0.2.0/arm/arm-none-eabi/include/c++/10.3.1/bits/stl_algobase.h ****   template<bool _IsMove, typename _II, typename _OI>
 503:/Library/DaisyToolchain/0.2.0/arm/arm-none-eabi/include/c++/10.3.1/bits/stl_algobase.h ****     _GLIBCXX20_CONSTEXPR
 504:/Library/DaisyToolchain/0.2.0/arm/arm-none-eabi/include/c++/10.3.1/bits/stl_algobase.h ****     inline _OI
 505:/Library/DaisyToolchain/0.2.0/arm/arm-none-eabi/include/c++/10.3.1/bits/stl_algobase.h ****     __copy_move_a1(_II __first, _II __last, _OI __result)
 506:/Library/DaisyToolchain/0.2.0/arm/arm-none-eabi/include/c++/10.3.1/bits/stl_algobase.h ****     { return std::__copy_move_a2<_IsMove>(__first, __last, __result); }
 507:/Library/DaisyToolchain/0.2.0/arm/arm-none-eabi/include/c++/10.3.1/bits/stl_algobase.h **** 
 508:/Library/DaisyToolchain/0.2.0/arm/arm-none-eabi/include/c++/10.3.1/bits/stl_algobase.h ****   template<bool _IsMove, typename _II, typename _OI>
 509:/Library/DaisyToolchain/0.2.0/arm/arm-none-eabi/include/c++/10.3.1/bits/stl_algobase.h ****     _GLIBCXX20_CONSTEXPR
 510:/Library/DaisyToolchain/0.2.0/arm/arm-none-eabi/include/c++/10.3.1/bits/stl_algobase.h ****     inline _OI
 511:/Library/DaisyToolchain/0.2.0/arm/arm-none-eabi/include/c++/10.3.1/bits/stl_algobase.h ****     __copy_move_a(_II __first, _II __last, _OI __result)
 512:/Library/DaisyToolchain/0.2.0/arm/arm-none-eabi/include/c++/10.3.1/bits/stl_algobase.h ****     {
 513:/Library/DaisyToolchain/0.2.0/arm/arm-none-eabi/include/c++/10.3.1/bits/stl_algobase.h ****       return std::__niter_wrap(__result,
 514:/Library/DaisyToolchain/0.2.0/arm/arm-none-eabi/include/c++/10.3.1/bits/stl_algobase.h **** 		std::__copy_move_a1<_IsMove>(std::__niter_base(__first),
 515:/Library/DaisyToolchain/0.2.0/arm/arm-none-eabi/include/c++/10.3.1/bits/stl_algobase.h **** 					     std::__niter_base(__last),
 516:/Library/DaisyToolchain/0.2.0/arm/arm-none-eabi/include/c++/10.3.1/bits/stl_algobase.h **** 					     std::__niter_base(__result)));
 517:/Library/DaisyToolchain/0.2.0/arm/arm-none-eabi/include/c++/10.3.1/bits/stl_algobase.h ****     }
 518:/Library/DaisyToolchain/0.2.0/arm/arm-none-eabi/include/c++/10.3.1/bits/stl_algobase.h **** 
 519:/Library/DaisyToolchain/0.2.0/arm/arm-none-eabi/include/c++/10.3.1/bits/stl_algobase.h ****   template<bool _IsMove,
 520:/Library/DaisyToolchain/0.2.0/arm/arm-none-eabi/include/c++/10.3.1/bits/stl_algobase.h **** 	   typename _Ite, typename _Seq, typename _Cat, typename _OI>
 521:/Library/DaisyToolchain/0.2.0/arm/arm-none-eabi/include/c++/10.3.1/bits/stl_algobase.h ****     _OI
 522:/Library/DaisyToolchain/0.2.0/arm/arm-none-eabi/include/c++/10.3.1/bits/stl_algobase.h ****     __copy_move_a(const ::__gnu_debug::_Safe_iterator<_Ite, _Seq, _Cat>&,
 523:/Library/DaisyToolchain/0.2.0/arm/arm-none-eabi/include/c++/10.3.1/bits/stl_algobase.h **** 		  const ::__gnu_debug::_Safe_iterator<_Ite, _Seq, _Cat>&,
 524:/Library/DaisyToolchain/0.2.0/arm/arm-none-eabi/include/c++/10.3.1/bits/stl_algobase.h **** 		  _OI);
 525:/Library/DaisyToolchain/0.2.0/arm/arm-none-eabi/include/c++/10.3.1/bits/stl_algobase.h **** 
 526:/Library/DaisyToolchain/0.2.0/arm/arm-none-eabi/include/c++/10.3.1/bits/stl_algobase.h ****   template<bool _IsMove,
 527:/Library/DaisyToolchain/0.2.0/arm/arm-none-eabi/include/c++/10.3.1/bits/stl_algobase.h **** 	   typename _II, typename _Ite, typename _Seq, typename _Cat>
 528:/Library/DaisyToolchain/0.2.0/arm/arm-none-eabi/include/c++/10.3.1/bits/stl_algobase.h ****     __gnu_debug::_Safe_iterator<_Ite, _Seq, _Cat>
 529:/Library/DaisyToolchain/0.2.0/arm/arm-none-eabi/include/c++/10.3.1/bits/stl_algobase.h ****     __copy_move_a(_II, _II,
 530:/Library/DaisyToolchain/0.2.0/arm/arm-none-eabi/include/c++/10.3.1/bits/stl_algobase.h **** 		  const ::__gnu_debug::_Safe_iterator<_Ite, _Seq, _Cat>&);
 531:/Library/DaisyToolchain/0.2.0/arm/arm-none-eabi/include/c++/10.3.1/bits/stl_algobase.h **** 
 532:/Library/DaisyToolchain/0.2.0/arm/arm-none-eabi/include/c++/10.3.1/bits/stl_algobase.h ****   template<bool _IsMove,
 533:/Library/DaisyToolchain/0.2.0/arm/arm-none-eabi/include/c++/10.3.1/bits/stl_algobase.h **** 	   typename _IIte, typename _ISeq, typename _ICat,
 534:/Library/DaisyToolchain/0.2.0/arm/arm-none-eabi/include/c++/10.3.1/bits/stl_algobase.h **** 	   typename _OIte, typename _OSeq, typename _OCat>
 535:/Library/DaisyToolchain/0.2.0/arm/arm-none-eabi/include/c++/10.3.1/bits/stl_algobase.h ****     ::__gnu_debug::_Safe_iterator<_OIte, _OSeq, _OCat>
 536:/Library/DaisyToolchain/0.2.0/arm/arm-none-eabi/include/c++/10.3.1/bits/stl_algobase.h ****     __copy_move_a(const ::__gnu_debug::_Safe_iterator<_IIte, _ISeq, _ICat>&,
 537:/Library/DaisyToolchain/0.2.0/arm/arm-none-eabi/include/c++/10.3.1/bits/stl_algobase.h **** 		  const ::__gnu_debug::_Safe_iterator<_IIte, _ISeq, _ICat>&,
 538:/Library/DaisyToolchain/0.2.0/arm/arm-none-eabi/include/c++/10.3.1/bits/stl_algobase.h **** 		  const ::__gnu_debug::_Safe_iterator<_OIte, _OSeq, _OCat>&);
 539:/Library/DaisyToolchain/0.2.0/arm/arm-none-eabi/include/c++/10.3.1/bits/stl_algobase.h **** 
 540:/Library/DaisyToolchain/0.2.0/arm/arm-none-eabi/include/c++/10.3.1/bits/stl_algobase.h ****   /**
 541:/Library/DaisyToolchain/0.2.0/arm/arm-none-eabi/include/c++/10.3.1/bits/stl_algobase.h ****    *  @brief Copies the range [first,last) into result.
 542:/Library/DaisyToolchain/0.2.0/arm/arm-none-eabi/include/c++/10.3.1/bits/stl_algobase.h ****    *  @ingroup mutating_algorithms
 543:/Library/DaisyToolchain/0.2.0/arm/arm-none-eabi/include/c++/10.3.1/bits/stl_algobase.h ****    *  @param  __first  An input iterator.
 544:/Library/DaisyToolchain/0.2.0/arm/arm-none-eabi/include/c++/10.3.1/bits/stl_algobase.h ****    *  @param  __last   An input iterator.
 545:/Library/DaisyToolchain/0.2.0/arm/arm-none-eabi/include/c++/10.3.1/bits/stl_algobase.h ****    *  @param  __result An output iterator.
 546:/Library/DaisyToolchain/0.2.0/arm/arm-none-eabi/include/c++/10.3.1/bits/stl_algobase.h ****    *  @return   result + (last - first)
 547:/Library/DaisyToolchain/0.2.0/arm/arm-none-eabi/include/c++/10.3.1/bits/stl_algobase.h ****    *
ARM GAS  /var/folders/9k/zk1mgrrd7wg4__6zvxvr9w8m0000gn/T//ccqmKVLy.s 			page 41


 548:/Library/DaisyToolchain/0.2.0/arm/arm-none-eabi/include/c++/10.3.1/bits/stl_algobase.h ****    *  This inline function will boil down to a call to @c memmove whenever
 549:/Library/DaisyToolchain/0.2.0/arm/arm-none-eabi/include/c++/10.3.1/bits/stl_algobase.h ****    *  possible.  Failing that, if random access iterators are passed, then the
 550:/Library/DaisyToolchain/0.2.0/arm/arm-none-eabi/include/c++/10.3.1/bits/stl_algobase.h ****    *  loop count will be known (and therefore a candidate for compiler
 551:/Library/DaisyToolchain/0.2.0/arm/arm-none-eabi/include/c++/10.3.1/bits/stl_algobase.h ****    *  optimizations such as unrolling).  Result may not be contained within
 552:/Library/DaisyToolchain/0.2.0/arm/arm-none-eabi/include/c++/10.3.1/bits/stl_algobase.h ****    *  [first,last); the copy_backward function should be used instead.
 553:/Library/DaisyToolchain/0.2.0/arm/arm-none-eabi/include/c++/10.3.1/bits/stl_algobase.h ****    *
 554:/Library/DaisyToolchain/0.2.0/arm/arm-none-eabi/include/c++/10.3.1/bits/stl_algobase.h ****    *  Note that the end of the output range is permitted to be contained
 555:/Library/DaisyToolchain/0.2.0/arm/arm-none-eabi/include/c++/10.3.1/bits/stl_algobase.h ****    *  within [first,last).
 556:/Library/DaisyToolchain/0.2.0/arm/arm-none-eabi/include/c++/10.3.1/bits/stl_algobase.h ****   */
 557:/Library/DaisyToolchain/0.2.0/arm/arm-none-eabi/include/c++/10.3.1/bits/stl_algobase.h ****   template<typename _II, typename _OI>
 558:/Library/DaisyToolchain/0.2.0/arm/arm-none-eabi/include/c++/10.3.1/bits/stl_algobase.h ****     _GLIBCXX20_CONSTEXPR
 559:/Library/DaisyToolchain/0.2.0/arm/arm-none-eabi/include/c++/10.3.1/bits/stl_algobase.h ****     inline _OI
 560:/Library/DaisyToolchain/0.2.0/arm/arm-none-eabi/include/c++/10.3.1/bits/stl_algobase.h ****     copy(_II __first, _II __last, _OI __result)
 561:/Library/DaisyToolchain/0.2.0/arm/arm-none-eabi/include/c++/10.3.1/bits/stl_algobase.h ****     {
 562:/Library/DaisyToolchain/0.2.0/arm/arm-none-eabi/include/c++/10.3.1/bits/stl_algobase.h ****       // concept requirements
 563:/Library/DaisyToolchain/0.2.0/arm/arm-none-eabi/include/c++/10.3.1/bits/stl_algobase.h ****       __glibcxx_function_requires(_InputIteratorConcept<_II>)
 564:/Library/DaisyToolchain/0.2.0/arm/arm-none-eabi/include/c++/10.3.1/bits/stl_algobase.h ****       __glibcxx_function_requires(_OutputIteratorConcept<_OI,
 565:/Library/DaisyToolchain/0.2.0/arm/arm-none-eabi/include/c++/10.3.1/bits/stl_algobase.h **** 	    typename iterator_traits<_II>::value_type>)
 566:/Library/DaisyToolchain/0.2.0/arm/arm-none-eabi/include/c++/10.3.1/bits/stl_algobase.h ****       __glibcxx_requires_can_increment_range(__first, __last, __result);
 567:/Library/DaisyToolchain/0.2.0/arm/arm-none-eabi/include/c++/10.3.1/bits/stl_algobase.h **** 
 568:/Library/DaisyToolchain/0.2.0/arm/arm-none-eabi/include/c++/10.3.1/bits/stl_algobase.h ****       return std::__copy_move_a<__is_move_iterator<_II>::__value>
 569:/Library/DaisyToolchain/0.2.0/arm/arm-none-eabi/include/c++/10.3.1/bits/stl_algobase.h **** 	     (std::__miter_base(__first), std::__miter_base(__last), __result);
 570:/Library/DaisyToolchain/0.2.0/arm/arm-none-eabi/include/c++/10.3.1/bits/stl_algobase.h ****     }
 571:/Library/DaisyToolchain/0.2.0/arm/arm-none-eabi/include/c++/10.3.1/bits/stl_algobase.h **** 
 572:/Library/DaisyToolchain/0.2.0/arm/arm-none-eabi/include/c++/10.3.1/bits/stl_algobase.h **** #if __cplusplus >= 201103L
 573:/Library/DaisyToolchain/0.2.0/arm/arm-none-eabi/include/c++/10.3.1/bits/stl_algobase.h ****   /**
 574:/Library/DaisyToolchain/0.2.0/arm/arm-none-eabi/include/c++/10.3.1/bits/stl_algobase.h ****    *  @brief Moves the range [first,last) into result.
 575:/Library/DaisyToolchain/0.2.0/arm/arm-none-eabi/include/c++/10.3.1/bits/stl_algobase.h ****    *  @ingroup mutating_algorithms
 576:/Library/DaisyToolchain/0.2.0/arm/arm-none-eabi/include/c++/10.3.1/bits/stl_algobase.h ****    *  @param  __first  An input iterator.
 577:/Library/DaisyToolchain/0.2.0/arm/arm-none-eabi/include/c++/10.3.1/bits/stl_algobase.h ****    *  @param  __last   An input iterator.
 578:/Library/DaisyToolchain/0.2.0/arm/arm-none-eabi/include/c++/10.3.1/bits/stl_algobase.h ****    *  @param  __result An output iterator.
 579:/Library/DaisyToolchain/0.2.0/arm/arm-none-eabi/include/c++/10.3.1/bits/stl_algobase.h ****    *  @return   result + (last - first)
 580:/Library/DaisyToolchain/0.2.0/arm/arm-none-eabi/include/c++/10.3.1/bits/stl_algobase.h ****    *
 581:/Library/DaisyToolchain/0.2.0/arm/arm-none-eabi/include/c++/10.3.1/bits/stl_algobase.h ****    *  This inline function will boil down to a call to @c memmove whenever
 582:/Library/DaisyToolchain/0.2.0/arm/arm-none-eabi/include/c++/10.3.1/bits/stl_algobase.h ****    *  possible.  Failing that, if random access iterators are passed, then the
 583:/Library/DaisyToolchain/0.2.0/arm/arm-none-eabi/include/c++/10.3.1/bits/stl_algobase.h ****    *  loop count will be known (and therefore a candidate for compiler
 584:/Library/DaisyToolchain/0.2.0/arm/arm-none-eabi/include/c++/10.3.1/bits/stl_algobase.h ****    *  optimizations such as unrolling).  Result may not be contained within
 585:/Library/DaisyToolchain/0.2.0/arm/arm-none-eabi/include/c++/10.3.1/bits/stl_algobase.h ****    *  [first,last); the move_backward function should be used instead.
 586:/Library/DaisyToolchain/0.2.0/arm/arm-none-eabi/include/c++/10.3.1/bits/stl_algobase.h ****    *
 587:/Library/DaisyToolchain/0.2.0/arm/arm-none-eabi/include/c++/10.3.1/bits/stl_algobase.h ****    *  Note that the end of the output range is permitted to be contained
 588:/Library/DaisyToolchain/0.2.0/arm/arm-none-eabi/include/c++/10.3.1/bits/stl_algobase.h ****    *  within [first,last).
 589:/Library/DaisyToolchain/0.2.0/arm/arm-none-eabi/include/c++/10.3.1/bits/stl_algobase.h ****   */
 590:/Library/DaisyToolchain/0.2.0/arm/arm-none-eabi/include/c++/10.3.1/bits/stl_algobase.h ****   template<typename _II, typename _OI>
 591:/Library/DaisyToolchain/0.2.0/arm/arm-none-eabi/include/c++/10.3.1/bits/stl_algobase.h ****     _GLIBCXX20_CONSTEXPR
 592:/Library/DaisyToolchain/0.2.0/arm/arm-none-eabi/include/c++/10.3.1/bits/stl_algobase.h ****     inline _OI
 593:/Library/DaisyToolchain/0.2.0/arm/arm-none-eabi/include/c++/10.3.1/bits/stl_algobase.h ****     move(_II __first, _II __last, _OI __result)
 594:/Library/DaisyToolchain/0.2.0/arm/arm-none-eabi/include/c++/10.3.1/bits/stl_algobase.h ****     {
 595:/Library/DaisyToolchain/0.2.0/arm/arm-none-eabi/include/c++/10.3.1/bits/stl_algobase.h ****       // concept requirements
 596:/Library/DaisyToolchain/0.2.0/arm/arm-none-eabi/include/c++/10.3.1/bits/stl_algobase.h ****       __glibcxx_function_requires(_InputIteratorConcept<_II>)
 597:/Library/DaisyToolchain/0.2.0/arm/arm-none-eabi/include/c++/10.3.1/bits/stl_algobase.h ****       __glibcxx_function_requires(_OutputIteratorConcept<_OI,
 598:/Library/DaisyToolchain/0.2.0/arm/arm-none-eabi/include/c++/10.3.1/bits/stl_algobase.h **** 	    typename iterator_traits<_II>::value_type>)
 599:/Library/DaisyToolchain/0.2.0/arm/arm-none-eabi/include/c++/10.3.1/bits/stl_algobase.h ****       __glibcxx_requires_can_increment_range(__first, __last, __result);
 600:/Library/DaisyToolchain/0.2.0/arm/arm-none-eabi/include/c++/10.3.1/bits/stl_algobase.h **** 
 601:/Library/DaisyToolchain/0.2.0/arm/arm-none-eabi/include/c++/10.3.1/bits/stl_algobase.h ****       return std::__copy_move_a<true>(std::__miter_base(__first),
 602:/Library/DaisyToolchain/0.2.0/arm/arm-none-eabi/include/c++/10.3.1/bits/stl_algobase.h **** 				      std::__miter_base(__last), __result);
 603:/Library/DaisyToolchain/0.2.0/arm/arm-none-eabi/include/c++/10.3.1/bits/stl_algobase.h ****     }
 604:/Library/DaisyToolchain/0.2.0/arm/arm-none-eabi/include/c++/10.3.1/bits/stl_algobase.h **** 
ARM GAS  /var/folders/9k/zk1mgrrd7wg4__6zvxvr9w8m0000gn/T//ccqmKVLy.s 			page 42


 605:/Library/DaisyToolchain/0.2.0/arm/arm-none-eabi/include/c++/10.3.1/bits/stl_algobase.h **** #define _GLIBCXX_MOVE3(_Tp, _Up, _Vp) std::move(_Tp, _Up, _Vp)
 606:/Library/DaisyToolchain/0.2.0/arm/arm-none-eabi/include/c++/10.3.1/bits/stl_algobase.h **** #else
 607:/Library/DaisyToolchain/0.2.0/arm/arm-none-eabi/include/c++/10.3.1/bits/stl_algobase.h **** #define _GLIBCXX_MOVE3(_Tp, _Up, _Vp) std::copy(_Tp, _Up, _Vp)
 608:/Library/DaisyToolchain/0.2.0/arm/arm-none-eabi/include/c++/10.3.1/bits/stl_algobase.h **** #endif
 609:/Library/DaisyToolchain/0.2.0/arm/arm-none-eabi/include/c++/10.3.1/bits/stl_algobase.h **** 
 610:/Library/DaisyToolchain/0.2.0/arm/arm-none-eabi/include/c++/10.3.1/bits/stl_algobase.h ****   template<bool _IsMove, bool _IsSimple, typename _Category>
 611:/Library/DaisyToolchain/0.2.0/arm/arm-none-eabi/include/c++/10.3.1/bits/stl_algobase.h ****     struct __copy_move_backward
 612:/Library/DaisyToolchain/0.2.0/arm/arm-none-eabi/include/c++/10.3.1/bits/stl_algobase.h ****     {
 613:/Library/DaisyToolchain/0.2.0/arm/arm-none-eabi/include/c++/10.3.1/bits/stl_algobase.h ****       template<typename _BI1, typename _BI2>
 614:/Library/DaisyToolchain/0.2.0/arm/arm-none-eabi/include/c++/10.3.1/bits/stl_algobase.h **** 	_GLIBCXX20_CONSTEXPR
 615:/Library/DaisyToolchain/0.2.0/arm/arm-none-eabi/include/c++/10.3.1/bits/stl_algobase.h **** 	static _BI2
 616:/Library/DaisyToolchain/0.2.0/arm/arm-none-eabi/include/c++/10.3.1/bits/stl_algobase.h **** 	__copy_move_b(_BI1 __first, _BI1 __last, _BI2 __result)
 617:/Library/DaisyToolchain/0.2.0/arm/arm-none-eabi/include/c++/10.3.1/bits/stl_algobase.h **** 	{
 618:/Library/DaisyToolchain/0.2.0/arm/arm-none-eabi/include/c++/10.3.1/bits/stl_algobase.h **** 	  while (__first != __last)
 619:/Library/DaisyToolchain/0.2.0/arm/arm-none-eabi/include/c++/10.3.1/bits/stl_algobase.h **** 	    *--__result = *--__last;
 620:/Library/DaisyToolchain/0.2.0/arm/arm-none-eabi/include/c++/10.3.1/bits/stl_algobase.h **** 	  return __result;
 621:/Library/DaisyToolchain/0.2.0/arm/arm-none-eabi/include/c++/10.3.1/bits/stl_algobase.h **** 	}
 622:/Library/DaisyToolchain/0.2.0/arm/arm-none-eabi/include/c++/10.3.1/bits/stl_algobase.h ****     };
 623:/Library/DaisyToolchain/0.2.0/arm/arm-none-eabi/include/c++/10.3.1/bits/stl_algobase.h **** 
 624:/Library/DaisyToolchain/0.2.0/arm/arm-none-eabi/include/c++/10.3.1/bits/stl_algobase.h **** #if __cplusplus >= 201103L
 625:/Library/DaisyToolchain/0.2.0/arm/arm-none-eabi/include/c++/10.3.1/bits/stl_algobase.h ****   template<typename _Category>
 626:/Library/DaisyToolchain/0.2.0/arm/arm-none-eabi/include/c++/10.3.1/bits/stl_algobase.h ****     struct __copy_move_backward<true, false, _Category>
 627:/Library/DaisyToolchain/0.2.0/arm/arm-none-eabi/include/c++/10.3.1/bits/stl_algobase.h ****     {
 628:/Library/DaisyToolchain/0.2.0/arm/arm-none-eabi/include/c++/10.3.1/bits/stl_algobase.h ****       template<typename _BI1, typename _BI2>
 629:/Library/DaisyToolchain/0.2.0/arm/arm-none-eabi/include/c++/10.3.1/bits/stl_algobase.h **** 	_GLIBCXX20_CONSTEXPR
 630:/Library/DaisyToolchain/0.2.0/arm/arm-none-eabi/include/c++/10.3.1/bits/stl_algobase.h **** 	static _BI2
 631:/Library/DaisyToolchain/0.2.0/arm/arm-none-eabi/include/c++/10.3.1/bits/stl_algobase.h **** 	__copy_move_b(_BI1 __first, _BI1 __last, _BI2 __result)
 632:/Library/DaisyToolchain/0.2.0/arm/arm-none-eabi/include/c++/10.3.1/bits/stl_algobase.h **** 	{
 633:/Library/DaisyToolchain/0.2.0/arm/arm-none-eabi/include/c++/10.3.1/bits/stl_algobase.h **** 	  while (__first != __last)
 634:/Library/DaisyToolchain/0.2.0/arm/arm-none-eabi/include/c++/10.3.1/bits/stl_algobase.h **** 	    *--__result = std::move(*--__last);
 635:/Library/DaisyToolchain/0.2.0/arm/arm-none-eabi/include/c++/10.3.1/bits/stl_algobase.h **** 	  return __result;
 636:/Library/DaisyToolchain/0.2.0/arm/arm-none-eabi/include/c++/10.3.1/bits/stl_algobase.h **** 	}
 637:/Library/DaisyToolchain/0.2.0/arm/arm-none-eabi/include/c++/10.3.1/bits/stl_algobase.h ****     };
 638:/Library/DaisyToolchain/0.2.0/arm/arm-none-eabi/include/c++/10.3.1/bits/stl_algobase.h **** #endif
 639:/Library/DaisyToolchain/0.2.0/arm/arm-none-eabi/include/c++/10.3.1/bits/stl_algobase.h **** 
 640:/Library/DaisyToolchain/0.2.0/arm/arm-none-eabi/include/c++/10.3.1/bits/stl_algobase.h ****   template<>
 641:/Library/DaisyToolchain/0.2.0/arm/arm-none-eabi/include/c++/10.3.1/bits/stl_algobase.h ****     struct __copy_move_backward<false, false, random_access_iterator_tag>
 642:/Library/DaisyToolchain/0.2.0/arm/arm-none-eabi/include/c++/10.3.1/bits/stl_algobase.h ****     {
 643:/Library/DaisyToolchain/0.2.0/arm/arm-none-eabi/include/c++/10.3.1/bits/stl_algobase.h ****       template<typename _BI1, typename _BI2>
 644:/Library/DaisyToolchain/0.2.0/arm/arm-none-eabi/include/c++/10.3.1/bits/stl_algobase.h **** 	_GLIBCXX20_CONSTEXPR
 645:/Library/DaisyToolchain/0.2.0/arm/arm-none-eabi/include/c++/10.3.1/bits/stl_algobase.h **** 	static _BI2
 646:/Library/DaisyToolchain/0.2.0/arm/arm-none-eabi/include/c++/10.3.1/bits/stl_algobase.h **** 	__copy_move_b(_BI1 __first, _BI1 __last, _BI2 __result)
 647:/Library/DaisyToolchain/0.2.0/arm/arm-none-eabi/include/c++/10.3.1/bits/stl_algobase.h **** 	{
 648:/Library/DaisyToolchain/0.2.0/arm/arm-none-eabi/include/c++/10.3.1/bits/stl_algobase.h **** 	  typename iterator_traits<_BI1>::difference_type
 649:/Library/DaisyToolchain/0.2.0/arm/arm-none-eabi/include/c++/10.3.1/bits/stl_algobase.h **** 	    __n = __last - __first;
 650:/Library/DaisyToolchain/0.2.0/arm/arm-none-eabi/include/c++/10.3.1/bits/stl_algobase.h **** 	  for (; __n > 0; --__n)
 651:/Library/DaisyToolchain/0.2.0/arm/arm-none-eabi/include/c++/10.3.1/bits/stl_algobase.h **** 	    *--__result = *--__last;
 652:/Library/DaisyToolchain/0.2.0/arm/arm-none-eabi/include/c++/10.3.1/bits/stl_algobase.h **** 	  return __result;
 653:/Library/DaisyToolchain/0.2.0/arm/arm-none-eabi/include/c++/10.3.1/bits/stl_algobase.h **** 	}
 654:/Library/DaisyToolchain/0.2.0/arm/arm-none-eabi/include/c++/10.3.1/bits/stl_algobase.h ****     };
 655:/Library/DaisyToolchain/0.2.0/arm/arm-none-eabi/include/c++/10.3.1/bits/stl_algobase.h **** 
 656:/Library/DaisyToolchain/0.2.0/arm/arm-none-eabi/include/c++/10.3.1/bits/stl_algobase.h **** #if __cplusplus >= 201103L
 657:/Library/DaisyToolchain/0.2.0/arm/arm-none-eabi/include/c++/10.3.1/bits/stl_algobase.h ****   template<>
 658:/Library/DaisyToolchain/0.2.0/arm/arm-none-eabi/include/c++/10.3.1/bits/stl_algobase.h ****     struct __copy_move_backward<true, false, random_access_iterator_tag>
 659:/Library/DaisyToolchain/0.2.0/arm/arm-none-eabi/include/c++/10.3.1/bits/stl_algobase.h ****     {
 660:/Library/DaisyToolchain/0.2.0/arm/arm-none-eabi/include/c++/10.3.1/bits/stl_algobase.h ****       template<typename _BI1, typename _BI2>
 661:/Library/DaisyToolchain/0.2.0/arm/arm-none-eabi/include/c++/10.3.1/bits/stl_algobase.h **** 	_GLIBCXX20_CONSTEXPR
ARM GAS  /var/folders/9k/zk1mgrrd7wg4__6zvxvr9w8m0000gn/T//ccqmKVLy.s 			page 43


 662:/Library/DaisyToolchain/0.2.0/arm/arm-none-eabi/include/c++/10.3.1/bits/stl_algobase.h **** 	static _BI2
 663:/Library/DaisyToolchain/0.2.0/arm/arm-none-eabi/include/c++/10.3.1/bits/stl_algobase.h **** 	__copy_move_b(_BI1 __first, _BI1 __last, _BI2 __result)
 664:/Library/DaisyToolchain/0.2.0/arm/arm-none-eabi/include/c++/10.3.1/bits/stl_algobase.h **** 	{
 665:/Library/DaisyToolchain/0.2.0/arm/arm-none-eabi/include/c++/10.3.1/bits/stl_algobase.h **** 	  typename iterator_traits<_BI1>::difference_type
 666:/Library/DaisyToolchain/0.2.0/arm/arm-none-eabi/include/c++/10.3.1/bits/stl_algobase.h **** 	    __n = __last - __first;
 667:/Library/DaisyToolchain/0.2.0/arm/arm-none-eabi/include/c++/10.3.1/bits/stl_algobase.h **** 	  for (; __n > 0; --__n)
 668:/Library/DaisyToolchain/0.2.0/arm/arm-none-eabi/include/c++/10.3.1/bits/stl_algobase.h **** 	    *--__result = std::move(*--__last);
 669:/Library/DaisyToolchain/0.2.0/arm/arm-none-eabi/include/c++/10.3.1/bits/stl_algobase.h **** 	  return __result;
 670:/Library/DaisyToolchain/0.2.0/arm/arm-none-eabi/include/c++/10.3.1/bits/stl_algobase.h **** 	}
 671:/Library/DaisyToolchain/0.2.0/arm/arm-none-eabi/include/c++/10.3.1/bits/stl_algobase.h ****     };
 672:/Library/DaisyToolchain/0.2.0/arm/arm-none-eabi/include/c++/10.3.1/bits/stl_algobase.h **** #endif
 673:/Library/DaisyToolchain/0.2.0/arm/arm-none-eabi/include/c++/10.3.1/bits/stl_algobase.h **** 
 674:/Library/DaisyToolchain/0.2.0/arm/arm-none-eabi/include/c++/10.3.1/bits/stl_algobase.h ****   template<bool _IsMove>
 675:/Library/DaisyToolchain/0.2.0/arm/arm-none-eabi/include/c++/10.3.1/bits/stl_algobase.h ****     struct __copy_move_backward<_IsMove, true, random_access_iterator_tag>
 676:/Library/DaisyToolchain/0.2.0/arm/arm-none-eabi/include/c++/10.3.1/bits/stl_algobase.h ****     {
 677:/Library/DaisyToolchain/0.2.0/arm/arm-none-eabi/include/c++/10.3.1/bits/stl_algobase.h ****       template<typename _Tp>
 678:/Library/DaisyToolchain/0.2.0/arm/arm-none-eabi/include/c++/10.3.1/bits/stl_algobase.h **** 	_GLIBCXX20_CONSTEXPR
 679:/Library/DaisyToolchain/0.2.0/arm/arm-none-eabi/include/c++/10.3.1/bits/stl_algobase.h **** 	static _Tp*
 680:/Library/DaisyToolchain/0.2.0/arm/arm-none-eabi/include/c++/10.3.1/bits/stl_algobase.h **** 	__copy_move_b(const _Tp* __first, const _Tp* __last, _Tp* __result)
 681:/Library/DaisyToolchain/0.2.0/arm/arm-none-eabi/include/c++/10.3.1/bits/stl_algobase.h **** 	{
 682:/Library/DaisyToolchain/0.2.0/arm/arm-none-eabi/include/c++/10.3.1/bits/stl_algobase.h **** #if __cplusplus >= 201103L
 683:/Library/DaisyToolchain/0.2.0/arm/arm-none-eabi/include/c++/10.3.1/bits/stl_algobase.h **** 	  using __assignable = conditional<_IsMove,
 684:/Library/DaisyToolchain/0.2.0/arm/arm-none-eabi/include/c++/10.3.1/bits/stl_algobase.h **** 					   is_move_assignable<_Tp>,
 685:/Library/DaisyToolchain/0.2.0/arm/arm-none-eabi/include/c++/10.3.1/bits/stl_algobase.h **** 					   is_copy_assignable<_Tp>>;
 686:/Library/DaisyToolchain/0.2.0/arm/arm-none-eabi/include/c++/10.3.1/bits/stl_algobase.h **** 	  // trivial types can have deleted assignment
 687:/Library/DaisyToolchain/0.2.0/arm/arm-none-eabi/include/c++/10.3.1/bits/stl_algobase.h **** 	  static_assert( __assignable::type::value, "type is not assignable" );
 688:/Library/DaisyToolchain/0.2.0/arm/arm-none-eabi/include/c++/10.3.1/bits/stl_algobase.h **** #endif
 689:/Library/DaisyToolchain/0.2.0/arm/arm-none-eabi/include/c++/10.3.1/bits/stl_algobase.h **** 	  const ptrdiff_t _Num = __last - __first;
 690:/Library/DaisyToolchain/0.2.0/arm/arm-none-eabi/include/c++/10.3.1/bits/stl_algobase.h **** 	  if (_Num)
 691:/Library/DaisyToolchain/0.2.0/arm/arm-none-eabi/include/c++/10.3.1/bits/stl_algobase.h **** 	    __builtin_memmove(__result - _Num, __first, sizeof(_Tp) * _Num);
 692:/Library/DaisyToolchain/0.2.0/arm/arm-none-eabi/include/c++/10.3.1/bits/stl_algobase.h **** 	  return __result - _Num;
 693:/Library/DaisyToolchain/0.2.0/arm/arm-none-eabi/include/c++/10.3.1/bits/stl_algobase.h **** 	}
 694:/Library/DaisyToolchain/0.2.0/arm/arm-none-eabi/include/c++/10.3.1/bits/stl_algobase.h ****     };
 695:/Library/DaisyToolchain/0.2.0/arm/arm-none-eabi/include/c++/10.3.1/bits/stl_algobase.h **** 
 696:/Library/DaisyToolchain/0.2.0/arm/arm-none-eabi/include/c++/10.3.1/bits/stl_algobase.h ****   template<bool _IsMove, typename _BI1, typename _BI2>
 697:/Library/DaisyToolchain/0.2.0/arm/arm-none-eabi/include/c++/10.3.1/bits/stl_algobase.h ****     _GLIBCXX20_CONSTEXPR
 698:/Library/DaisyToolchain/0.2.0/arm/arm-none-eabi/include/c++/10.3.1/bits/stl_algobase.h ****     inline _BI2
 699:/Library/DaisyToolchain/0.2.0/arm/arm-none-eabi/include/c++/10.3.1/bits/stl_algobase.h ****     __copy_move_backward_a2(_BI1 __first, _BI1 __last, _BI2 __result)
 700:/Library/DaisyToolchain/0.2.0/arm/arm-none-eabi/include/c++/10.3.1/bits/stl_algobase.h ****     {
 701:/Library/DaisyToolchain/0.2.0/arm/arm-none-eabi/include/c++/10.3.1/bits/stl_algobase.h ****       typedef typename iterator_traits<_BI1>::iterator_category _Category;
 702:/Library/DaisyToolchain/0.2.0/arm/arm-none-eabi/include/c++/10.3.1/bits/stl_algobase.h **** #ifdef __cpp_lib_is_constant_evaluated
 703:/Library/DaisyToolchain/0.2.0/arm/arm-none-eabi/include/c++/10.3.1/bits/stl_algobase.h ****       if (std::is_constant_evaluated())
 704:/Library/DaisyToolchain/0.2.0/arm/arm-none-eabi/include/c++/10.3.1/bits/stl_algobase.h **** 	return std::__copy_move_backward<_IsMove, false, _Category>::
 705:/Library/DaisyToolchain/0.2.0/arm/arm-none-eabi/include/c++/10.3.1/bits/stl_algobase.h **** 	  __copy_move_b(__first, __last, __result);
 706:/Library/DaisyToolchain/0.2.0/arm/arm-none-eabi/include/c++/10.3.1/bits/stl_algobase.h **** #endif
 707:/Library/DaisyToolchain/0.2.0/arm/arm-none-eabi/include/c++/10.3.1/bits/stl_algobase.h ****       return std::__copy_move_backward<_IsMove,
 708:/Library/DaisyToolchain/0.2.0/arm/arm-none-eabi/include/c++/10.3.1/bits/stl_algobase.h **** 				       __memcpyable<_BI2, _BI1>::__value,
 709:/Library/DaisyToolchain/0.2.0/arm/arm-none-eabi/include/c++/10.3.1/bits/stl_algobase.h **** 				       _Category>::__copy_move_b(__first,
 710:/Library/DaisyToolchain/0.2.0/arm/arm-none-eabi/include/c++/10.3.1/bits/stl_algobase.h **** 								 __last,
 711:/Library/DaisyToolchain/0.2.0/arm/arm-none-eabi/include/c++/10.3.1/bits/stl_algobase.h **** 								 __result);
 712:/Library/DaisyToolchain/0.2.0/arm/arm-none-eabi/include/c++/10.3.1/bits/stl_algobase.h ****     }
 713:/Library/DaisyToolchain/0.2.0/arm/arm-none-eabi/include/c++/10.3.1/bits/stl_algobase.h **** 
 714:/Library/DaisyToolchain/0.2.0/arm/arm-none-eabi/include/c++/10.3.1/bits/stl_algobase.h ****   template<bool _IsMove, typename _BI1, typename _BI2>
 715:/Library/DaisyToolchain/0.2.0/arm/arm-none-eabi/include/c++/10.3.1/bits/stl_algobase.h ****     _GLIBCXX20_CONSTEXPR
 716:/Library/DaisyToolchain/0.2.0/arm/arm-none-eabi/include/c++/10.3.1/bits/stl_algobase.h ****     inline _BI2
 717:/Library/DaisyToolchain/0.2.0/arm/arm-none-eabi/include/c++/10.3.1/bits/stl_algobase.h ****     __copy_move_backward_a1(_BI1 __first, _BI1 __last, _BI2 __result)
 718:/Library/DaisyToolchain/0.2.0/arm/arm-none-eabi/include/c++/10.3.1/bits/stl_algobase.h ****     { return std::__copy_move_backward_a2<_IsMove>(__first, __last, __result); }
ARM GAS  /var/folders/9k/zk1mgrrd7wg4__6zvxvr9w8m0000gn/T//ccqmKVLy.s 			page 44


 719:/Library/DaisyToolchain/0.2.0/arm/arm-none-eabi/include/c++/10.3.1/bits/stl_algobase.h **** 
 720:/Library/DaisyToolchain/0.2.0/arm/arm-none-eabi/include/c++/10.3.1/bits/stl_algobase.h ****   template<bool _IsMove,
 721:/Library/DaisyToolchain/0.2.0/arm/arm-none-eabi/include/c++/10.3.1/bits/stl_algobase.h **** 	   typename _Tp, typename _Ref, typename _Ptr, typename _OI>
 722:/Library/DaisyToolchain/0.2.0/arm/arm-none-eabi/include/c++/10.3.1/bits/stl_algobase.h ****     _OI
 723:/Library/DaisyToolchain/0.2.0/arm/arm-none-eabi/include/c++/10.3.1/bits/stl_algobase.h ****     __copy_move_backward_a1(_GLIBCXX_STD_C::_Deque_iterator<_Tp, _Ref, _Ptr>,
 724:/Library/DaisyToolchain/0.2.0/arm/arm-none-eabi/include/c++/10.3.1/bits/stl_algobase.h **** 			    _GLIBCXX_STD_C::_Deque_iterator<_Tp, _Ref, _Ptr>,
 725:/Library/DaisyToolchain/0.2.0/arm/arm-none-eabi/include/c++/10.3.1/bits/stl_algobase.h **** 			    _OI);
 726:/Library/DaisyToolchain/0.2.0/arm/arm-none-eabi/include/c++/10.3.1/bits/stl_algobase.h **** 
 727:/Library/DaisyToolchain/0.2.0/arm/arm-none-eabi/include/c++/10.3.1/bits/stl_algobase.h ****   template<bool _IsMove,
 728:/Library/DaisyToolchain/0.2.0/arm/arm-none-eabi/include/c++/10.3.1/bits/stl_algobase.h **** 	   typename _ITp, typename _IRef, typename _IPtr, typename _OTp>
 729:/Library/DaisyToolchain/0.2.0/arm/arm-none-eabi/include/c++/10.3.1/bits/stl_algobase.h ****     _GLIBCXX_STD_C::_Deque_iterator<_OTp, _OTp&, _OTp*>
 730:/Library/DaisyToolchain/0.2.0/arm/arm-none-eabi/include/c++/10.3.1/bits/stl_algobase.h ****     __copy_move_backward_a1(
 731:/Library/DaisyToolchain/0.2.0/arm/arm-none-eabi/include/c++/10.3.1/bits/stl_algobase.h **** 			_GLIBCXX_STD_C::_Deque_iterator<_ITp, _IRef, _IPtr>,
 732:/Library/DaisyToolchain/0.2.0/arm/arm-none-eabi/include/c++/10.3.1/bits/stl_algobase.h **** 			_GLIBCXX_STD_C::_Deque_iterator<_ITp, _IRef, _IPtr>,
 733:/Library/DaisyToolchain/0.2.0/arm/arm-none-eabi/include/c++/10.3.1/bits/stl_algobase.h **** 			_GLIBCXX_STD_C::_Deque_iterator<_OTp, _OTp&, _OTp*>);
 734:/Library/DaisyToolchain/0.2.0/arm/arm-none-eabi/include/c++/10.3.1/bits/stl_algobase.h **** 
 735:/Library/DaisyToolchain/0.2.0/arm/arm-none-eabi/include/c++/10.3.1/bits/stl_algobase.h ****   template<bool _IsMove, typename _II, typename _Tp>
 736:/Library/DaisyToolchain/0.2.0/arm/arm-none-eabi/include/c++/10.3.1/bits/stl_algobase.h ****     typename __gnu_cxx::__enable_if<
 737:/Library/DaisyToolchain/0.2.0/arm/arm-none-eabi/include/c++/10.3.1/bits/stl_algobase.h ****       __is_random_access_iter<_II>::__value,
 738:/Library/DaisyToolchain/0.2.0/arm/arm-none-eabi/include/c++/10.3.1/bits/stl_algobase.h ****       _GLIBCXX_STD_C::_Deque_iterator<_Tp, _Tp&, _Tp*> >::__type
 739:/Library/DaisyToolchain/0.2.0/arm/arm-none-eabi/include/c++/10.3.1/bits/stl_algobase.h ****     __copy_move_backward_a1(_II, _II,
 740:/Library/DaisyToolchain/0.2.0/arm/arm-none-eabi/include/c++/10.3.1/bits/stl_algobase.h **** 			    _GLIBCXX_STD_C::_Deque_iterator<_Tp, _Tp&, _Tp*>);
 741:/Library/DaisyToolchain/0.2.0/arm/arm-none-eabi/include/c++/10.3.1/bits/stl_algobase.h **** 
 742:/Library/DaisyToolchain/0.2.0/arm/arm-none-eabi/include/c++/10.3.1/bits/stl_algobase.h ****   template<bool _IsMove, typename _II, typename _OI>
 743:/Library/DaisyToolchain/0.2.0/arm/arm-none-eabi/include/c++/10.3.1/bits/stl_algobase.h ****     _GLIBCXX20_CONSTEXPR
 744:/Library/DaisyToolchain/0.2.0/arm/arm-none-eabi/include/c++/10.3.1/bits/stl_algobase.h ****     inline _OI
 745:/Library/DaisyToolchain/0.2.0/arm/arm-none-eabi/include/c++/10.3.1/bits/stl_algobase.h ****     __copy_move_backward_a(_II __first, _II __last, _OI __result)
 746:/Library/DaisyToolchain/0.2.0/arm/arm-none-eabi/include/c++/10.3.1/bits/stl_algobase.h ****     {
 747:/Library/DaisyToolchain/0.2.0/arm/arm-none-eabi/include/c++/10.3.1/bits/stl_algobase.h ****       return std::__niter_wrap(__result,
 748:/Library/DaisyToolchain/0.2.0/arm/arm-none-eabi/include/c++/10.3.1/bits/stl_algobase.h **** 		std::__copy_move_backward_a1<_IsMove>
 749:/Library/DaisyToolchain/0.2.0/arm/arm-none-eabi/include/c++/10.3.1/bits/stl_algobase.h **** 		  (std::__niter_base(__first), std::__niter_base(__last),
 750:/Library/DaisyToolchain/0.2.0/arm/arm-none-eabi/include/c++/10.3.1/bits/stl_algobase.h **** 		   std::__niter_base(__result)));
 751:/Library/DaisyToolchain/0.2.0/arm/arm-none-eabi/include/c++/10.3.1/bits/stl_algobase.h ****     }
 752:/Library/DaisyToolchain/0.2.0/arm/arm-none-eabi/include/c++/10.3.1/bits/stl_algobase.h **** 
 753:/Library/DaisyToolchain/0.2.0/arm/arm-none-eabi/include/c++/10.3.1/bits/stl_algobase.h ****   template<bool _IsMove,
 754:/Library/DaisyToolchain/0.2.0/arm/arm-none-eabi/include/c++/10.3.1/bits/stl_algobase.h **** 	   typename _Ite, typename _Seq, typename _Cat, typename _OI>
 755:/Library/DaisyToolchain/0.2.0/arm/arm-none-eabi/include/c++/10.3.1/bits/stl_algobase.h ****     _OI
 756:/Library/DaisyToolchain/0.2.0/arm/arm-none-eabi/include/c++/10.3.1/bits/stl_algobase.h ****     __copy_move_backward_a(
 757:/Library/DaisyToolchain/0.2.0/arm/arm-none-eabi/include/c++/10.3.1/bits/stl_algobase.h **** 		const ::__gnu_debug::_Safe_iterator<_Ite, _Seq, _Cat>&,
 758:/Library/DaisyToolchain/0.2.0/arm/arm-none-eabi/include/c++/10.3.1/bits/stl_algobase.h **** 		const ::__gnu_debug::_Safe_iterator<_Ite, _Seq, _Cat>&,
 759:/Library/DaisyToolchain/0.2.0/arm/arm-none-eabi/include/c++/10.3.1/bits/stl_algobase.h **** 		_OI);
 760:/Library/DaisyToolchain/0.2.0/arm/arm-none-eabi/include/c++/10.3.1/bits/stl_algobase.h **** 
 761:/Library/DaisyToolchain/0.2.0/arm/arm-none-eabi/include/c++/10.3.1/bits/stl_algobase.h ****   template<bool _IsMove,
 762:/Library/DaisyToolchain/0.2.0/arm/arm-none-eabi/include/c++/10.3.1/bits/stl_algobase.h **** 	   typename _II, typename _Ite, typename _Seq, typename _Cat>
 763:/Library/DaisyToolchain/0.2.0/arm/arm-none-eabi/include/c++/10.3.1/bits/stl_algobase.h ****     __gnu_debug::_Safe_iterator<_Ite, _Seq, _Cat>
 764:/Library/DaisyToolchain/0.2.0/arm/arm-none-eabi/include/c++/10.3.1/bits/stl_algobase.h ****     __copy_move_backward_a(_II, _II,
 765:/Library/DaisyToolchain/0.2.0/arm/arm-none-eabi/include/c++/10.3.1/bits/stl_algobase.h **** 		const ::__gnu_debug::_Safe_iterator<_Ite, _Seq, _Cat>&);
 766:/Library/DaisyToolchain/0.2.0/arm/arm-none-eabi/include/c++/10.3.1/bits/stl_algobase.h **** 
 767:/Library/DaisyToolchain/0.2.0/arm/arm-none-eabi/include/c++/10.3.1/bits/stl_algobase.h ****   template<bool _IsMove,
 768:/Library/DaisyToolchain/0.2.0/arm/arm-none-eabi/include/c++/10.3.1/bits/stl_algobase.h **** 	   typename _IIte, typename _ISeq, typename _ICat,
 769:/Library/DaisyToolchain/0.2.0/arm/arm-none-eabi/include/c++/10.3.1/bits/stl_algobase.h **** 	   typename _OIte, typename _OSeq, typename _OCat>
 770:/Library/DaisyToolchain/0.2.0/arm/arm-none-eabi/include/c++/10.3.1/bits/stl_algobase.h ****     ::__gnu_debug::_Safe_iterator<_OIte, _OSeq, _OCat>
 771:/Library/DaisyToolchain/0.2.0/arm/arm-none-eabi/include/c++/10.3.1/bits/stl_algobase.h ****     __copy_move_backward_a(
 772:/Library/DaisyToolchain/0.2.0/arm/arm-none-eabi/include/c++/10.3.1/bits/stl_algobase.h **** 		const ::__gnu_debug::_Safe_iterator<_IIte, _ISeq, _ICat>&,
 773:/Library/DaisyToolchain/0.2.0/arm/arm-none-eabi/include/c++/10.3.1/bits/stl_algobase.h **** 		const ::__gnu_debug::_Safe_iterator<_IIte, _ISeq, _ICat>&,
 774:/Library/DaisyToolchain/0.2.0/arm/arm-none-eabi/include/c++/10.3.1/bits/stl_algobase.h **** 		const ::__gnu_debug::_Safe_iterator<_OIte, _OSeq, _OCat>&);
 775:/Library/DaisyToolchain/0.2.0/arm/arm-none-eabi/include/c++/10.3.1/bits/stl_algobase.h **** 
ARM GAS  /var/folders/9k/zk1mgrrd7wg4__6zvxvr9w8m0000gn/T//ccqmKVLy.s 			page 45


 776:/Library/DaisyToolchain/0.2.0/arm/arm-none-eabi/include/c++/10.3.1/bits/stl_algobase.h ****   /**
 777:/Library/DaisyToolchain/0.2.0/arm/arm-none-eabi/include/c++/10.3.1/bits/stl_algobase.h ****    *  @brief Copies the range [first,last) into result.
 778:/Library/DaisyToolchain/0.2.0/arm/arm-none-eabi/include/c++/10.3.1/bits/stl_algobase.h ****    *  @ingroup mutating_algorithms
 779:/Library/DaisyToolchain/0.2.0/arm/arm-none-eabi/include/c++/10.3.1/bits/stl_algobase.h ****    *  @param  __first  A bidirectional iterator.
 780:/Library/DaisyToolchain/0.2.0/arm/arm-none-eabi/include/c++/10.3.1/bits/stl_algobase.h ****    *  @param  __last   A bidirectional iterator.
 781:/Library/DaisyToolchain/0.2.0/arm/arm-none-eabi/include/c++/10.3.1/bits/stl_algobase.h ****    *  @param  __result A bidirectional iterator.
 782:/Library/DaisyToolchain/0.2.0/arm/arm-none-eabi/include/c++/10.3.1/bits/stl_algobase.h ****    *  @return   result - (last - first)
 783:/Library/DaisyToolchain/0.2.0/arm/arm-none-eabi/include/c++/10.3.1/bits/stl_algobase.h ****    *
 784:/Library/DaisyToolchain/0.2.0/arm/arm-none-eabi/include/c++/10.3.1/bits/stl_algobase.h ****    *  The function has the same effect as copy, but starts at the end of the
 785:/Library/DaisyToolchain/0.2.0/arm/arm-none-eabi/include/c++/10.3.1/bits/stl_algobase.h ****    *  range and works its way to the start, returning the start of the result.
 786:/Library/DaisyToolchain/0.2.0/arm/arm-none-eabi/include/c++/10.3.1/bits/stl_algobase.h ****    *  This inline function will boil down to a call to @c memmove whenever
 787:/Library/DaisyToolchain/0.2.0/arm/arm-none-eabi/include/c++/10.3.1/bits/stl_algobase.h ****    *  possible.  Failing that, if random access iterators are passed, then the
 788:/Library/DaisyToolchain/0.2.0/arm/arm-none-eabi/include/c++/10.3.1/bits/stl_algobase.h ****    *  loop count will be known (and therefore a candidate for compiler
 789:/Library/DaisyToolchain/0.2.0/arm/arm-none-eabi/include/c++/10.3.1/bits/stl_algobase.h ****    *  optimizations such as unrolling).
 790:/Library/DaisyToolchain/0.2.0/arm/arm-none-eabi/include/c++/10.3.1/bits/stl_algobase.h ****    *
 791:/Library/DaisyToolchain/0.2.0/arm/arm-none-eabi/include/c++/10.3.1/bits/stl_algobase.h ****    *  Result may not be in the range (first,last].  Use copy instead.  Note
 792:/Library/DaisyToolchain/0.2.0/arm/arm-none-eabi/include/c++/10.3.1/bits/stl_algobase.h ****    *  that the start of the output range may overlap [first,last).
 793:/Library/DaisyToolchain/0.2.0/arm/arm-none-eabi/include/c++/10.3.1/bits/stl_algobase.h ****   */
 794:/Library/DaisyToolchain/0.2.0/arm/arm-none-eabi/include/c++/10.3.1/bits/stl_algobase.h ****   template<typename _BI1, typename _BI2>
 795:/Library/DaisyToolchain/0.2.0/arm/arm-none-eabi/include/c++/10.3.1/bits/stl_algobase.h ****     _GLIBCXX20_CONSTEXPR
 796:/Library/DaisyToolchain/0.2.0/arm/arm-none-eabi/include/c++/10.3.1/bits/stl_algobase.h ****     inline _BI2
 797:/Library/DaisyToolchain/0.2.0/arm/arm-none-eabi/include/c++/10.3.1/bits/stl_algobase.h ****     copy_backward(_BI1 __first, _BI1 __last, _BI2 __result)
 798:/Library/DaisyToolchain/0.2.0/arm/arm-none-eabi/include/c++/10.3.1/bits/stl_algobase.h ****     {
 799:/Library/DaisyToolchain/0.2.0/arm/arm-none-eabi/include/c++/10.3.1/bits/stl_algobase.h ****       // concept requirements
 800:/Library/DaisyToolchain/0.2.0/arm/arm-none-eabi/include/c++/10.3.1/bits/stl_algobase.h ****       __glibcxx_function_requires(_BidirectionalIteratorConcept<_BI1>)
 801:/Library/DaisyToolchain/0.2.0/arm/arm-none-eabi/include/c++/10.3.1/bits/stl_algobase.h ****       __glibcxx_function_requires(_Mutable_BidirectionalIteratorConcept<_BI2>)
 802:/Library/DaisyToolchain/0.2.0/arm/arm-none-eabi/include/c++/10.3.1/bits/stl_algobase.h ****       __glibcxx_function_requires(_ConvertibleConcept<
 803:/Library/DaisyToolchain/0.2.0/arm/arm-none-eabi/include/c++/10.3.1/bits/stl_algobase.h **** 	    typename iterator_traits<_BI1>::value_type,
 804:/Library/DaisyToolchain/0.2.0/arm/arm-none-eabi/include/c++/10.3.1/bits/stl_algobase.h **** 	    typename iterator_traits<_BI2>::value_type>)
 805:/Library/DaisyToolchain/0.2.0/arm/arm-none-eabi/include/c++/10.3.1/bits/stl_algobase.h ****       __glibcxx_requires_can_decrement_range(__first, __last, __result);
 806:/Library/DaisyToolchain/0.2.0/arm/arm-none-eabi/include/c++/10.3.1/bits/stl_algobase.h **** 
 807:/Library/DaisyToolchain/0.2.0/arm/arm-none-eabi/include/c++/10.3.1/bits/stl_algobase.h ****       return std::__copy_move_backward_a<__is_move_iterator<_BI1>::__value>
 808:/Library/DaisyToolchain/0.2.0/arm/arm-none-eabi/include/c++/10.3.1/bits/stl_algobase.h **** 	     (std::__miter_base(__first), std::__miter_base(__last), __result);
 809:/Library/DaisyToolchain/0.2.0/arm/arm-none-eabi/include/c++/10.3.1/bits/stl_algobase.h ****     }
 810:/Library/DaisyToolchain/0.2.0/arm/arm-none-eabi/include/c++/10.3.1/bits/stl_algobase.h **** 
 811:/Library/DaisyToolchain/0.2.0/arm/arm-none-eabi/include/c++/10.3.1/bits/stl_algobase.h **** #if __cplusplus >= 201103L
 812:/Library/DaisyToolchain/0.2.0/arm/arm-none-eabi/include/c++/10.3.1/bits/stl_algobase.h ****   /**
 813:/Library/DaisyToolchain/0.2.0/arm/arm-none-eabi/include/c++/10.3.1/bits/stl_algobase.h ****    *  @brief Moves the range [first,last) into result.
 814:/Library/DaisyToolchain/0.2.0/arm/arm-none-eabi/include/c++/10.3.1/bits/stl_algobase.h ****    *  @ingroup mutating_algorithms
 815:/Library/DaisyToolchain/0.2.0/arm/arm-none-eabi/include/c++/10.3.1/bits/stl_algobase.h ****    *  @param  __first  A bidirectional iterator.
 816:/Library/DaisyToolchain/0.2.0/arm/arm-none-eabi/include/c++/10.3.1/bits/stl_algobase.h ****    *  @param  __last   A bidirectional iterator.
 817:/Library/DaisyToolchain/0.2.0/arm/arm-none-eabi/include/c++/10.3.1/bits/stl_algobase.h ****    *  @param  __result A bidirectional iterator.
 818:/Library/DaisyToolchain/0.2.0/arm/arm-none-eabi/include/c++/10.3.1/bits/stl_algobase.h ****    *  @return   result - (last - first)
 819:/Library/DaisyToolchain/0.2.0/arm/arm-none-eabi/include/c++/10.3.1/bits/stl_algobase.h ****    *
 820:/Library/DaisyToolchain/0.2.0/arm/arm-none-eabi/include/c++/10.3.1/bits/stl_algobase.h ****    *  The function has the same effect as move, but starts at the end of the
 821:/Library/DaisyToolchain/0.2.0/arm/arm-none-eabi/include/c++/10.3.1/bits/stl_algobase.h ****    *  range and works its way to the start, returning the start of the result.
 822:/Library/DaisyToolchain/0.2.0/arm/arm-none-eabi/include/c++/10.3.1/bits/stl_algobase.h ****    *  This inline function will boil down to a call to @c memmove whenever
 823:/Library/DaisyToolchain/0.2.0/arm/arm-none-eabi/include/c++/10.3.1/bits/stl_algobase.h ****    *  possible.  Failing that, if random access iterators are passed, then the
 824:/Library/DaisyToolchain/0.2.0/arm/arm-none-eabi/include/c++/10.3.1/bits/stl_algobase.h ****    *  loop count will be known (and therefore a candidate for compiler
 825:/Library/DaisyToolchain/0.2.0/arm/arm-none-eabi/include/c++/10.3.1/bits/stl_algobase.h ****    *  optimizations such as unrolling).
 826:/Library/DaisyToolchain/0.2.0/arm/arm-none-eabi/include/c++/10.3.1/bits/stl_algobase.h ****    *
 827:/Library/DaisyToolchain/0.2.0/arm/arm-none-eabi/include/c++/10.3.1/bits/stl_algobase.h ****    *  Result may not be in the range (first,last].  Use move instead.  Note
 828:/Library/DaisyToolchain/0.2.0/arm/arm-none-eabi/include/c++/10.3.1/bits/stl_algobase.h ****    *  that the start of the output range may overlap [first,last).
 829:/Library/DaisyToolchain/0.2.0/arm/arm-none-eabi/include/c++/10.3.1/bits/stl_algobase.h ****   */
 830:/Library/DaisyToolchain/0.2.0/arm/arm-none-eabi/include/c++/10.3.1/bits/stl_algobase.h ****   template<typename _BI1, typename _BI2>
 831:/Library/DaisyToolchain/0.2.0/arm/arm-none-eabi/include/c++/10.3.1/bits/stl_algobase.h ****     _GLIBCXX20_CONSTEXPR
 832:/Library/DaisyToolchain/0.2.0/arm/arm-none-eabi/include/c++/10.3.1/bits/stl_algobase.h ****     inline _BI2
ARM GAS  /var/folders/9k/zk1mgrrd7wg4__6zvxvr9w8m0000gn/T//ccqmKVLy.s 			page 46


 833:/Library/DaisyToolchain/0.2.0/arm/arm-none-eabi/include/c++/10.3.1/bits/stl_algobase.h ****     move_backward(_BI1 __first, _BI1 __last, _BI2 __result)
 834:/Library/DaisyToolchain/0.2.0/arm/arm-none-eabi/include/c++/10.3.1/bits/stl_algobase.h ****     {
 835:/Library/DaisyToolchain/0.2.0/arm/arm-none-eabi/include/c++/10.3.1/bits/stl_algobase.h ****       // concept requirements
 836:/Library/DaisyToolchain/0.2.0/arm/arm-none-eabi/include/c++/10.3.1/bits/stl_algobase.h ****       __glibcxx_function_requires(_BidirectionalIteratorConcept<_BI1>)
 837:/Library/DaisyToolchain/0.2.0/arm/arm-none-eabi/include/c++/10.3.1/bits/stl_algobase.h ****       __glibcxx_function_requires(_Mutable_BidirectionalIteratorConcept<_BI2>)
 838:/Library/DaisyToolchain/0.2.0/arm/arm-none-eabi/include/c++/10.3.1/bits/stl_algobase.h ****       __glibcxx_function_requires(_ConvertibleConcept<
 839:/Library/DaisyToolchain/0.2.0/arm/arm-none-eabi/include/c++/10.3.1/bits/stl_algobase.h **** 	    typename iterator_traits<_BI1>::value_type,
 840:/Library/DaisyToolchain/0.2.0/arm/arm-none-eabi/include/c++/10.3.1/bits/stl_algobase.h **** 	    typename iterator_traits<_BI2>::value_type>)
 841:/Library/DaisyToolchain/0.2.0/arm/arm-none-eabi/include/c++/10.3.1/bits/stl_algobase.h ****       __glibcxx_requires_can_decrement_range(__first, __last, __result);
 842:/Library/DaisyToolchain/0.2.0/arm/arm-none-eabi/include/c++/10.3.1/bits/stl_algobase.h **** 
 843:/Library/DaisyToolchain/0.2.0/arm/arm-none-eabi/include/c++/10.3.1/bits/stl_algobase.h ****       return std::__copy_move_backward_a<true>(std::__miter_base(__first),
 844:/Library/DaisyToolchain/0.2.0/arm/arm-none-eabi/include/c++/10.3.1/bits/stl_algobase.h **** 					       std::__miter_base(__last),
 845:/Library/DaisyToolchain/0.2.0/arm/arm-none-eabi/include/c++/10.3.1/bits/stl_algobase.h **** 					       __result);
 846:/Library/DaisyToolchain/0.2.0/arm/arm-none-eabi/include/c++/10.3.1/bits/stl_algobase.h ****     }
 847:/Library/DaisyToolchain/0.2.0/arm/arm-none-eabi/include/c++/10.3.1/bits/stl_algobase.h **** 
 848:/Library/DaisyToolchain/0.2.0/arm/arm-none-eabi/include/c++/10.3.1/bits/stl_algobase.h **** #define _GLIBCXX_MOVE_BACKWARD3(_Tp, _Up, _Vp) std::move_backward(_Tp, _Up, _Vp)
 849:/Library/DaisyToolchain/0.2.0/arm/arm-none-eabi/include/c++/10.3.1/bits/stl_algobase.h **** #else
 850:/Library/DaisyToolchain/0.2.0/arm/arm-none-eabi/include/c++/10.3.1/bits/stl_algobase.h **** #define _GLIBCXX_MOVE_BACKWARD3(_Tp, _Up, _Vp) std::copy_backward(_Tp, _Up, _Vp)
 851:/Library/DaisyToolchain/0.2.0/arm/arm-none-eabi/include/c++/10.3.1/bits/stl_algobase.h **** #endif
 852:/Library/DaisyToolchain/0.2.0/arm/arm-none-eabi/include/c++/10.3.1/bits/stl_algobase.h **** 
 853:/Library/DaisyToolchain/0.2.0/arm/arm-none-eabi/include/c++/10.3.1/bits/stl_algobase.h ****   template<typename _ForwardIterator, typename _Tp>
 854:/Library/DaisyToolchain/0.2.0/arm/arm-none-eabi/include/c++/10.3.1/bits/stl_algobase.h ****     _GLIBCXX20_CONSTEXPR
 855:/Library/DaisyToolchain/0.2.0/arm/arm-none-eabi/include/c++/10.3.1/bits/stl_algobase.h ****     inline typename
 856:/Library/DaisyToolchain/0.2.0/arm/arm-none-eabi/include/c++/10.3.1/bits/stl_algobase.h ****     __gnu_cxx::__enable_if<!__is_scalar<_Tp>::__value, void>::__type
 857:/Library/DaisyToolchain/0.2.0/arm/arm-none-eabi/include/c++/10.3.1/bits/stl_algobase.h ****     __fill_a1(_ForwardIterator __first, _ForwardIterator __last,
 858:/Library/DaisyToolchain/0.2.0/arm/arm-none-eabi/include/c++/10.3.1/bits/stl_algobase.h **** 	      const _Tp& __value)
 859:/Library/DaisyToolchain/0.2.0/arm/arm-none-eabi/include/c++/10.3.1/bits/stl_algobase.h ****     {
 860:/Library/DaisyToolchain/0.2.0/arm/arm-none-eabi/include/c++/10.3.1/bits/stl_algobase.h ****       for (; __first != __last; ++__first)
 861:/Library/DaisyToolchain/0.2.0/arm/arm-none-eabi/include/c++/10.3.1/bits/stl_algobase.h **** 	*__first = __value;
 862:/Library/DaisyToolchain/0.2.0/arm/arm-none-eabi/include/c++/10.3.1/bits/stl_algobase.h ****     }
 863:/Library/DaisyToolchain/0.2.0/arm/arm-none-eabi/include/c++/10.3.1/bits/stl_algobase.h **** 
 864:/Library/DaisyToolchain/0.2.0/arm/arm-none-eabi/include/c++/10.3.1/bits/stl_algobase.h ****   template<typename _ForwardIterator, typename _Tp>
 865:/Library/DaisyToolchain/0.2.0/arm/arm-none-eabi/include/c++/10.3.1/bits/stl_algobase.h ****     _GLIBCXX20_CONSTEXPR
 866:/Library/DaisyToolchain/0.2.0/arm/arm-none-eabi/include/c++/10.3.1/bits/stl_algobase.h ****     inline typename
 867:/Library/DaisyToolchain/0.2.0/arm/arm-none-eabi/include/c++/10.3.1/bits/stl_algobase.h ****     __gnu_cxx::__enable_if<__is_scalar<_Tp>::__value, void>::__type
 868:/Library/DaisyToolchain/0.2.0/arm/arm-none-eabi/include/c++/10.3.1/bits/stl_algobase.h ****     __fill_a1(_ForwardIterator __first, _ForwardIterator __last,
 869:/Library/DaisyToolchain/0.2.0/arm/arm-none-eabi/include/c++/10.3.1/bits/stl_algobase.h **** 	      const _Tp& __value)
 870:/Library/DaisyToolchain/0.2.0/arm/arm-none-eabi/include/c++/10.3.1/bits/stl_algobase.h ****     {
 871:/Library/DaisyToolchain/0.2.0/arm/arm-none-eabi/include/c++/10.3.1/bits/stl_algobase.h ****       const _Tp __tmp = __value;
 872:/Library/DaisyToolchain/0.2.0/arm/arm-none-eabi/include/c++/10.3.1/bits/stl_algobase.h ****       for (; __first != __last; ++__first)
 873:/Library/DaisyToolchain/0.2.0/arm/arm-none-eabi/include/c++/10.3.1/bits/stl_algobase.h **** 	*__first = __tmp;
 874:/Library/DaisyToolchain/0.2.0/arm/arm-none-eabi/include/c++/10.3.1/bits/stl_algobase.h ****     }
 875:/Library/DaisyToolchain/0.2.0/arm/arm-none-eabi/include/c++/10.3.1/bits/stl_algobase.h **** 
 876:/Library/DaisyToolchain/0.2.0/arm/arm-none-eabi/include/c++/10.3.1/bits/stl_algobase.h ****   // Specialization: for char types we can use memset.
 877:/Library/DaisyToolchain/0.2.0/arm/arm-none-eabi/include/c++/10.3.1/bits/stl_algobase.h ****   template<typename _Tp>
 878:/Library/DaisyToolchain/0.2.0/arm/arm-none-eabi/include/c++/10.3.1/bits/stl_algobase.h ****     _GLIBCXX20_CONSTEXPR
 879:/Library/DaisyToolchain/0.2.0/arm/arm-none-eabi/include/c++/10.3.1/bits/stl_algobase.h ****     inline typename
 880:/Library/DaisyToolchain/0.2.0/arm/arm-none-eabi/include/c++/10.3.1/bits/stl_algobase.h ****     __gnu_cxx::__enable_if<__is_byte<_Tp>::__value, void>::__type
 881:/Library/DaisyToolchain/0.2.0/arm/arm-none-eabi/include/c++/10.3.1/bits/stl_algobase.h ****     __fill_a1(_Tp* __first, _Tp* __last, const _Tp& __c)
 882:/Library/DaisyToolchain/0.2.0/arm/arm-none-eabi/include/c++/10.3.1/bits/stl_algobase.h ****     {
 883:/Library/DaisyToolchain/0.2.0/arm/arm-none-eabi/include/c++/10.3.1/bits/stl_algobase.h ****       const _Tp __tmp = __c;
 884:/Library/DaisyToolchain/0.2.0/arm/arm-none-eabi/include/c++/10.3.1/bits/stl_algobase.h **** #if __cpp_lib_is_constant_evaluated
 885:/Library/DaisyToolchain/0.2.0/arm/arm-none-eabi/include/c++/10.3.1/bits/stl_algobase.h ****       if (std::is_constant_evaluated())
 886:/Library/DaisyToolchain/0.2.0/arm/arm-none-eabi/include/c++/10.3.1/bits/stl_algobase.h **** 	{
 887:/Library/DaisyToolchain/0.2.0/arm/arm-none-eabi/include/c++/10.3.1/bits/stl_algobase.h **** 	  for (; __first != __last; ++__first)
 888:/Library/DaisyToolchain/0.2.0/arm/arm-none-eabi/include/c++/10.3.1/bits/stl_algobase.h **** 	    *__first = __tmp;
 889:/Library/DaisyToolchain/0.2.0/arm/arm-none-eabi/include/c++/10.3.1/bits/stl_algobase.h **** 	  return;
ARM GAS  /var/folders/9k/zk1mgrrd7wg4__6zvxvr9w8m0000gn/T//ccqmKVLy.s 			page 47


 890:/Library/DaisyToolchain/0.2.0/arm/arm-none-eabi/include/c++/10.3.1/bits/stl_algobase.h **** 	}
 891:/Library/DaisyToolchain/0.2.0/arm/arm-none-eabi/include/c++/10.3.1/bits/stl_algobase.h **** #endif
 892:/Library/DaisyToolchain/0.2.0/arm/arm-none-eabi/include/c++/10.3.1/bits/stl_algobase.h ****       if (const size_t __len = __last - __first)
 893:/Library/DaisyToolchain/0.2.0/arm/arm-none-eabi/include/c++/10.3.1/bits/stl_algobase.h **** 	__builtin_memset(__first, static_cast<unsigned char>(__tmp), __len);
 894:/Library/DaisyToolchain/0.2.0/arm/arm-none-eabi/include/c++/10.3.1/bits/stl_algobase.h ****     }
 895:/Library/DaisyToolchain/0.2.0/arm/arm-none-eabi/include/c++/10.3.1/bits/stl_algobase.h **** 
 896:/Library/DaisyToolchain/0.2.0/arm/arm-none-eabi/include/c++/10.3.1/bits/stl_algobase.h ****   template<typename _Ite, typename _Cont, typename _Tp>
 897:/Library/DaisyToolchain/0.2.0/arm/arm-none-eabi/include/c++/10.3.1/bits/stl_algobase.h ****     _GLIBCXX20_CONSTEXPR
 898:/Library/DaisyToolchain/0.2.0/arm/arm-none-eabi/include/c++/10.3.1/bits/stl_algobase.h ****     inline void
 899:/Library/DaisyToolchain/0.2.0/arm/arm-none-eabi/include/c++/10.3.1/bits/stl_algobase.h ****     __fill_a1(::__gnu_cxx::__normal_iterator<_Ite, _Cont> __first,
 900:/Library/DaisyToolchain/0.2.0/arm/arm-none-eabi/include/c++/10.3.1/bits/stl_algobase.h **** 	      ::__gnu_cxx::__normal_iterator<_Ite, _Cont> __last,
 901:/Library/DaisyToolchain/0.2.0/arm/arm-none-eabi/include/c++/10.3.1/bits/stl_algobase.h **** 	      const _Tp& __value)
 902:/Library/DaisyToolchain/0.2.0/arm/arm-none-eabi/include/c++/10.3.1/bits/stl_algobase.h ****     { std::__fill_a1(__first.base(), __last.base(), __value); }
 903:/Library/DaisyToolchain/0.2.0/arm/arm-none-eabi/include/c++/10.3.1/bits/stl_algobase.h **** 
 904:/Library/DaisyToolchain/0.2.0/arm/arm-none-eabi/include/c++/10.3.1/bits/stl_algobase.h ****   template<typename _Tp, typename _VTp>
 905:/Library/DaisyToolchain/0.2.0/arm/arm-none-eabi/include/c++/10.3.1/bits/stl_algobase.h ****     void
 906:/Library/DaisyToolchain/0.2.0/arm/arm-none-eabi/include/c++/10.3.1/bits/stl_algobase.h ****     __fill_a1(const _GLIBCXX_STD_C::_Deque_iterator<_Tp, _Tp&, _Tp*>&,
 907:/Library/DaisyToolchain/0.2.0/arm/arm-none-eabi/include/c++/10.3.1/bits/stl_algobase.h **** 	      const _GLIBCXX_STD_C::_Deque_iterator<_Tp, _Tp&, _Tp*>&,
 908:/Library/DaisyToolchain/0.2.0/arm/arm-none-eabi/include/c++/10.3.1/bits/stl_algobase.h **** 	      const _VTp&);
 909:/Library/DaisyToolchain/0.2.0/arm/arm-none-eabi/include/c++/10.3.1/bits/stl_algobase.h **** 
 910:/Library/DaisyToolchain/0.2.0/arm/arm-none-eabi/include/c++/10.3.1/bits/stl_algobase.h ****   template<typename _FIte, typename _Tp>
 911:/Library/DaisyToolchain/0.2.0/arm/arm-none-eabi/include/c++/10.3.1/bits/stl_algobase.h ****     _GLIBCXX20_CONSTEXPR
 912:/Library/DaisyToolchain/0.2.0/arm/arm-none-eabi/include/c++/10.3.1/bits/stl_algobase.h ****     inline void
 913:/Library/DaisyToolchain/0.2.0/arm/arm-none-eabi/include/c++/10.3.1/bits/stl_algobase.h ****     __fill_a(_FIte __first, _FIte __last, const _Tp& __value)
 914:/Library/DaisyToolchain/0.2.0/arm/arm-none-eabi/include/c++/10.3.1/bits/stl_algobase.h ****     { std::__fill_a1(__first, __last, __value); }
 915:/Library/DaisyToolchain/0.2.0/arm/arm-none-eabi/include/c++/10.3.1/bits/stl_algobase.h **** 
 916:/Library/DaisyToolchain/0.2.0/arm/arm-none-eabi/include/c++/10.3.1/bits/stl_algobase.h ****   template<typename _Ite, typename _Seq, typename _Cat, typename _Tp>
 917:/Library/DaisyToolchain/0.2.0/arm/arm-none-eabi/include/c++/10.3.1/bits/stl_algobase.h ****     void
 918:/Library/DaisyToolchain/0.2.0/arm/arm-none-eabi/include/c++/10.3.1/bits/stl_algobase.h ****     __fill_a(const ::__gnu_debug::_Safe_iterator<_Ite, _Seq, _Cat>&,
 919:/Library/DaisyToolchain/0.2.0/arm/arm-none-eabi/include/c++/10.3.1/bits/stl_algobase.h **** 	     const ::__gnu_debug::_Safe_iterator<_Ite, _Seq, _Cat>&,
 920:/Library/DaisyToolchain/0.2.0/arm/arm-none-eabi/include/c++/10.3.1/bits/stl_algobase.h **** 	     const _Tp&);
 921:/Library/DaisyToolchain/0.2.0/arm/arm-none-eabi/include/c++/10.3.1/bits/stl_algobase.h **** 
 922:/Library/DaisyToolchain/0.2.0/arm/arm-none-eabi/include/c++/10.3.1/bits/stl_algobase.h ****   /**
 923:/Library/DaisyToolchain/0.2.0/arm/arm-none-eabi/include/c++/10.3.1/bits/stl_algobase.h ****    *  @brief Fills the range [first,last) with copies of value.
 924:/Library/DaisyToolchain/0.2.0/arm/arm-none-eabi/include/c++/10.3.1/bits/stl_algobase.h ****    *  @ingroup mutating_algorithms
 925:/Library/DaisyToolchain/0.2.0/arm/arm-none-eabi/include/c++/10.3.1/bits/stl_algobase.h ****    *  @param  __first  A forward iterator.
 926:/Library/DaisyToolchain/0.2.0/arm/arm-none-eabi/include/c++/10.3.1/bits/stl_algobase.h ****    *  @param  __last   A forward iterator.
 927:/Library/DaisyToolchain/0.2.0/arm/arm-none-eabi/include/c++/10.3.1/bits/stl_algobase.h ****    *  @param  __value  A reference-to-const of arbitrary type.
 928:/Library/DaisyToolchain/0.2.0/arm/arm-none-eabi/include/c++/10.3.1/bits/stl_algobase.h ****    *  @return   Nothing.
 929:/Library/DaisyToolchain/0.2.0/arm/arm-none-eabi/include/c++/10.3.1/bits/stl_algobase.h ****    *
 930:/Library/DaisyToolchain/0.2.0/arm/arm-none-eabi/include/c++/10.3.1/bits/stl_algobase.h ****    *  This function fills a range with copies of the same value.  For char
 931:/Library/DaisyToolchain/0.2.0/arm/arm-none-eabi/include/c++/10.3.1/bits/stl_algobase.h ****    *  types filling contiguous areas of memory, this becomes an inline call
 932:/Library/DaisyToolchain/0.2.0/arm/arm-none-eabi/include/c++/10.3.1/bits/stl_algobase.h ****    *  to @c memset or @c wmemset.
 933:/Library/DaisyToolchain/0.2.0/arm/arm-none-eabi/include/c++/10.3.1/bits/stl_algobase.h ****   */
 934:/Library/DaisyToolchain/0.2.0/arm/arm-none-eabi/include/c++/10.3.1/bits/stl_algobase.h ****   template<typename _ForwardIterator, typename _Tp>
 935:/Library/DaisyToolchain/0.2.0/arm/arm-none-eabi/include/c++/10.3.1/bits/stl_algobase.h ****     _GLIBCXX20_CONSTEXPR
 936:/Library/DaisyToolchain/0.2.0/arm/arm-none-eabi/include/c++/10.3.1/bits/stl_algobase.h ****     inline void
 937:/Library/DaisyToolchain/0.2.0/arm/arm-none-eabi/include/c++/10.3.1/bits/stl_algobase.h ****     fill(_ForwardIterator __first, _ForwardIterator __last, const _Tp& __value)
 849              		.loc 4 937 5 view .LVU240
 850              	.LBB286:
 851              	.LBI286:
 913:/Library/DaisyToolchain/0.2.0/arm/arm-none-eabi/include/c++/10.3.1/bits/stl_algobase.h ****     { std::__fill_a1(__first, __last, __value); }
 852              		.loc 4 913 5 view .LVU241
 853              	.LBB287:
 854              	.LBI287:
 868:/Library/DaisyToolchain/0.2.0/arm/arm-none-eabi/include/c++/10.3.1/bits/stl_algobase.h **** 	      const _Tp& __value)
 855              		.loc 4 868 5 view .LVU242
ARM GAS  /var/folders/9k/zk1mgrrd7wg4__6zvxvr9w8m0000gn/T//ccqmKVLy.s 			page 48


 856              	.LBB288:
 872:/Library/DaisyToolchain/0.2.0/arm/arm-none-eabi/include/c++/10.3.1/bits/stl_algobase.h **** 	*__first = __tmp;
 857              		.loc 4 872 22 view .LVU243
 858 01ea 27B1     		cbz	r7, .L22
 873:/Library/DaisyToolchain/0.2.0/arm/arm-none-eabi/include/c++/10.3.1/bits/stl_algobase.h ****     }
 859              		.loc 4 873 11 is_stmt 0 view .LVU244
 860 01ec 3A46     		mov	r2, r7
 861 01ee 0021     		movs	r1, #0
 862 01f0 0E98     		ldr	r0, [sp, #56]
 863 01f2 FFF7FEFF 		bl	memset
 864              	.LVL55:
 865              	.L22:
 873:/Library/DaisyToolchain/0.2.0/arm/arm-none-eabi/include/c++/10.3.1/bits/stl_algobase.h ****     }
 866              		.loc 4 873 11 view .LVU245
 867 01f6 3222     		movs	r2, #50
 868 01f8 08EB8808 		add	r8, r8, r8, lsl #2
 869              	.LVL56:
 873:/Library/DaisyToolchain/0.2.0/arm/arm-none-eabi/include/c++/10.3.1/bits/stl_algobase.h ****     }
 870              		.loc 4 873 11 view .LVU246
 871 01fc 6FF03101 		mvn	r1, #49
 872 0200 2046     		mov	r0, r4
 873 0202 02FB09F2 		mul	r2, r2, r9
 874 0206 0E9B     		ldr	r3, [sp, #56]
 875 0208 01FB09F9 		mul	r9, r1, r9
 876              	.LVL57:
 873:/Library/DaisyToolchain/0.2.0/arm/arm-none-eabi/include/c++/10.3.1/bits/stl_algobase.h ****     }
 877              		.loc 4 873 11 view .LVU247
 878 020c 02EB4804 		add	r4, r2, r8, lsl #1
 879              	.LVL58:
 873:/Library/DaisyToolchain/0.2.0/arm/arm-none-eabi/include/c++/10.3.1/bits/stl_algobase.h ****     }
 880              		.loc 4 873 11 view .LVU248
 881 0210 03EB070C 		add	ip, r3, r7
 882 0214 594F     		ldr	r7, .L61+8
 883 0216 02F1320A 		add	r10, r2, #50
 884 021a A646     		mov	lr, r4
 885 021c 04F10A01 		add	r1, r4, #10
 886 0220 02F13308 		add	r8, r2, #51
 887 0224 0096     		str	r6, [sp]
 888 0226 BE44     		add	lr, lr, r7
 889 0228 7C18     		adds	r4, r7, r1
 890              	.LBE288:
 891              	.LBE287:
 892              	.LBE286:
 893              	.LBE285:
 894              	.LBB292:
 130:mi/plaits/dsp/speech/naive_speech_synth.cpp ****   for (int i = 0; i < kNaiveSpeechNumFormants; ++i) {
 895              		.loc 1 130 12 view .LVU249
 896 022a 0027     		movs	r7, #0
 897 022c 0F95     		str	r5, [sp, #60]
 898              	.LVL59:
 899              	.L27:
 900              	.LBB293:
 131:mi/plaits/dsp/speech/naive_speech_synth.cpp ****     const Formant& p0r0 = phonemes_[p_integral][r_integral].formant[i];
 901              		.loc 1 131 5 is_stmt 1 view .LVU250
 132:mi/plaits/dsp/speech/naive_speech_synth.cpp ****     const Formant& p0r1 = phonemes_[p_integral][r_integral + 1].formant[i];
 902              		.loc 1 132 5 view .LVU251
 133:mi/plaits/dsp/speech/naive_speech_synth.cpp ****     const Formant& p1r0 = phonemes_[p_integral + 1][r_integral].formant[i];
ARM GAS  /var/folders/9k/zk1mgrrd7wg4__6zvxvr9w8m0000gn/T//ccqmKVLy.s 			page 49


 903              		.loc 1 133 5 view .LVU252
 134:mi/plaits/dsp/speech/naive_speech_synth.cpp ****     const Formant& p1r1 = phonemes_[p_integral + 1][r_integral + 1].formant[i];
 904              		.loc 1 134 5 view .LVU253
 135:mi/plaits/dsp/speech/naive_speech_synth.cpp **** 
 136:mi/plaits/dsp/speech/naive_speech_synth.cpp ****     float p0r_f = p0r0.frequency + \
 905              		.loc 1 136 5 view .LVU254
 906 022e 0EEB0902 		add	r2, lr, r9
 907              		.loc 1 136 24 is_stmt 0 view .LVU255
 908 0232 9EF80050 		ldrb	r5, [lr]	@ zero_extendqisi2
 909 0236 09EB0403 		add	r3, r9, r4
 137:mi/plaits/dsp/speech/naive_speech_synth.cpp ****         (p0r1.frequency - p0r0.frequency) * r_fractional;
 138:mi/plaits/dsp/speech/naive_speech_synth.cpp ****     float p1r_f = p1r0.frequency + \
 139:mi/plaits/dsp/speech/naive_speech_synth.cpp ****         (p1r1.frequency - p1r0.frequency) * r_fractional;
 140:mi/plaits/dsp/speech/naive_speech_synth.cpp ****     float f = p0r_f + (p1r_f - p0r_f) * p_fractional;
 141:mi/plaits/dsp/speech/naive_speech_synth.cpp **** 
 142:mi/plaits/dsp/speech/naive_speech_synth.cpp ****     float p0r_a = p0r0.amplitude + \
 910              		.loc 1 142 24 view .LVU256
 911 023a 9EF801B0 		ldrb	fp, [lr, #1]	@ zero_extendqisi2
 138:mi/plaits/dsp/speech/naive_speech_synth.cpp ****         (p1r1.frequency - p1r0.frequency) * r_fractional;
 912              		.loc 1 138 24 view .LVU257
 913 023e 12F80A60 		ldrb	r6, [r2, r10]	@ zero_extendqisi2
 136:mi/plaits/dsp/speech/naive_speech_synth.cpp ****         (p0r1.frequency - p0r0.frequency) * r_fractional;
 914              		.loc 1 136 34 view .LVU258
 915 0242 07EE905A 		vmov	s15, r5	@ int
 143:mi/plaits/dsp/speech/naive_speech_synth.cpp ****         (p0r1.amplitude - p0r0.amplitude) * r_fractional;
 144:mi/plaits/dsp/speech/naive_speech_synth.cpp ****     float p1r_a = p1r0.amplitude + \
 916              		.loc 1 144 24 view .LVU259
 917 0246 12F80810 		ldrb	r1, [r2, r8]	@ zero_extendqisi2
 142:mi/plaits/dsp/speech/naive_speech_synth.cpp ****         (p0r1.amplitude - p0r0.amplitude) * r_fractional;
 918              		.loc 1 142 34 view .LVU260
 919 024a 06EE90BA 		vmov	s13, fp	@ int
 137:mi/plaits/dsp/speech/naive_speech_synth.cpp ****     float p1r_f = p1r0.frequency + \
 920              		.loc 1 137 15 view .LVU261
 921 024e 2278     		ldrb	r2, [r4]	@ zero_extendqisi2
 138:mi/plaits/dsp/speech/naive_speech_synth.cpp ****         (p1r1.frequency - p1r0.frequency) * r_fractional;
 922              		.loc 1 138 34 view .LVU262
 923 0250 07EE106A 		vmov	s14, r6	@ int
 136:mi/plaits/dsp/speech/naive_speech_synth.cpp ****         (p0r1.frequency - p0r0.frequency) * r_fractional;
 924              		.loc 1 136 34 view .LVU263
 925 0254 F8EEE77A 		vcvt.f32.s32	s15, s15
 145:mi/plaits/dsp/speech/naive_speech_synth.cpp ****         (p1r1.amplitude - p1r0.amplitude) * r_fractional;
 146:mi/plaits/dsp/speech/naive_speech_synth.cpp ****     float a = (p0r_a + (p1r_a - p0r_a) * p_fractional) / 256.0f;
 147:mi/plaits/dsp/speech/naive_speech_synth.cpp ****     
 148:mi/plaits/dsp/speech/naive_speech_synth.cpp ****     if (f >= 160.0f) {
 926              		.loc 1 148 5 view .LVU264
 927 0258 DFED493A 		vldr.32	s7, .L61+12
 137:mi/plaits/dsp/speech/naive_speech_synth.cpp ****     float p1r_f = p1r0.frequency + \
 928              		.loc 1 137 25 view .LVU265
 929 025c 521B     		subs	r2, r2, r5
 138:mi/plaits/dsp/speech/naive_speech_synth.cpp ****         (p1r1.frequency - p1r0.frequency) * r_fractional;
 930              		.loc 1 138 34 view .LVU266
 931 025e B8EEC76A 		vcvt.f32.s32	s12, s14
 142:mi/plaits/dsp/speech/naive_speech_synth.cpp ****         (p0r1.amplitude - p0r0.amplitude) * r_fractional;
 932              		.loc 1 142 34 view .LVU267
 933 0262 B8EEE64A 		vcvt.f32.s32	s8, s13
 144:mi/plaits/dsp/speech/naive_speech_synth.cpp ****         (p1r1.amplitude - p1r0.amplitude) * r_fractional;
 934              		.loc 1 144 34 view .LVU268
ARM GAS  /var/folders/9k/zk1mgrrd7wg4__6zvxvr9w8m0000gn/T//ccqmKVLy.s 			page 50


 935 0266 07EE101A 		vmov	s14, r1	@ int
 137:mi/plaits/dsp/speech/naive_speech_synth.cpp ****     float p1r_f = p1r0.frequency + \
 936              		.loc 1 137 25 view .LVU269
 937 026a 04EE902A 		vmov	s9, r2	@ int
 139:mi/plaits/dsp/speech/naive_speech_synth.cpp ****     float f = p0r_f + (p1r_f - p0r_f) * p_fractional;
 938              		.loc 1 139 15 view .LVU270
 939 026e 13F80A20 		ldrb	r2, [r3, r10]	@ zero_extendqisi2
 144:mi/plaits/dsp/speech/naive_speech_synth.cpp ****         (p1r1.amplitude - p1r0.amplitude) * r_fractional;
 940              		.loc 1 144 34 view .LVU271
 941 0272 B8EEC77A 		vcvt.f32.s32	s14, s14
 146:mi/plaits/dsp/speech/naive_speech_synth.cpp ****     
 942              		.loc 1 146 11 view .LVU272
 943 0276 9FED433A 		vldr.32	s6, .L61+16
 139:mi/plaits/dsp/speech/naive_speech_synth.cpp ****     float f = p0r_f + (p1r_f - p0r_f) * p_fractional;
 944              		.loc 1 139 25 view .LVU273
 945 027a 921B     		subs	r2, r2, r6
 137:mi/plaits/dsp/speech/naive_speech_synth.cpp ****     float p1r_f = p1r0.frequency + \
 946              		.loc 1 137 43 view .LVU274
 947 027c F8EEE44A 		vcvt.f32.s32	s9, s9
 139:mi/plaits/dsp/speech/naive_speech_synth.cpp ****     float f = p0r_f + (p1r_f - p0r_f) * p_fractional;
 948              		.loc 1 139 25 view .LVU275
 949 0280 05EE102A 		vmov	s10, r2	@ int
 145:mi/plaits/dsp/speech/naive_speech_synth.cpp ****     float a = (p0r_a + (p1r_a - p0r_a) * p_fractional) / 256.0f;
 950              		.loc 1 145 15 view .LVU276
 951 0284 13F80820 		ldrb	r2, [r3, r8]	@ zero_extendqisi2
 143:mi/plaits/dsp/speech/naive_speech_synth.cpp ****     float p1r_a = p1r0.amplitude + \
 952              		.loc 1 143 15 view .LVU277
 953 0288 6378     		ldrb	r3, [r4, #1]	@ zero_extendqisi2
 136:mi/plaits/dsp/speech/naive_speech_synth.cpp ****         (p0r1.frequency - p0r0.frequency) * r_fractional;
 954              		.loc 1 136 11 view .LVU278
 955 028a E4EE887A 		vfma.f32	s15, s9, s16
 956              	.LVL60:
 138:mi/plaits/dsp/speech/naive_speech_synth.cpp ****         (p1r1.frequency - p1r0.frequency) * r_fractional;
 957              		.loc 1 138 5 is_stmt 1 view .LVU279
 139:mi/plaits/dsp/speech/naive_speech_synth.cpp ****     float f = p0r_f + (p1r_f - p0r_f) * p_fractional;
 958              		.loc 1 139 43 is_stmt 0 view .LVU280
 959 028e B8EEC55A 		vcvt.f32.s32	s10, s10
 145:mi/plaits/dsp/speech/naive_speech_synth.cpp ****     float a = (p0r_a + (p1r_a - p0r_a) * p_fractional) / 256.0f;
 960              		.loc 1 145 25 view .LVU281
 961 0292 521A     		subs	r2, r2, r1
 143:mi/plaits/dsp/speech/naive_speech_synth.cpp ****     float p1r_a = p1r0.amplitude + \
 962              		.loc 1 143 25 view .LVU282
 963 0294 A3EB0B03 		sub	r3, r3, fp
 145:mi/plaits/dsp/speech/naive_speech_synth.cpp ****     float a = (p0r_a + (p1r_a - p0r_a) * p_fractional) / 256.0f;
 964              		.loc 1 145 43 view .LVU283
 965 0298 06EE902A 		vmov	s13, r2	@ int
 138:mi/plaits/dsp/speech/naive_speech_synth.cpp ****         (p1r1.frequency - p1r0.frequency) * r_fractional;
 966              		.loc 1 138 11 view .LVU284
 967 029c A5EE086A 		vfma.f32	s12, s10, s16
 968              	.LVL61:
 140:mi/plaits/dsp/speech/naive_speech_synth.cpp **** 
 969              		.loc 1 140 5 is_stmt 1 view .LVU285
 145:mi/plaits/dsp/speech/naive_speech_synth.cpp ****     float a = (p0r_a + (p1r_a - p0r_a) * p_fractional) / 256.0f;
 970              		.loc 1 145 43 is_stmt 0 view .LVU286
 971 02a0 F8EEE65A 		vcvt.f32.s32	s11, s13
 143:mi/plaits/dsp/speech/naive_speech_synth.cpp ****     float p1r_a = p1r0.amplitude + \
 972              		.loc 1 143 43 view .LVU287
ARM GAS  /var/folders/9k/zk1mgrrd7wg4__6zvxvr9w8m0000gn/T//ccqmKVLy.s 			page 51


 973 02a4 06EE903A 		vmov	s13, r3	@ int
 974 02a8 F8EEE66A 		vcvt.f32.s32	s13, s13
 144:mi/plaits/dsp/speech/naive_speech_synth.cpp ****         (p1r1.amplitude - p1r0.amplitude) * r_fractional;
 975              		.loc 1 144 11 view .LVU288
 976 02ac A5EE887A 		vfma.f32	s14, s11, s16
 142:mi/plaits/dsp/speech/naive_speech_synth.cpp ****         (p0r1.amplitude - p0r0.amplitude) * r_fractional;
 977              		.loc 1 142 11 view .LVU289
 978 02b0 A6EE884A 		vfma.f32	s8, s13, s16
 140:mi/plaits/dsp/speech/naive_speech_synth.cpp **** 
 979              		.loc 1 140 30 view .LVU290
 980 02b4 36EE676A 		vsub.f32	s12, s12, s15
 981              	.LVL62:
 140:mi/plaits/dsp/speech/naive_speech_synth.cpp **** 
 982              		.loc 1 140 11 view .LVU291
 983 02b8 E6EE287A 		vfma.f32	s15, s12, s17
 984              	.LVL63:
 142:mi/plaits/dsp/speech/naive_speech_synth.cpp ****         (p0r1.amplitude - p0r0.amplitude) * r_fractional;
 985              		.loc 1 142 5 is_stmt 1 view .LVU292
 144:mi/plaits/dsp/speech/naive_speech_synth.cpp ****         (p1r1.amplitude - p1r0.amplitude) * r_fractional;
 986              		.loc 1 144 5 view .LVU293
 146:mi/plaits/dsp/speech/naive_speech_synth.cpp ****     
 987              		.loc 1 146 5 view .LVU294
 146:mi/plaits/dsp/speech/naive_speech_synth.cpp ****     
 988              		.loc 1 146 31 is_stmt 0 view .LVU295
 989 02bc 37EE447A 		vsub.f32	s14, s14, s8
 990              	.LVL64:
 146:mi/plaits/dsp/speech/naive_speech_synth.cpp ****     
 991              		.loc 1 146 22 view .LVU296
 992 02c0 A7EE284A 		vfma.f32	s8, s14, s17
 993              	.LVL65:
 994              		.loc 1 148 5 view .LVU297
 995 02c4 F4EEE37A 		vcmpe.f32	s15, s7
 996 02c8 F1EE10FA 		vmrs	APSR_nzcv, FPSCR
 146:mi/plaits/dsp/speech/naive_speech_synth.cpp ****     
 997              		.loc 1 146 11 view .LVU298
 998 02cc 24EE034A 		vmul.f32	s8, s8, s6
 999              	.LVL66:
 1000              		.loc 1 148 5 is_stmt 1 view .LVU299
 1001 02d0 80F2A380 		bge	.L34
 149:mi/plaits/dsp/speech/naive_speech_synth.cpp ****       f = 160.0f;
 150:mi/plaits/dsp/speech/naive_speech_synth.cpp ****     }
 151:mi/plaits/dsp/speech/naive_speech_synth.cpp ****     f = a0 * stmlib::SemitonesToRatio(f - 33.0f);
 1002              		.loc 1 151 38 is_stmt 0 view .LVU300
 1003 02d4 DFED2C6A 		vldr.32	s13, .L61+20
 1004              	.LVL67:
 1005              	.LBB294:
 1006              	.LBB295:
 1007              		.file 7 "mi/stmlib/dsp/units.h"
   1:mi/stmlib/dsp/units.h **** // Copyright 2014 Emilie Gillet.
   2:mi/stmlib/dsp/units.h **** //
   3:mi/stmlib/dsp/units.h **** // Author: Emilie Gillet (emilie.o.gillet@gmail.com)
   4:mi/stmlib/dsp/units.h **** //
   5:mi/stmlib/dsp/units.h **** // Permission is hereby granted, free of charge, to any person obtaining a copy
   6:mi/stmlib/dsp/units.h **** // of this software and associated documentation files (the "Software"), to deal
   7:mi/stmlib/dsp/units.h **** // in the Software without restriction, including without limitation the rights
   8:mi/stmlib/dsp/units.h **** // to use, copy, modify, merge, publish, distribute, sublicense, and/or sell
   9:mi/stmlib/dsp/units.h **** // copies of the Software, and to permit persons to whom the Software is
ARM GAS  /var/folders/9k/zk1mgrrd7wg4__6zvxvr9w8m0000gn/T//ccqmKVLy.s 			page 52


  10:mi/stmlib/dsp/units.h **** // furnished to do so, subject to the following conditions:
  11:mi/stmlib/dsp/units.h **** // 
  12:mi/stmlib/dsp/units.h **** // The above copyright notice and this permission notice shall be included in
  13:mi/stmlib/dsp/units.h **** // all copies or substantial portions of the Software.
  14:mi/stmlib/dsp/units.h **** // 
  15:mi/stmlib/dsp/units.h **** // THE SOFTWARE IS PROVIDED "AS IS", WITHOUT WARRANTY OF ANY KIND, EXPRESS OR
  16:mi/stmlib/dsp/units.h **** // IMPLIED, INCLUDING BUT NOT LIMITED TO THE WARRANTIES OF MERCHANTABILITY,
  17:mi/stmlib/dsp/units.h **** // FITNESS FOR A PARTICULAR PURPOSE AND NONINFRINGEMENT. IN NO EVENT SHALL THE
  18:mi/stmlib/dsp/units.h **** // AUTHORS OR COPYRIGHT HOLDERS BE LIABLE FOR ANY CLAIM, DAMAGES OR OTHER
  19:mi/stmlib/dsp/units.h **** // LIABILITY, WHETHER IN AN ACTION OF CONTRACT, TORT OR OTHERWISE, ARISING FROM,
  20:mi/stmlib/dsp/units.h **** // OUT OF OR IN CONNECTION WITH THE SOFTWARE OR THE USE OR OTHER DEALINGS IN
  21:mi/stmlib/dsp/units.h **** // THE SOFTWARE.
  22:mi/stmlib/dsp/units.h **** // 
  23:mi/stmlib/dsp/units.h **** // See http://creativecommons.org/licenses/MIT/ for more information.
  24:mi/stmlib/dsp/units.h **** //
  25:mi/stmlib/dsp/units.h **** // -----------------------------------------------------------------------------
  26:mi/stmlib/dsp/units.h **** //
  27:mi/stmlib/dsp/units.h **** // Conversion from semitones to frequency ratio.
  28:mi/stmlib/dsp/units.h **** 
  29:mi/stmlib/dsp/units.h **** #ifndef STMLIB_DSP_UNITS_H_
  30:mi/stmlib/dsp/units.h **** #define STMLIB_DSP_UNITS_H_
  31:mi/stmlib/dsp/units.h **** 
  32:mi/stmlib/dsp/units.h **** #include "stmlib/stmlib.h"
  33:mi/stmlib/dsp/units.h **** #include "stmlib/dsp/dsp.h"
  34:mi/stmlib/dsp/units.h **** 
  35:mi/stmlib/dsp/units.h **** namespace stmlib {
  36:mi/stmlib/dsp/units.h **** 
  37:mi/stmlib/dsp/units.h **** extern const float lut_pitch_ratio_high[257];
  38:mi/stmlib/dsp/units.h **** extern const float lut_pitch_ratio_low[257];
  39:mi/stmlib/dsp/units.h **** 
  40:mi/stmlib/dsp/units.h **** inline float SemitonesToRatio(float semitones) {
  41:mi/stmlib/dsp/units.h ****   float pitch = semitones + 128.0f;
 1008              		.loc 7 41 9 view .LVU301
 1009 02d8 9FED2C7A 		vldr.32	s14, .L61+24
 1010              	.LBE295:
 1011              	.LBE294:
 1012              		.loc 1 151 38 view .LVU302
 1013 02dc 77EEE67A 		vsub.f32	s15, s15, s13
 1014              	.LVL68:
 1015              	.LBB299:
 1016              	.LBB296:
 1017              		.loc 7 41 9 view .LVU303
 1018 02e0 77EE877A 		vadd.f32	s15, s15, s14
  42:mi/stmlib/dsp/units.h ****   MAKE_INTEGRAL_FRACTIONAL(pitch)
 1019              		.loc 7 42 3 view .LVU304
 1020 02e4 BDEEE77A 		vcvt.s32.f32	s14, s15
 1021 02e8 17EE102A 		vmov	r2, s14	@ int
 1022 02ec B8EEC77A 		vcvt.f32.s32	s14, s14
 1023 02f0 77EEC77A 		vsub.f32	s15, s15, s14
  43:mi/stmlib/dsp/units.h **** 
  44:mi/stmlib/dsp/units.h ****   return lut_pitch_ratio_high[pitch_integral] * \
  45:mi/stmlib/dsp/units.h ****       lut_pitch_ratio_low[static_cast<int32_t>(pitch_fractional * 256.0f)];
 1024              		.loc 7 45 27 view .LVU305
 1025 02f4 B0EE677A 		vmov.f32	s14, s15
 1026 02f8 BEEECC7A 		vcvt.s32.f32	s14, s14, #8
 1027 02fc 17EE103A 		vmov	r3, s14	@ int
 1028              	.LVL69:
ARM GAS  /var/folders/9k/zk1mgrrd7wg4__6zvxvr9w8m0000gn/T//ccqmKVLy.s 			page 53


 1029              	.L23:
 1030              		.loc 7 45 27 view .LVU306
 1031              	.LBE296:
 1032              	.LBE299:
 1033              		.loc 1 151 5 is_stmt 1 view .LVU307
 1034              	.LBB300:
 1035              	.LBI294:
  40:mi/stmlib/dsp/units.h ****   float pitch = semitones + 128.0f;
 1036              		.loc 7 40 14 view .LVU308
 1037              	.LBB297:
  41:mi/stmlib/dsp/units.h ****   MAKE_INTEGRAL_FRACTIONAL(pitch)
 1038              		.loc 7 41 3 view .LVU309
  42:mi/stmlib/dsp/units.h **** 
 1039              		.loc 7 42 3 view .LVU310
  42:mi/stmlib/dsp/units.h **** 
 1040              		.loc 7 42 3 view .LVU311
  44:mi/stmlib/dsp/units.h ****       lut_pitch_ratio_low[static_cast<int32_t>(pitch_fractional * 256.0f)];
 1041              		.loc 7 44 3 view .LVU312
  44:mi/stmlib/dsp/units.h ****       lut_pitch_ratio_low[static_cast<int32_t>(pitch_fractional * 256.0f)];
 1042              		.loc 7 44 45 is_stmt 0 view .LVU313
 1043 0300 2349     		ldr	r1, .L61+28
 1044              	.LVL70:
  44:mi/stmlib/dsp/units.h ****       lut_pitch_ratio_low[static_cast<int32_t>(pitch_fractional * 256.0f)];
 1045              		.loc 7 44 45 view .LVU314
 1046              	.LBE297:
 1047              	.LBE300:
 1048              		.loc 1 151 7 view .LVU315
 1049 0302 9FED247A 		vldr.32	s14, .L61+32
 1050              	.LBB301:
 1051              	.LBB298:
  44:mi/stmlib/dsp/units.h ****       lut_pitch_ratio_low[static_cast<int32_t>(pitch_fractional * 256.0f)];
 1052              		.loc 7 44 45 view .LVU316
 1053 0306 01EB8202 		add	r2, r1, r2, lsl #2
 1054              		.loc 7 45 74 view .LVU317
 1055 030a D2ED007A 		vldr.32	s15, [r2]
 1056 030e 224A     		ldr	r2, .L61+36
 1057 0310 02EB8303 		add	r3, r2, r3, lsl #2
 1058 0314 D3ED006A 		vldr.32	s13, [r3]
 1059 0318 67EEA67A 		vmul.f32	s15, s15, s13
 1060              	.LBE298:
 1061              	.LBE301:
 1062              		.loc 1 151 7 view .LVU318
 1063 031c 27EE877A 		vmul.f32	s14, s15, s14
 1064              	.LVL71:
 152:mi/plaits/dsp/speech/naive_speech_synth.cpp ****     if (click_duration_ && i == 0) {
 1065              		.loc 1 152 5 is_stmt 1 view .LVU319
 1066              		.loc 1 152 25 is_stmt 0 view .LVU320
 1067 0320 17B9     		cbnz	r7, .L24
 1068 0322 019B     		ldr	r3, [sp, #4]
 1069 0324 002B     		cmp	r3, #0
 1070 0326 7BD1     		bne	.L59
 1071              	.L24:
 153:mi/plaits/dsp/speech/naive_speech_synth.cpp ****       f *= 0.5f;
 154:mi/plaits/dsp/speech/naive_speech_synth.cpp ****     }
 155:mi/plaits/dsp/speech/naive_speech_synth.cpp ****     filter_[i].set_f_q<FREQUENCY_DIRTY>(f, 20.0f);
 1072              		.loc 1 155 5 is_stmt 1 discriminator 2 view .LVU321
 1073              	.LVL72:
ARM GAS  /var/folders/9k/zk1mgrrd7wg4__6zvxvr9w8m0000gn/T//ccqmKVLy.s 			page 54


 1074              	.LBB302:
 1075              	.LBI302:
 223:mi/stmlib/dsp/filter.h ****     g_ = OnePole::tan<approximation>(f);
 1076              		.loc 3 223 15 discriminator 2 view .LVU322
 1077              	.LBB303:
 1078              	.LBB304:
 1079              	.LBI304:
 107:mi/stmlib/dsp/filter.h ****     if (approximation == FREQUENCY_EXACT) {
 1080              		.loc 3 107 23 discriminator 2 view .LVU323
 1081              	.LBB305:
 115:mi/stmlib/dsp/filter.h ****     } else if (approximation == FREQUENCY_FAST) {
 1082              		.loc 3 115 30 is_stmt 0 discriminator 2 view .LVU324
 1083 0328 DFED1C6A 		vldr.32	s13, .L61+40
 1084              	.LBE305:
 1085              	.LBE304:
 226:mi/stmlib/dsp/filter.h ****   }
 1086              		.loc 3 226 23 discriminator 2 view .LVU325
 1087 032c B7EE005A 		vmov.f32	s10, #1.0e+0
 1088              	.LVL73:
 1089              	.LBB309:
 1090              	.LBB306:
 115:mi/stmlib/dsp/filter.h ****     } else if (approximation == FREQUENCY_FAST) {
 1091              		.loc 3 115 26 discriminator 2 view .LVU326
 1092 0330 DFED1B7A 		vldr.32	s15, .L61+44
 115:mi/stmlib/dsp/filter.h ****     } else if (approximation == FREQUENCY_FAST) {
 1093              		.loc 3 115 30 discriminator 2 view .LVU327
 1094 0334 67EE266A 		vmul.f32	s13, s14, s13
 1095              	.LBE306:
 1096              	.LBE309:
 225:mi/stmlib/dsp/filter.h ****     h_ = 1.0f / (1.0f + r_ * g_ + g_ * g_);
 1097              		.loc 3 225 8 discriminator 2 view .LVU328
 1098 0338 DFED1A4A 		vldr.32	s9, .L61+48
 1099              	.LVL74:
 225:mi/stmlib/dsp/filter.h ****     h_ = 1.0f / (1.0f + r_ * g_ + g_ * g_);
 1100              		.loc 3 225 8 discriminator 2 view .LVU329
 1101              	.LBE303:
 1102              	.LBE302:
 1103              	.LBB314:
 1104              	.LBB315:
 309:mi/stmlib/dsp/filter.h ****   }
 310:mi/stmlib/dsp/filter.h ****   
 311:mi/stmlib/dsp/filter.h ****   template<FilterMode mode>
 312:mi/stmlib/dsp/filter.h ****   inline void ProcessAdd(const float* in, float* out, size_t size, float gain) {
 313:mi/stmlib/dsp/filter.h ****     float hp, bp, lp;
 314:mi/stmlib/dsp/filter.h ****     float state_1 = state_1_;
 315:mi/stmlib/dsp/filter.h ****     float state_2 = state_2_;
 316:mi/stmlib/dsp/filter.h ****     
 317:mi/stmlib/dsp/filter.h ****     while (size--) {
 1105              		.loc 3 317 5 discriminator 2 view .LVU330
 1106 033c 0F9B     		ldr	r3, [sp, #60]
 314:mi/stmlib/dsp/filter.h ****     float state_2 = state_2_;
 1107              		.loc 3 314 11 discriminator 2 view .LVU331
 1108 033e D0ED0C5A 		vldr.32	s11, [r0, #48]
 1109              	.LVL75:
 314:mi/stmlib/dsp/filter.h ****     float state_2 = state_2_;
 1110              		.loc 3 314 11 discriminator 2 view .LVU332
 1111              	.LBE315:
ARM GAS  /var/folders/9k/zk1mgrrd7wg4__6zvxvr9w8m0000gn/T//ccqmKVLy.s 			page 55


 1112              	.LBE314:
 1113              	.LBB321:
 1114              	.LBB312:
 1115              	.LBB310:
 1116              	.LBB307:
 115:mi/stmlib/dsp/filter.h ****     } else if (approximation == FREQUENCY_FAST) {
 1117              		.loc 3 115 26 discriminator 2 view .LVU333
 1118 0342 E7EE267A 		vfma.f32	s15, s14, s13
 1119              	.LBE307:
 1120              	.LBE310:
 1121              	.LBE312:
 1122              	.LBE321:
 1123              	.LBB322:
 1124              	.LBB318:
 315:mi/stmlib/dsp/filter.h ****     
 1125              		.loc 3 315 11 discriminator 2 view .LVU334
 1126 0346 90ED0D6A 		vldr.32	s12, [r0, #52]
 1127              	.LBE318:
 1128              	.LBE322:
 1129              	.LBB323:
 1130              	.LBB313:
 226:mi/stmlib/dsp/filter.h ****   }
 1131              		.loc 3 226 23 discriminator 2 view .LVU335
 1132 034a F0EE456A 		vmov.f32	s13, s10
 225:mi/stmlib/dsp/filter.h ****     h_ = 1.0f / (1.0f + r_ * g_ + g_ * g_);
 1133              		.loc 3 225 8 discriminator 2 view .LVU336
 1134 034e C0ED0A4A 		vstr.32	s9, [r0, #40]
 1135              	.LBB311:
 1136              	.LBB308:
