ARM GAS  /var/folders/9k/zk1mgrrd7wg4__6zvxvr9w8m0000gn/T//ccXXoDHF.s 			page 1


   1              		.cpu cortex-m7
   2              		.arch armv7e-m
   3              		.fpu fpv5-d16
   4              		.eabi_attribute 28, 1
   5              		.eabi_attribute 20, 1
   6              		.eabi_attribute 21, 1
   7              		.eabi_attribute 23, 3
   8              		.eabi_attribute 24, 1
   9              		.eabi_attribute 25, 1
  10              		.eabi_attribute 26, 1
  11              		.eabi_attribute 30, 2
  12              		.eabi_attribute 34, 1
  13              		.eabi_attribute 18, 4
  14              		.file	"plaits_pm_string.cpp"
  15              		.text
  16              	.Ltext0:
  17              		.cfi_sections	.debug_frame
  18              		.section	.text._ZN6plaits6String5ResetEv,"ax",%progbits
  19              		.align	1
  20              		.p2align 2,,3
  21              		.global	_ZN6plaits6String5ResetEv
  22              		.syntax unified
  23              		.thumb
  24              		.thumb_func
  26              	_ZN6plaits6String5ResetEv:
  27              	.LVL0:
  28              	.LFB1546:
  29              		.file 1 "mi/plaits/dsp/physical_modelling/string.cpp"
   1:mi/plaits/dsp/physical_modelling/string.cpp **** // Copyright 2016 Emilie Gillet.
   2:mi/plaits/dsp/physical_modelling/string.cpp **** //
   3:mi/plaits/dsp/physical_modelling/string.cpp **** // Author: Emilie Gillet (emilie.o.gillet@gmail.com)
   4:mi/plaits/dsp/physical_modelling/string.cpp **** //
   5:mi/plaits/dsp/physical_modelling/string.cpp **** // Permission is hereby granted, free of charge, to any person obtaining a copy
   6:mi/plaits/dsp/physical_modelling/string.cpp **** // of this software and associated documentation files (the "Software"), to deal
   7:mi/plaits/dsp/physical_modelling/string.cpp **** // in the Software without restriction, including without limitation the rights
   8:mi/plaits/dsp/physical_modelling/string.cpp **** // to use, copy, modify, merge, publish, distribute, sublicense, and/or sell
   9:mi/plaits/dsp/physical_modelling/string.cpp **** // copies of the Software, and to permit persons to whom the Software is
  10:mi/plaits/dsp/physical_modelling/string.cpp **** // furnished to do so, subject to the following conditions:
  11:mi/plaits/dsp/physical_modelling/string.cpp **** // 
  12:mi/plaits/dsp/physical_modelling/string.cpp **** // The above copyright notice and this permission notice shall be included in
  13:mi/plaits/dsp/physical_modelling/string.cpp **** // all copies or substantial portions of the Software.
  14:mi/plaits/dsp/physical_modelling/string.cpp **** // 
  15:mi/plaits/dsp/physical_modelling/string.cpp **** // THE SOFTWARE IS PROVIDED "AS IS", WITHOUT WARRANTY OF ANY KIND, EXPRESS OR
  16:mi/plaits/dsp/physical_modelling/string.cpp **** // IMPLIED, INCLUDING BUT NOT LIMITED TO THE WARRANTIES OF MERCHANTABILITY,
  17:mi/plaits/dsp/physical_modelling/string.cpp **** // FITNESS FOR A PARTICULAR PURPOSE AND NONINFRINGEMENT. IN NO EVENT SHALL THE
  18:mi/plaits/dsp/physical_modelling/string.cpp **** // AUTHORS OR COPYRIGHT HOLDERS BE LIABLE FOR ANY CLAIM, DAMAGES OR OTHER
  19:mi/plaits/dsp/physical_modelling/string.cpp **** // LIABILITY, WHETHER IN AN ACTION OF CONTRACT, TORT OR OTHERWISE, ARISING FROM,
  20:mi/plaits/dsp/physical_modelling/string.cpp **** // OUT OF OR IN CONNECTION WITH THE SOFTWARE OR THE USE OR OTHER DEALINGS IN
  21:mi/plaits/dsp/physical_modelling/string.cpp **** // THE SOFTWARE.
  22:mi/plaits/dsp/physical_modelling/string.cpp **** // 
  23:mi/plaits/dsp/physical_modelling/string.cpp **** // See http://creativecommons.org/licenses/MIT/ for more information.
  24:mi/plaits/dsp/physical_modelling/string.cpp **** //
  25:mi/plaits/dsp/physical_modelling/string.cpp **** // -----------------------------------------------------------------------------
  26:mi/plaits/dsp/physical_modelling/string.cpp **** //
  27:mi/plaits/dsp/physical_modelling/string.cpp **** // Comb filter / KS string. "Lite" version of the implementation used in Rings.
  28:mi/plaits/dsp/physical_modelling/string.cpp **** 
  29:mi/plaits/dsp/physical_modelling/string.cpp **** #include "plaits/dsp/physical_modelling/string.h"
ARM GAS  /var/folders/9k/zk1mgrrd7wg4__6zvxvr9w8m0000gn/T//ccXXoDHF.s 			page 2


  30:mi/plaits/dsp/physical_modelling/string.cpp **** 
  31:mi/plaits/dsp/physical_modelling/string.cpp **** #include <cmath>
  32:mi/plaits/dsp/physical_modelling/string.cpp **** 
  33:mi/plaits/dsp/physical_modelling/string.cpp **** #include "stmlib/dsp/dsp.h"
  34:mi/plaits/dsp/physical_modelling/string.cpp **** #include "stmlib/dsp/parameter_interpolator.h"
  35:mi/plaits/dsp/physical_modelling/string.cpp **** #include "stmlib/dsp/units.h"
  36:mi/plaits/dsp/physical_modelling/string.cpp **** #include "stmlib/utils/random.h"
  37:mi/plaits/dsp/physical_modelling/string.cpp **** 
  38:mi/plaits/dsp/physical_modelling/string.cpp **** #include "plaits/dsp/dsp.h"
  39:mi/plaits/dsp/physical_modelling/string.cpp **** #include "plaits/resources.h"
  40:mi/plaits/dsp/physical_modelling/string.cpp **** 
  41:mi/plaits/dsp/physical_modelling/string.cpp **** namespace plaits {
  42:mi/plaits/dsp/physical_modelling/string.cpp ****   
  43:mi/plaits/dsp/physical_modelling/string.cpp **** using namespace std;
  44:mi/plaits/dsp/physical_modelling/string.cpp **** using namespace stmlib;
  45:mi/plaits/dsp/physical_modelling/string.cpp **** 
  46:mi/plaits/dsp/physical_modelling/string.cpp **** void String::Init(BufferAllocator* allocator) {
  47:mi/plaits/dsp/physical_modelling/string.cpp ****   string_.Init(allocator->Allocate<float>(kDelayLineSize));
  48:mi/plaits/dsp/physical_modelling/string.cpp ****   stretch_.Init(allocator->Allocate<float>(kDelayLineSize / 4));
  49:mi/plaits/dsp/physical_modelling/string.cpp ****   delay_ = 100.0f;
  50:mi/plaits/dsp/physical_modelling/string.cpp ****   Reset();
  51:mi/plaits/dsp/physical_modelling/string.cpp **** }
  52:mi/plaits/dsp/physical_modelling/string.cpp **** 
  53:mi/plaits/dsp/physical_modelling/string.cpp **** void String::Reset() {
  30              		.loc 1 53 22 view -0
  31              		.cfi_startproc
  32              		@ args = 0, pretend = 0, frame = 0
  33              		@ frame_needed = 0, uses_anonymous_args = 0
  54:mi/plaits/dsp/physical_modelling/string.cpp ****   string_.Reset();
  34              		.loc 1 54 3 view .LVU1
  53:mi/plaits/dsp/physical_modelling/string.cpp ****   string_.Reset();
  35              		.loc 1 53 22 is_stmt 0 view .LVU2
  36 0000 38B5     		push	{r3, r4, r5, lr}
  37              		.cfi_def_cfa_offset 16
  38              		.cfi_offset 3, -16
  39              		.cfi_offset 4, -12
  40              		.cfi_offset 5, -8
  41              		.cfi_offset 14, -4
  42              	.LBB148:
  43              	.LBB149:
  44              		.file 2 "mi/plaits/dsp/physical_modelling/delay_line.h"
   1:mi/plaits/dsp/physical_modelling/delay_line.h **** // Copyright 2014 Emilie Gillet.
   2:mi/plaits/dsp/physical_modelling/delay_line.h **** //
   3:mi/plaits/dsp/physical_modelling/delay_line.h **** // Author: Emilie Gillet (emilie.o.gillet@gmail.com)
   4:mi/plaits/dsp/physical_modelling/delay_line.h **** //
   5:mi/plaits/dsp/physical_modelling/delay_line.h **** // Permission is hereby granted, free of charge, to any person obtaining a copy
   6:mi/plaits/dsp/physical_modelling/delay_line.h **** // of this software and associated documentation files (the "Software"), to deal
   7:mi/plaits/dsp/physical_modelling/delay_line.h **** // in the Software without restriction, including without limitation the rights
   8:mi/plaits/dsp/physical_modelling/delay_line.h **** // to use, copy, modify, merge, publish, distribute, sublicense, and/or sell
   9:mi/plaits/dsp/physical_modelling/delay_line.h **** // copies of the Software, and to permit persons to whom the Software is
  10:mi/plaits/dsp/physical_modelling/delay_line.h **** // furnished to do so, subject to the following conditions:
  11:mi/plaits/dsp/physical_modelling/delay_line.h **** // 
  12:mi/plaits/dsp/physical_modelling/delay_line.h **** // The above copyright notice and this permission notice shall be included in
  13:mi/plaits/dsp/physical_modelling/delay_line.h **** // all copies or substantial portions of the Software.
  14:mi/plaits/dsp/physical_modelling/delay_line.h **** // 
  15:mi/plaits/dsp/physical_modelling/delay_line.h **** // THE SOFTWARE IS PROVIDED "AS IS", WITHOUT WARRANTY OF ANY KIND, EXPRESS OR
  16:mi/plaits/dsp/physical_modelling/delay_line.h **** // IMPLIED, INCLUDING BUT NOT LIMITED TO THE WARRANTIES OF MERCHANTABILITY,
ARM GAS  /var/folders/9k/zk1mgrrd7wg4__6zvxvr9w8m0000gn/T//ccXXoDHF.s 			page 3


  17:mi/plaits/dsp/physical_modelling/delay_line.h **** // FITNESS FOR A PARTICULAR PURPOSE AND NONINFRINGEMENT. IN NO EVENT SHALL THE
  18:mi/plaits/dsp/physical_modelling/delay_line.h **** // AUTHORS OR COPYRIGHT HOLDERS BE LIABLE FOR ANY CLAIM, DAMAGES OR OTHER
  19:mi/plaits/dsp/physical_modelling/delay_line.h **** // LIABILITY, WHETHER IN AN ACTION OF CONTRACT, TORT OR OTHERWISE, ARISING FROM,
  20:mi/plaits/dsp/physical_modelling/delay_line.h **** // OUT OF OR IN CONNECTION WITH THE SOFTWARE OR THE USE OR OTHER DEALINGS IN
  21:mi/plaits/dsp/physical_modelling/delay_line.h **** // THE SOFTWARE.
  22:mi/plaits/dsp/physical_modelling/delay_line.h **** // 
  23:mi/plaits/dsp/physical_modelling/delay_line.h **** // See http://creativecommons.org/licenses/MIT/ for more information.
  24:mi/plaits/dsp/physical_modelling/delay_line.h **** //
  25:mi/plaits/dsp/physical_modelling/delay_line.h **** // -----------------------------------------------------------------------------
  26:mi/plaits/dsp/physical_modelling/delay_line.h **** //
  27:mi/plaits/dsp/physical_modelling/delay_line.h **** // Delay line (same implementation as from stmlib, but does not own its buffer).
  28:mi/plaits/dsp/physical_modelling/delay_line.h **** 
  29:mi/plaits/dsp/physical_modelling/delay_line.h **** #ifndef PLAITS_DSP_PHYSICAL_MODELLING_DELAY_LINE_H_
  30:mi/plaits/dsp/physical_modelling/delay_line.h **** #define PLAITS_DSP_PHYSICAL_MODELLING_DELAY_LINE_H_
  31:mi/plaits/dsp/physical_modelling/delay_line.h **** 
  32:mi/plaits/dsp/physical_modelling/delay_line.h **** #include <algorithm>
  33:mi/plaits/dsp/physical_modelling/delay_line.h **** 
  34:mi/plaits/dsp/physical_modelling/delay_line.h **** #include "stmlib/dsp/dsp.h"
  35:mi/plaits/dsp/physical_modelling/delay_line.h **** 
  36:mi/plaits/dsp/physical_modelling/delay_line.h **** namespace plaits {
  37:mi/plaits/dsp/physical_modelling/delay_line.h **** 
  38:mi/plaits/dsp/physical_modelling/delay_line.h **** template<typename T, size_t max_delay>
  39:mi/plaits/dsp/physical_modelling/delay_line.h **** class DelayLine {
  40:mi/plaits/dsp/physical_modelling/delay_line.h ****  public:
  41:mi/plaits/dsp/physical_modelling/delay_line.h ****   DelayLine() { }
  42:mi/plaits/dsp/physical_modelling/delay_line.h ****   ~DelayLine() { }
  43:mi/plaits/dsp/physical_modelling/delay_line.h ****   
  44:mi/plaits/dsp/physical_modelling/delay_line.h ****   void Init(float* buffer) {
  45:mi/plaits/dsp/physical_modelling/delay_line.h ****     line_ = buffer;
  46:mi/plaits/dsp/physical_modelling/delay_line.h ****     Reset();
  47:mi/plaits/dsp/physical_modelling/delay_line.h ****   }
  48:mi/plaits/dsp/physical_modelling/delay_line.h ****   
  49:mi/plaits/dsp/physical_modelling/delay_line.h ****   void Reset() {
  50:mi/plaits/dsp/physical_modelling/delay_line.h ****     std::fill(&line_[0], &line_[max_delay], T(0));
  51:mi/plaits/dsp/physical_modelling/delay_line.h ****     write_ptr_ = 0;
  45              		.loc 2 51 16 view .LVU3
  46 0002 0025     		movs	r5, #0
  47              	.LBE149:
  48              	.LBE148:
  53:mi/plaits/dsp/physical_modelling/string.cpp ****   string_.Reset();
  49              		.loc 1 53 22 view .LVU4
  50 0004 0446     		mov	r4, r0
  51              	.LVL1:
  52              	.LBB156:
  53              	.LBI148:
  49:mi/plaits/dsp/physical_modelling/delay_line.h ****     std::fill(&line_[0], &line_[max_delay], T(0));
  54              		.loc 2 49 8 is_stmt 1 view .LVU5
  55              	.LBB154:
  56              	.LBB150:
  57              	.LBI150:
  58              		.file 3 "/Library/DaisyToolchain/0.2.0/arm/arm-none-eabi/include/c++/10.3.1/bits/stl_algobase.h"
   1:/Library/DaisyToolchain/0.2.0/arm/arm-none-eabi/include/c++/10.3.1/bits/stl_algobase.h **** // Core algorithmic facilities -*- C++ -*-
   2:/Library/DaisyToolchain/0.2.0/arm/arm-none-eabi/include/c++/10.3.1/bits/stl_algobase.h **** 
   3:/Library/DaisyToolchain/0.2.0/arm/arm-none-eabi/include/c++/10.3.1/bits/stl_algobase.h **** // Copyright (C) 2001-2020 Free Software Foundation, Inc.
   4:/Library/DaisyToolchain/0.2.0/arm/arm-none-eabi/include/c++/10.3.1/bits/stl_algobase.h **** //
   5:/Library/DaisyToolchain/0.2.0/arm/arm-none-eabi/include/c++/10.3.1/bits/stl_algobase.h **** // This file is part of the GNU ISO C++ Library.  This library is free
   6:/Library/DaisyToolchain/0.2.0/arm/arm-none-eabi/include/c++/10.3.1/bits/stl_algobase.h **** // software; you can redistribute it and/or modify it under the
ARM GAS  /var/folders/9k/zk1mgrrd7wg4__6zvxvr9w8m0000gn/T//ccXXoDHF.s 			page 4


   7:/Library/DaisyToolchain/0.2.0/arm/arm-none-eabi/include/c++/10.3.1/bits/stl_algobase.h **** // terms of the GNU General Public License as published by the
   8:/Library/DaisyToolchain/0.2.0/arm/arm-none-eabi/include/c++/10.3.1/bits/stl_algobase.h **** // Free Software Foundation; either version 3, or (at your option)
   9:/Library/DaisyToolchain/0.2.0/arm/arm-none-eabi/include/c++/10.3.1/bits/stl_algobase.h **** // any later version.
  10:/Library/DaisyToolchain/0.2.0/arm/arm-none-eabi/include/c++/10.3.1/bits/stl_algobase.h **** 
  11:/Library/DaisyToolchain/0.2.0/arm/arm-none-eabi/include/c++/10.3.1/bits/stl_algobase.h **** // This library is distributed in the hope that it will be useful,
  12:/Library/DaisyToolchain/0.2.0/arm/arm-none-eabi/include/c++/10.3.1/bits/stl_algobase.h **** // but WITHOUT ANY WARRANTY; without even the implied warranty of
  13:/Library/DaisyToolchain/0.2.0/arm/arm-none-eabi/include/c++/10.3.1/bits/stl_algobase.h **** // MERCHANTABILITY or FITNESS FOR A PARTICULAR PURPOSE.  See the
  14:/Library/DaisyToolchain/0.2.0/arm/arm-none-eabi/include/c++/10.3.1/bits/stl_algobase.h **** // GNU General Public License for more details.
  15:/Library/DaisyToolchain/0.2.0/arm/arm-none-eabi/include/c++/10.3.1/bits/stl_algobase.h **** 
  16:/Library/DaisyToolchain/0.2.0/arm/arm-none-eabi/include/c++/10.3.1/bits/stl_algobase.h **** // Under Section 7 of GPL version 3, you are granted additional
  17:/Library/DaisyToolchain/0.2.0/arm/arm-none-eabi/include/c++/10.3.1/bits/stl_algobase.h **** // permissions described in the GCC Runtime Library Exception, version
  18:/Library/DaisyToolchain/0.2.0/arm/arm-none-eabi/include/c++/10.3.1/bits/stl_algobase.h **** // 3.1, as published by the Free Software Foundation.
  19:/Library/DaisyToolchain/0.2.0/arm/arm-none-eabi/include/c++/10.3.1/bits/stl_algobase.h **** 
  20:/Library/DaisyToolchain/0.2.0/arm/arm-none-eabi/include/c++/10.3.1/bits/stl_algobase.h **** // You should have received a copy of the GNU General Public License and
  21:/Library/DaisyToolchain/0.2.0/arm/arm-none-eabi/include/c++/10.3.1/bits/stl_algobase.h **** // a copy of the GCC Runtime Library Exception along with this program;
  22:/Library/DaisyToolchain/0.2.0/arm/arm-none-eabi/include/c++/10.3.1/bits/stl_algobase.h **** // see the files COPYING3 and COPYING.RUNTIME respectively.  If not, see
  23:/Library/DaisyToolchain/0.2.0/arm/arm-none-eabi/include/c++/10.3.1/bits/stl_algobase.h **** // <http://www.gnu.org/licenses/>.
  24:/Library/DaisyToolchain/0.2.0/arm/arm-none-eabi/include/c++/10.3.1/bits/stl_algobase.h **** 
  25:/Library/DaisyToolchain/0.2.0/arm/arm-none-eabi/include/c++/10.3.1/bits/stl_algobase.h **** /*
  26:/Library/DaisyToolchain/0.2.0/arm/arm-none-eabi/include/c++/10.3.1/bits/stl_algobase.h ****  *
  27:/Library/DaisyToolchain/0.2.0/arm/arm-none-eabi/include/c++/10.3.1/bits/stl_algobase.h ****  * Copyright (c) 1994
  28:/Library/DaisyToolchain/0.2.0/arm/arm-none-eabi/include/c++/10.3.1/bits/stl_algobase.h ****  * Hewlett-Packard Company
  29:/Library/DaisyToolchain/0.2.0/arm/arm-none-eabi/include/c++/10.3.1/bits/stl_algobase.h ****  *
  30:/Library/DaisyToolchain/0.2.0/arm/arm-none-eabi/include/c++/10.3.1/bits/stl_algobase.h ****  * Permission to use, copy, modify, distribute and sell this software
  31:/Library/DaisyToolchain/0.2.0/arm/arm-none-eabi/include/c++/10.3.1/bits/stl_algobase.h ****  * and its documentation for any purpose is hereby granted without fee,
  32:/Library/DaisyToolchain/0.2.0/arm/arm-none-eabi/include/c++/10.3.1/bits/stl_algobase.h ****  * provided that the above copyright notice appear in all copies and
  33:/Library/DaisyToolchain/0.2.0/arm/arm-none-eabi/include/c++/10.3.1/bits/stl_algobase.h ****  * that both that copyright notice and this permission notice appear
  34:/Library/DaisyToolchain/0.2.0/arm/arm-none-eabi/include/c++/10.3.1/bits/stl_algobase.h ****  * in supporting documentation.  Hewlett-Packard Company makes no
  35:/Library/DaisyToolchain/0.2.0/arm/arm-none-eabi/include/c++/10.3.1/bits/stl_algobase.h ****  * representations about the suitability of this software for any
  36:/Library/DaisyToolchain/0.2.0/arm/arm-none-eabi/include/c++/10.3.1/bits/stl_algobase.h ****  * purpose.  It is provided "as is" without express or implied warranty.
  37:/Library/DaisyToolchain/0.2.0/arm/arm-none-eabi/include/c++/10.3.1/bits/stl_algobase.h ****  *
  38:/Library/DaisyToolchain/0.2.0/arm/arm-none-eabi/include/c++/10.3.1/bits/stl_algobase.h ****  *
  39:/Library/DaisyToolchain/0.2.0/arm/arm-none-eabi/include/c++/10.3.1/bits/stl_algobase.h ****  * Copyright (c) 1996-1998
  40:/Library/DaisyToolchain/0.2.0/arm/arm-none-eabi/include/c++/10.3.1/bits/stl_algobase.h ****  * Silicon Graphics Computer Systems, Inc.
  41:/Library/DaisyToolchain/0.2.0/arm/arm-none-eabi/include/c++/10.3.1/bits/stl_algobase.h ****  *
  42:/Library/DaisyToolchain/0.2.0/arm/arm-none-eabi/include/c++/10.3.1/bits/stl_algobase.h ****  * Permission to use, copy, modify, distribute and sell this software
  43:/Library/DaisyToolchain/0.2.0/arm/arm-none-eabi/include/c++/10.3.1/bits/stl_algobase.h ****  * and its documentation for any purpose is hereby granted without fee,
  44:/Library/DaisyToolchain/0.2.0/arm/arm-none-eabi/include/c++/10.3.1/bits/stl_algobase.h ****  * provided that the above copyright notice appear in all copies and
  45:/Library/DaisyToolchain/0.2.0/arm/arm-none-eabi/include/c++/10.3.1/bits/stl_algobase.h ****  * that both that copyright notice and this permission notice appear
  46:/Library/DaisyToolchain/0.2.0/arm/arm-none-eabi/include/c++/10.3.1/bits/stl_algobase.h ****  * in supporting documentation.  Silicon Graphics makes no
  47:/Library/DaisyToolchain/0.2.0/arm/arm-none-eabi/include/c++/10.3.1/bits/stl_algobase.h ****  * representations about the suitability of this software for any
  48:/Library/DaisyToolchain/0.2.0/arm/arm-none-eabi/include/c++/10.3.1/bits/stl_algobase.h ****  * purpose.  It is provided "as is" without express or implied warranty.
  49:/Library/DaisyToolchain/0.2.0/arm/arm-none-eabi/include/c++/10.3.1/bits/stl_algobase.h ****  */
  50:/Library/DaisyToolchain/0.2.0/arm/arm-none-eabi/include/c++/10.3.1/bits/stl_algobase.h **** 
  51:/Library/DaisyToolchain/0.2.0/arm/arm-none-eabi/include/c++/10.3.1/bits/stl_algobase.h **** /** @file bits/stl_algobase.h
  52:/Library/DaisyToolchain/0.2.0/arm/arm-none-eabi/include/c++/10.3.1/bits/stl_algobase.h ****  *  This is an internal header file, included by other library headers.
  53:/Library/DaisyToolchain/0.2.0/arm/arm-none-eabi/include/c++/10.3.1/bits/stl_algobase.h ****  *  Do not attempt to use it directly. @headername{algorithm}
  54:/Library/DaisyToolchain/0.2.0/arm/arm-none-eabi/include/c++/10.3.1/bits/stl_algobase.h ****  */
  55:/Library/DaisyToolchain/0.2.0/arm/arm-none-eabi/include/c++/10.3.1/bits/stl_algobase.h **** 
  56:/Library/DaisyToolchain/0.2.0/arm/arm-none-eabi/include/c++/10.3.1/bits/stl_algobase.h **** #ifndef _STL_ALGOBASE_H
  57:/Library/DaisyToolchain/0.2.0/arm/arm-none-eabi/include/c++/10.3.1/bits/stl_algobase.h **** #define _STL_ALGOBASE_H 1
  58:/Library/DaisyToolchain/0.2.0/arm/arm-none-eabi/include/c++/10.3.1/bits/stl_algobase.h **** 
  59:/Library/DaisyToolchain/0.2.0/arm/arm-none-eabi/include/c++/10.3.1/bits/stl_algobase.h **** #include <bits/c++config.h>
  60:/Library/DaisyToolchain/0.2.0/arm/arm-none-eabi/include/c++/10.3.1/bits/stl_algobase.h **** #include <bits/functexcept.h>
  61:/Library/DaisyToolchain/0.2.0/arm/arm-none-eabi/include/c++/10.3.1/bits/stl_algobase.h **** #include <bits/cpp_type_traits.h>
  62:/Library/DaisyToolchain/0.2.0/arm/arm-none-eabi/include/c++/10.3.1/bits/stl_algobase.h **** #include <ext/type_traits.h>
  63:/Library/DaisyToolchain/0.2.0/arm/arm-none-eabi/include/c++/10.3.1/bits/stl_algobase.h **** #include <ext/numeric_traits.h>
ARM GAS  /var/folders/9k/zk1mgrrd7wg4__6zvxvr9w8m0000gn/T//ccXXoDHF.s 			page 5


  64:/Library/DaisyToolchain/0.2.0/arm/arm-none-eabi/include/c++/10.3.1/bits/stl_algobase.h **** #include <bits/stl_pair.h>
  65:/Library/DaisyToolchain/0.2.0/arm/arm-none-eabi/include/c++/10.3.1/bits/stl_algobase.h **** #include <bits/stl_iterator_base_types.h>
  66:/Library/DaisyToolchain/0.2.0/arm/arm-none-eabi/include/c++/10.3.1/bits/stl_algobase.h **** #include <bits/stl_iterator_base_funcs.h>
  67:/Library/DaisyToolchain/0.2.0/arm/arm-none-eabi/include/c++/10.3.1/bits/stl_algobase.h **** #include <bits/stl_iterator.h>
  68:/Library/DaisyToolchain/0.2.0/arm/arm-none-eabi/include/c++/10.3.1/bits/stl_algobase.h **** #include <bits/concept_check.h>
  69:/Library/DaisyToolchain/0.2.0/arm/arm-none-eabi/include/c++/10.3.1/bits/stl_algobase.h **** #include <debug/debug.h>
  70:/Library/DaisyToolchain/0.2.0/arm/arm-none-eabi/include/c++/10.3.1/bits/stl_algobase.h **** #include <bits/move.h> // For std::swap
  71:/Library/DaisyToolchain/0.2.0/arm/arm-none-eabi/include/c++/10.3.1/bits/stl_algobase.h **** #include <bits/predefined_ops.h>
  72:/Library/DaisyToolchain/0.2.0/arm/arm-none-eabi/include/c++/10.3.1/bits/stl_algobase.h **** #if __cplusplus >= 201103L
  73:/Library/DaisyToolchain/0.2.0/arm/arm-none-eabi/include/c++/10.3.1/bits/stl_algobase.h **** # include <type_traits>
  74:/Library/DaisyToolchain/0.2.0/arm/arm-none-eabi/include/c++/10.3.1/bits/stl_algobase.h **** #endif
  75:/Library/DaisyToolchain/0.2.0/arm/arm-none-eabi/include/c++/10.3.1/bits/stl_algobase.h **** #if __cplusplus > 201703L
  76:/Library/DaisyToolchain/0.2.0/arm/arm-none-eabi/include/c++/10.3.1/bits/stl_algobase.h **** # include <compare>
  77:/Library/DaisyToolchain/0.2.0/arm/arm-none-eabi/include/c++/10.3.1/bits/stl_algobase.h **** #endif
  78:/Library/DaisyToolchain/0.2.0/arm/arm-none-eabi/include/c++/10.3.1/bits/stl_algobase.h **** 
  79:/Library/DaisyToolchain/0.2.0/arm/arm-none-eabi/include/c++/10.3.1/bits/stl_algobase.h **** namespace std _GLIBCXX_VISIBILITY(default)
  80:/Library/DaisyToolchain/0.2.0/arm/arm-none-eabi/include/c++/10.3.1/bits/stl_algobase.h **** {
  81:/Library/DaisyToolchain/0.2.0/arm/arm-none-eabi/include/c++/10.3.1/bits/stl_algobase.h **** _GLIBCXX_BEGIN_NAMESPACE_VERSION
  82:/Library/DaisyToolchain/0.2.0/arm/arm-none-eabi/include/c++/10.3.1/bits/stl_algobase.h **** 
  83:/Library/DaisyToolchain/0.2.0/arm/arm-none-eabi/include/c++/10.3.1/bits/stl_algobase.h ****   /*
  84:/Library/DaisyToolchain/0.2.0/arm/arm-none-eabi/include/c++/10.3.1/bits/stl_algobase.h ****    * A constexpr wrapper for __builtin_memcmp.
  85:/Library/DaisyToolchain/0.2.0/arm/arm-none-eabi/include/c++/10.3.1/bits/stl_algobase.h ****    * @param __num The number of elements of type _Tp (not bytes).
  86:/Library/DaisyToolchain/0.2.0/arm/arm-none-eabi/include/c++/10.3.1/bits/stl_algobase.h ****    */
  87:/Library/DaisyToolchain/0.2.0/arm/arm-none-eabi/include/c++/10.3.1/bits/stl_algobase.h ****   template<typename _Tp, typename _Up>
  88:/Library/DaisyToolchain/0.2.0/arm/arm-none-eabi/include/c++/10.3.1/bits/stl_algobase.h ****     _GLIBCXX14_CONSTEXPR
  89:/Library/DaisyToolchain/0.2.0/arm/arm-none-eabi/include/c++/10.3.1/bits/stl_algobase.h ****     inline int
  90:/Library/DaisyToolchain/0.2.0/arm/arm-none-eabi/include/c++/10.3.1/bits/stl_algobase.h ****     __memcmp(const _Tp* __first1, const _Up* __first2, size_t __num)
  91:/Library/DaisyToolchain/0.2.0/arm/arm-none-eabi/include/c++/10.3.1/bits/stl_algobase.h ****     {
  92:/Library/DaisyToolchain/0.2.0/arm/arm-none-eabi/include/c++/10.3.1/bits/stl_algobase.h **** #if __cplusplus >= 201103L
  93:/Library/DaisyToolchain/0.2.0/arm/arm-none-eabi/include/c++/10.3.1/bits/stl_algobase.h ****       static_assert(sizeof(_Tp) == sizeof(_Up), "can be compared with memcmp");
  94:/Library/DaisyToolchain/0.2.0/arm/arm-none-eabi/include/c++/10.3.1/bits/stl_algobase.h **** #endif
  95:/Library/DaisyToolchain/0.2.0/arm/arm-none-eabi/include/c++/10.3.1/bits/stl_algobase.h **** #ifdef __cpp_lib_is_constant_evaluated
  96:/Library/DaisyToolchain/0.2.0/arm/arm-none-eabi/include/c++/10.3.1/bits/stl_algobase.h ****       if (std::is_constant_evaluated())
  97:/Library/DaisyToolchain/0.2.0/arm/arm-none-eabi/include/c++/10.3.1/bits/stl_algobase.h **** 	{
  98:/Library/DaisyToolchain/0.2.0/arm/arm-none-eabi/include/c++/10.3.1/bits/stl_algobase.h **** 	  for(; __num > 0; ++__first1, ++__first2, --__num)
  99:/Library/DaisyToolchain/0.2.0/arm/arm-none-eabi/include/c++/10.3.1/bits/stl_algobase.h **** 	    if (*__first1 != *__first2)
 100:/Library/DaisyToolchain/0.2.0/arm/arm-none-eabi/include/c++/10.3.1/bits/stl_algobase.h **** 	      return *__first1 < *__first2 ? -1 : 1;
 101:/Library/DaisyToolchain/0.2.0/arm/arm-none-eabi/include/c++/10.3.1/bits/stl_algobase.h **** 	  return 0;
 102:/Library/DaisyToolchain/0.2.0/arm/arm-none-eabi/include/c++/10.3.1/bits/stl_algobase.h **** 	}
 103:/Library/DaisyToolchain/0.2.0/arm/arm-none-eabi/include/c++/10.3.1/bits/stl_algobase.h ****       else
 104:/Library/DaisyToolchain/0.2.0/arm/arm-none-eabi/include/c++/10.3.1/bits/stl_algobase.h **** #endif
 105:/Library/DaisyToolchain/0.2.0/arm/arm-none-eabi/include/c++/10.3.1/bits/stl_algobase.h **** 	return __builtin_memcmp(__first1, __first2, sizeof(_Tp) * __num);
 106:/Library/DaisyToolchain/0.2.0/arm/arm-none-eabi/include/c++/10.3.1/bits/stl_algobase.h ****     }
 107:/Library/DaisyToolchain/0.2.0/arm/arm-none-eabi/include/c++/10.3.1/bits/stl_algobase.h **** 
 108:/Library/DaisyToolchain/0.2.0/arm/arm-none-eabi/include/c++/10.3.1/bits/stl_algobase.h **** #if __cplusplus < 201103L
 109:/Library/DaisyToolchain/0.2.0/arm/arm-none-eabi/include/c++/10.3.1/bits/stl_algobase.h ****   // See http://gcc.gnu.org/ml/libstdc++/2004-08/msg00167.html: in a
 110:/Library/DaisyToolchain/0.2.0/arm/arm-none-eabi/include/c++/10.3.1/bits/stl_algobase.h ****   // nutshell, we are partially implementing the resolution of DR 187,
 111:/Library/DaisyToolchain/0.2.0/arm/arm-none-eabi/include/c++/10.3.1/bits/stl_algobase.h ****   // when it's safe, i.e., the value_types are equal.
 112:/Library/DaisyToolchain/0.2.0/arm/arm-none-eabi/include/c++/10.3.1/bits/stl_algobase.h ****   template<bool _BoolType>
 113:/Library/DaisyToolchain/0.2.0/arm/arm-none-eabi/include/c++/10.3.1/bits/stl_algobase.h ****     struct __iter_swap
 114:/Library/DaisyToolchain/0.2.0/arm/arm-none-eabi/include/c++/10.3.1/bits/stl_algobase.h ****     {
 115:/Library/DaisyToolchain/0.2.0/arm/arm-none-eabi/include/c++/10.3.1/bits/stl_algobase.h ****       template<typename _ForwardIterator1, typename _ForwardIterator2>
 116:/Library/DaisyToolchain/0.2.0/arm/arm-none-eabi/include/c++/10.3.1/bits/stl_algobase.h **** 	static void
 117:/Library/DaisyToolchain/0.2.0/arm/arm-none-eabi/include/c++/10.3.1/bits/stl_algobase.h **** 	iter_swap(_ForwardIterator1 __a, _ForwardIterator2 __b)
 118:/Library/DaisyToolchain/0.2.0/arm/arm-none-eabi/include/c++/10.3.1/bits/stl_algobase.h **** 	{
 119:/Library/DaisyToolchain/0.2.0/arm/arm-none-eabi/include/c++/10.3.1/bits/stl_algobase.h **** 	  typedef typename iterator_traits<_ForwardIterator1>::value_type
 120:/Library/DaisyToolchain/0.2.0/arm/arm-none-eabi/include/c++/10.3.1/bits/stl_algobase.h **** 	    _ValueType1;
ARM GAS  /var/folders/9k/zk1mgrrd7wg4__6zvxvr9w8m0000gn/T//ccXXoDHF.s 			page 6


 121:/Library/DaisyToolchain/0.2.0/arm/arm-none-eabi/include/c++/10.3.1/bits/stl_algobase.h **** 	  _ValueType1 __tmp = *__a;
 122:/Library/DaisyToolchain/0.2.0/arm/arm-none-eabi/include/c++/10.3.1/bits/stl_algobase.h **** 	  *__a = *__b;
 123:/Library/DaisyToolchain/0.2.0/arm/arm-none-eabi/include/c++/10.3.1/bits/stl_algobase.h **** 	  *__b = __tmp;
 124:/Library/DaisyToolchain/0.2.0/arm/arm-none-eabi/include/c++/10.3.1/bits/stl_algobase.h **** 	}
 125:/Library/DaisyToolchain/0.2.0/arm/arm-none-eabi/include/c++/10.3.1/bits/stl_algobase.h ****     };
 126:/Library/DaisyToolchain/0.2.0/arm/arm-none-eabi/include/c++/10.3.1/bits/stl_algobase.h **** 
 127:/Library/DaisyToolchain/0.2.0/arm/arm-none-eabi/include/c++/10.3.1/bits/stl_algobase.h ****   template<>
 128:/Library/DaisyToolchain/0.2.0/arm/arm-none-eabi/include/c++/10.3.1/bits/stl_algobase.h ****     struct __iter_swap<true>
 129:/Library/DaisyToolchain/0.2.0/arm/arm-none-eabi/include/c++/10.3.1/bits/stl_algobase.h ****     {
 130:/Library/DaisyToolchain/0.2.0/arm/arm-none-eabi/include/c++/10.3.1/bits/stl_algobase.h ****       template<typename _ForwardIterator1, typename _ForwardIterator2>
 131:/Library/DaisyToolchain/0.2.0/arm/arm-none-eabi/include/c++/10.3.1/bits/stl_algobase.h **** 	static void
 132:/Library/DaisyToolchain/0.2.0/arm/arm-none-eabi/include/c++/10.3.1/bits/stl_algobase.h **** 	iter_swap(_ForwardIterator1 __a, _ForwardIterator2 __b)
 133:/Library/DaisyToolchain/0.2.0/arm/arm-none-eabi/include/c++/10.3.1/bits/stl_algobase.h **** 	{
 134:/Library/DaisyToolchain/0.2.0/arm/arm-none-eabi/include/c++/10.3.1/bits/stl_algobase.h **** 	  swap(*__a, *__b);
 135:/Library/DaisyToolchain/0.2.0/arm/arm-none-eabi/include/c++/10.3.1/bits/stl_algobase.h **** 	}
 136:/Library/DaisyToolchain/0.2.0/arm/arm-none-eabi/include/c++/10.3.1/bits/stl_algobase.h ****     };
 137:/Library/DaisyToolchain/0.2.0/arm/arm-none-eabi/include/c++/10.3.1/bits/stl_algobase.h **** #endif // C++03
 138:/Library/DaisyToolchain/0.2.0/arm/arm-none-eabi/include/c++/10.3.1/bits/stl_algobase.h **** 
 139:/Library/DaisyToolchain/0.2.0/arm/arm-none-eabi/include/c++/10.3.1/bits/stl_algobase.h ****   /**
 140:/Library/DaisyToolchain/0.2.0/arm/arm-none-eabi/include/c++/10.3.1/bits/stl_algobase.h ****    *  @brief Swaps the contents of two iterators.
 141:/Library/DaisyToolchain/0.2.0/arm/arm-none-eabi/include/c++/10.3.1/bits/stl_algobase.h ****    *  @ingroup mutating_algorithms
 142:/Library/DaisyToolchain/0.2.0/arm/arm-none-eabi/include/c++/10.3.1/bits/stl_algobase.h ****    *  @param  __a  An iterator.
 143:/Library/DaisyToolchain/0.2.0/arm/arm-none-eabi/include/c++/10.3.1/bits/stl_algobase.h ****    *  @param  __b  Another iterator.
 144:/Library/DaisyToolchain/0.2.0/arm/arm-none-eabi/include/c++/10.3.1/bits/stl_algobase.h ****    *  @return   Nothing.
 145:/Library/DaisyToolchain/0.2.0/arm/arm-none-eabi/include/c++/10.3.1/bits/stl_algobase.h ****    *
 146:/Library/DaisyToolchain/0.2.0/arm/arm-none-eabi/include/c++/10.3.1/bits/stl_algobase.h ****    *  This function swaps the values pointed to by two iterators, not the
 147:/Library/DaisyToolchain/0.2.0/arm/arm-none-eabi/include/c++/10.3.1/bits/stl_algobase.h ****    *  iterators themselves.
 148:/Library/DaisyToolchain/0.2.0/arm/arm-none-eabi/include/c++/10.3.1/bits/stl_algobase.h ****   */
 149:/Library/DaisyToolchain/0.2.0/arm/arm-none-eabi/include/c++/10.3.1/bits/stl_algobase.h ****   template<typename _ForwardIterator1, typename _ForwardIterator2>
 150:/Library/DaisyToolchain/0.2.0/arm/arm-none-eabi/include/c++/10.3.1/bits/stl_algobase.h ****     _GLIBCXX20_CONSTEXPR
 151:/Library/DaisyToolchain/0.2.0/arm/arm-none-eabi/include/c++/10.3.1/bits/stl_algobase.h ****     inline void
 152:/Library/DaisyToolchain/0.2.0/arm/arm-none-eabi/include/c++/10.3.1/bits/stl_algobase.h ****     iter_swap(_ForwardIterator1 __a, _ForwardIterator2 __b)
 153:/Library/DaisyToolchain/0.2.0/arm/arm-none-eabi/include/c++/10.3.1/bits/stl_algobase.h ****     {
 154:/Library/DaisyToolchain/0.2.0/arm/arm-none-eabi/include/c++/10.3.1/bits/stl_algobase.h ****       // concept requirements
 155:/Library/DaisyToolchain/0.2.0/arm/arm-none-eabi/include/c++/10.3.1/bits/stl_algobase.h ****       __glibcxx_function_requires(_Mutable_ForwardIteratorConcept<
 156:/Library/DaisyToolchain/0.2.0/arm/arm-none-eabi/include/c++/10.3.1/bits/stl_algobase.h **** 				  _ForwardIterator1>)
 157:/Library/DaisyToolchain/0.2.0/arm/arm-none-eabi/include/c++/10.3.1/bits/stl_algobase.h ****       __glibcxx_function_requires(_Mutable_ForwardIteratorConcept<
 158:/Library/DaisyToolchain/0.2.0/arm/arm-none-eabi/include/c++/10.3.1/bits/stl_algobase.h **** 				  _ForwardIterator2>)
 159:/Library/DaisyToolchain/0.2.0/arm/arm-none-eabi/include/c++/10.3.1/bits/stl_algobase.h **** 
 160:/Library/DaisyToolchain/0.2.0/arm/arm-none-eabi/include/c++/10.3.1/bits/stl_algobase.h **** #if __cplusplus < 201103L
 161:/Library/DaisyToolchain/0.2.0/arm/arm-none-eabi/include/c++/10.3.1/bits/stl_algobase.h ****       typedef typename iterator_traits<_ForwardIterator1>::value_type
 162:/Library/DaisyToolchain/0.2.0/arm/arm-none-eabi/include/c++/10.3.1/bits/stl_algobase.h **** 	_ValueType1;
 163:/Library/DaisyToolchain/0.2.0/arm/arm-none-eabi/include/c++/10.3.1/bits/stl_algobase.h ****       typedef typename iterator_traits<_ForwardIterator2>::value_type
 164:/Library/DaisyToolchain/0.2.0/arm/arm-none-eabi/include/c++/10.3.1/bits/stl_algobase.h **** 	_ValueType2;
 165:/Library/DaisyToolchain/0.2.0/arm/arm-none-eabi/include/c++/10.3.1/bits/stl_algobase.h **** 
 166:/Library/DaisyToolchain/0.2.0/arm/arm-none-eabi/include/c++/10.3.1/bits/stl_algobase.h ****       __glibcxx_function_requires(_ConvertibleConcept<_ValueType1,
 167:/Library/DaisyToolchain/0.2.0/arm/arm-none-eabi/include/c++/10.3.1/bits/stl_algobase.h **** 				  _ValueType2>)
 168:/Library/DaisyToolchain/0.2.0/arm/arm-none-eabi/include/c++/10.3.1/bits/stl_algobase.h ****       __glibcxx_function_requires(_ConvertibleConcept<_ValueType2,
 169:/Library/DaisyToolchain/0.2.0/arm/arm-none-eabi/include/c++/10.3.1/bits/stl_algobase.h **** 				  _ValueType1>)
 170:/Library/DaisyToolchain/0.2.0/arm/arm-none-eabi/include/c++/10.3.1/bits/stl_algobase.h **** 
 171:/Library/DaisyToolchain/0.2.0/arm/arm-none-eabi/include/c++/10.3.1/bits/stl_algobase.h ****       typedef typename iterator_traits<_ForwardIterator1>::reference
 172:/Library/DaisyToolchain/0.2.0/arm/arm-none-eabi/include/c++/10.3.1/bits/stl_algobase.h **** 	_ReferenceType1;
 173:/Library/DaisyToolchain/0.2.0/arm/arm-none-eabi/include/c++/10.3.1/bits/stl_algobase.h ****       typedef typename iterator_traits<_ForwardIterator2>::reference
 174:/Library/DaisyToolchain/0.2.0/arm/arm-none-eabi/include/c++/10.3.1/bits/stl_algobase.h **** 	_ReferenceType2;
 175:/Library/DaisyToolchain/0.2.0/arm/arm-none-eabi/include/c++/10.3.1/bits/stl_algobase.h ****       std::__iter_swap<__are_same<_ValueType1, _ValueType2>::__value
 176:/Library/DaisyToolchain/0.2.0/arm/arm-none-eabi/include/c++/10.3.1/bits/stl_algobase.h **** 	&& __are_same<_ValueType1&, _ReferenceType1>::__value
 177:/Library/DaisyToolchain/0.2.0/arm/arm-none-eabi/include/c++/10.3.1/bits/stl_algobase.h **** 	&& __are_same<_ValueType2&, _ReferenceType2>::__value>::
ARM GAS  /var/folders/9k/zk1mgrrd7wg4__6zvxvr9w8m0000gn/T//ccXXoDHF.s 			page 7


 178:/Library/DaisyToolchain/0.2.0/arm/arm-none-eabi/include/c++/10.3.1/bits/stl_algobase.h **** 	iter_swap(__a, __b);
 179:/Library/DaisyToolchain/0.2.0/arm/arm-none-eabi/include/c++/10.3.1/bits/stl_algobase.h **** #else
 180:/Library/DaisyToolchain/0.2.0/arm/arm-none-eabi/include/c++/10.3.1/bits/stl_algobase.h ****       // _GLIBCXX_RESOLVE_LIB_DEFECTS
 181:/Library/DaisyToolchain/0.2.0/arm/arm-none-eabi/include/c++/10.3.1/bits/stl_algobase.h ****       // 187. iter_swap underspecified
 182:/Library/DaisyToolchain/0.2.0/arm/arm-none-eabi/include/c++/10.3.1/bits/stl_algobase.h ****       swap(*__a, *__b);
 183:/Library/DaisyToolchain/0.2.0/arm/arm-none-eabi/include/c++/10.3.1/bits/stl_algobase.h **** #endif
 184:/Library/DaisyToolchain/0.2.0/arm/arm-none-eabi/include/c++/10.3.1/bits/stl_algobase.h ****     }
 185:/Library/DaisyToolchain/0.2.0/arm/arm-none-eabi/include/c++/10.3.1/bits/stl_algobase.h **** 
 186:/Library/DaisyToolchain/0.2.0/arm/arm-none-eabi/include/c++/10.3.1/bits/stl_algobase.h ****   /**
 187:/Library/DaisyToolchain/0.2.0/arm/arm-none-eabi/include/c++/10.3.1/bits/stl_algobase.h ****    *  @brief Swap the elements of two sequences.
 188:/Library/DaisyToolchain/0.2.0/arm/arm-none-eabi/include/c++/10.3.1/bits/stl_algobase.h ****    *  @ingroup mutating_algorithms
 189:/Library/DaisyToolchain/0.2.0/arm/arm-none-eabi/include/c++/10.3.1/bits/stl_algobase.h ****    *  @param  __first1  A forward iterator.
 190:/Library/DaisyToolchain/0.2.0/arm/arm-none-eabi/include/c++/10.3.1/bits/stl_algobase.h ****    *  @param  __last1   A forward iterator.
 191:/Library/DaisyToolchain/0.2.0/arm/arm-none-eabi/include/c++/10.3.1/bits/stl_algobase.h ****    *  @param  __first2  A forward iterator.
 192:/Library/DaisyToolchain/0.2.0/arm/arm-none-eabi/include/c++/10.3.1/bits/stl_algobase.h ****    *  @return   An iterator equal to @p first2+(last1-first1).
 193:/Library/DaisyToolchain/0.2.0/arm/arm-none-eabi/include/c++/10.3.1/bits/stl_algobase.h ****    *
 194:/Library/DaisyToolchain/0.2.0/arm/arm-none-eabi/include/c++/10.3.1/bits/stl_algobase.h ****    *  Swaps each element in the range @p [first1,last1) with the
 195:/Library/DaisyToolchain/0.2.0/arm/arm-none-eabi/include/c++/10.3.1/bits/stl_algobase.h ****    *  corresponding element in the range @p [first2,(last1-first1)).
 196:/Library/DaisyToolchain/0.2.0/arm/arm-none-eabi/include/c++/10.3.1/bits/stl_algobase.h ****    *  The ranges must not overlap.
 197:/Library/DaisyToolchain/0.2.0/arm/arm-none-eabi/include/c++/10.3.1/bits/stl_algobase.h ****   */
 198:/Library/DaisyToolchain/0.2.0/arm/arm-none-eabi/include/c++/10.3.1/bits/stl_algobase.h ****   template<typename _ForwardIterator1, typename _ForwardIterator2>
 199:/Library/DaisyToolchain/0.2.0/arm/arm-none-eabi/include/c++/10.3.1/bits/stl_algobase.h ****     _GLIBCXX20_CONSTEXPR
 200:/Library/DaisyToolchain/0.2.0/arm/arm-none-eabi/include/c++/10.3.1/bits/stl_algobase.h ****     _ForwardIterator2
 201:/Library/DaisyToolchain/0.2.0/arm/arm-none-eabi/include/c++/10.3.1/bits/stl_algobase.h ****     swap_ranges(_ForwardIterator1 __first1, _ForwardIterator1 __last1,
 202:/Library/DaisyToolchain/0.2.0/arm/arm-none-eabi/include/c++/10.3.1/bits/stl_algobase.h **** 		_ForwardIterator2 __first2)
 203:/Library/DaisyToolchain/0.2.0/arm/arm-none-eabi/include/c++/10.3.1/bits/stl_algobase.h ****     {
 204:/Library/DaisyToolchain/0.2.0/arm/arm-none-eabi/include/c++/10.3.1/bits/stl_algobase.h ****       // concept requirements
 205:/Library/DaisyToolchain/0.2.0/arm/arm-none-eabi/include/c++/10.3.1/bits/stl_algobase.h ****       __glibcxx_function_requires(_Mutable_ForwardIteratorConcept<
 206:/Library/DaisyToolchain/0.2.0/arm/arm-none-eabi/include/c++/10.3.1/bits/stl_algobase.h **** 				  _ForwardIterator1>)
 207:/Library/DaisyToolchain/0.2.0/arm/arm-none-eabi/include/c++/10.3.1/bits/stl_algobase.h ****       __glibcxx_function_requires(_Mutable_ForwardIteratorConcept<
 208:/Library/DaisyToolchain/0.2.0/arm/arm-none-eabi/include/c++/10.3.1/bits/stl_algobase.h **** 				  _ForwardIterator2>)
 209:/Library/DaisyToolchain/0.2.0/arm/arm-none-eabi/include/c++/10.3.1/bits/stl_algobase.h ****       __glibcxx_requires_valid_range(__first1, __last1);
 210:/Library/DaisyToolchain/0.2.0/arm/arm-none-eabi/include/c++/10.3.1/bits/stl_algobase.h **** 
 211:/Library/DaisyToolchain/0.2.0/arm/arm-none-eabi/include/c++/10.3.1/bits/stl_algobase.h ****       for (; __first1 != __last1; ++__first1, (void)++__first2)
 212:/Library/DaisyToolchain/0.2.0/arm/arm-none-eabi/include/c++/10.3.1/bits/stl_algobase.h **** 	std::iter_swap(__first1, __first2);
 213:/Library/DaisyToolchain/0.2.0/arm/arm-none-eabi/include/c++/10.3.1/bits/stl_algobase.h ****       return __first2;
 214:/Library/DaisyToolchain/0.2.0/arm/arm-none-eabi/include/c++/10.3.1/bits/stl_algobase.h ****     }
 215:/Library/DaisyToolchain/0.2.0/arm/arm-none-eabi/include/c++/10.3.1/bits/stl_algobase.h **** 
 216:/Library/DaisyToolchain/0.2.0/arm/arm-none-eabi/include/c++/10.3.1/bits/stl_algobase.h ****   /**
 217:/Library/DaisyToolchain/0.2.0/arm/arm-none-eabi/include/c++/10.3.1/bits/stl_algobase.h ****    *  @brief This does what you think it does.
 218:/Library/DaisyToolchain/0.2.0/arm/arm-none-eabi/include/c++/10.3.1/bits/stl_algobase.h ****    *  @ingroup sorting_algorithms
 219:/Library/DaisyToolchain/0.2.0/arm/arm-none-eabi/include/c++/10.3.1/bits/stl_algobase.h ****    *  @param  __a  A thing of arbitrary type.
 220:/Library/DaisyToolchain/0.2.0/arm/arm-none-eabi/include/c++/10.3.1/bits/stl_algobase.h ****    *  @param  __b  Another thing of arbitrary type.
 221:/Library/DaisyToolchain/0.2.0/arm/arm-none-eabi/include/c++/10.3.1/bits/stl_algobase.h ****    *  @return   The lesser of the parameters.
 222:/Library/DaisyToolchain/0.2.0/arm/arm-none-eabi/include/c++/10.3.1/bits/stl_algobase.h ****    *
 223:/Library/DaisyToolchain/0.2.0/arm/arm-none-eabi/include/c++/10.3.1/bits/stl_algobase.h ****    *  This is the simple classic generic implementation.  It will work on
 224:/Library/DaisyToolchain/0.2.0/arm/arm-none-eabi/include/c++/10.3.1/bits/stl_algobase.h ****    *  temporary expressions, since they are only evaluated once, unlike a
 225:/Library/DaisyToolchain/0.2.0/arm/arm-none-eabi/include/c++/10.3.1/bits/stl_algobase.h ****    *  preprocessor macro.
 226:/Library/DaisyToolchain/0.2.0/arm/arm-none-eabi/include/c++/10.3.1/bits/stl_algobase.h ****   */
 227:/Library/DaisyToolchain/0.2.0/arm/arm-none-eabi/include/c++/10.3.1/bits/stl_algobase.h ****   template<typename _Tp>
 228:/Library/DaisyToolchain/0.2.0/arm/arm-none-eabi/include/c++/10.3.1/bits/stl_algobase.h ****     _GLIBCXX14_CONSTEXPR
 229:/Library/DaisyToolchain/0.2.0/arm/arm-none-eabi/include/c++/10.3.1/bits/stl_algobase.h ****     inline const _Tp&
 230:/Library/DaisyToolchain/0.2.0/arm/arm-none-eabi/include/c++/10.3.1/bits/stl_algobase.h ****     min(const _Tp& __a, const _Tp& __b)
 231:/Library/DaisyToolchain/0.2.0/arm/arm-none-eabi/include/c++/10.3.1/bits/stl_algobase.h ****     {
 232:/Library/DaisyToolchain/0.2.0/arm/arm-none-eabi/include/c++/10.3.1/bits/stl_algobase.h ****       // concept requirements
 233:/Library/DaisyToolchain/0.2.0/arm/arm-none-eabi/include/c++/10.3.1/bits/stl_algobase.h ****       __glibcxx_function_requires(_LessThanComparableConcept<_Tp>)
 234:/Library/DaisyToolchain/0.2.0/arm/arm-none-eabi/include/c++/10.3.1/bits/stl_algobase.h ****       //return __b < __a ? __b : __a;
ARM GAS  /var/folders/9k/zk1mgrrd7wg4__6zvxvr9w8m0000gn/T//ccXXoDHF.s 			page 8


 235:/Library/DaisyToolchain/0.2.0/arm/arm-none-eabi/include/c++/10.3.1/bits/stl_algobase.h ****       if (__b < __a)
 236:/Library/DaisyToolchain/0.2.0/arm/arm-none-eabi/include/c++/10.3.1/bits/stl_algobase.h **** 	return __b;
 237:/Library/DaisyToolchain/0.2.0/arm/arm-none-eabi/include/c++/10.3.1/bits/stl_algobase.h ****       return __a;
 238:/Library/DaisyToolchain/0.2.0/arm/arm-none-eabi/include/c++/10.3.1/bits/stl_algobase.h ****     }
 239:/Library/DaisyToolchain/0.2.0/arm/arm-none-eabi/include/c++/10.3.1/bits/stl_algobase.h **** 
 240:/Library/DaisyToolchain/0.2.0/arm/arm-none-eabi/include/c++/10.3.1/bits/stl_algobase.h ****   /**
 241:/Library/DaisyToolchain/0.2.0/arm/arm-none-eabi/include/c++/10.3.1/bits/stl_algobase.h ****    *  @brief This does what you think it does.
 242:/Library/DaisyToolchain/0.2.0/arm/arm-none-eabi/include/c++/10.3.1/bits/stl_algobase.h ****    *  @ingroup sorting_algorithms
 243:/Library/DaisyToolchain/0.2.0/arm/arm-none-eabi/include/c++/10.3.1/bits/stl_algobase.h ****    *  @param  __a  A thing of arbitrary type.
 244:/Library/DaisyToolchain/0.2.0/arm/arm-none-eabi/include/c++/10.3.1/bits/stl_algobase.h ****    *  @param  __b  Another thing of arbitrary type.
 245:/Library/DaisyToolchain/0.2.0/arm/arm-none-eabi/include/c++/10.3.1/bits/stl_algobase.h ****    *  @return   The greater of the parameters.
 246:/Library/DaisyToolchain/0.2.0/arm/arm-none-eabi/include/c++/10.3.1/bits/stl_algobase.h ****    *
 247:/Library/DaisyToolchain/0.2.0/arm/arm-none-eabi/include/c++/10.3.1/bits/stl_algobase.h ****    *  This is the simple classic generic implementation.  It will work on
 248:/Library/DaisyToolchain/0.2.0/arm/arm-none-eabi/include/c++/10.3.1/bits/stl_algobase.h ****    *  temporary expressions, since they are only evaluated once, unlike a
 249:/Library/DaisyToolchain/0.2.0/arm/arm-none-eabi/include/c++/10.3.1/bits/stl_algobase.h ****    *  preprocessor macro.
 250:/Library/DaisyToolchain/0.2.0/arm/arm-none-eabi/include/c++/10.3.1/bits/stl_algobase.h ****   */
 251:/Library/DaisyToolchain/0.2.0/arm/arm-none-eabi/include/c++/10.3.1/bits/stl_algobase.h ****   template<typename _Tp>
 252:/Library/DaisyToolchain/0.2.0/arm/arm-none-eabi/include/c++/10.3.1/bits/stl_algobase.h ****     _GLIBCXX14_CONSTEXPR
 253:/Library/DaisyToolchain/0.2.0/arm/arm-none-eabi/include/c++/10.3.1/bits/stl_algobase.h ****     inline const _Tp&
 254:/Library/DaisyToolchain/0.2.0/arm/arm-none-eabi/include/c++/10.3.1/bits/stl_algobase.h ****     max(const _Tp& __a, const _Tp& __b)
 255:/Library/DaisyToolchain/0.2.0/arm/arm-none-eabi/include/c++/10.3.1/bits/stl_algobase.h ****     {
 256:/Library/DaisyToolchain/0.2.0/arm/arm-none-eabi/include/c++/10.3.1/bits/stl_algobase.h ****       // concept requirements
 257:/Library/DaisyToolchain/0.2.0/arm/arm-none-eabi/include/c++/10.3.1/bits/stl_algobase.h ****       __glibcxx_function_requires(_LessThanComparableConcept<_Tp>)
 258:/Library/DaisyToolchain/0.2.0/arm/arm-none-eabi/include/c++/10.3.1/bits/stl_algobase.h ****       //return  __a < __b ? __b : __a;
 259:/Library/DaisyToolchain/0.2.0/arm/arm-none-eabi/include/c++/10.3.1/bits/stl_algobase.h ****       if (__a < __b)
 260:/Library/DaisyToolchain/0.2.0/arm/arm-none-eabi/include/c++/10.3.1/bits/stl_algobase.h **** 	return __b;
 261:/Library/DaisyToolchain/0.2.0/arm/arm-none-eabi/include/c++/10.3.1/bits/stl_algobase.h ****       return __a;
 262:/Library/DaisyToolchain/0.2.0/arm/arm-none-eabi/include/c++/10.3.1/bits/stl_algobase.h ****     }
 263:/Library/DaisyToolchain/0.2.0/arm/arm-none-eabi/include/c++/10.3.1/bits/stl_algobase.h **** 
 264:/Library/DaisyToolchain/0.2.0/arm/arm-none-eabi/include/c++/10.3.1/bits/stl_algobase.h ****   /**
 265:/Library/DaisyToolchain/0.2.0/arm/arm-none-eabi/include/c++/10.3.1/bits/stl_algobase.h ****    *  @brief This does what you think it does.
 266:/Library/DaisyToolchain/0.2.0/arm/arm-none-eabi/include/c++/10.3.1/bits/stl_algobase.h ****    *  @ingroup sorting_algorithms
 267:/Library/DaisyToolchain/0.2.0/arm/arm-none-eabi/include/c++/10.3.1/bits/stl_algobase.h ****    *  @param  __a  A thing of arbitrary type.
 268:/Library/DaisyToolchain/0.2.0/arm/arm-none-eabi/include/c++/10.3.1/bits/stl_algobase.h ****    *  @param  __b  Another thing of arbitrary type.
 269:/Library/DaisyToolchain/0.2.0/arm/arm-none-eabi/include/c++/10.3.1/bits/stl_algobase.h ****    *  @param  __comp  A @link comparison_functors comparison functor@endlink.
 270:/Library/DaisyToolchain/0.2.0/arm/arm-none-eabi/include/c++/10.3.1/bits/stl_algobase.h ****    *  @return   The lesser of the parameters.
 271:/Library/DaisyToolchain/0.2.0/arm/arm-none-eabi/include/c++/10.3.1/bits/stl_algobase.h ****    *
 272:/Library/DaisyToolchain/0.2.0/arm/arm-none-eabi/include/c++/10.3.1/bits/stl_algobase.h ****    *  This will work on temporary expressions, since they are only evaluated
 273:/Library/DaisyToolchain/0.2.0/arm/arm-none-eabi/include/c++/10.3.1/bits/stl_algobase.h ****    *  once, unlike a preprocessor macro.
 274:/Library/DaisyToolchain/0.2.0/arm/arm-none-eabi/include/c++/10.3.1/bits/stl_algobase.h ****   */
 275:/Library/DaisyToolchain/0.2.0/arm/arm-none-eabi/include/c++/10.3.1/bits/stl_algobase.h ****   template<typename _Tp, typename _Compare>
 276:/Library/DaisyToolchain/0.2.0/arm/arm-none-eabi/include/c++/10.3.1/bits/stl_algobase.h ****     _GLIBCXX14_CONSTEXPR
 277:/Library/DaisyToolchain/0.2.0/arm/arm-none-eabi/include/c++/10.3.1/bits/stl_algobase.h ****     inline const _Tp&
 278:/Library/DaisyToolchain/0.2.0/arm/arm-none-eabi/include/c++/10.3.1/bits/stl_algobase.h ****     min(const _Tp& __a, const _Tp& __b, _Compare __comp)
 279:/Library/DaisyToolchain/0.2.0/arm/arm-none-eabi/include/c++/10.3.1/bits/stl_algobase.h ****     {
 280:/Library/DaisyToolchain/0.2.0/arm/arm-none-eabi/include/c++/10.3.1/bits/stl_algobase.h ****       //return __comp(__b, __a) ? __b : __a;
 281:/Library/DaisyToolchain/0.2.0/arm/arm-none-eabi/include/c++/10.3.1/bits/stl_algobase.h ****       if (__comp(__b, __a))
 282:/Library/DaisyToolchain/0.2.0/arm/arm-none-eabi/include/c++/10.3.1/bits/stl_algobase.h **** 	return __b;
 283:/Library/DaisyToolchain/0.2.0/arm/arm-none-eabi/include/c++/10.3.1/bits/stl_algobase.h ****       return __a;
 284:/Library/DaisyToolchain/0.2.0/arm/arm-none-eabi/include/c++/10.3.1/bits/stl_algobase.h ****     }
 285:/Library/DaisyToolchain/0.2.0/arm/arm-none-eabi/include/c++/10.3.1/bits/stl_algobase.h **** 
 286:/Library/DaisyToolchain/0.2.0/arm/arm-none-eabi/include/c++/10.3.1/bits/stl_algobase.h ****   /**
 287:/Library/DaisyToolchain/0.2.0/arm/arm-none-eabi/include/c++/10.3.1/bits/stl_algobase.h ****    *  @brief This does what you think it does.
 288:/Library/DaisyToolchain/0.2.0/arm/arm-none-eabi/include/c++/10.3.1/bits/stl_algobase.h ****    *  @ingroup sorting_algorithms
 289:/Library/DaisyToolchain/0.2.0/arm/arm-none-eabi/include/c++/10.3.1/bits/stl_algobase.h ****    *  @param  __a  A thing of arbitrary type.
 290:/Library/DaisyToolchain/0.2.0/arm/arm-none-eabi/include/c++/10.3.1/bits/stl_algobase.h ****    *  @param  __b  Another thing of arbitrary type.
 291:/Library/DaisyToolchain/0.2.0/arm/arm-none-eabi/include/c++/10.3.1/bits/stl_algobase.h ****    *  @param  __comp  A @link comparison_functors comparison functor@endlink.
ARM GAS  /var/folders/9k/zk1mgrrd7wg4__6zvxvr9w8m0000gn/T//ccXXoDHF.s 			page 9


 292:/Library/DaisyToolchain/0.2.0/arm/arm-none-eabi/include/c++/10.3.1/bits/stl_algobase.h ****    *  @return   The greater of the parameters.
 293:/Library/DaisyToolchain/0.2.0/arm/arm-none-eabi/include/c++/10.3.1/bits/stl_algobase.h ****    *
 294:/Library/DaisyToolchain/0.2.0/arm/arm-none-eabi/include/c++/10.3.1/bits/stl_algobase.h ****    *  This will work on temporary expressions, since they are only evaluated
 295:/Library/DaisyToolchain/0.2.0/arm/arm-none-eabi/include/c++/10.3.1/bits/stl_algobase.h ****    *  once, unlike a preprocessor macro.
 296:/Library/DaisyToolchain/0.2.0/arm/arm-none-eabi/include/c++/10.3.1/bits/stl_algobase.h ****   */
 297:/Library/DaisyToolchain/0.2.0/arm/arm-none-eabi/include/c++/10.3.1/bits/stl_algobase.h ****   template<typename _Tp, typename _Compare>
 298:/Library/DaisyToolchain/0.2.0/arm/arm-none-eabi/include/c++/10.3.1/bits/stl_algobase.h ****     _GLIBCXX14_CONSTEXPR
 299:/Library/DaisyToolchain/0.2.0/arm/arm-none-eabi/include/c++/10.3.1/bits/stl_algobase.h ****     inline const _Tp&
 300:/Library/DaisyToolchain/0.2.0/arm/arm-none-eabi/include/c++/10.3.1/bits/stl_algobase.h ****     max(const _Tp& __a, const _Tp& __b, _Compare __comp)
 301:/Library/DaisyToolchain/0.2.0/arm/arm-none-eabi/include/c++/10.3.1/bits/stl_algobase.h ****     {
 302:/Library/DaisyToolchain/0.2.0/arm/arm-none-eabi/include/c++/10.3.1/bits/stl_algobase.h ****       //return __comp(__a, __b) ? __b : __a;
 303:/Library/DaisyToolchain/0.2.0/arm/arm-none-eabi/include/c++/10.3.1/bits/stl_algobase.h ****       if (__comp(__a, __b))
 304:/Library/DaisyToolchain/0.2.0/arm/arm-none-eabi/include/c++/10.3.1/bits/stl_algobase.h **** 	return __b;
 305:/Library/DaisyToolchain/0.2.0/arm/arm-none-eabi/include/c++/10.3.1/bits/stl_algobase.h ****       return __a;
 306:/Library/DaisyToolchain/0.2.0/arm/arm-none-eabi/include/c++/10.3.1/bits/stl_algobase.h ****     }
 307:/Library/DaisyToolchain/0.2.0/arm/arm-none-eabi/include/c++/10.3.1/bits/stl_algobase.h **** 
 308:/Library/DaisyToolchain/0.2.0/arm/arm-none-eabi/include/c++/10.3.1/bits/stl_algobase.h ****   // Fallback implementation of the function in bits/stl_iterator.h used to
 309:/Library/DaisyToolchain/0.2.0/arm/arm-none-eabi/include/c++/10.3.1/bits/stl_algobase.h ****   // remove the __normal_iterator wrapper. See copy, fill, ...
 310:/Library/DaisyToolchain/0.2.0/arm/arm-none-eabi/include/c++/10.3.1/bits/stl_algobase.h ****   template<typename _Iterator>
 311:/Library/DaisyToolchain/0.2.0/arm/arm-none-eabi/include/c++/10.3.1/bits/stl_algobase.h ****     _GLIBCXX20_CONSTEXPR
 312:/Library/DaisyToolchain/0.2.0/arm/arm-none-eabi/include/c++/10.3.1/bits/stl_algobase.h ****     inline _Iterator
 313:/Library/DaisyToolchain/0.2.0/arm/arm-none-eabi/include/c++/10.3.1/bits/stl_algobase.h ****     __niter_base(_Iterator __it)
 314:/Library/DaisyToolchain/0.2.0/arm/arm-none-eabi/include/c++/10.3.1/bits/stl_algobase.h ****     _GLIBCXX_NOEXCEPT_IF(std::is_nothrow_copy_constructible<_Iterator>::value)
 315:/Library/DaisyToolchain/0.2.0/arm/arm-none-eabi/include/c++/10.3.1/bits/stl_algobase.h ****     { return __it; }
 316:/Library/DaisyToolchain/0.2.0/arm/arm-none-eabi/include/c++/10.3.1/bits/stl_algobase.h **** 
 317:/Library/DaisyToolchain/0.2.0/arm/arm-none-eabi/include/c++/10.3.1/bits/stl_algobase.h ****   // Reverse the __niter_base transformation to get a
 318:/Library/DaisyToolchain/0.2.0/arm/arm-none-eabi/include/c++/10.3.1/bits/stl_algobase.h ****   // __normal_iterator back again (this assumes that __normal_iterator
 319:/Library/DaisyToolchain/0.2.0/arm/arm-none-eabi/include/c++/10.3.1/bits/stl_algobase.h ****   // is only used to wrap random access iterators, like pointers).
 320:/Library/DaisyToolchain/0.2.0/arm/arm-none-eabi/include/c++/10.3.1/bits/stl_algobase.h ****   template<typename _From, typename _To>
 321:/Library/DaisyToolchain/0.2.0/arm/arm-none-eabi/include/c++/10.3.1/bits/stl_algobase.h ****     _GLIBCXX20_CONSTEXPR
 322:/Library/DaisyToolchain/0.2.0/arm/arm-none-eabi/include/c++/10.3.1/bits/stl_algobase.h ****     inline _From
 323:/Library/DaisyToolchain/0.2.0/arm/arm-none-eabi/include/c++/10.3.1/bits/stl_algobase.h ****     __niter_wrap(_From __from, _To __res)
 324:/Library/DaisyToolchain/0.2.0/arm/arm-none-eabi/include/c++/10.3.1/bits/stl_algobase.h ****     { return __from + (__res - std::__niter_base(__from)); }
 325:/Library/DaisyToolchain/0.2.0/arm/arm-none-eabi/include/c++/10.3.1/bits/stl_algobase.h **** 
 326:/Library/DaisyToolchain/0.2.0/arm/arm-none-eabi/include/c++/10.3.1/bits/stl_algobase.h ****   // No need to wrap, iterator already has the right type.
 327:/Library/DaisyToolchain/0.2.0/arm/arm-none-eabi/include/c++/10.3.1/bits/stl_algobase.h ****   template<typename _Iterator>
 328:/Library/DaisyToolchain/0.2.0/arm/arm-none-eabi/include/c++/10.3.1/bits/stl_algobase.h ****     _GLIBCXX20_CONSTEXPR
 329:/Library/DaisyToolchain/0.2.0/arm/arm-none-eabi/include/c++/10.3.1/bits/stl_algobase.h ****     inline _Iterator
 330:/Library/DaisyToolchain/0.2.0/arm/arm-none-eabi/include/c++/10.3.1/bits/stl_algobase.h ****     __niter_wrap(const _Iterator&, _Iterator __res)
 331:/Library/DaisyToolchain/0.2.0/arm/arm-none-eabi/include/c++/10.3.1/bits/stl_algobase.h ****     { return __res; }
 332:/Library/DaisyToolchain/0.2.0/arm/arm-none-eabi/include/c++/10.3.1/bits/stl_algobase.h **** 
 333:/Library/DaisyToolchain/0.2.0/arm/arm-none-eabi/include/c++/10.3.1/bits/stl_algobase.h ****   // All of these auxiliary structs serve two purposes.  (1) Replace
 334:/Library/DaisyToolchain/0.2.0/arm/arm-none-eabi/include/c++/10.3.1/bits/stl_algobase.h ****   // calls to copy with memmove whenever possible.  (Memmove, not memcpy,
 335:/Library/DaisyToolchain/0.2.0/arm/arm-none-eabi/include/c++/10.3.1/bits/stl_algobase.h ****   // because the input and output ranges are permitted to overlap.)
 336:/Library/DaisyToolchain/0.2.0/arm/arm-none-eabi/include/c++/10.3.1/bits/stl_algobase.h ****   // (2) If we're using random access iterators, then write the loop as
 337:/Library/DaisyToolchain/0.2.0/arm/arm-none-eabi/include/c++/10.3.1/bits/stl_algobase.h ****   // a for loop with an explicit count.
 338:/Library/DaisyToolchain/0.2.0/arm/arm-none-eabi/include/c++/10.3.1/bits/stl_algobase.h **** 
 339:/Library/DaisyToolchain/0.2.0/arm/arm-none-eabi/include/c++/10.3.1/bits/stl_algobase.h ****   template<bool _IsMove, bool _IsSimple, typename _Category>
 340:/Library/DaisyToolchain/0.2.0/arm/arm-none-eabi/include/c++/10.3.1/bits/stl_algobase.h ****     struct __copy_move
 341:/Library/DaisyToolchain/0.2.0/arm/arm-none-eabi/include/c++/10.3.1/bits/stl_algobase.h ****     {
 342:/Library/DaisyToolchain/0.2.0/arm/arm-none-eabi/include/c++/10.3.1/bits/stl_algobase.h ****       template<typename _II, typename _OI>
 343:/Library/DaisyToolchain/0.2.0/arm/arm-none-eabi/include/c++/10.3.1/bits/stl_algobase.h **** 	_GLIBCXX20_CONSTEXPR
 344:/Library/DaisyToolchain/0.2.0/arm/arm-none-eabi/include/c++/10.3.1/bits/stl_algobase.h **** 	static _OI
 345:/Library/DaisyToolchain/0.2.0/arm/arm-none-eabi/include/c++/10.3.1/bits/stl_algobase.h **** 	__copy_m(_II __first, _II __last, _OI __result)
 346:/Library/DaisyToolchain/0.2.0/arm/arm-none-eabi/include/c++/10.3.1/bits/stl_algobase.h **** 	{
 347:/Library/DaisyToolchain/0.2.0/arm/arm-none-eabi/include/c++/10.3.1/bits/stl_algobase.h **** 	  for (; __first != __last; ++__result, (void)++__first)
 348:/Library/DaisyToolchain/0.2.0/arm/arm-none-eabi/include/c++/10.3.1/bits/stl_algobase.h **** 	    *__result = *__first;
ARM GAS  /var/folders/9k/zk1mgrrd7wg4__6zvxvr9w8m0000gn/T//ccXXoDHF.s 			page 10


 349:/Library/DaisyToolchain/0.2.0/arm/arm-none-eabi/include/c++/10.3.1/bits/stl_algobase.h **** 	  return __result;
 350:/Library/DaisyToolchain/0.2.0/arm/arm-none-eabi/include/c++/10.3.1/bits/stl_algobase.h **** 	}
 351:/Library/DaisyToolchain/0.2.0/arm/arm-none-eabi/include/c++/10.3.1/bits/stl_algobase.h ****     };
 352:/Library/DaisyToolchain/0.2.0/arm/arm-none-eabi/include/c++/10.3.1/bits/stl_algobase.h **** 
 353:/Library/DaisyToolchain/0.2.0/arm/arm-none-eabi/include/c++/10.3.1/bits/stl_algobase.h **** #if __cplusplus >= 201103L
 354:/Library/DaisyToolchain/0.2.0/arm/arm-none-eabi/include/c++/10.3.1/bits/stl_algobase.h ****   template<typename _Category>
 355:/Library/DaisyToolchain/0.2.0/arm/arm-none-eabi/include/c++/10.3.1/bits/stl_algobase.h ****     struct __copy_move<true, false, _Category>
 356:/Library/DaisyToolchain/0.2.0/arm/arm-none-eabi/include/c++/10.3.1/bits/stl_algobase.h ****     {
 357:/Library/DaisyToolchain/0.2.0/arm/arm-none-eabi/include/c++/10.3.1/bits/stl_algobase.h ****       template<typename _II, typename _OI>
 358:/Library/DaisyToolchain/0.2.0/arm/arm-none-eabi/include/c++/10.3.1/bits/stl_algobase.h **** 	_GLIBCXX20_CONSTEXPR
 359:/Library/DaisyToolchain/0.2.0/arm/arm-none-eabi/include/c++/10.3.1/bits/stl_algobase.h **** 	static _OI
 360:/Library/DaisyToolchain/0.2.0/arm/arm-none-eabi/include/c++/10.3.1/bits/stl_algobase.h **** 	__copy_m(_II __first, _II __last, _OI __result)
 361:/Library/DaisyToolchain/0.2.0/arm/arm-none-eabi/include/c++/10.3.1/bits/stl_algobase.h **** 	{
 362:/Library/DaisyToolchain/0.2.0/arm/arm-none-eabi/include/c++/10.3.1/bits/stl_algobase.h **** 	  for (; __first != __last; ++__result, (void)++__first)
 363:/Library/DaisyToolchain/0.2.0/arm/arm-none-eabi/include/c++/10.3.1/bits/stl_algobase.h **** 	    *__result = std::move(*__first);
 364:/Library/DaisyToolchain/0.2.0/arm/arm-none-eabi/include/c++/10.3.1/bits/stl_algobase.h **** 	  return __result;
 365:/Library/DaisyToolchain/0.2.0/arm/arm-none-eabi/include/c++/10.3.1/bits/stl_algobase.h **** 	}
 366:/Library/DaisyToolchain/0.2.0/arm/arm-none-eabi/include/c++/10.3.1/bits/stl_algobase.h ****     };
 367:/Library/DaisyToolchain/0.2.0/arm/arm-none-eabi/include/c++/10.3.1/bits/stl_algobase.h **** #endif
 368:/Library/DaisyToolchain/0.2.0/arm/arm-none-eabi/include/c++/10.3.1/bits/stl_algobase.h **** 
 369:/Library/DaisyToolchain/0.2.0/arm/arm-none-eabi/include/c++/10.3.1/bits/stl_algobase.h ****   template<>
 370:/Library/DaisyToolchain/0.2.0/arm/arm-none-eabi/include/c++/10.3.1/bits/stl_algobase.h ****     struct __copy_move<false, false, random_access_iterator_tag>
 371:/Library/DaisyToolchain/0.2.0/arm/arm-none-eabi/include/c++/10.3.1/bits/stl_algobase.h ****     {
 372:/Library/DaisyToolchain/0.2.0/arm/arm-none-eabi/include/c++/10.3.1/bits/stl_algobase.h ****       template<typename _II, typename _OI>
 373:/Library/DaisyToolchain/0.2.0/arm/arm-none-eabi/include/c++/10.3.1/bits/stl_algobase.h **** 	_GLIBCXX20_CONSTEXPR
 374:/Library/DaisyToolchain/0.2.0/arm/arm-none-eabi/include/c++/10.3.1/bits/stl_algobase.h **** 	static _OI
 375:/Library/DaisyToolchain/0.2.0/arm/arm-none-eabi/include/c++/10.3.1/bits/stl_algobase.h **** 	__copy_m(_II __first, _II __last, _OI __result)
 376:/Library/DaisyToolchain/0.2.0/arm/arm-none-eabi/include/c++/10.3.1/bits/stl_algobase.h **** 	{
 377:/Library/DaisyToolchain/0.2.0/arm/arm-none-eabi/include/c++/10.3.1/bits/stl_algobase.h **** 	  typedef typename iterator_traits<_II>::difference_type _Distance;
 378:/Library/DaisyToolchain/0.2.0/arm/arm-none-eabi/include/c++/10.3.1/bits/stl_algobase.h **** 	  for(_Distance __n = __last - __first; __n > 0; --__n)
 379:/Library/DaisyToolchain/0.2.0/arm/arm-none-eabi/include/c++/10.3.1/bits/stl_algobase.h **** 	    {
 380:/Library/DaisyToolchain/0.2.0/arm/arm-none-eabi/include/c++/10.3.1/bits/stl_algobase.h **** 	      *__result = *__first;
 381:/Library/DaisyToolchain/0.2.0/arm/arm-none-eabi/include/c++/10.3.1/bits/stl_algobase.h **** 	      ++__first;
 382:/Library/DaisyToolchain/0.2.0/arm/arm-none-eabi/include/c++/10.3.1/bits/stl_algobase.h **** 	      ++__result;
 383:/Library/DaisyToolchain/0.2.0/arm/arm-none-eabi/include/c++/10.3.1/bits/stl_algobase.h **** 	    }
 384:/Library/DaisyToolchain/0.2.0/arm/arm-none-eabi/include/c++/10.3.1/bits/stl_algobase.h **** 	  return __result;
 385:/Library/DaisyToolchain/0.2.0/arm/arm-none-eabi/include/c++/10.3.1/bits/stl_algobase.h **** 	}
 386:/Library/DaisyToolchain/0.2.0/arm/arm-none-eabi/include/c++/10.3.1/bits/stl_algobase.h ****     };
 387:/Library/DaisyToolchain/0.2.0/arm/arm-none-eabi/include/c++/10.3.1/bits/stl_algobase.h **** 
 388:/Library/DaisyToolchain/0.2.0/arm/arm-none-eabi/include/c++/10.3.1/bits/stl_algobase.h **** #if __cplusplus >= 201103L
 389:/Library/DaisyToolchain/0.2.0/arm/arm-none-eabi/include/c++/10.3.1/bits/stl_algobase.h ****   template<>
 390:/Library/DaisyToolchain/0.2.0/arm/arm-none-eabi/include/c++/10.3.1/bits/stl_algobase.h ****     struct __copy_move<true, false, random_access_iterator_tag>
 391:/Library/DaisyToolchain/0.2.0/arm/arm-none-eabi/include/c++/10.3.1/bits/stl_algobase.h ****     {
 392:/Library/DaisyToolchain/0.2.0/arm/arm-none-eabi/include/c++/10.3.1/bits/stl_algobase.h ****       template<typename _II, typename _OI>
 393:/Library/DaisyToolchain/0.2.0/arm/arm-none-eabi/include/c++/10.3.1/bits/stl_algobase.h **** 	_GLIBCXX20_CONSTEXPR
 394:/Library/DaisyToolchain/0.2.0/arm/arm-none-eabi/include/c++/10.3.1/bits/stl_algobase.h **** 	static _OI
 395:/Library/DaisyToolchain/0.2.0/arm/arm-none-eabi/include/c++/10.3.1/bits/stl_algobase.h **** 	__copy_m(_II __first, _II __last, _OI __result)
 396:/Library/DaisyToolchain/0.2.0/arm/arm-none-eabi/include/c++/10.3.1/bits/stl_algobase.h **** 	{
 397:/Library/DaisyToolchain/0.2.0/arm/arm-none-eabi/include/c++/10.3.1/bits/stl_algobase.h **** 	  typedef typename iterator_traits<_II>::difference_type _Distance;
 398:/Library/DaisyToolchain/0.2.0/arm/arm-none-eabi/include/c++/10.3.1/bits/stl_algobase.h **** 	  for(_Distance __n = __last - __first; __n > 0; --__n)
 399:/Library/DaisyToolchain/0.2.0/arm/arm-none-eabi/include/c++/10.3.1/bits/stl_algobase.h **** 	    {
 400:/Library/DaisyToolchain/0.2.0/arm/arm-none-eabi/include/c++/10.3.1/bits/stl_algobase.h **** 	      *__result = std::move(*__first);
 401:/Library/DaisyToolchain/0.2.0/arm/arm-none-eabi/include/c++/10.3.1/bits/stl_algobase.h **** 	      ++__first;
 402:/Library/DaisyToolchain/0.2.0/arm/arm-none-eabi/include/c++/10.3.1/bits/stl_algobase.h **** 	      ++__result;
 403:/Library/DaisyToolchain/0.2.0/arm/arm-none-eabi/include/c++/10.3.1/bits/stl_algobase.h **** 	    }
 404:/Library/DaisyToolchain/0.2.0/arm/arm-none-eabi/include/c++/10.3.1/bits/stl_algobase.h **** 	  return __result;
 405:/Library/DaisyToolchain/0.2.0/arm/arm-none-eabi/include/c++/10.3.1/bits/stl_algobase.h **** 	}
ARM GAS  /var/folders/9k/zk1mgrrd7wg4__6zvxvr9w8m0000gn/T//ccXXoDHF.s 			page 11


 406:/Library/DaisyToolchain/0.2.0/arm/arm-none-eabi/include/c++/10.3.1/bits/stl_algobase.h ****     };
 407:/Library/DaisyToolchain/0.2.0/arm/arm-none-eabi/include/c++/10.3.1/bits/stl_algobase.h **** #endif
 408:/Library/DaisyToolchain/0.2.0/arm/arm-none-eabi/include/c++/10.3.1/bits/stl_algobase.h **** 
 409:/Library/DaisyToolchain/0.2.0/arm/arm-none-eabi/include/c++/10.3.1/bits/stl_algobase.h ****   template<bool _IsMove>
 410:/Library/DaisyToolchain/0.2.0/arm/arm-none-eabi/include/c++/10.3.1/bits/stl_algobase.h ****     struct __copy_move<_IsMove, true, random_access_iterator_tag>
 411:/Library/DaisyToolchain/0.2.0/arm/arm-none-eabi/include/c++/10.3.1/bits/stl_algobase.h ****     {
 412:/Library/DaisyToolchain/0.2.0/arm/arm-none-eabi/include/c++/10.3.1/bits/stl_algobase.h ****       template<typename _Tp>
 413:/Library/DaisyToolchain/0.2.0/arm/arm-none-eabi/include/c++/10.3.1/bits/stl_algobase.h **** 	_GLIBCXX20_CONSTEXPR
 414:/Library/DaisyToolchain/0.2.0/arm/arm-none-eabi/include/c++/10.3.1/bits/stl_algobase.h **** 	static _Tp*
 415:/Library/DaisyToolchain/0.2.0/arm/arm-none-eabi/include/c++/10.3.1/bits/stl_algobase.h **** 	__copy_m(const _Tp* __first, const _Tp* __last, _Tp* __result)
 416:/Library/DaisyToolchain/0.2.0/arm/arm-none-eabi/include/c++/10.3.1/bits/stl_algobase.h **** 	{
 417:/Library/DaisyToolchain/0.2.0/arm/arm-none-eabi/include/c++/10.3.1/bits/stl_algobase.h **** #if __cplusplus >= 201103L
 418:/Library/DaisyToolchain/0.2.0/arm/arm-none-eabi/include/c++/10.3.1/bits/stl_algobase.h **** 	  using __assignable = conditional<_IsMove,
 419:/Library/DaisyToolchain/0.2.0/arm/arm-none-eabi/include/c++/10.3.1/bits/stl_algobase.h **** 					   is_move_assignable<_Tp>,
 420:/Library/DaisyToolchain/0.2.0/arm/arm-none-eabi/include/c++/10.3.1/bits/stl_algobase.h **** 					   is_copy_assignable<_Tp>>;
 421:/Library/DaisyToolchain/0.2.0/arm/arm-none-eabi/include/c++/10.3.1/bits/stl_algobase.h **** 	  // trivial types can have deleted assignment
 422:/Library/DaisyToolchain/0.2.0/arm/arm-none-eabi/include/c++/10.3.1/bits/stl_algobase.h **** 	  static_assert( __assignable::type::value, "type is not assignable" );
 423:/Library/DaisyToolchain/0.2.0/arm/arm-none-eabi/include/c++/10.3.1/bits/stl_algobase.h **** #endif
 424:/Library/DaisyToolchain/0.2.0/arm/arm-none-eabi/include/c++/10.3.1/bits/stl_algobase.h **** 	  const ptrdiff_t _Num = __last - __first;
 425:/Library/DaisyToolchain/0.2.0/arm/arm-none-eabi/include/c++/10.3.1/bits/stl_algobase.h **** 	  if (_Num)
 426:/Library/DaisyToolchain/0.2.0/arm/arm-none-eabi/include/c++/10.3.1/bits/stl_algobase.h **** 	    __builtin_memmove(__result, __first, sizeof(_Tp) * _Num);
 427:/Library/DaisyToolchain/0.2.0/arm/arm-none-eabi/include/c++/10.3.1/bits/stl_algobase.h **** 	  return __result + _Num;
 428:/Library/DaisyToolchain/0.2.0/arm/arm-none-eabi/include/c++/10.3.1/bits/stl_algobase.h **** 	}
 429:/Library/DaisyToolchain/0.2.0/arm/arm-none-eabi/include/c++/10.3.1/bits/stl_algobase.h ****     };
 430:/Library/DaisyToolchain/0.2.0/arm/arm-none-eabi/include/c++/10.3.1/bits/stl_algobase.h **** 
 431:/Library/DaisyToolchain/0.2.0/arm/arm-none-eabi/include/c++/10.3.1/bits/stl_algobase.h ****   // Helpers for streambuf iterators (either istream or ostream).
 432:/Library/DaisyToolchain/0.2.0/arm/arm-none-eabi/include/c++/10.3.1/bits/stl_algobase.h ****   // NB: avoid including <iosfwd>, relatively large.
 433:/Library/DaisyToolchain/0.2.0/arm/arm-none-eabi/include/c++/10.3.1/bits/stl_algobase.h ****   template<typename _CharT>
 434:/Library/DaisyToolchain/0.2.0/arm/arm-none-eabi/include/c++/10.3.1/bits/stl_algobase.h ****     struct char_traits;
 435:/Library/DaisyToolchain/0.2.0/arm/arm-none-eabi/include/c++/10.3.1/bits/stl_algobase.h **** 
 436:/Library/DaisyToolchain/0.2.0/arm/arm-none-eabi/include/c++/10.3.1/bits/stl_algobase.h ****   template<typename _CharT, typename _Traits>
 437:/Library/DaisyToolchain/0.2.0/arm/arm-none-eabi/include/c++/10.3.1/bits/stl_algobase.h ****     class istreambuf_iterator;
 438:/Library/DaisyToolchain/0.2.0/arm/arm-none-eabi/include/c++/10.3.1/bits/stl_algobase.h **** 
 439:/Library/DaisyToolchain/0.2.0/arm/arm-none-eabi/include/c++/10.3.1/bits/stl_algobase.h ****   template<typename _CharT, typename _Traits>
 440:/Library/DaisyToolchain/0.2.0/arm/arm-none-eabi/include/c++/10.3.1/bits/stl_algobase.h ****     class ostreambuf_iterator;
 441:/Library/DaisyToolchain/0.2.0/arm/arm-none-eabi/include/c++/10.3.1/bits/stl_algobase.h **** 
 442:/Library/DaisyToolchain/0.2.0/arm/arm-none-eabi/include/c++/10.3.1/bits/stl_algobase.h ****   template<bool _IsMove, typename _CharT>
 443:/Library/DaisyToolchain/0.2.0/arm/arm-none-eabi/include/c++/10.3.1/bits/stl_algobase.h ****     typename __gnu_cxx::__enable_if<__is_char<_CharT>::__value,
 444:/Library/DaisyToolchain/0.2.0/arm/arm-none-eabi/include/c++/10.3.1/bits/stl_algobase.h **** 	     ostreambuf_iterator<_CharT, char_traits<_CharT> > >::__type
 445:/Library/DaisyToolchain/0.2.0/arm/arm-none-eabi/include/c++/10.3.1/bits/stl_algobase.h ****     __copy_move_a2(_CharT*, _CharT*,
 446:/Library/DaisyToolchain/0.2.0/arm/arm-none-eabi/include/c++/10.3.1/bits/stl_algobase.h **** 		   ostreambuf_iterator<_CharT, char_traits<_CharT> >);
 447:/Library/DaisyToolchain/0.2.0/arm/arm-none-eabi/include/c++/10.3.1/bits/stl_algobase.h **** 
 448:/Library/DaisyToolchain/0.2.0/arm/arm-none-eabi/include/c++/10.3.1/bits/stl_algobase.h ****   template<bool _IsMove, typename _CharT>
 449:/Library/DaisyToolchain/0.2.0/arm/arm-none-eabi/include/c++/10.3.1/bits/stl_algobase.h ****     typename __gnu_cxx::__enable_if<__is_char<_CharT>::__value,
 450:/Library/DaisyToolchain/0.2.0/arm/arm-none-eabi/include/c++/10.3.1/bits/stl_algobase.h **** 	     ostreambuf_iterator<_CharT, char_traits<_CharT> > >::__type
 451:/Library/DaisyToolchain/0.2.0/arm/arm-none-eabi/include/c++/10.3.1/bits/stl_algobase.h ****     __copy_move_a2(const _CharT*, const _CharT*,
 452:/Library/DaisyToolchain/0.2.0/arm/arm-none-eabi/include/c++/10.3.1/bits/stl_algobase.h **** 		   ostreambuf_iterator<_CharT, char_traits<_CharT> >);
 453:/Library/DaisyToolchain/0.2.0/arm/arm-none-eabi/include/c++/10.3.1/bits/stl_algobase.h **** 
 454:/Library/DaisyToolchain/0.2.0/arm/arm-none-eabi/include/c++/10.3.1/bits/stl_algobase.h ****   template<bool _IsMove, typename _CharT>
 455:/Library/DaisyToolchain/0.2.0/arm/arm-none-eabi/include/c++/10.3.1/bits/stl_algobase.h ****     typename __gnu_cxx::__enable_if<__is_char<_CharT>::__value,
 456:/Library/DaisyToolchain/0.2.0/arm/arm-none-eabi/include/c++/10.3.1/bits/stl_algobase.h **** 				    _CharT*>::__type
 457:/Library/DaisyToolchain/0.2.0/arm/arm-none-eabi/include/c++/10.3.1/bits/stl_algobase.h ****     __copy_move_a2(istreambuf_iterator<_CharT, char_traits<_CharT> >,
 458:/Library/DaisyToolchain/0.2.0/arm/arm-none-eabi/include/c++/10.3.1/bits/stl_algobase.h **** 		   istreambuf_iterator<_CharT, char_traits<_CharT> >, _CharT*);
 459:/Library/DaisyToolchain/0.2.0/arm/arm-none-eabi/include/c++/10.3.1/bits/stl_algobase.h **** 
 460:/Library/DaisyToolchain/0.2.0/arm/arm-none-eabi/include/c++/10.3.1/bits/stl_algobase.h ****   template<bool _IsMove, typename _II, typename _OI>
 461:/Library/DaisyToolchain/0.2.0/arm/arm-none-eabi/include/c++/10.3.1/bits/stl_algobase.h ****     _GLIBCXX20_CONSTEXPR
 462:/Library/DaisyToolchain/0.2.0/arm/arm-none-eabi/include/c++/10.3.1/bits/stl_algobase.h ****     inline _OI
ARM GAS  /var/folders/9k/zk1mgrrd7wg4__6zvxvr9w8m0000gn/T//ccXXoDHF.s 			page 12


 463:/Library/DaisyToolchain/0.2.0/arm/arm-none-eabi/include/c++/10.3.1/bits/stl_algobase.h ****     __copy_move_a2(_II __first, _II __last, _OI __result)
 464:/Library/DaisyToolchain/0.2.0/arm/arm-none-eabi/include/c++/10.3.1/bits/stl_algobase.h ****     {
 465:/Library/DaisyToolchain/0.2.0/arm/arm-none-eabi/include/c++/10.3.1/bits/stl_algobase.h ****       typedef typename iterator_traits<_II>::iterator_category _Category;
 466:/Library/DaisyToolchain/0.2.0/arm/arm-none-eabi/include/c++/10.3.1/bits/stl_algobase.h **** #ifdef __cpp_lib_is_constant_evaluated
 467:/Library/DaisyToolchain/0.2.0/arm/arm-none-eabi/include/c++/10.3.1/bits/stl_algobase.h ****       if (std::is_constant_evaluated())
 468:/Library/DaisyToolchain/0.2.0/arm/arm-none-eabi/include/c++/10.3.1/bits/stl_algobase.h **** 	return std::__copy_move<_IsMove, false, _Category>::
 469:/Library/DaisyToolchain/0.2.0/arm/arm-none-eabi/include/c++/10.3.1/bits/stl_algobase.h **** 	  __copy_m(__first, __last, __result);
 470:/Library/DaisyToolchain/0.2.0/arm/arm-none-eabi/include/c++/10.3.1/bits/stl_algobase.h **** #endif
 471:/Library/DaisyToolchain/0.2.0/arm/arm-none-eabi/include/c++/10.3.1/bits/stl_algobase.h ****       return std::__copy_move<_IsMove, __memcpyable<_OI, _II>::__value,
 472:/Library/DaisyToolchain/0.2.0/arm/arm-none-eabi/include/c++/10.3.1/bits/stl_algobase.h **** 			      _Category>::__copy_m(__first, __last, __result);
 473:/Library/DaisyToolchain/0.2.0/arm/arm-none-eabi/include/c++/10.3.1/bits/stl_algobase.h ****     }
 474:/Library/DaisyToolchain/0.2.0/arm/arm-none-eabi/include/c++/10.3.1/bits/stl_algobase.h **** 
 475:/Library/DaisyToolchain/0.2.0/arm/arm-none-eabi/include/c++/10.3.1/bits/stl_algobase.h **** _GLIBCXX_BEGIN_NAMESPACE_CONTAINER
 476:/Library/DaisyToolchain/0.2.0/arm/arm-none-eabi/include/c++/10.3.1/bits/stl_algobase.h **** 
 477:/Library/DaisyToolchain/0.2.0/arm/arm-none-eabi/include/c++/10.3.1/bits/stl_algobase.h ****   template<typename _Tp, typename _Ref, typename _Ptr>
 478:/Library/DaisyToolchain/0.2.0/arm/arm-none-eabi/include/c++/10.3.1/bits/stl_algobase.h ****     struct _Deque_iterator;
 479:/Library/DaisyToolchain/0.2.0/arm/arm-none-eabi/include/c++/10.3.1/bits/stl_algobase.h **** 
 480:/Library/DaisyToolchain/0.2.0/arm/arm-none-eabi/include/c++/10.3.1/bits/stl_algobase.h **** _GLIBCXX_END_NAMESPACE_CONTAINER
 481:/Library/DaisyToolchain/0.2.0/arm/arm-none-eabi/include/c++/10.3.1/bits/stl_algobase.h **** 
 482:/Library/DaisyToolchain/0.2.0/arm/arm-none-eabi/include/c++/10.3.1/bits/stl_algobase.h ****   template<bool _IsMove,
 483:/Library/DaisyToolchain/0.2.0/arm/arm-none-eabi/include/c++/10.3.1/bits/stl_algobase.h **** 	   typename _Tp, typename _Ref, typename _Ptr, typename _OI>
 484:/Library/DaisyToolchain/0.2.0/arm/arm-none-eabi/include/c++/10.3.1/bits/stl_algobase.h ****     _OI
 485:/Library/DaisyToolchain/0.2.0/arm/arm-none-eabi/include/c++/10.3.1/bits/stl_algobase.h ****     __copy_move_a1(_GLIBCXX_STD_C::_Deque_iterator<_Tp, _Ref, _Ptr>,
 486:/Library/DaisyToolchain/0.2.0/arm/arm-none-eabi/include/c++/10.3.1/bits/stl_algobase.h **** 		   _GLIBCXX_STD_C::_Deque_iterator<_Tp, _Ref, _Ptr>,
 487:/Library/DaisyToolchain/0.2.0/arm/arm-none-eabi/include/c++/10.3.1/bits/stl_algobase.h **** 		   _OI);
 488:/Library/DaisyToolchain/0.2.0/arm/arm-none-eabi/include/c++/10.3.1/bits/stl_algobase.h **** 
 489:/Library/DaisyToolchain/0.2.0/arm/arm-none-eabi/include/c++/10.3.1/bits/stl_algobase.h ****   template<bool _IsMove,
 490:/Library/DaisyToolchain/0.2.0/arm/arm-none-eabi/include/c++/10.3.1/bits/stl_algobase.h **** 	   typename _ITp, typename _IRef, typename _IPtr, typename _OTp>
 491:/Library/DaisyToolchain/0.2.0/arm/arm-none-eabi/include/c++/10.3.1/bits/stl_algobase.h ****     _GLIBCXX_STD_C::_Deque_iterator<_OTp, _OTp&, _OTp*>
 492:/Library/DaisyToolchain/0.2.0/arm/arm-none-eabi/include/c++/10.3.1/bits/stl_algobase.h ****     __copy_move_a1(_GLIBCXX_STD_C::_Deque_iterator<_ITp, _IRef, _IPtr>,
 493:/Library/DaisyToolchain/0.2.0/arm/arm-none-eabi/include/c++/10.3.1/bits/stl_algobase.h **** 		   _GLIBCXX_STD_C::_Deque_iterator<_ITp, _IRef, _IPtr>,
 494:/Library/DaisyToolchain/0.2.0/arm/arm-none-eabi/include/c++/10.3.1/bits/stl_algobase.h **** 		   _GLIBCXX_STD_C::_Deque_iterator<_OTp, _OTp&, _OTp*>);
 495:/Library/DaisyToolchain/0.2.0/arm/arm-none-eabi/include/c++/10.3.1/bits/stl_algobase.h **** 
 496:/Library/DaisyToolchain/0.2.0/arm/arm-none-eabi/include/c++/10.3.1/bits/stl_algobase.h ****   template<bool _IsMove, typename _II, typename _Tp>
 497:/Library/DaisyToolchain/0.2.0/arm/arm-none-eabi/include/c++/10.3.1/bits/stl_algobase.h ****     typename __gnu_cxx::__enable_if<
 498:/Library/DaisyToolchain/0.2.0/arm/arm-none-eabi/include/c++/10.3.1/bits/stl_algobase.h ****       __is_random_access_iter<_II>::__value,
 499:/Library/DaisyToolchain/0.2.0/arm/arm-none-eabi/include/c++/10.3.1/bits/stl_algobase.h ****       _GLIBCXX_STD_C::_Deque_iterator<_Tp, _Tp&, _Tp*> >::__type
 500:/Library/DaisyToolchain/0.2.0/arm/arm-none-eabi/include/c++/10.3.1/bits/stl_algobase.h ****     __copy_move_a1(_II, _II, _GLIBCXX_STD_C::_Deque_iterator<_Tp, _Tp&, _Tp*>);
 501:/Library/DaisyToolchain/0.2.0/arm/arm-none-eabi/include/c++/10.3.1/bits/stl_algobase.h **** 
 502:/Library/DaisyToolchain/0.2.0/arm/arm-none-eabi/include/c++/10.3.1/bits/stl_algobase.h ****   template<bool _IsMove, typename _II, typename _OI>
 503:/Library/DaisyToolchain/0.2.0/arm/arm-none-eabi/include/c++/10.3.1/bits/stl_algobase.h ****     _GLIBCXX20_CONSTEXPR
 504:/Library/DaisyToolchain/0.2.0/arm/arm-none-eabi/include/c++/10.3.1/bits/stl_algobase.h ****     inline _OI
 505:/Library/DaisyToolchain/0.2.0/arm/arm-none-eabi/include/c++/10.3.1/bits/stl_algobase.h ****     __copy_move_a1(_II __first, _II __last, _OI __result)
 506:/Library/DaisyToolchain/0.2.0/arm/arm-none-eabi/include/c++/10.3.1/bits/stl_algobase.h ****     { return std::__copy_move_a2<_IsMove>(__first, __last, __result); }
 507:/Library/DaisyToolchain/0.2.0/arm/arm-none-eabi/include/c++/10.3.1/bits/stl_algobase.h **** 
 508:/Library/DaisyToolchain/0.2.0/arm/arm-none-eabi/include/c++/10.3.1/bits/stl_algobase.h ****   template<bool _IsMove, typename _II, typename _OI>
 509:/Library/DaisyToolchain/0.2.0/arm/arm-none-eabi/include/c++/10.3.1/bits/stl_algobase.h ****     _GLIBCXX20_CONSTEXPR
 510:/Library/DaisyToolchain/0.2.0/arm/arm-none-eabi/include/c++/10.3.1/bits/stl_algobase.h ****     inline _OI
 511:/Library/DaisyToolchain/0.2.0/arm/arm-none-eabi/include/c++/10.3.1/bits/stl_algobase.h ****     __copy_move_a(_II __first, _II __last, _OI __result)
 512:/Library/DaisyToolchain/0.2.0/arm/arm-none-eabi/include/c++/10.3.1/bits/stl_algobase.h ****     {
 513:/Library/DaisyToolchain/0.2.0/arm/arm-none-eabi/include/c++/10.3.1/bits/stl_algobase.h ****       return std::__niter_wrap(__result,
 514:/Library/DaisyToolchain/0.2.0/arm/arm-none-eabi/include/c++/10.3.1/bits/stl_algobase.h **** 		std::__copy_move_a1<_IsMove>(std::__niter_base(__first),
 515:/Library/DaisyToolchain/0.2.0/arm/arm-none-eabi/include/c++/10.3.1/bits/stl_algobase.h **** 					     std::__niter_base(__last),
 516:/Library/DaisyToolchain/0.2.0/arm/arm-none-eabi/include/c++/10.3.1/bits/stl_algobase.h **** 					     std::__niter_base(__result)));
 517:/Library/DaisyToolchain/0.2.0/arm/arm-none-eabi/include/c++/10.3.1/bits/stl_algobase.h ****     }
 518:/Library/DaisyToolchain/0.2.0/arm/arm-none-eabi/include/c++/10.3.1/bits/stl_algobase.h **** 
 519:/Library/DaisyToolchain/0.2.0/arm/arm-none-eabi/include/c++/10.3.1/bits/stl_algobase.h ****   template<bool _IsMove,
ARM GAS  /var/folders/9k/zk1mgrrd7wg4__6zvxvr9w8m0000gn/T//ccXXoDHF.s 			page 13


 520:/Library/DaisyToolchain/0.2.0/arm/arm-none-eabi/include/c++/10.3.1/bits/stl_algobase.h **** 	   typename _Ite, typename _Seq, typename _Cat, typename _OI>
 521:/Library/DaisyToolchain/0.2.0/arm/arm-none-eabi/include/c++/10.3.1/bits/stl_algobase.h ****     _OI
 522:/Library/DaisyToolchain/0.2.0/arm/arm-none-eabi/include/c++/10.3.1/bits/stl_algobase.h ****     __copy_move_a(const ::__gnu_debug::_Safe_iterator<_Ite, _Seq, _Cat>&,
 523:/Library/DaisyToolchain/0.2.0/arm/arm-none-eabi/include/c++/10.3.1/bits/stl_algobase.h **** 		  const ::__gnu_debug::_Safe_iterator<_Ite, _Seq, _Cat>&,
 524:/Library/DaisyToolchain/0.2.0/arm/arm-none-eabi/include/c++/10.3.1/bits/stl_algobase.h **** 		  _OI);
 525:/Library/DaisyToolchain/0.2.0/arm/arm-none-eabi/include/c++/10.3.1/bits/stl_algobase.h **** 
 526:/Library/DaisyToolchain/0.2.0/arm/arm-none-eabi/include/c++/10.3.1/bits/stl_algobase.h ****   template<bool _IsMove,
 527:/Library/DaisyToolchain/0.2.0/arm/arm-none-eabi/include/c++/10.3.1/bits/stl_algobase.h **** 	   typename _II, typename _Ite, typename _Seq, typename _Cat>
 528:/Library/DaisyToolchain/0.2.0/arm/arm-none-eabi/include/c++/10.3.1/bits/stl_algobase.h ****     __gnu_debug::_Safe_iterator<_Ite, _Seq, _Cat>
 529:/Library/DaisyToolchain/0.2.0/arm/arm-none-eabi/include/c++/10.3.1/bits/stl_algobase.h ****     __copy_move_a(_II, _II,
 530:/Library/DaisyToolchain/0.2.0/arm/arm-none-eabi/include/c++/10.3.1/bits/stl_algobase.h **** 		  const ::__gnu_debug::_Safe_iterator<_Ite, _Seq, _Cat>&);
 531:/Library/DaisyToolchain/0.2.0/arm/arm-none-eabi/include/c++/10.3.1/bits/stl_algobase.h **** 
 532:/Library/DaisyToolchain/0.2.0/arm/arm-none-eabi/include/c++/10.3.1/bits/stl_algobase.h ****   template<bool _IsMove,
 533:/Library/DaisyToolchain/0.2.0/arm/arm-none-eabi/include/c++/10.3.1/bits/stl_algobase.h **** 	   typename _IIte, typename _ISeq, typename _ICat,
 534:/Library/DaisyToolchain/0.2.0/arm/arm-none-eabi/include/c++/10.3.1/bits/stl_algobase.h **** 	   typename _OIte, typename _OSeq, typename _OCat>
 535:/Library/DaisyToolchain/0.2.0/arm/arm-none-eabi/include/c++/10.3.1/bits/stl_algobase.h ****     ::__gnu_debug::_Safe_iterator<_OIte, _OSeq, _OCat>
 536:/Library/DaisyToolchain/0.2.0/arm/arm-none-eabi/include/c++/10.3.1/bits/stl_algobase.h ****     __copy_move_a(const ::__gnu_debug::_Safe_iterator<_IIte, _ISeq, _ICat>&,
 537:/Library/DaisyToolchain/0.2.0/arm/arm-none-eabi/include/c++/10.3.1/bits/stl_algobase.h **** 		  const ::__gnu_debug::_Safe_iterator<_IIte, _ISeq, _ICat>&,
 538:/Library/DaisyToolchain/0.2.0/arm/arm-none-eabi/include/c++/10.3.1/bits/stl_algobase.h **** 		  const ::__gnu_debug::_Safe_iterator<_OIte, _OSeq, _OCat>&);
 539:/Library/DaisyToolchain/0.2.0/arm/arm-none-eabi/include/c++/10.3.1/bits/stl_algobase.h **** 
 540:/Library/DaisyToolchain/0.2.0/arm/arm-none-eabi/include/c++/10.3.1/bits/stl_algobase.h ****   /**
 541:/Library/DaisyToolchain/0.2.0/arm/arm-none-eabi/include/c++/10.3.1/bits/stl_algobase.h ****    *  @brief Copies the range [first,last) into result.
 542:/Library/DaisyToolchain/0.2.0/arm/arm-none-eabi/include/c++/10.3.1/bits/stl_algobase.h ****    *  @ingroup mutating_algorithms
 543:/Library/DaisyToolchain/0.2.0/arm/arm-none-eabi/include/c++/10.3.1/bits/stl_algobase.h ****    *  @param  __first  An input iterator.
 544:/Library/DaisyToolchain/0.2.0/arm/arm-none-eabi/include/c++/10.3.1/bits/stl_algobase.h ****    *  @param  __last   An input iterator.
 545:/Library/DaisyToolchain/0.2.0/arm/arm-none-eabi/include/c++/10.3.1/bits/stl_algobase.h ****    *  @param  __result An output iterator.
 546:/Library/DaisyToolchain/0.2.0/arm/arm-none-eabi/include/c++/10.3.1/bits/stl_algobase.h ****    *  @return   result + (last - first)
 547:/Library/DaisyToolchain/0.2.0/arm/arm-none-eabi/include/c++/10.3.1/bits/stl_algobase.h ****    *
 548:/Library/DaisyToolchain/0.2.0/arm/arm-none-eabi/include/c++/10.3.1/bits/stl_algobase.h ****    *  This inline function will boil down to a call to @c memmove whenever
 549:/Library/DaisyToolchain/0.2.0/arm/arm-none-eabi/include/c++/10.3.1/bits/stl_algobase.h ****    *  possible.  Failing that, if random access iterators are passed, then the
 550:/Library/DaisyToolchain/0.2.0/arm/arm-none-eabi/include/c++/10.3.1/bits/stl_algobase.h ****    *  loop count will be known (and therefore a candidate for compiler
 551:/Library/DaisyToolchain/0.2.0/arm/arm-none-eabi/include/c++/10.3.1/bits/stl_algobase.h ****    *  optimizations such as unrolling).  Result may not be contained within
 552:/Library/DaisyToolchain/0.2.0/arm/arm-none-eabi/include/c++/10.3.1/bits/stl_algobase.h ****    *  [first,last); the copy_backward function should be used instead.
 553:/Library/DaisyToolchain/0.2.0/arm/arm-none-eabi/include/c++/10.3.1/bits/stl_algobase.h ****    *
 554:/Library/DaisyToolchain/0.2.0/arm/arm-none-eabi/include/c++/10.3.1/bits/stl_algobase.h ****    *  Note that the end of the output range is permitted to be contained
 555:/Library/DaisyToolchain/0.2.0/arm/arm-none-eabi/include/c++/10.3.1/bits/stl_algobase.h ****    *  within [first,last).
 556:/Library/DaisyToolchain/0.2.0/arm/arm-none-eabi/include/c++/10.3.1/bits/stl_algobase.h ****   */
 557:/Library/DaisyToolchain/0.2.0/arm/arm-none-eabi/include/c++/10.3.1/bits/stl_algobase.h ****   template<typename _II, typename _OI>
 558:/Library/DaisyToolchain/0.2.0/arm/arm-none-eabi/include/c++/10.3.1/bits/stl_algobase.h ****     _GLIBCXX20_CONSTEXPR
 559:/Library/DaisyToolchain/0.2.0/arm/arm-none-eabi/include/c++/10.3.1/bits/stl_algobase.h ****     inline _OI
 560:/Library/DaisyToolchain/0.2.0/arm/arm-none-eabi/include/c++/10.3.1/bits/stl_algobase.h ****     copy(_II __first, _II __last, _OI __result)
 561:/Library/DaisyToolchain/0.2.0/arm/arm-none-eabi/include/c++/10.3.1/bits/stl_algobase.h ****     {
 562:/Library/DaisyToolchain/0.2.0/arm/arm-none-eabi/include/c++/10.3.1/bits/stl_algobase.h ****       // concept requirements
 563:/Library/DaisyToolchain/0.2.0/arm/arm-none-eabi/include/c++/10.3.1/bits/stl_algobase.h ****       __glibcxx_function_requires(_InputIteratorConcept<_II>)
 564:/Library/DaisyToolchain/0.2.0/arm/arm-none-eabi/include/c++/10.3.1/bits/stl_algobase.h ****       __glibcxx_function_requires(_OutputIteratorConcept<_OI,
 565:/Library/DaisyToolchain/0.2.0/arm/arm-none-eabi/include/c++/10.3.1/bits/stl_algobase.h **** 	    typename iterator_traits<_II>::value_type>)
 566:/Library/DaisyToolchain/0.2.0/arm/arm-none-eabi/include/c++/10.3.1/bits/stl_algobase.h ****       __glibcxx_requires_can_increment_range(__first, __last, __result);
 567:/Library/DaisyToolchain/0.2.0/arm/arm-none-eabi/include/c++/10.3.1/bits/stl_algobase.h **** 
 568:/Library/DaisyToolchain/0.2.0/arm/arm-none-eabi/include/c++/10.3.1/bits/stl_algobase.h ****       return std::__copy_move_a<__is_move_iterator<_II>::__value>
 569:/Library/DaisyToolchain/0.2.0/arm/arm-none-eabi/include/c++/10.3.1/bits/stl_algobase.h **** 	     (std::__miter_base(__first), std::__miter_base(__last), __result);
 570:/Library/DaisyToolchain/0.2.0/arm/arm-none-eabi/include/c++/10.3.1/bits/stl_algobase.h ****     }
 571:/Library/DaisyToolchain/0.2.0/arm/arm-none-eabi/include/c++/10.3.1/bits/stl_algobase.h **** 
 572:/Library/DaisyToolchain/0.2.0/arm/arm-none-eabi/include/c++/10.3.1/bits/stl_algobase.h **** #if __cplusplus >= 201103L
 573:/Library/DaisyToolchain/0.2.0/arm/arm-none-eabi/include/c++/10.3.1/bits/stl_algobase.h ****   /**
 574:/Library/DaisyToolchain/0.2.0/arm/arm-none-eabi/include/c++/10.3.1/bits/stl_algobase.h ****    *  @brief Moves the range [first,last) into result.
 575:/Library/DaisyToolchain/0.2.0/arm/arm-none-eabi/include/c++/10.3.1/bits/stl_algobase.h ****    *  @ingroup mutating_algorithms
 576:/Library/DaisyToolchain/0.2.0/arm/arm-none-eabi/include/c++/10.3.1/bits/stl_algobase.h ****    *  @param  __first  An input iterator.
ARM GAS  /var/folders/9k/zk1mgrrd7wg4__6zvxvr9w8m0000gn/T//ccXXoDHF.s 			page 14


 577:/Library/DaisyToolchain/0.2.0/arm/arm-none-eabi/include/c++/10.3.1/bits/stl_algobase.h ****    *  @param  __last   An input iterator.
 578:/Library/DaisyToolchain/0.2.0/arm/arm-none-eabi/include/c++/10.3.1/bits/stl_algobase.h ****    *  @param  __result An output iterator.
 579:/Library/DaisyToolchain/0.2.0/arm/arm-none-eabi/include/c++/10.3.1/bits/stl_algobase.h ****    *  @return   result + (last - first)
 580:/Library/DaisyToolchain/0.2.0/arm/arm-none-eabi/include/c++/10.3.1/bits/stl_algobase.h ****    *
 581:/Library/DaisyToolchain/0.2.0/arm/arm-none-eabi/include/c++/10.3.1/bits/stl_algobase.h ****    *  This inline function will boil down to a call to @c memmove whenever
 582:/Library/DaisyToolchain/0.2.0/arm/arm-none-eabi/include/c++/10.3.1/bits/stl_algobase.h ****    *  possible.  Failing that, if random access iterators are passed, then the
 583:/Library/DaisyToolchain/0.2.0/arm/arm-none-eabi/include/c++/10.3.1/bits/stl_algobase.h ****    *  loop count will be known (and therefore a candidate for compiler
 584:/Library/DaisyToolchain/0.2.0/arm/arm-none-eabi/include/c++/10.3.1/bits/stl_algobase.h ****    *  optimizations such as unrolling).  Result may not be contained within
 585:/Library/DaisyToolchain/0.2.0/arm/arm-none-eabi/include/c++/10.3.1/bits/stl_algobase.h ****    *  [first,last); the move_backward function should be used instead.
 586:/Library/DaisyToolchain/0.2.0/arm/arm-none-eabi/include/c++/10.3.1/bits/stl_algobase.h ****    *
 587:/Library/DaisyToolchain/0.2.0/arm/arm-none-eabi/include/c++/10.3.1/bits/stl_algobase.h ****    *  Note that the end of the output range is permitted to be contained
 588:/Library/DaisyToolchain/0.2.0/arm/arm-none-eabi/include/c++/10.3.1/bits/stl_algobase.h ****    *  within [first,last).
 589:/Library/DaisyToolchain/0.2.0/arm/arm-none-eabi/include/c++/10.3.1/bits/stl_algobase.h ****   */
 590:/Library/DaisyToolchain/0.2.0/arm/arm-none-eabi/include/c++/10.3.1/bits/stl_algobase.h ****   template<typename _II, typename _OI>
 591:/Library/DaisyToolchain/0.2.0/arm/arm-none-eabi/include/c++/10.3.1/bits/stl_algobase.h ****     _GLIBCXX20_CONSTEXPR
 592:/Library/DaisyToolchain/0.2.0/arm/arm-none-eabi/include/c++/10.3.1/bits/stl_algobase.h ****     inline _OI
 593:/Library/DaisyToolchain/0.2.0/arm/arm-none-eabi/include/c++/10.3.1/bits/stl_algobase.h ****     move(_II __first, _II __last, _OI __result)
 594:/Library/DaisyToolchain/0.2.0/arm/arm-none-eabi/include/c++/10.3.1/bits/stl_algobase.h ****     {
 595:/Library/DaisyToolchain/0.2.0/arm/arm-none-eabi/include/c++/10.3.1/bits/stl_algobase.h ****       // concept requirements
 596:/Library/DaisyToolchain/0.2.0/arm/arm-none-eabi/include/c++/10.3.1/bits/stl_algobase.h ****       __glibcxx_function_requires(_InputIteratorConcept<_II>)
 597:/Library/DaisyToolchain/0.2.0/arm/arm-none-eabi/include/c++/10.3.1/bits/stl_algobase.h ****       __glibcxx_function_requires(_OutputIteratorConcept<_OI,
 598:/Library/DaisyToolchain/0.2.0/arm/arm-none-eabi/include/c++/10.3.1/bits/stl_algobase.h **** 	    typename iterator_traits<_II>::value_type>)
 599:/Library/DaisyToolchain/0.2.0/arm/arm-none-eabi/include/c++/10.3.1/bits/stl_algobase.h ****       __glibcxx_requires_can_increment_range(__first, __last, __result);
 600:/Library/DaisyToolchain/0.2.0/arm/arm-none-eabi/include/c++/10.3.1/bits/stl_algobase.h **** 
 601:/Library/DaisyToolchain/0.2.0/arm/arm-none-eabi/include/c++/10.3.1/bits/stl_algobase.h ****       return std::__copy_move_a<true>(std::__miter_base(__first),
 602:/Library/DaisyToolchain/0.2.0/arm/arm-none-eabi/include/c++/10.3.1/bits/stl_algobase.h **** 				      std::__miter_base(__last), __result);
 603:/Library/DaisyToolchain/0.2.0/arm/arm-none-eabi/include/c++/10.3.1/bits/stl_algobase.h ****     }
 604:/Library/DaisyToolchain/0.2.0/arm/arm-none-eabi/include/c++/10.3.1/bits/stl_algobase.h **** 
 605:/Library/DaisyToolchain/0.2.0/arm/arm-none-eabi/include/c++/10.3.1/bits/stl_algobase.h **** #define _GLIBCXX_MOVE3(_Tp, _Up, _Vp) std::move(_Tp, _Up, _Vp)
 606:/Library/DaisyToolchain/0.2.0/arm/arm-none-eabi/include/c++/10.3.1/bits/stl_algobase.h **** #else
 607:/Library/DaisyToolchain/0.2.0/arm/arm-none-eabi/include/c++/10.3.1/bits/stl_algobase.h **** #define _GLIBCXX_MOVE3(_Tp, _Up, _Vp) std::copy(_Tp, _Up, _Vp)
 608:/Library/DaisyToolchain/0.2.0/arm/arm-none-eabi/include/c++/10.3.1/bits/stl_algobase.h **** #endif
 609:/Library/DaisyToolchain/0.2.0/arm/arm-none-eabi/include/c++/10.3.1/bits/stl_algobase.h **** 
 610:/Library/DaisyToolchain/0.2.0/arm/arm-none-eabi/include/c++/10.3.1/bits/stl_algobase.h ****   template<bool _IsMove, bool _IsSimple, typename _Category>
 611:/Library/DaisyToolchain/0.2.0/arm/arm-none-eabi/include/c++/10.3.1/bits/stl_algobase.h ****     struct __copy_move_backward
 612:/Library/DaisyToolchain/0.2.0/arm/arm-none-eabi/include/c++/10.3.1/bits/stl_algobase.h ****     {
 613:/Library/DaisyToolchain/0.2.0/arm/arm-none-eabi/include/c++/10.3.1/bits/stl_algobase.h ****       template<typename _BI1, typename _BI2>
 614:/Library/DaisyToolchain/0.2.0/arm/arm-none-eabi/include/c++/10.3.1/bits/stl_algobase.h **** 	_GLIBCXX20_CONSTEXPR
 615:/Library/DaisyToolchain/0.2.0/arm/arm-none-eabi/include/c++/10.3.1/bits/stl_algobase.h **** 	static _BI2
 616:/Library/DaisyToolchain/0.2.0/arm/arm-none-eabi/include/c++/10.3.1/bits/stl_algobase.h **** 	__copy_move_b(_BI1 __first, _BI1 __last, _BI2 __result)
 617:/Library/DaisyToolchain/0.2.0/arm/arm-none-eabi/include/c++/10.3.1/bits/stl_algobase.h **** 	{
 618:/Library/DaisyToolchain/0.2.0/arm/arm-none-eabi/include/c++/10.3.1/bits/stl_algobase.h **** 	  while (__first != __last)
 619:/Library/DaisyToolchain/0.2.0/arm/arm-none-eabi/include/c++/10.3.1/bits/stl_algobase.h **** 	    *--__result = *--__last;
 620:/Library/DaisyToolchain/0.2.0/arm/arm-none-eabi/include/c++/10.3.1/bits/stl_algobase.h **** 	  return __result;
 621:/Library/DaisyToolchain/0.2.0/arm/arm-none-eabi/include/c++/10.3.1/bits/stl_algobase.h **** 	}
 622:/Library/DaisyToolchain/0.2.0/arm/arm-none-eabi/include/c++/10.3.1/bits/stl_algobase.h ****     };
 623:/Library/DaisyToolchain/0.2.0/arm/arm-none-eabi/include/c++/10.3.1/bits/stl_algobase.h **** 
 624:/Library/DaisyToolchain/0.2.0/arm/arm-none-eabi/include/c++/10.3.1/bits/stl_algobase.h **** #if __cplusplus >= 201103L
 625:/Library/DaisyToolchain/0.2.0/arm/arm-none-eabi/include/c++/10.3.1/bits/stl_algobase.h ****   template<typename _Category>
 626:/Library/DaisyToolchain/0.2.0/arm/arm-none-eabi/include/c++/10.3.1/bits/stl_algobase.h ****     struct __copy_move_backward<true, false, _Category>
 627:/Library/DaisyToolchain/0.2.0/arm/arm-none-eabi/include/c++/10.3.1/bits/stl_algobase.h ****     {
 628:/Library/DaisyToolchain/0.2.0/arm/arm-none-eabi/include/c++/10.3.1/bits/stl_algobase.h ****       template<typename _BI1, typename _BI2>
 629:/Library/DaisyToolchain/0.2.0/arm/arm-none-eabi/include/c++/10.3.1/bits/stl_algobase.h **** 	_GLIBCXX20_CONSTEXPR
 630:/Library/DaisyToolchain/0.2.0/arm/arm-none-eabi/include/c++/10.3.1/bits/stl_algobase.h **** 	static _BI2
 631:/Library/DaisyToolchain/0.2.0/arm/arm-none-eabi/include/c++/10.3.1/bits/stl_algobase.h **** 	__copy_move_b(_BI1 __first, _BI1 __last, _BI2 __result)
 632:/Library/DaisyToolchain/0.2.0/arm/arm-none-eabi/include/c++/10.3.1/bits/stl_algobase.h **** 	{
 633:/Library/DaisyToolchain/0.2.0/arm/arm-none-eabi/include/c++/10.3.1/bits/stl_algobase.h **** 	  while (__first != __last)
ARM GAS  /var/folders/9k/zk1mgrrd7wg4__6zvxvr9w8m0000gn/T//ccXXoDHF.s 			page 15


 634:/Library/DaisyToolchain/0.2.0/arm/arm-none-eabi/include/c++/10.3.1/bits/stl_algobase.h **** 	    *--__result = std::move(*--__last);
 635:/Library/DaisyToolchain/0.2.0/arm/arm-none-eabi/include/c++/10.3.1/bits/stl_algobase.h **** 	  return __result;
 636:/Library/DaisyToolchain/0.2.0/arm/arm-none-eabi/include/c++/10.3.1/bits/stl_algobase.h **** 	}
 637:/Library/DaisyToolchain/0.2.0/arm/arm-none-eabi/include/c++/10.3.1/bits/stl_algobase.h ****     };
 638:/Library/DaisyToolchain/0.2.0/arm/arm-none-eabi/include/c++/10.3.1/bits/stl_algobase.h **** #endif
 639:/Library/DaisyToolchain/0.2.0/arm/arm-none-eabi/include/c++/10.3.1/bits/stl_algobase.h **** 
 640:/Library/DaisyToolchain/0.2.0/arm/arm-none-eabi/include/c++/10.3.1/bits/stl_algobase.h ****   template<>
 641:/Library/DaisyToolchain/0.2.0/arm/arm-none-eabi/include/c++/10.3.1/bits/stl_algobase.h ****     struct __copy_move_backward<false, false, random_access_iterator_tag>
 642:/Library/DaisyToolchain/0.2.0/arm/arm-none-eabi/include/c++/10.3.1/bits/stl_algobase.h ****     {
 643:/Library/DaisyToolchain/0.2.0/arm/arm-none-eabi/include/c++/10.3.1/bits/stl_algobase.h ****       template<typename _BI1, typename _BI2>
 644:/Library/DaisyToolchain/0.2.0/arm/arm-none-eabi/include/c++/10.3.1/bits/stl_algobase.h **** 	_GLIBCXX20_CONSTEXPR
 645:/Library/DaisyToolchain/0.2.0/arm/arm-none-eabi/include/c++/10.3.1/bits/stl_algobase.h **** 	static _BI2
 646:/Library/DaisyToolchain/0.2.0/arm/arm-none-eabi/include/c++/10.3.1/bits/stl_algobase.h **** 	__copy_move_b(_BI1 __first, _BI1 __last, _BI2 __result)
 647:/Library/DaisyToolchain/0.2.0/arm/arm-none-eabi/include/c++/10.3.1/bits/stl_algobase.h **** 	{
 648:/Library/DaisyToolchain/0.2.0/arm/arm-none-eabi/include/c++/10.3.1/bits/stl_algobase.h **** 	  typename iterator_traits<_BI1>::difference_type
 649:/Library/DaisyToolchain/0.2.0/arm/arm-none-eabi/include/c++/10.3.1/bits/stl_algobase.h **** 	    __n = __last - __first;
 650:/Library/DaisyToolchain/0.2.0/arm/arm-none-eabi/include/c++/10.3.1/bits/stl_algobase.h **** 	  for (; __n > 0; --__n)
 651:/Library/DaisyToolchain/0.2.0/arm/arm-none-eabi/include/c++/10.3.1/bits/stl_algobase.h **** 	    *--__result = *--__last;
 652:/Library/DaisyToolchain/0.2.0/arm/arm-none-eabi/include/c++/10.3.1/bits/stl_algobase.h **** 	  return __result;
 653:/Library/DaisyToolchain/0.2.0/arm/arm-none-eabi/include/c++/10.3.1/bits/stl_algobase.h **** 	}
 654:/Library/DaisyToolchain/0.2.0/arm/arm-none-eabi/include/c++/10.3.1/bits/stl_algobase.h ****     };
 655:/Library/DaisyToolchain/0.2.0/arm/arm-none-eabi/include/c++/10.3.1/bits/stl_algobase.h **** 
 656:/Library/DaisyToolchain/0.2.0/arm/arm-none-eabi/include/c++/10.3.1/bits/stl_algobase.h **** #if __cplusplus >= 201103L
 657:/Library/DaisyToolchain/0.2.0/arm/arm-none-eabi/include/c++/10.3.1/bits/stl_algobase.h ****   template<>
 658:/Library/DaisyToolchain/0.2.0/arm/arm-none-eabi/include/c++/10.3.1/bits/stl_algobase.h ****     struct __copy_move_backward<true, false, random_access_iterator_tag>
 659:/Library/DaisyToolchain/0.2.0/arm/arm-none-eabi/include/c++/10.3.1/bits/stl_algobase.h ****     {
 660:/Library/DaisyToolchain/0.2.0/arm/arm-none-eabi/include/c++/10.3.1/bits/stl_algobase.h ****       template<typename _BI1, typename _BI2>
 661:/Library/DaisyToolchain/0.2.0/arm/arm-none-eabi/include/c++/10.3.1/bits/stl_algobase.h **** 	_GLIBCXX20_CONSTEXPR
 662:/Library/DaisyToolchain/0.2.0/arm/arm-none-eabi/include/c++/10.3.1/bits/stl_algobase.h **** 	static _BI2
 663:/Library/DaisyToolchain/0.2.0/arm/arm-none-eabi/include/c++/10.3.1/bits/stl_algobase.h **** 	__copy_move_b(_BI1 __first, _BI1 __last, _BI2 __result)
 664:/Library/DaisyToolchain/0.2.0/arm/arm-none-eabi/include/c++/10.3.1/bits/stl_algobase.h **** 	{
 665:/Library/DaisyToolchain/0.2.0/arm/arm-none-eabi/include/c++/10.3.1/bits/stl_algobase.h **** 	  typename iterator_traits<_BI1>::difference_type
 666:/Library/DaisyToolchain/0.2.0/arm/arm-none-eabi/include/c++/10.3.1/bits/stl_algobase.h **** 	    __n = __last - __first;
 667:/Library/DaisyToolchain/0.2.0/arm/arm-none-eabi/include/c++/10.3.1/bits/stl_algobase.h **** 	  for (; __n > 0; --__n)
 668:/Library/DaisyToolchain/0.2.0/arm/arm-none-eabi/include/c++/10.3.1/bits/stl_algobase.h **** 	    *--__result = std::move(*--__last);
 669:/Library/DaisyToolchain/0.2.0/arm/arm-none-eabi/include/c++/10.3.1/bits/stl_algobase.h **** 	  return __result;
 670:/Library/DaisyToolchain/0.2.0/arm/arm-none-eabi/include/c++/10.3.1/bits/stl_algobase.h **** 	}
 671:/Library/DaisyToolchain/0.2.0/arm/arm-none-eabi/include/c++/10.3.1/bits/stl_algobase.h ****     };
 672:/Library/DaisyToolchain/0.2.0/arm/arm-none-eabi/include/c++/10.3.1/bits/stl_algobase.h **** #endif
 673:/Library/DaisyToolchain/0.2.0/arm/arm-none-eabi/include/c++/10.3.1/bits/stl_algobase.h **** 
 674:/Library/DaisyToolchain/0.2.0/arm/arm-none-eabi/include/c++/10.3.1/bits/stl_algobase.h ****   template<bool _IsMove>
 675:/Library/DaisyToolchain/0.2.0/arm/arm-none-eabi/include/c++/10.3.1/bits/stl_algobase.h ****     struct __copy_move_backward<_IsMove, true, random_access_iterator_tag>
 676:/Library/DaisyToolchain/0.2.0/arm/arm-none-eabi/include/c++/10.3.1/bits/stl_algobase.h ****     {
 677:/Library/DaisyToolchain/0.2.0/arm/arm-none-eabi/include/c++/10.3.1/bits/stl_algobase.h ****       template<typename _Tp>
 678:/Library/DaisyToolchain/0.2.0/arm/arm-none-eabi/include/c++/10.3.1/bits/stl_algobase.h **** 	_GLIBCXX20_CONSTEXPR
 679:/Library/DaisyToolchain/0.2.0/arm/arm-none-eabi/include/c++/10.3.1/bits/stl_algobase.h **** 	static _Tp*
 680:/Library/DaisyToolchain/0.2.0/arm/arm-none-eabi/include/c++/10.3.1/bits/stl_algobase.h **** 	__copy_move_b(const _Tp* __first, const _Tp* __last, _Tp* __result)
 681:/Library/DaisyToolchain/0.2.0/arm/arm-none-eabi/include/c++/10.3.1/bits/stl_algobase.h **** 	{
 682:/Library/DaisyToolchain/0.2.0/arm/arm-none-eabi/include/c++/10.3.1/bits/stl_algobase.h **** #if __cplusplus >= 201103L
 683:/Library/DaisyToolchain/0.2.0/arm/arm-none-eabi/include/c++/10.3.1/bits/stl_algobase.h **** 	  using __assignable = conditional<_IsMove,
 684:/Library/DaisyToolchain/0.2.0/arm/arm-none-eabi/include/c++/10.3.1/bits/stl_algobase.h **** 					   is_move_assignable<_Tp>,
 685:/Library/DaisyToolchain/0.2.0/arm/arm-none-eabi/include/c++/10.3.1/bits/stl_algobase.h **** 					   is_copy_assignable<_Tp>>;
 686:/Library/DaisyToolchain/0.2.0/arm/arm-none-eabi/include/c++/10.3.1/bits/stl_algobase.h **** 	  // trivial types can have deleted assignment
 687:/Library/DaisyToolchain/0.2.0/arm/arm-none-eabi/include/c++/10.3.1/bits/stl_algobase.h **** 	  static_assert( __assignable::type::value, "type is not assignable" );
 688:/Library/DaisyToolchain/0.2.0/arm/arm-none-eabi/include/c++/10.3.1/bits/stl_algobase.h **** #endif
 689:/Library/DaisyToolchain/0.2.0/arm/arm-none-eabi/include/c++/10.3.1/bits/stl_algobase.h **** 	  const ptrdiff_t _Num = __last - __first;
 690:/Library/DaisyToolchain/0.2.0/arm/arm-none-eabi/include/c++/10.3.1/bits/stl_algobase.h **** 	  if (_Num)
ARM GAS  /var/folders/9k/zk1mgrrd7wg4__6zvxvr9w8m0000gn/T//ccXXoDHF.s 			page 16


 691:/Library/DaisyToolchain/0.2.0/arm/arm-none-eabi/include/c++/10.3.1/bits/stl_algobase.h **** 	    __builtin_memmove(__result - _Num, __first, sizeof(_Tp) * _Num);
 692:/Library/DaisyToolchain/0.2.0/arm/arm-none-eabi/include/c++/10.3.1/bits/stl_algobase.h **** 	  return __result - _Num;
 693:/Library/DaisyToolchain/0.2.0/arm/arm-none-eabi/include/c++/10.3.1/bits/stl_algobase.h **** 	}
 694:/Library/DaisyToolchain/0.2.0/arm/arm-none-eabi/include/c++/10.3.1/bits/stl_algobase.h ****     };
 695:/Library/DaisyToolchain/0.2.0/arm/arm-none-eabi/include/c++/10.3.1/bits/stl_algobase.h **** 
 696:/Library/DaisyToolchain/0.2.0/arm/arm-none-eabi/include/c++/10.3.1/bits/stl_algobase.h ****   template<bool _IsMove, typename _BI1, typename _BI2>
 697:/Library/DaisyToolchain/0.2.0/arm/arm-none-eabi/include/c++/10.3.1/bits/stl_algobase.h ****     _GLIBCXX20_CONSTEXPR
 698:/Library/DaisyToolchain/0.2.0/arm/arm-none-eabi/include/c++/10.3.1/bits/stl_algobase.h ****     inline _BI2
 699:/Library/DaisyToolchain/0.2.0/arm/arm-none-eabi/include/c++/10.3.1/bits/stl_algobase.h ****     __copy_move_backward_a2(_BI1 __first, _BI1 __last, _BI2 __result)
 700:/Library/DaisyToolchain/0.2.0/arm/arm-none-eabi/include/c++/10.3.1/bits/stl_algobase.h ****     {
 701:/Library/DaisyToolchain/0.2.0/arm/arm-none-eabi/include/c++/10.3.1/bits/stl_algobase.h ****       typedef typename iterator_traits<_BI1>::iterator_category _Category;
 702:/Library/DaisyToolchain/0.2.0/arm/arm-none-eabi/include/c++/10.3.1/bits/stl_algobase.h **** #ifdef __cpp_lib_is_constant_evaluated
 703:/Library/DaisyToolchain/0.2.0/arm/arm-none-eabi/include/c++/10.3.1/bits/stl_algobase.h ****       if (std::is_constant_evaluated())
 704:/Library/DaisyToolchain/0.2.0/arm/arm-none-eabi/include/c++/10.3.1/bits/stl_algobase.h **** 	return std::__copy_move_backward<_IsMove, false, _Category>::
 705:/Library/DaisyToolchain/0.2.0/arm/arm-none-eabi/include/c++/10.3.1/bits/stl_algobase.h **** 	  __copy_move_b(__first, __last, __result);
 706:/Library/DaisyToolchain/0.2.0/arm/arm-none-eabi/include/c++/10.3.1/bits/stl_algobase.h **** #endif
 707:/Library/DaisyToolchain/0.2.0/arm/arm-none-eabi/include/c++/10.3.1/bits/stl_algobase.h ****       return std::__copy_move_backward<_IsMove,
 708:/Library/DaisyToolchain/0.2.0/arm/arm-none-eabi/include/c++/10.3.1/bits/stl_algobase.h **** 				       __memcpyable<_BI2, _BI1>::__value,
 709:/Library/DaisyToolchain/0.2.0/arm/arm-none-eabi/include/c++/10.3.1/bits/stl_algobase.h **** 				       _Category>::__copy_move_b(__first,
 710:/Library/DaisyToolchain/0.2.0/arm/arm-none-eabi/include/c++/10.3.1/bits/stl_algobase.h **** 								 __last,
 711:/Library/DaisyToolchain/0.2.0/arm/arm-none-eabi/include/c++/10.3.1/bits/stl_algobase.h **** 								 __result);
 712:/Library/DaisyToolchain/0.2.0/arm/arm-none-eabi/include/c++/10.3.1/bits/stl_algobase.h ****     }
 713:/Library/DaisyToolchain/0.2.0/arm/arm-none-eabi/include/c++/10.3.1/bits/stl_algobase.h **** 
 714:/Library/DaisyToolchain/0.2.0/arm/arm-none-eabi/include/c++/10.3.1/bits/stl_algobase.h ****   template<bool _IsMove, typename _BI1, typename _BI2>
 715:/Library/DaisyToolchain/0.2.0/arm/arm-none-eabi/include/c++/10.3.1/bits/stl_algobase.h ****     _GLIBCXX20_CONSTEXPR
 716:/Library/DaisyToolchain/0.2.0/arm/arm-none-eabi/include/c++/10.3.1/bits/stl_algobase.h ****     inline _BI2
 717:/Library/DaisyToolchain/0.2.0/arm/arm-none-eabi/include/c++/10.3.1/bits/stl_algobase.h ****     __copy_move_backward_a1(_BI1 __first, _BI1 __last, _BI2 __result)
 718:/Library/DaisyToolchain/0.2.0/arm/arm-none-eabi/include/c++/10.3.1/bits/stl_algobase.h ****     { return std::__copy_move_backward_a2<_IsMove>(__first, __last, __result); }
 719:/Library/DaisyToolchain/0.2.0/arm/arm-none-eabi/include/c++/10.3.1/bits/stl_algobase.h **** 
 720:/Library/DaisyToolchain/0.2.0/arm/arm-none-eabi/include/c++/10.3.1/bits/stl_algobase.h ****   template<bool _IsMove,
 721:/Library/DaisyToolchain/0.2.0/arm/arm-none-eabi/include/c++/10.3.1/bits/stl_algobase.h **** 	   typename _Tp, typename _Ref, typename _Ptr, typename _OI>
 722:/Library/DaisyToolchain/0.2.0/arm/arm-none-eabi/include/c++/10.3.1/bits/stl_algobase.h ****     _OI
 723:/Library/DaisyToolchain/0.2.0/arm/arm-none-eabi/include/c++/10.3.1/bits/stl_algobase.h ****     __copy_move_backward_a1(_GLIBCXX_STD_C::_Deque_iterator<_Tp, _Ref, _Ptr>,
 724:/Library/DaisyToolchain/0.2.0/arm/arm-none-eabi/include/c++/10.3.1/bits/stl_algobase.h **** 			    _GLIBCXX_STD_C::_Deque_iterator<_Tp, _Ref, _Ptr>,
 725:/Library/DaisyToolchain/0.2.0/arm/arm-none-eabi/include/c++/10.3.1/bits/stl_algobase.h **** 			    _OI);
 726:/Library/DaisyToolchain/0.2.0/arm/arm-none-eabi/include/c++/10.3.1/bits/stl_algobase.h **** 
 727:/Library/DaisyToolchain/0.2.0/arm/arm-none-eabi/include/c++/10.3.1/bits/stl_algobase.h ****   template<bool _IsMove,
 728:/Library/DaisyToolchain/0.2.0/arm/arm-none-eabi/include/c++/10.3.1/bits/stl_algobase.h **** 	   typename _ITp, typename _IRef, typename _IPtr, typename _OTp>
 729:/Library/DaisyToolchain/0.2.0/arm/arm-none-eabi/include/c++/10.3.1/bits/stl_algobase.h ****     _GLIBCXX_STD_C::_Deque_iterator<_OTp, _OTp&, _OTp*>
 730:/Library/DaisyToolchain/0.2.0/arm/arm-none-eabi/include/c++/10.3.1/bits/stl_algobase.h ****     __copy_move_backward_a1(
 731:/Library/DaisyToolchain/0.2.0/arm/arm-none-eabi/include/c++/10.3.1/bits/stl_algobase.h **** 			_GLIBCXX_STD_C::_Deque_iterator<_ITp, _IRef, _IPtr>,
 732:/Library/DaisyToolchain/0.2.0/arm/arm-none-eabi/include/c++/10.3.1/bits/stl_algobase.h **** 			_GLIBCXX_STD_C::_Deque_iterator<_ITp, _IRef, _IPtr>,
 733:/Library/DaisyToolchain/0.2.0/arm/arm-none-eabi/include/c++/10.3.1/bits/stl_algobase.h **** 			_GLIBCXX_STD_C::_Deque_iterator<_OTp, _OTp&, _OTp*>);
 734:/Library/DaisyToolchain/0.2.0/arm/arm-none-eabi/include/c++/10.3.1/bits/stl_algobase.h **** 
 735:/Library/DaisyToolchain/0.2.0/arm/arm-none-eabi/include/c++/10.3.1/bits/stl_algobase.h ****   template<bool _IsMove, typename _II, typename _Tp>
 736:/Library/DaisyToolchain/0.2.0/arm/arm-none-eabi/include/c++/10.3.1/bits/stl_algobase.h ****     typename __gnu_cxx::__enable_if<
 737:/Library/DaisyToolchain/0.2.0/arm/arm-none-eabi/include/c++/10.3.1/bits/stl_algobase.h ****       __is_random_access_iter<_II>::__value,
 738:/Library/DaisyToolchain/0.2.0/arm/arm-none-eabi/include/c++/10.3.1/bits/stl_algobase.h ****       _GLIBCXX_STD_C::_Deque_iterator<_Tp, _Tp&, _Tp*> >::__type
 739:/Library/DaisyToolchain/0.2.0/arm/arm-none-eabi/include/c++/10.3.1/bits/stl_algobase.h ****     __copy_move_backward_a1(_II, _II,
 740:/Library/DaisyToolchain/0.2.0/arm/arm-none-eabi/include/c++/10.3.1/bits/stl_algobase.h **** 			    _GLIBCXX_STD_C::_Deque_iterator<_Tp, _Tp&, _Tp*>);
 741:/Library/DaisyToolchain/0.2.0/arm/arm-none-eabi/include/c++/10.3.1/bits/stl_algobase.h **** 
 742:/Library/DaisyToolchain/0.2.0/arm/arm-none-eabi/include/c++/10.3.1/bits/stl_algobase.h ****   template<bool _IsMove, typename _II, typename _OI>
 743:/Library/DaisyToolchain/0.2.0/arm/arm-none-eabi/include/c++/10.3.1/bits/stl_algobase.h ****     _GLIBCXX20_CONSTEXPR
 744:/Library/DaisyToolchain/0.2.0/arm/arm-none-eabi/include/c++/10.3.1/bits/stl_algobase.h ****     inline _OI
 745:/Library/DaisyToolchain/0.2.0/arm/arm-none-eabi/include/c++/10.3.1/bits/stl_algobase.h ****     __copy_move_backward_a(_II __first, _II __last, _OI __result)
 746:/Library/DaisyToolchain/0.2.0/arm/arm-none-eabi/include/c++/10.3.1/bits/stl_algobase.h ****     {
 747:/Library/DaisyToolchain/0.2.0/arm/arm-none-eabi/include/c++/10.3.1/bits/stl_algobase.h ****       return std::__niter_wrap(__result,
ARM GAS  /var/folders/9k/zk1mgrrd7wg4__6zvxvr9w8m0000gn/T//ccXXoDHF.s 			page 17


 748:/Library/DaisyToolchain/0.2.0/arm/arm-none-eabi/include/c++/10.3.1/bits/stl_algobase.h **** 		std::__copy_move_backward_a1<_IsMove>
 749:/Library/DaisyToolchain/0.2.0/arm/arm-none-eabi/include/c++/10.3.1/bits/stl_algobase.h **** 		  (std::__niter_base(__first), std::__niter_base(__last),
 750:/Library/DaisyToolchain/0.2.0/arm/arm-none-eabi/include/c++/10.3.1/bits/stl_algobase.h **** 		   std::__niter_base(__result)));
 751:/Library/DaisyToolchain/0.2.0/arm/arm-none-eabi/include/c++/10.3.1/bits/stl_algobase.h ****     }
 752:/Library/DaisyToolchain/0.2.0/arm/arm-none-eabi/include/c++/10.3.1/bits/stl_algobase.h **** 
 753:/Library/DaisyToolchain/0.2.0/arm/arm-none-eabi/include/c++/10.3.1/bits/stl_algobase.h ****   template<bool _IsMove,
 754:/Library/DaisyToolchain/0.2.0/arm/arm-none-eabi/include/c++/10.3.1/bits/stl_algobase.h **** 	   typename _Ite, typename _Seq, typename _Cat, typename _OI>
 755:/Library/DaisyToolchain/0.2.0/arm/arm-none-eabi/include/c++/10.3.1/bits/stl_algobase.h ****     _OI
 756:/Library/DaisyToolchain/0.2.0/arm/arm-none-eabi/include/c++/10.3.1/bits/stl_algobase.h ****     __copy_move_backward_a(
 757:/Library/DaisyToolchain/0.2.0/arm/arm-none-eabi/include/c++/10.3.1/bits/stl_algobase.h **** 		const ::__gnu_debug::_Safe_iterator<_Ite, _Seq, _Cat>&,
 758:/Library/DaisyToolchain/0.2.0/arm/arm-none-eabi/include/c++/10.3.1/bits/stl_algobase.h **** 		const ::__gnu_debug::_Safe_iterator<_Ite, _Seq, _Cat>&,
 759:/Library/DaisyToolchain/0.2.0/arm/arm-none-eabi/include/c++/10.3.1/bits/stl_algobase.h **** 		_OI);
 760:/Library/DaisyToolchain/0.2.0/arm/arm-none-eabi/include/c++/10.3.1/bits/stl_algobase.h **** 
 761:/Library/DaisyToolchain/0.2.0/arm/arm-none-eabi/include/c++/10.3.1/bits/stl_algobase.h ****   template<bool _IsMove,
 762:/Library/DaisyToolchain/0.2.0/arm/arm-none-eabi/include/c++/10.3.1/bits/stl_algobase.h **** 	   typename _II, typename _Ite, typename _Seq, typename _Cat>
 763:/Library/DaisyToolchain/0.2.0/arm/arm-none-eabi/include/c++/10.3.1/bits/stl_algobase.h ****     __gnu_debug::_Safe_iterator<_Ite, _Seq, _Cat>
 764:/Library/DaisyToolchain/0.2.0/arm/arm-none-eabi/include/c++/10.3.1/bits/stl_algobase.h ****     __copy_move_backward_a(_II, _II,
 765:/Library/DaisyToolchain/0.2.0/arm/arm-none-eabi/include/c++/10.3.1/bits/stl_algobase.h **** 		const ::__gnu_debug::_Safe_iterator<_Ite, _Seq, _Cat>&);
 766:/Library/DaisyToolchain/0.2.0/arm/arm-none-eabi/include/c++/10.3.1/bits/stl_algobase.h **** 
 767:/Library/DaisyToolchain/0.2.0/arm/arm-none-eabi/include/c++/10.3.1/bits/stl_algobase.h ****   template<bool _IsMove,
 768:/Library/DaisyToolchain/0.2.0/arm/arm-none-eabi/include/c++/10.3.1/bits/stl_algobase.h **** 	   typename _IIte, typename _ISeq, typename _ICat,
 769:/Library/DaisyToolchain/0.2.0/arm/arm-none-eabi/include/c++/10.3.1/bits/stl_algobase.h **** 	   typename _OIte, typename _OSeq, typename _OCat>
 770:/Library/DaisyToolchain/0.2.0/arm/arm-none-eabi/include/c++/10.3.1/bits/stl_algobase.h ****     ::__gnu_debug::_Safe_iterator<_OIte, _OSeq, _OCat>
 771:/Library/DaisyToolchain/0.2.0/arm/arm-none-eabi/include/c++/10.3.1/bits/stl_algobase.h ****     __copy_move_backward_a(
 772:/Library/DaisyToolchain/0.2.0/arm/arm-none-eabi/include/c++/10.3.1/bits/stl_algobase.h **** 		const ::__gnu_debug::_Safe_iterator<_IIte, _ISeq, _ICat>&,
 773:/Library/DaisyToolchain/0.2.0/arm/arm-none-eabi/include/c++/10.3.1/bits/stl_algobase.h **** 		const ::__gnu_debug::_Safe_iterator<_IIte, _ISeq, _ICat>&,
 774:/Library/DaisyToolchain/0.2.0/arm/arm-none-eabi/include/c++/10.3.1/bits/stl_algobase.h **** 		const ::__gnu_debug::_Safe_iterator<_OIte, _OSeq, _OCat>&);
 775:/Library/DaisyToolchain/0.2.0/arm/arm-none-eabi/include/c++/10.3.1/bits/stl_algobase.h **** 
 776:/Library/DaisyToolchain/0.2.0/arm/arm-none-eabi/include/c++/10.3.1/bits/stl_algobase.h ****   /**
 777:/Library/DaisyToolchain/0.2.0/arm/arm-none-eabi/include/c++/10.3.1/bits/stl_algobase.h ****    *  @brief Copies the range [first,last) into result.
 778:/Library/DaisyToolchain/0.2.0/arm/arm-none-eabi/include/c++/10.3.1/bits/stl_algobase.h ****    *  @ingroup mutating_algorithms
 779:/Library/DaisyToolchain/0.2.0/arm/arm-none-eabi/include/c++/10.3.1/bits/stl_algobase.h ****    *  @param  __first  A bidirectional iterator.
 780:/Library/DaisyToolchain/0.2.0/arm/arm-none-eabi/include/c++/10.3.1/bits/stl_algobase.h ****    *  @param  __last   A bidirectional iterator.
 781:/Library/DaisyToolchain/0.2.0/arm/arm-none-eabi/include/c++/10.3.1/bits/stl_algobase.h ****    *  @param  __result A bidirectional iterator.
 782:/Library/DaisyToolchain/0.2.0/arm/arm-none-eabi/include/c++/10.3.1/bits/stl_algobase.h ****    *  @return   result - (last - first)
 783:/Library/DaisyToolchain/0.2.0/arm/arm-none-eabi/include/c++/10.3.1/bits/stl_algobase.h ****    *
 784:/Library/DaisyToolchain/0.2.0/arm/arm-none-eabi/include/c++/10.3.1/bits/stl_algobase.h ****    *  The function has the same effect as copy, but starts at the end of the
 785:/Library/DaisyToolchain/0.2.0/arm/arm-none-eabi/include/c++/10.3.1/bits/stl_algobase.h ****    *  range and works its way to the start, returning the start of the result.
 786:/Library/DaisyToolchain/0.2.0/arm/arm-none-eabi/include/c++/10.3.1/bits/stl_algobase.h ****    *  This inline function will boil down to a call to @c memmove whenever
 787:/Library/DaisyToolchain/0.2.0/arm/arm-none-eabi/include/c++/10.3.1/bits/stl_algobase.h ****    *  possible.  Failing that, if random access iterators are passed, then the
 788:/Library/DaisyToolchain/0.2.0/arm/arm-none-eabi/include/c++/10.3.1/bits/stl_algobase.h ****    *  loop count will be known (and therefore a candidate for compiler
 789:/Library/DaisyToolchain/0.2.0/arm/arm-none-eabi/include/c++/10.3.1/bits/stl_algobase.h ****    *  optimizations such as unrolling).
 790:/Library/DaisyToolchain/0.2.0/arm/arm-none-eabi/include/c++/10.3.1/bits/stl_algobase.h ****    *
 791:/Library/DaisyToolchain/0.2.0/arm/arm-none-eabi/include/c++/10.3.1/bits/stl_algobase.h ****    *  Result may not be in the range (first,last].  Use copy instead.  Note
 792:/Library/DaisyToolchain/0.2.0/arm/arm-none-eabi/include/c++/10.3.1/bits/stl_algobase.h ****    *  that the start of the output range may overlap [first,last).
 793:/Library/DaisyToolchain/0.2.0/arm/arm-none-eabi/include/c++/10.3.1/bits/stl_algobase.h ****   */
 794:/Library/DaisyToolchain/0.2.0/arm/arm-none-eabi/include/c++/10.3.1/bits/stl_algobase.h ****   template<typename _BI1, typename _BI2>
 795:/Library/DaisyToolchain/0.2.0/arm/arm-none-eabi/include/c++/10.3.1/bits/stl_algobase.h ****     _GLIBCXX20_CONSTEXPR
 796:/Library/DaisyToolchain/0.2.0/arm/arm-none-eabi/include/c++/10.3.1/bits/stl_algobase.h ****     inline _BI2
 797:/Library/DaisyToolchain/0.2.0/arm/arm-none-eabi/include/c++/10.3.1/bits/stl_algobase.h ****     copy_backward(_BI1 __first, _BI1 __last, _BI2 __result)
 798:/Library/DaisyToolchain/0.2.0/arm/arm-none-eabi/include/c++/10.3.1/bits/stl_algobase.h ****     {
 799:/Library/DaisyToolchain/0.2.0/arm/arm-none-eabi/include/c++/10.3.1/bits/stl_algobase.h ****       // concept requirements
 800:/Library/DaisyToolchain/0.2.0/arm/arm-none-eabi/include/c++/10.3.1/bits/stl_algobase.h ****       __glibcxx_function_requires(_BidirectionalIteratorConcept<_BI1>)
 801:/Library/DaisyToolchain/0.2.0/arm/arm-none-eabi/include/c++/10.3.1/bits/stl_algobase.h ****       __glibcxx_function_requires(_Mutable_BidirectionalIteratorConcept<_BI2>)
 802:/Library/DaisyToolchain/0.2.0/arm/arm-none-eabi/include/c++/10.3.1/bits/stl_algobase.h ****       __glibcxx_function_requires(_ConvertibleConcept<
 803:/Library/DaisyToolchain/0.2.0/arm/arm-none-eabi/include/c++/10.3.1/bits/stl_algobase.h **** 	    typename iterator_traits<_BI1>::value_type,
 804:/Library/DaisyToolchain/0.2.0/arm/arm-none-eabi/include/c++/10.3.1/bits/stl_algobase.h **** 	    typename iterator_traits<_BI2>::value_type>)
ARM GAS  /var/folders/9k/zk1mgrrd7wg4__6zvxvr9w8m0000gn/T//ccXXoDHF.s 			page 18


 805:/Library/DaisyToolchain/0.2.0/arm/arm-none-eabi/include/c++/10.3.1/bits/stl_algobase.h ****       __glibcxx_requires_can_decrement_range(__first, __last, __result);
 806:/Library/DaisyToolchain/0.2.0/arm/arm-none-eabi/include/c++/10.3.1/bits/stl_algobase.h **** 
 807:/Library/DaisyToolchain/0.2.0/arm/arm-none-eabi/include/c++/10.3.1/bits/stl_algobase.h ****       return std::__copy_move_backward_a<__is_move_iterator<_BI1>::__value>
 808:/Library/DaisyToolchain/0.2.0/arm/arm-none-eabi/include/c++/10.3.1/bits/stl_algobase.h **** 	     (std::__miter_base(__first), std::__miter_base(__last), __result);
 809:/Library/DaisyToolchain/0.2.0/arm/arm-none-eabi/include/c++/10.3.1/bits/stl_algobase.h ****     }
 810:/Library/DaisyToolchain/0.2.0/arm/arm-none-eabi/include/c++/10.3.1/bits/stl_algobase.h **** 
 811:/Library/DaisyToolchain/0.2.0/arm/arm-none-eabi/include/c++/10.3.1/bits/stl_algobase.h **** #if __cplusplus >= 201103L
 812:/Library/DaisyToolchain/0.2.0/arm/arm-none-eabi/include/c++/10.3.1/bits/stl_algobase.h ****   /**
 813:/Library/DaisyToolchain/0.2.0/arm/arm-none-eabi/include/c++/10.3.1/bits/stl_algobase.h ****    *  @brief Moves the range [first,last) into result.
 814:/Library/DaisyToolchain/0.2.0/arm/arm-none-eabi/include/c++/10.3.1/bits/stl_algobase.h ****    *  @ingroup mutating_algorithms
 815:/Library/DaisyToolchain/0.2.0/arm/arm-none-eabi/include/c++/10.3.1/bits/stl_algobase.h ****    *  @param  __first  A bidirectional iterator.
 816:/Library/DaisyToolchain/0.2.0/arm/arm-none-eabi/include/c++/10.3.1/bits/stl_algobase.h ****    *  @param  __last   A bidirectional iterator.
 817:/Library/DaisyToolchain/0.2.0/arm/arm-none-eabi/include/c++/10.3.1/bits/stl_algobase.h ****    *  @param  __result A bidirectional iterator.
 818:/Library/DaisyToolchain/0.2.0/arm/arm-none-eabi/include/c++/10.3.1/bits/stl_algobase.h ****    *  @return   result - (last - first)
 819:/Library/DaisyToolchain/0.2.0/arm/arm-none-eabi/include/c++/10.3.1/bits/stl_algobase.h ****    *
 820:/Library/DaisyToolchain/0.2.0/arm/arm-none-eabi/include/c++/10.3.1/bits/stl_algobase.h ****    *  The function has the same effect as move, but starts at the end of the
 821:/Library/DaisyToolchain/0.2.0/arm/arm-none-eabi/include/c++/10.3.1/bits/stl_algobase.h ****    *  range and works its way to the start, returning the start of the result.
 822:/Library/DaisyToolchain/0.2.0/arm/arm-none-eabi/include/c++/10.3.1/bits/stl_algobase.h ****    *  This inline function will boil down to a call to @c memmove whenever
 823:/Library/DaisyToolchain/0.2.0/arm/arm-none-eabi/include/c++/10.3.1/bits/stl_algobase.h ****    *  possible.  Failing that, if random access iterators are passed, then the
 824:/Library/DaisyToolchain/0.2.0/arm/arm-none-eabi/include/c++/10.3.1/bits/stl_algobase.h ****    *  loop count will be known (and therefore a candidate for compiler
 825:/Library/DaisyToolchain/0.2.0/arm/arm-none-eabi/include/c++/10.3.1/bits/stl_algobase.h ****    *  optimizations such as unrolling).
 826:/Library/DaisyToolchain/0.2.0/arm/arm-none-eabi/include/c++/10.3.1/bits/stl_algobase.h ****    *
 827:/Library/DaisyToolchain/0.2.0/arm/arm-none-eabi/include/c++/10.3.1/bits/stl_algobase.h ****    *  Result may not be in the range (first,last].  Use move instead.  Note
 828:/Library/DaisyToolchain/0.2.0/arm/arm-none-eabi/include/c++/10.3.1/bits/stl_algobase.h ****    *  that the start of the output range may overlap [first,last).
 829:/Library/DaisyToolchain/0.2.0/arm/arm-none-eabi/include/c++/10.3.1/bits/stl_algobase.h ****   */
 830:/Library/DaisyToolchain/0.2.0/arm/arm-none-eabi/include/c++/10.3.1/bits/stl_algobase.h ****   template<typename _BI1, typename _BI2>
 831:/Library/DaisyToolchain/0.2.0/arm/arm-none-eabi/include/c++/10.3.1/bits/stl_algobase.h ****     _GLIBCXX20_CONSTEXPR
 832:/Library/DaisyToolchain/0.2.0/arm/arm-none-eabi/include/c++/10.3.1/bits/stl_algobase.h ****     inline _BI2
 833:/Library/DaisyToolchain/0.2.0/arm/arm-none-eabi/include/c++/10.3.1/bits/stl_algobase.h ****     move_backward(_BI1 __first, _BI1 __last, _BI2 __result)
 834:/Library/DaisyToolchain/0.2.0/arm/arm-none-eabi/include/c++/10.3.1/bits/stl_algobase.h ****     {
 835:/Library/DaisyToolchain/0.2.0/arm/arm-none-eabi/include/c++/10.3.1/bits/stl_algobase.h ****       // concept requirements
 836:/Library/DaisyToolchain/0.2.0/arm/arm-none-eabi/include/c++/10.3.1/bits/stl_algobase.h ****       __glibcxx_function_requires(_BidirectionalIteratorConcept<_BI1>)
 837:/Library/DaisyToolchain/0.2.0/arm/arm-none-eabi/include/c++/10.3.1/bits/stl_algobase.h ****       __glibcxx_function_requires(_Mutable_BidirectionalIteratorConcept<_BI2>)
 838:/Library/DaisyToolchain/0.2.0/arm/arm-none-eabi/include/c++/10.3.1/bits/stl_algobase.h ****       __glibcxx_function_requires(_ConvertibleConcept<
 839:/Library/DaisyToolchain/0.2.0/arm/arm-none-eabi/include/c++/10.3.1/bits/stl_algobase.h **** 	    typename iterator_traits<_BI1>::value_type,
 840:/Library/DaisyToolchain/0.2.0/arm/arm-none-eabi/include/c++/10.3.1/bits/stl_algobase.h **** 	    typename iterator_traits<_BI2>::value_type>)
 841:/Library/DaisyToolchain/0.2.0/arm/arm-none-eabi/include/c++/10.3.1/bits/stl_algobase.h ****       __glibcxx_requires_can_decrement_range(__first, __last, __result);
 842:/Library/DaisyToolchain/0.2.0/arm/arm-none-eabi/include/c++/10.3.1/bits/stl_algobase.h **** 
 843:/Library/DaisyToolchain/0.2.0/arm/arm-none-eabi/include/c++/10.3.1/bits/stl_algobase.h ****       return std::__copy_move_backward_a<true>(std::__miter_base(__first),
 844:/Library/DaisyToolchain/0.2.0/arm/arm-none-eabi/include/c++/10.3.1/bits/stl_algobase.h **** 					       std::__miter_base(__last),
 845:/Library/DaisyToolchain/0.2.0/arm/arm-none-eabi/include/c++/10.3.1/bits/stl_algobase.h **** 					       __result);
 846:/Library/DaisyToolchain/0.2.0/arm/arm-none-eabi/include/c++/10.3.1/bits/stl_algobase.h ****     }
 847:/Library/DaisyToolchain/0.2.0/arm/arm-none-eabi/include/c++/10.3.1/bits/stl_algobase.h **** 
 848:/Library/DaisyToolchain/0.2.0/arm/arm-none-eabi/include/c++/10.3.1/bits/stl_algobase.h **** #define _GLIBCXX_MOVE_BACKWARD3(_Tp, _Up, _Vp) std::move_backward(_Tp, _Up, _Vp)
 849:/Library/DaisyToolchain/0.2.0/arm/arm-none-eabi/include/c++/10.3.1/bits/stl_algobase.h **** #else
 850:/Library/DaisyToolchain/0.2.0/arm/arm-none-eabi/include/c++/10.3.1/bits/stl_algobase.h **** #define _GLIBCXX_MOVE_BACKWARD3(_Tp, _Up, _Vp) std::copy_backward(_Tp, _Up, _Vp)
 851:/Library/DaisyToolchain/0.2.0/arm/arm-none-eabi/include/c++/10.3.1/bits/stl_algobase.h **** #endif
 852:/Library/DaisyToolchain/0.2.0/arm/arm-none-eabi/include/c++/10.3.1/bits/stl_algobase.h **** 
 853:/Library/DaisyToolchain/0.2.0/arm/arm-none-eabi/include/c++/10.3.1/bits/stl_algobase.h ****   template<typename _ForwardIterator, typename _Tp>
 854:/Library/DaisyToolchain/0.2.0/arm/arm-none-eabi/include/c++/10.3.1/bits/stl_algobase.h ****     _GLIBCXX20_CONSTEXPR
 855:/Library/DaisyToolchain/0.2.0/arm/arm-none-eabi/include/c++/10.3.1/bits/stl_algobase.h ****     inline typename
 856:/Library/DaisyToolchain/0.2.0/arm/arm-none-eabi/include/c++/10.3.1/bits/stl_algobase.h ****     __gnu_cxx::__enable_if<!__is_scalar<_Tp>::__value, void>::__type
 857:/Library/DaisyToolchain/0.2.0/arm/arm-none-eabi/include/c++/10.3.1/bits/stl_algobase.h ****     __fill_a1(_ForwardIterator __first, _ForwardIterator __last,
 858:/Library/DaisyToolchain/0.2.0/arm/arm-none-eabi/include/c++/10.3.1/bits/stl_algobase.h **** 	      const _Tp& __value)
 859:/Library/DaisyToolchain/0.2.0/arm/arm-none-eabi/include/c++/10.3.1/bits/stl_algobase.h ****     {
 860:/Library/DaisyToolchain/0.2.0/arm/arm-none-eabi/include/c++/10.3.1/bits/stl_algobase.h ****       for (; __first != __last; ++__first)
 861:/Library/DaisyToolchain/0.2.0/arm/arm-none-eabi/include/c++/10.3.1/bits/stl_algobase.h **** 	*__first = __value;
ARM GAS  /var/folders/9k/zk1mgrrd7wg4__6zvxvr9w8m0000gn/T//ccXXoDHF.s 			page 19


 862:/Library/DaisyToolchain/0.2.0/arm/arm-none-eabi/include/c++/10.3.1/bits/stl_algobase.h ****     }
 863:/Library/DaisyToolchain/0.2.0/arm/arm-none-eabi/include/c++/10.3.1/bits/stl_algobase.h **** 
 864:/Library/DaisyToolchain/0.2.0/arm/arm-none-eabi/include/c++/10.3.1/bits/stl_algobase.h ****   template<typename _ForwardIterator, typename _Tp>
 865:/Library/DaisyToolchain/0.2.0/arm/arm-none-eabi/include/c++/10.3.1/bits/stl_algobase.h ****     _GLIBCXX20_CONSTEXPR
 866:/Library/DaisyToolchain/0.2.0/arm/arm-none-eabi/include/c++/10.3.1/bits/stl_algobase.h ****     inline typename
 867:/Library/DaisyToolchain/0.2.0/arm/arm-none-eabi/include/c++/10.3.1/bits/stl_algobase.h ****     __gnu_cxx::__enable_if<__is_scalar<_Tp>::__value, void>::__type
 868:/Library/DaisyToolchain/0.2.0/arm/arm-none-eabi/include/c++/10.3.1/bits/stl_algobase.h ****     __fill_a1(_ForwardIterator __first, _ForwardIterator __last,
 869:/Library/DaisyToolchain/0.2.0/arm/arm-none-eabi/include/c++/10.3.1/bits/stl_algobase.h **** 	      const _Tp& __value)
 870:/Library/DaisyToolchain/0.2.0/arm/arm-none-eabi/include/c++/10.3.1/bits/stl_algobase.h ****     {
 871:/Library/DaisyToolchain/0.2.0/arm/arm-none-eabi/include/c++/10.3.1/bits/stl_algobase.h ****       const _Tp __tmp = __value;
 872:/Library/DaisyToolchain/0.2.0/arm/arm-none-eabi/include/c++/10.3.1/bits/stl_algobase.h ****       for (; __first != __last; ++__first)
 873:/Library/DaisyToolchain/0.2.0/arm/arm-none-eabi/include/c++/10.3.1/bits/stl_algobase.h **** 	*__first = __tmp;
 874:/Library/DaisyToolchain/0.2.0/arm/arm-none-eabi/include/c++/10.3.1/bits/stl_algobase.h ****     }
 875:/Library/DaisyToolchain/0.2.0/arm/arm-none-eabi/include/c++/10.3.1/bits/stl_algobase.h **** 
 876:/Library/DaisyToolchain/0.2.0/arm/arm-none-eabi/include/c++/10.3.1/bits/stl_algobase.h ****   // Specialization: for char types we can use memset.
 877:/Library/DaisyToolchain/0.2.0/arm/arm-none-eabi/include/c++/10.3.1/bits/stl_algobase.h ****   template<typename _Tp>
 878:/Library/DaisyToolchain/0.2.0/arm/arm-none-eabi/include/c++/10.3.1/bits/stl_algobase.h ****     _GLIBCXX20_CONSTEXPR
 879:/Library/DaisyToolchain/0.2.0/arm/arm-none-eabi/include/c++/10.3.1/bits/stl_algobase.h ****     inline typename
 880:/Library/DaisyToolchain/0.2.0/arm/arm-none-eabi/include/c++/10.3.1/bits/stl_algobase.h ****     __gnu_cxx::__enable_if<__is_byte<_Tp>::__value, void>::__type
 881:/Library/DaisyToolchain/0.2.0/arm/arm-none-eabi/include/c++/10.3.1/bits/stl_algobase.h ****     __fill_a1(_Tp* __first, _Tp* __last, const _Tp& __c)
 882:/Library/DaisyToolchain/0.2.0/arm/arm-none-eabi/include/c++/10.3.1/bits/stl_algobase.h ****     {
 883:/Library/DaisyToolchain/0.2.0/arm/arm-none-eabi/include/c++/10.3.1/bits/stl_algobase.h ****       const _Tp __tmp = __c;
 884:/Library/DaisyToolchain/0.2.0/arm/arm-none-eabi/include/c++/10.3.1/bits/stl_algobase.h **** #if __cpp_lib_is_constant_evaluated
 885:/Library/DaisyToolchain/0.2.0/arm/arm-none-eabi/include/c++/10.3.1/bits/stl_algobase.h ****       if (std::is_constant_evaluated())
 886:/Library/DaisyToolchain/0.2.0/arm/arm-none-eabi/include/c++/10.3.1/bits/stl_algobase.h **** 	{
 887:/Library/DaisyToolchain/0.2.0/arm/arm-none-eabi/include/c++/10.3.1/bits/stl_algobase.h **** 	  for (; __first != __last; ++__first)
 888:/Library/DaisyToolchain/0.2.0/arm/arm-none-eabi/include/c++/10.3.1/bits/stl_algobase.h **** 	    *__first = __tmp;
 889:/Library/DaisyToolchain/0.2.0/arm/arm-none-eabi/include/c++/10.3.1/bits/stl_algobase.h **** 	  return;
 890:/Library/DaisyToolchain/0.2.0/arm/arm-none-eabi/include/c++/10.3.1/bits/stl_algobase.h **** 	}
 891:/Library/DaisyToolchain/0.2.0/arm/arm-none-eabi/include/c++/10.3.1/bits/stl_algobase.h **** #endif
 892:/Library/DaisyToolchain/0.2.0/arm/arm-none-eabi/include/c++/10.3.1/bits/stl_algobase.h ****       if (const size_t __len = __last - __first)
 893:/Library/DaisyToolchain/0.2.0/arm/arm-none-eabi/include/c++/10.3.1/bits/stl_algobase.h **** 	__builtin_memset(__first, static_cast<unsigned char>(__tmp), __len);
 894:/Library/DaisyToolchain/0.2.0/arm/arm-none-eabi/include/c++/10.3.1/bits/stl_algobase.h ****     }
 895:/Library/DaisyToolchain/0.2.0/arm/arm-none-eabi/include/c++/10.3.1/bits/stl_algobase.h **** 
 896:/Library/DaisyToolchain/0.2.0/arm/arm-none-eabi/include/c++/10.3.1/bits/stl_algobase.h ****   template<typename _Ite, typename _Cont, typename _Tp>
 897:/Library/DaisyToolchain/0.2.0/arm/arm-none-eabi/include/c++/10.3.1/bits/stl_algobase.h ****     _GLIBCXX20_CONSTEXPR
 898:/Library/DaisyToolchain/0.2.0/arm/arm-none-eabi/include/c++/10.3.1/bits/stl_algobase.h ****     inline void
 899:/Library/DaisyToolchain/0.2.0/arm/arm-none-eabi/include/c++/10.3.1/bits/stl_algobase.h ****     __fill_a1(::__gnu_cxx::__normal_iterator<_Ite, _Cont> __first,
 900:/Library/DaisyToolchain/0.2.0/arm/arm-none-eabi/include/c++/10.3.1/bits/stl_algobase.h **** 	      ::__gnu_cxx::__normal_iterator<_Ite, _Cont> __last,
 901:/Library/DaisyToolchain/0.2.0/arm/arm-none-eabi/include/c++/10.3.1/bits/stl_algobase.h **** 	      const _Tp& __value)
 902:/Library/DaisyToolchain/0.2.0/arm/arm-none-eabi/include/c++/10.3.1/bits/stl_algobase.h ****     { std::__fill_a1(__first.base(), __last.base(), __value); }
 903:/Library/DaisyToolchain/0.2.0/arm/arm-none-eabi/include/c++/10.3.1/bits/stl_algobase.h **** 
 904:/Library/DaisyToolchain/0.2.0/arm/arm-none-eabi/include/c++/10.3.1/bits/stl_algobase.h ****   template<typename _Tp, typename _VTp>
 905:/Library/DaisyToolchain/0.2.0/arm/arm-none-eabi/include/c++/10.3.1/bits/stl_algobase.h ****     void
 906:/Library/DaisyToolchain/0.2.0/arm/arm-none-eabi/include/c++/10.3.1/bits/stl_algobase.h ****     __fill_a1(const _GLIBCXX_STD_C::_Deque_iterator<_Tp, _Tp&, _Tp*>&,
 907:/Library/DaisyToolchain/0.2.0/arm/arm-none-eabi/include/c++/10.3.1/bits/stl_algobase.h **** 	      const _GLIBCXX_STD_C::_Deque_iterator<_Tp, _Tp&, _Tp*>&,
 908:/Library/DaisyToolchain/0.2.0/arm/arm-none-eabi/include/c++/10.3.1/bits/stl_algobase.h **** 	      const _VTp&);
 909:/Library/DaisyToolchain/0.2.0/arm/arm-none-eabi/include/c++/10.3.1/bits/stl_algobase.h **** 
 910:/Library/DaisyToolchain/0.2.0/arm/arm-none-eabi/include/c++/10.3.1/bits/stl_algobase.h ****   template<typename _FIte, typename _Tp>
 911:/Library/DaisyToolchain/0.2.0/arm/arm-none-eabi/include/c++/10.3.1/bits/stl_algobase.h ****     _GLIBCXX20_CONSTEXPR
 912:/Library/DaisyToolchain/0.2.0/arm/arm-none-eabi/include/c++/10.3.1/bits/stl_algobase.h ****     inline void
 913:/Library/DaisyToolchain/0.2.0/arm/arm-none-eabi/include/c++/10.3.1/bits/stl_algobase.h ****     __fill_a(_FIte __first, _FIte __last, const _Tp& __value)
 914:/Library/DaisyToolchain/0.2.0/arm/arm-none-eabi/include/c++/10.3.1/bits/stl_algobase.h ****     { std::__fill_a1(__first, __last, __value); }
 915:/Library/DaisyToolchain/0.2.0/arm/arm-none-eabi/include/c++/10.3.1/bits/stl_algobase.h **** 
 916:/Library/DaisyToolchain/0.2.0/arm/arm-none-eabi/include/c++/10.3.1/bits/stl_algobase.h ****   template<typename _Ite, typename _Seq, typename _Cat, typename _Tp>
 917:/Library/DaisyToolchain/0.2.0/arm/arm-none-eabi/include/c++/10.3.1/bits/stl_algobase.h ****     void
 918:/Library/DaisyToolchain/0.2.0/arm/arm-none-eabi/include/c++/10.3.1/bits/stl_algobase.h ****     __fill_a(const ::__gnu_debug::_Safe_iterator<_Ite, _Seq, _Cat>&,
ARM GAS  /var/folders/9k/zk1mgrrd7wg4__6zvxvr9w8m0000gn/T//ccXXoDHF.s 			page 20


 919:/Library/DaisyToolchain/0.2.0/arm/arm-none-eabi/include/c++/10.3.1/bits/stl_algobase.h **** 	     const ::__gnu_debug::_Safe_iterator<_Ite, _Seq, _Cat>&,
 920:/Library/DaisyToolchain/0.2.0/arm/arm-none-eabi/include/c++/10.3.1/bits/stl_algobase.h **** 	     const _Tp&);
 921:/Library/DaisyToolchain/0.2.0/arm/arm-none-eabi/include/c++/10.3.1/bits/stl_algobase.h **** 
 922:/Library/DaisyToolchain/0.2.0/arm/arm-none-eabi/include/c++/10.3.1/bits/stl_algobase.h ****   /**
 923:/Library/DaisyToolchain/0.2.0/arm/arm-none-eabi/include/c++/10.3.1/bits/stl_algobase.h ****    *  @brief Fills the range [first,last) with copies of value.
 924:/Library/DaisyToolchain/0.2.0/arm/arm-none-eabi/include/c++/10.3.1/bits/stl_algobase.h ****    *  @ingroup mutating_algorithms
 925:/Library/DaisyToolchain/0.2.0/arm/arm-none-eabi/include/c++/10.3.1/bits/stl_algobase.h ****    *  @param  __first  A forward iterator.
 926:/Library/DaisyToolchain/0.2.0/arm/arm-none-eabi/include/c++/10.3.1/bits/stl_algobase.h ****    *  @param  __last   A forward iterator.
 927:/Library/DaisyToolchain/0.2.0/arm/arm-none-eabi/include/c++/10.3.1/bits/stl_algobase.h ****    *  @param  __value  A reference-to-const of arbitrary type.
 928:/Library/DaisyToolchain/0.2.0/arm/arm-none-eabi/include/c++/10.3.1/bits/stl_algobase.h ****    *  @return   Nothing.
 929:/Library/DaisyToolchain/0.2.0/arm/arm-none-eabi/include/c++/10.3.1/bits/stl_algobase.h ****    *
 930:/Library/DaisyToolchain/0.2.0/arm/arm-none-eabi/include/c++/10.3.1/bits/stl_algobase.h ****    *  This function fills a range with copies of the same value.  For char
 931:/Library/DaisyToolchain/0.2.0/arm/arm-none-eabi/include/c++/10.3.1/bits/stl_algobase.h ****    *  types filling contiguous areas of memory, this becomes an inline call
 932:/Library/DaisyToolchain/0.2.0/arm/arm-none-eabi/include/c++/10.3.1/bits/stl_algobase.h ****    *  to @c memset or @c wmemset.
 933:/Library/DaisyToolchain/0.2.0/arm/arm-none-eabi/include/c++/10.3.1/bits/stl_algobase.h ****   */
 934:/Library/DaisyToolchain/0.2.0/arm/arm-none-eabi/include/c++/10.3.1/bits/stl_algobase.h ****   template<typename _ForwardIterator, typename _Tp>
 935:/Library/DaisyToolchain/0.2.0/arm/arm-none-eabi/include/c++/10.3.1/bits/stl_algobase.h ****     _GLIBCXX20_CONSTEXPR
 936:/Library/DaisyToolchain/0.2.0/arm/arm-none-eabi/include/c++/10.3.1/bits/stl_algobase.h ****     inline void
 937:/Library/DaisyToolchain/0.2.0/arm/arm-none-eabi/include/c++/10.3.1/bits/stl_algobase.h ****     fill(_ForwardIterator __first, _ForwardIterator __last, const _Tp& __value)
  59              		.loc 3 937 5 view .LVU6
  60              	.LBB151:
  61              	.LBI151:
 913:/Library/DaisyToolchain/0.2.0/arm/arm-none-eabi/include/c++/10.3.1/bits/stl_algobase.h ****     { std::__fill_a1(__first, __last, __value); }
  62              		.loc 3 913 5 view .LVU7
  63              	.LBB152:
  64              	.LBI152:
 868:/Library/DaisyToolchain/0.2.0/arm/arm-none-eabi/include/c++/10.3.1/bits/stl_algobase.h **** 	      const _Tp& __value)
  65              		.loc 3 868 5 view .LVU8
  66              	.LBB153:
 872:/Library/DaisyToolchain/0.2.0/arm/arm-none-eabi/include/c++/10.3.1/bits/stl_algobase.h **** 	*__first = __tmp;
  67              		.loc 3 872 22 view .LVU9
 873:/Library/DaisyToolchain/0.2.0/arm/arm-none-eabi/include/c++/10.3.1/bits/stl_algobase.h ****     }
  68              		.loc 3 873 11 is_stmt 0 view .LVU10
  69 0006 4FF48052 		mov	r2, #4096
  70 000a 4068     		ldr	r0, [r0, #4]
  71              	.LVL2:
 873:/Library/DaisyToolchain/0.2.0/arm/arm-none-eabi/include/c++/10.3.1/bits/stl_algobase.h ****     }
  72              		.loc 3 873 11 view .LVU11
  73 000c 2946     		mov	r1, r5
  74 000e FFF7FEFF 		bl	memset
  75              	.LVL3:
 873:/Library/DaisyToolchain/0.2.0/arm/arm-none-eabi/include/c++/10.3.1/bits/stl_algobase.h ****     }
  76              		.loc 3 873 11 view .LVU12
  77              	.LBE153:
  78              	.LBE152:
  79              	.LBE151:
  80              	.LBE150:
  81              	.LBE154:
  82              	.LBE156:
  83              	.LBB157:
  84              	.LBB158:
  85              	.LBB159:
  86              	.LBB160:
  87              	.LBB161:
  88              	.LBB162:
  89 0012 4FF48062 		mov	r2, #1024
  90 0016 2946     		mov	r1, r5
ARM GAS  /var/folders/9k/zk1mgrrd7wg4__6zvxvr9w8m0000gn/T//ccXXoDHF.s 			page 21


  91 0018 E068     		ldr	r0, [r4, #12]
  92              	.LBE162:
  93              	.LBE161:
  94              	.LBE160:
  95              	.LBE159:
  96              	.LBE158:
  97              	.LBE157:
  98              	.LBB169:
  99              	.LBB155:
 100              		.loc 2 51 16 view .LVU13
 101 001a 2560     		str	r5, [r4]
 102              	.LVL4:
 103              		.loc 2 51 16 view .LVU14
 104              	.LBE155:
 105              	.LBE169:
  55:mi/plaits/dsp/physical_modelling/string.cpp ****   stretch_.Reset();
 106              		.loc 1 55 3 is_stmt 1 view .LVU15
 107              	.LBB170:
 108              	.LBI157:
  49:mi/plaits/dsp/physical_modelling/delay_line.h ****     std::fill(&line_[0], &line_[max_delay], T(0));
 109              		.loc 2 49 8 view .LVU16
 110              	.LBB167:
 111              	.LBB166:
 112              	.LBI159:
 113              		.loc 3 937 5 view .LVU17
 114              	.LBB165:
 115              	.LBI160:
 913:/Library/DaisyToolchain/0.2.0/arm/arm-none-eabi/include/c++/10.3.1/bits/stl_algobase.h ****     { std::__fill_a1(__first, __last, __value); }
 116              		.loc 3 913 5 view .LVU18
 117              	.LBB164:
 118              	.LBI161:
 868:/Library/DaisyToolchain/0.2.0/arm/arm-none-eabi/include/c++/10.3.1/bits/stl_algobase.h **** 	      const _Tp& __value)
 119              		.loc 3 868 5 view .LVU19
 120              	.LBB163:
 872:/Library/DaisyToolchain/0.2.0/arm/arm-none-eabi/include/c++/10.3.1/bits/stl_algobase.h **** 	*__first = __tmp;
 121              		.loc 3 872 22 view .LVU20
 873:/Library/DaisyToolchain/0.2.0/arm/arm-none-eabi/include/c++/10.3.1/bits/stl_algobase.h ****     }
 122              		.loc 3 873 11 is_stmt 0 view .LVU21
 123 001c FFF7FEFF 		bl	memset
 124              	.LVL5:
 873:/Library/DaisyToolchain/0.2.0/arm/arm-none-eabi/include/c++/10.3.1/bits/stl_algobase.h ****     }
 125              		.loc 3 873 11 view .LVU22
 126              	.LBE163:
 127              	.LBE164:
 128              	.LBE165:
 129              	.LBE166:
 130              	.LBE167:
 131              	.LBE170:
 132              	.LBB171:
 133              	.LBB172:
 134              	.LBB173:
 135              		.file 4 "mi/stmlib/dsp/filter.h"
   1:mi/stmlib/dsp/filter.h **** // Copyright 2014 Emilie Gillet.
   2:mi/stmlib/dsp/filter.h **** //
   3:mi/stmlib/dsp/filter.h **** // Author: Emilie Gillet (emilie.o.gillet@gmail.com)
   4:mi/stmlib/dsp/filter.h **** //
   5:mi/stmlib/dsp/filter.h **** // Permission is hereby granted, free of charge, to any person obtaining a copy
ARM GAS  /var/folders/9k/zk1mgrrd7wg4__6zvxvr9w8m0000gn/T//ccXXoDHF.s 			page 22


   6:mi/stmlib/dsp/filter.h **** // of this software and associated documentation files (the "Software"), to deal
   7:mi/stmlib/dsp/filter.h **** // in the Software without restriction, including without limitation the rights
   8:mi/stmlib/dsp/filter.h **** // to use, copy, modify, merge, publish, distribute, sublicense, and/or sell
   9:mi/stmlib/dsp/filter.h **** // copies of the Software, and to permit persons to whom the Software is
  10:mi/stmlib/dsp/filter.h **** // furnished to do so, subject to the following conditions:
  11:mi/stmlib/dsp/filter.h **** // 
  12:mi/stmlib/dsp/filter.h **** // The above copyright notice and this permission notice shall be included in
  13:mi/stmlib/dsp/filter.h **** // all copies or substantial portions of the Software.
  14:mi/stmlib/dsp/filter.h **** // 
  15:mi/stmlib/dsp/filter.h **** // THE SOFTWARE IS PROVIDED "AS IS", WITHOUT WARRANTY OF ANY KIND, EXPRESS OR
  16:mi/stmlib/dsp/filter.h **** // IMPLIED, INCLUDING BUT NOT LIMITED TO THE WARRANTIES OF MERCHANTABILITY,
  17:mi/stmlib/dsp/filter.h **** // FITNESS FOR A PARTICULAR PURPOSE AND NONINFRINGEMENT. IN NO EVENT SHALL THE
  18:mi/stmlib/dsp/filter.h **** // AUTHORS OR COPYRIGHT HOLDERS BE LIABLE FOR ANY CLAIM, DAMAGES OR OTHER
  19:mi/stmlib/dsp/filter.h **** // LIABILITY, WHETHER IN AN ACTION OF CONTRACT, TORT OR OTHERWISE, ARISING FROM,
  20:mi/stmlib/dsp/filter.h **** // OUT OF OR IN CONNECTION WITH THE SOFTWARE OR THE USE OR OTHER DEALINGS IN
  21:mi/stmlib/dsp/filter.h **** // THE SOFTWARE.
  22:mi/stmlib/dsp/filter.h **** // 
  23:mi/stmlib/dsp/filter.h **** // See http://creativecommons.org/licenses/MIT/ for more information.
  24:mi/stmlib/dsp/filter.h **** //
  25:mi/stmlib/dsp/filter.h **** // -----------------------------------------------------------------------------
  26:mi/stmlib/dsp/filter.h **** //
  27:mi/stmlib/dsp/filter.h **** // Zero-delay-feedback filters (one pole and SVF).
  28:mi/stmlib/dsp/filter.h **** // Naive SVF.
  29:mi/stmlib/dsp/filter.h **** 
  30:mi/stmlib/dsp/filter.h **** #ifndef STMLIB_DSP_FILTER_H_
  31:mi/stmlib/dsp/filter.h **** #define STMLIB_DSP_FILTER_H_
  32:mi/stmlib/dsp/filter.h **** 
  33:mi/stmlib/dsp/filter.h **** #include "stmlib/stmlib.h"
  34:mi/stmlib/dsp/filter.h **** 
  35:mi/stmlib/dsp/filter.h **** #include <cmath>
  36:mi/stmlib/dsp/filter.h **** #include <algorithm>
  37:mi/stmlib/dsp/filter.h **** 
  38:mi/stmlib/dsp/filter.h **** namespace stmlib {
  39:mi/stmlib/dsp/filter.h **** 
  40:mi/stmlib/dsp/filter.h **** enum FilterMode {
  41:mi/stmlib/dsp/filter.h ****   FILTER_MODE_LOW_PASS,
  42:mi/stmlib/dsp/filter.h ****   FILTER_MODE_BAND_PASS,
  43:mi/stmlib/dsp/filter.h ****   FILTER_MODE_BAND_PASS_NORMALIZED,
  44:mi/stmlib/dsp/filter.h ****   FILTER_MODE_HIGH_PASS
  45:mi/stmlib/dsp/filter.h **** };
  46:mi/stmlib/dsp/filter.h **** 
  47:mi/stmlib/dsp/filter.h **** enum FrequencyApproximation {
  48:mi/stmlib/dsp/filter.h ****   FREQUENCY_EXACT,
  49:mi/stmlib/dsp/filter.h ****   FREQUENCY_ACCURATE,
  50:mi/stmlib/dsp/filter.h ****   FREQUENCY_FAST,
  51:mi/stmlib/dsp/filter.h ****   FREQUENCY_DIRTY
  52:mi/stmlib/dsp/filter.h **** };
  53:mi/stmlib/dsp/filter.h **** 
  54:mi/stmlib/dsp/filter.h **** #define M_PI_F float(M_PI)
  55:mi/stmlib/dsp/filter.h **** #define M_PI_POW_2 M_PI * M_PI
  56:mi/stmlib/dsp/filter.h **** #define M_PI_POW_3 M_PI_POW_2 * M_PI
  57:mi/stmlib/dsp/filter.h **** #define M_PI_POW_5 M_PI_POW_3 * M_PI_POW_2
  58:mi/stmlib/dsp/filter.h **** #define M_PI_POW_7 M_PI_POW_5 * M_PI_POW_2
  59:mi/stmlib/dsp/filter.h **** #define M_PI_POW_9 M_PI_POW_7 * M_PI_POW_2
  60:mi/stmlib/dsp/filter.h **** #define M_PI_POW_11 M_PI_POW_9 * M_PI_POW_2
  61:mi/stmlib/dsp/filter.h **** 
  62:mi/stmlib/dsp/filter.h **** class DCBlocker {
ARM GAS  /var/folders/9k/zk1mgrrd7wg4__6zvxvr9w8m0000gn/T//ccXXoDHF.s 			page 23


  63:mi/stmlib/dsp/filter.h ****  public:
  64:mi/stmlib/dsp/filter.h ****   DCBlocker() { }
  65:mi/stmlib/dsp/filter.h ****   ~DCBlocker() { }
  66:mi/stmlib/dsp/filter.h ****   
  67:mi/stmlib/dsp/filter.h ****   void Init(float pole) {
  68:mi/stmlib/dsp/filter.h ****     x_ = 0.0f;
  69:mi/stmlib/dsp/filter.h ****     y_ = 0.0f;
  70:mi/stmlib/dsp/filter.h ****     pole_ = pole;
  71:mi/stmlib/dsp/filter.h ****   }
  72:mi/stmlib/dsp/filter.h ****   
  73:mi/stmlib/dsp/filter.h ****   inline void Process(float* in_out, size_t size) {
  74:mi/stmlib/dsp/filter.h ****     float x = x_;
  75:mi/stmlib/dsp/filter.h ****     float y = y_;
  76:mi/stmlib/dsp/filter.h ****     const float pole = pole_;
  77:mi/stmlib/dsp/filter.h ****     while (size--) {
  78:mi/stmlib/dsp/filter.h ****       float old_x = x;
  79:mi/stmlib/dsp/filter.h ****       x = *in_out;
  80:mi/stmlib/dsp/filter.h ****       *in_out++ = y = y * pole + x - old_x;
  81:mi/stmlib/dsp/filter.h ****     }
  82:mi/stmlib/dsp/filter.h ****     x_ = x;
  83:mi/stmlib/dsp/filter.h ****     y_ = y;
  84:mi/stmlib/dsp/filter.h ****   }
  85:mi/stmlib/dsp/filter.h ****   
  86:mi/stmlib/dsp/filter.h ****  private:
  87:mi/stmlib/dsp/filter.h ****   float pole_;
  88:mi/stmlib/dsp/filter.h ****   float x_;
  89:mi/stmlib/dsp/filter.h ****   float y_;
  90:mi/stmlib/dsp/filter.h **** };
  91:mi/stmlib/dsp/filter.h **** 
  92:mi/stmlib/dsp/filter.h **** class OnePole {
  93:mi/stmlib/dsp/filter.h ****  public:
  94:mi/stmlib/dsp/filter.h ****   OnePole() { }
  95:mi/stmlib/dsp/filter.h ****   ~OnePole() { }
  96:mi/stmlib/dsp/filter.h ****   
  97:mi/stmlib/dsp/filter.h ****   void Init() {
  98:mi/stmlib/dsp/filter.h ****     set_f<FREQUENCY_DIRTY>(0.01f);
  99:mi/stmlib/dsp/filter.h ****     Reset();
 100:mi/stmlib/dsp/filter.h ****   }
 101:mi/stmlib/dsp/filter.h ****   
 102:mi/stmlib/dsp/filter.h ****   void Reset() {
 103:mi/stmlib/dsp/filter.h ****     state_ = 0.0f;
 104:mi/stmlib/dsp/filter.h ****   }
 105:mi/stmlib/dsp/filter.h ****   
 106:mi/stmlib/dsp/filter.h ****   template<FrequencyApproximation approximation>
 107:mi/stmlib/dsp/filter.h ****   static inline float tan(float f) {
 108:mi/stmlib/dsp/filter.h ****     if (approximation == FREQUENCY_EXACT) {
 109:mi/stmlib/dsp/filter.h ****       // Clip coefficient to about 100.
 110:mi/stmlib/dsp/filter.h ****       f = f < 0.497f ? f : 0.497f;
 111:mi/stmlib/dsp/filter.h ****       return tanf(M_PI_F * f);
 112:mi/stmlib/dsp/filter.h ****     } else if (approximation == FREQUENCY_DIRTY) {
 113:mi/stmlib/dsp/filter.h ****       // Optimized for frequencies below 8kHz.
 114:mi/stmlib/dsp/filter.h ****       const float a = 3.736e-01f * M_PI_POW_3;
 115:mi/stmlib/dsp/filter.h ****       return f * (M_PI_F + a * f * f);
 116:mi/stmlib/dsp/filter.h ****     } else if (approximation == FREQUENCY_FAST) {
 117:mi/stmlib/dsp/filter.h ****       // The usual tangent approximation uses 3.1755e-01 and 2.033e-01, but
 118:mi/stmlib/dsp/filter.h ****       // the coefficients used here are optimized to minimize error for the
 119:mi/stmlib/dsp/filter.h ****       // 16Hz to 16kHz range, with a sample rate of 48kHz.
ARM GAS  /var/folders/9k/zk1mgrrd7wg4__6zvxvr9w8m0000gn/T//ccXXoDHF.s 			page 24


 120:mi/stmlib/dsp/filter.h ****       const float a = 3.260e-01f * M_PI_POW_3;
 121:mi/stmlib/dsp/filter.h ****       const float b = 1.823e-01f * M_PI_POW_5;
 122:mi/stmlib/dsp/filter.h ****       float f2 = f * f;
 123:mi/stmlib/dsp/filter.h ****       return f * (M_PI_F + f2 * (a + b * f2));
 124:mi/stmlib/dsp/filter.h ****     } else if (approximation == FREQUENCY_ACCURATE) {
 125:mi/stmlib/dsp/filter.h ****       // These coefficients don't need to be tweaked for the audio range.
 126:mi/stmlib/dsp/filter.h ****       const float a = 3.333314036e-01f * M_PI_POW_3;
 127:mi/stmlib/dsp/filter.h ****       const float b = 1.333923995e-01f * M_PI_POW_5;
 128:mi/stmlib/dsp/filter.h ****       const float c = 5.33740603e-02f * M_PI_POW_7;
 129:mi/stmlib/dsp/filter.h ****       const float d = 2.900525e-03f * M_PI_POW_9;
 130:mi/stmlib/dsp/filter.h ****       const float e = 9.5168091e-03f * M_PI_POW_11;
 131:mi/stmlib/dsp/filter.h ****       float f2 = f * f;
 132:mi/stmlib/dsp/filter.h ****       return f * (M_PI_F + f2 * (a + f2 * (b + f2 * (c + f2 * (d + f2 * e)))));
 133:mi/stmlib/dsp/filter.h ****     }
 134:mi/stmlib/dsp/filter.h ****   }
 135:mi/stmlib/dsp/filter.h ****   
 136:mi/stmlib/dsp/filter.h ****   // Set frequency and resonance from true units. Various approximations
 137:mi/stmlib/dsp/filter.h ****   // are available to avoid the cost of tanf.
 138:mi/stmlib/dsp/filter.h ****   template<FrequencyApproximation approximation>
 139:mi/stmlib/dsp/filter.h ****   inline void set_f(float f) {
 140:mi/stmlib/dsp/filter.h ****     g_ = tan<approximation>(f);
 141:mi/stmlib/dsp/filter.h ****     gi_ = 1.0f / (1.0f + g_);
 142:mi/stmlib/dsp/filter.h ****   }
 143:mi/stmlib/dsp/filter.h ****   
 144:mi/stmlib/dsp/filter.h ****   template<FilterMode mode>
 145:mi/stmlib/dsp/filter.h ****   inline float Process(float in) {
 146:mi/stmlib/dsp/filter.h ****     float lp;
 147:mi/stmlib/dsp/filter.h ****     lp = (g_ * in + state_) * gi_;
 148:mi/stmlib/dsp/filter.h ****     state_ = g_ * (in - lp) + lp;
 149:mi/stmlib/dsp/filter.h **** 
 150:mi/stmlib/dsp/filter.h ****     if (mode == FILTER_MODE_LOW_PASS) {
 151:mi/stmlib/dsp/filter.h ****       return lp;
 152:mi/stmlib/dsp/filter.h ****     } else if (mode == FILTER_MODE_HIGH_PASS) {
 153:mi/stmlib/dsp/filter.h ****       return in - lp;
 154:mi/stmlib/dsp/filter.h ****     } else {
 155:mi/stmlib/dsp/filter.h ****       return 0.0f;
 156:mi/stmlib/dsp/filter.h ****     }
 157:mi/stmlib/dsp/filter.h ****   }
 158:mi/stmlib/dsp/filter.h ****   
 159:mi/stmlib/dsp/filter.h ****   template<FilterMode mode>
 160:mi/stmlib/dsp/filter.h ****   inline void Process(float* in_out, size_t size) {
 161:mi/stmlib/dsp/filter.h ****     while (size--) {
 162:mi/stmlib/dsp/filter.h ****       *in_out = Process<mode>(*in_out);
 163:mi/stmlib/dsp/filter.h ****       ++in_out;
 164:mi/stmlib/dsp/filter.h ****     }
 165:mi/stmlib/dsp/filter.h ****   }
 166:mi/stmlib/dsp/filter.h ****   
 167:mi/stmlib/dsp/filter.h ****  private:
 168:mi/stmlib/dsp/filter.h ****   float g_;
 169:mi/stmlib/dsp/filter.h ****   float gi_;
 170:mi/stmlib/dsp/filter.h ****   float state_;
 171:mi/stmlib/dsp/filter.h ****   
 172:mi/stmlib/dsp/filter.h ****   DISALLOW_COPY_AND_ASSIGN(OnePole);
 173:mi/stmlib/dsp/filter.h **** };
 174:mi/stmlib/dsp/filter.h **** 
 175:mi/stmlib/dsp/filter.h **** 
 176:mi/stmlib/dsp/filter.h **** 
ARM GAS  /var/folders/9k/zk1mgrrd7wg4__6zvxvr9w8m0000gn/T//ccXXoDHF.s 			page 25


 177:mi/stmlib/dsp/filter.h **** class Svf {
 178:mi/stmlib/dsp/filter.h ****  public:
 179:mi/stmlib/dsp/filter.h ****   Svf() { }
 180:mi/stmlib/dsp/filter.h ****   ~Svf() { }
 181:mi/stmlib/dsp/filter.h ****   
 182:mi/stmlib/dsp/filter.h ****   void Init() {
 183:mi/stmlib/dsp/filter.h ****     set_f_q<FREQUENCY_DIRTY>(0.01f, 100.0f);
 184:mi/stmlib/dsp/filter.h ****     Reset();
 185:mi/stmlib/dsp/filter.h ****   }
 186:mi/stmlib/dsp/filter.h ****   
 187:mi/stmlib/dsp/filter.h ****   void Reset() {
 188:mi/stmlib/dsp/filter.h ****     state_1_ = state_2_ = 0.0f;
 189:mi/stmlib/dsp/filter.h ****   }
 190:mi/stmlib/dsp/filter.h ****   
 191:mi/stmlib/dsp/filter.h ****   // Copy settings from another filter.
 192:mi/stmlib/dsp/filter.h ****   inline void set(const Svf& f) {
 193:mi/stmlib/dsp/filter.h ****     g_ = f.g();
 194:mi/stmlib/dsp/filter.h ****     r_ = f.r();
 195:mi/stmlib/dsp/filter.h ****     h_ = f.h();
 196:mi/stmlib/dsp/filter.h ****   }
 197:mi/stmlib/dsp/filter.h **** 
 198:mi/stmlib/dsp/filter.h ****   // Set all parameters from LUT.
 199:mi/stmlib/dsp/filter.h ****   inline void set_g_r_h(float g, float r, float h) {
 200:mi/stmlib/dsp/filter.h ****     g_ = g;
 201:mi/stmlib/dsp/filter.h ****     r_ = r;
 202:mi/stmlib/dsp/filter.h ****     h_ = h;
 203:mi/stmlib/dsp/filter.h ****   }
 204:mi/stmlib/dsp/filter.h ****   
 205:mi/stmlib/dsp/filter.h ****   // Set frequency and resonance coefficients from LUT, adjust remaining
 206:mi/stmlib/dsp/filter.h ****   // parameter.
 207:mi/stmlib/dsp/filter.h ****   inline void set_g_r(float g, float r) {
 208:mi/stmlib/dsp/filter.h ****     g_ = g;
 209:mi/stmlib/dsp/filter.h ****     r_ = r;
 210:mi/stmlib/dsp/filter.h ****     h_ = 1.0f / (1.0f + r_ * g_ + g_ * g_);
 211:mi/stmlib/dsp/filter.h ****   }
 212:mi/stmlib/dsp/filter.h **** 
 213:mi/stmlib/dsp/filter.h ****   // Set frequency from LUT, resonance in true units, adjust the rest.
 214:mi/stmlib/dsp/filter.h ****   inline void set_g_q(float g, float resonance) {
 215:mi/stmlib/dsp/filter.h ****     g_ = g;
 216:mi/stmlib/dsp/filter.h ****     r_ = 1.0f / resonance;
 217:mi/stmlib/dsp/filter.h ****     h_ = 1.0f / (1.0f + r_ * g_ + g_ * g_);
 218:mi/stmlib/dsp/filter.h ****   }
 219:mi/stmlib/dsp/filter.h **** 
 220:mi/stmlib/dsp/filter.h ****   // Set frequency and resonance from true units. Various approximations
 221:mi/stmlib/dsp/filter.h ****   // are available to avoid the cost of tanf.
 222:mi/stmlib/dsp/filter.h ****   template<FrequencyApproximation approximation>
 223:mi/stmlib/dsp/filter.h ****   inline void set_f_q(float f, float resonance) {
 224:mi/stmlib/dsp/filter.h ****     g_ = OnePole::tan<approximation>(f);
 136              		.loc 4 224 8 view .LVU23
 137 0020 094A     		ldr	r2, .L4
 138              	.LBE173:
 139              	.LBE172:
 140              	.LBB176:
 141              	.LBB177:
 188:mi/stmlib/dsp/filter.h ****   }
 142              		.loc 4 188 25 view .LVU24
 143 0022 0023     		movs	r3, #0
ARM GAS  /var/folders/9k/zk1mgrrd7wg4__6zvxvr9w8m0000gn/T//ccXXoDHF.s 			page 26


 144              	.LBE177:
 145              	.LBE176:
 146              	.LBB180:
 147              	.LBB174:
 225:mi/stmlib/dsp/filter.h ****     r_ = 1.0f / resonance;
 148              		.loc 4 225 8 view .LVU25
 149 0024 0948     		ldr	r0, .L4+4
 226:mi/stmlib/dsp/filter.h ****     h_ = 1.0f / (1.0f + r_ * g_ + g_ * g_);
 150              		.loc 4 226 8 view .LVU26
 151 0026 0A49     		ldr	r1, .L4+8
 224:mi/stmlib/dsp/filter.h ****     r_ = 1.0f / resonance;
 152              		.loc 4 224 8 view .LVU27
 153 0028 2261     		str	r2, [r4, #16]	@ float
 154              	.LBE174:
 155              	.LBE180:
 156              	.LBE171:
 157              	.LBB185:
 158              	.LBB186:
  70:mi/stmlib/dsp/filter.h ****   }
 159              		.loc 4 70 11 view .LVU28
 160 002a 0A4A     		ldr	r2, .L4+12
 161              	.LBE186:
 162              	.LBE185:
 163              	.LBB188:
 164              	.LBB168:
 165              		.loc 2 51 16 view .LVU29
 166 002c A560     		str	r5, [r4, #8]
 167              	.LVL6:
 168              		.loc 2 51 16 view .LVU30
 169              	.LBE168:
 170              	.LBE188:
  56:mi/plaits/dsp/physical_modelling/string.cpp ****   iir_damping_filter_.Init();
 171              		.loc 1 56 3 is_stmt 1 view .LVU31
 172              	.LBB189:
 173              	.LBI171:
 182:mi/stmlib/dsp/filter.h ****     set_f_q<FREQUENCY_DIRTY>(0.01f, 100.0f);
 174              		.loc 4 182 8 view .LVU32
 175              	.LBE189:
 183:mi/stmlib/dsp/filter.h ****     Reset();
 176              		.loc 4 183 5 view .LVU33
 177              	.LBB190:
 178              	.LBB181:
 179              	.LBI172:
 223:mi/stmlib/dsp/filter.h ****     g_ = OnePole::tan<approximation>(f);
 180              		.loc 4 223 15 view .LVU34
 223:mi/stmlib/dsp/filter.h ****     g_ = OnePole::tan<approximation>(f);
 181              		.loc 4 223 15 is_stmt 0 view .LVU35
 182              	.LBE181:
 183              	.LBB182:
 184              	.LBB178:
 188:mi/stmlib/dsp/filter.h ****   }
 185              		.loc 4 188 25 view .LVU36
 186 002e 2362     		str	r3, [r4, #32]	@ float
 187              	.LBE178:
 188              	.LBE182:
 189              	.LBB183:
 190              	.LBB175:
ARM GAS  /var/folders/9k/zk1mgrrd7wg4__6zvxvr9w8m0000gn/T//ccXXoDHF.s 			page 27


 225:mi/stmlib/dsp/filter.h ****     h_ = 1.0f / (1.0f + r_ * g_ + g_ * g_);
 191              		.loc 4 225 8 view .LVU37
 192 0030 6061     		str	r0, [r4, #20]	@ float
 193              		.loc 4 226 8 view .LVU38
 194 0032 A161     		str	r1, [r4, #24]	@ float
 195              	.LVL7:
 196              		.loc 4 226 8 view .LVU39
 197              	.LBE175:
 198              	.LBE183:
 199              	.LBE190:
 184:mi/stmlib/dsp/filter.h ****   }
 200              		.loc 4 184 5 is_stmt 1 view .LVU40
 201              	.LBB191:
 202              	.LBB184:
 203              	.LBI176:
 187:mi/stmlib/dsp/filter.h ****     state_1_ = state_2_ = 0.0f;
 204              		.loc 4 187 8 view .LVU41
 205              	.LBB179:
 188:mi/stmlib/dsp/filter.h ****   }
 206              		.loc 4 188 5 view .LVU42
 188:mi/stmlib/dsp/filter.h ****   }
 207              		.loc 4 188 14 is_stmt 0 view .LVU43
 208 0034 E361     		str	r3, [r4, #28]	@ float
 209              	.LVL8:
 188:mi/stmlib/dsp/filter.h ****   }
 210              		.loc 4 188 14 view .LVU44
 211              	.LBE179:
 212              	.LBE184:
 213              	.LBE191:
  57:mi/plaits/dsp/physical_modelling/string.cpp ****   dc_blocker_.Init(1.0f - 20.0f / kSampleRate);
 214              		.loc 1 57 3 is_stmt 1 view .LVU45
 215              	.LBB192:
 216              	.LBI185:
  67:mi/stmlib/dsp/filter.h ****     x_ = 0.0f;
 217              		.loc 4 67 8 view .LVU46
 218              	.LBB187:
  68:mi/stmlib/dsp/filter.h ****     y_ = 0.0f;
 219              		.loc 4 68 5 view .LVU47
  68:mi/stmlib/dsp/filter.h ****     y_ = 0.0f;
 220              		.loc 4 68 8 is_stmt 0 view .LVU48
 221 0036 A362     		str	r3, [r4, #40]	@ float
  69:mi/stmlib/dsp/filter.h ****     pole_ = pole;
 222              		.loc 4 69 5 is_stmt 1 view .LVU49
  69:mi/stmlib/dsp/filter.h ****     pole_ = pole;
 223              		.loc 4 69 8 is_stmt 0 view .LVU50
 224 0038 E362     		str	r3, [r4, #44]	@ float
  70:mi/stmlib/dsp/filter.h ****   }
 225              		.loc 4 70 5 is_stmt 1 view .LVU51
  70:mi/stmlib/dsp/filter.h ****   }
 226              		.loc 4 70 11 is_stmt 0 view .LVU52
 227 003a 6262     		str	r2, [r4, #36]	@ float
 228              	.LVL9:
  70:mi/stmlib/dsp/filter.h ****   }
 229              		.loc 4 70 11 view .LVU53
 230              	.LBE187:
 231              	.LBE192:
  58:mi/plaits/dsp/physical_modelling/string.cpp ****   dispersion_noise_ = 0.0f;
ARM GAS  /var/folders/9k/zk1mgrrd7wg4__6zvxvr9w8m0000gn/T//ccXXoDHF.s 			page 28


 232              		.loc 1 58 3 is_stmt 1 view .LVU54
 233              		.loc 1 58 21 is_stmt 0 view .LVU55
 234 003c 6363     		str	r3, [r4, #52]	@ float
  59:mi/plaits/dsp/physical_modelling/string.cpp ****   curved_bridge_ = 0.0f;
 235              		.loc 1 59 3 is_stmt 1 view .LVU56
 236              		.loc 1 59 18 is_stmt 0 view .LVU57
 237 003e A363     		str	r3, [r4, #56]	@ float
  60:mi/plaits/dsp/physical_modelling/string.cpp ****   out_sample_[0] = out_sample_[1] = 0.0f;
 238              		.loc 1 60 3 is_stmt 1 view .LVU58
 239              		.loc 1 60 35 is_stmt 0 view .LVU59
 240 0040 6364     		str	r3, [r4, #68]	@ float
 241              		.loc 1 60 18 view .LVU60
 242 0042 2364     		str	r3, [r4, #64]	@ float
  61:mi/plaits/dsp/physical_modelling/string.cpp ****   src_phase_ = 0.0f;
 243              		.loc 1 61 3 is_stmt 1 view .LVU61
 244              		.loc 1 61 14 is_stmt 0 view .LVU62
 245 0044 E363     		str	r3, [r4, #60]	@ float
  62:mi/plaits/dsp/physical_modelling/string.cpp **** }
 246              		.loc 1 62 1 view .LVU63
 247 0046 38BD     		pop	{r3, r4, r5, pc}
 248              	.LVL10:
 249              	.L5:
 250              		.loc 1 62 1 view .LVU64
 251              		.align	2
 252              	.L4:
 253 0048 22BA003D 		.word	1023457826
 254 004c 0AD7233C 		.word	1008981770
 255 0050 CAAA7F3F 		.word	1065331402
 256 0054 B1E47F3F 		.word	1065346225
 257              		.cfi_endproc
 258              	.LFE1546:
 260              		.section	.text._ZN6plaits6String4InitEPN6stmlib15BufferAllocatorE,"ax",%progbits
 261              		.align	1
 262              		.p2align 2,,3
 263              		.global	_ZN6plaits6String4InitEPN6stmlib15BufferAllocatorE
 264              		.syntax unified
 265              		.thumb
 266              		.thumb_func
 268              	_ZN6plaits6String4InitEPN6stmlib15BufferAllocatorE:
 269              	.LVL11:
 270              	.LFB1545:
  46:mi/plaits/dsp/physical_modelling/string.cpp ****   string_.Init(allocator->Allocate<float>(kDelayLineSize));
 271              		.loc 1 46 47 is_stmt 1 view -0
 272              		.cfi_startproc
 273              		@ args = 0, pretend = 0, frame = 0
 274              		@ frame_needed = 0, uses_anonymous_args = 0
  47:mi/plaits/dsp/physical_modelling/string.cpp ****   stretch_.Init(allocator->Allocate<float>(kDelayLineSize / 4));
 275              		.loc 1 47 3 view .LVU66
  46:mi/plaits/dsp/physical_modelling/string.cpp ****   string_.Init(allocator->Allocate<float>(kDelayLineSize));
 276              		.loc 1 46 47 is_stmt 0 view .LVU67
 277 0000 70B5     		push	{r4, r5, r6, lr}
 278              		.cfi_def_cfa_offset 16
 279              		.cfi_offset 4, -16
 280              		.cfi_offset 5, -12
 281              		.cfi_offset 6, -8
 282              		.cfi_offset 14, -4
 283              	.LBB193:
ARM GAS  /var/folders/9k/zk1mgrrd7wg4__6zvxvr9w8m0000gn/T//ccXXoDHF.s 			page 29


 284              	.LBB194:
 285              	.LBB195:
 286              		.file 5 "mi/stmlib/utils/buffer_allocator.h"
   1:mi/stmlib/utils/buffer_allocator.h **** // Copyright 2014 Emilie Gillet.
   2:mi/stmlib/utils/buffer_allocator.h **** //
   3:mi/stmlib/utils/buffer_allocator.h **** // Author: Emilie Gillet (emilie.o.gillet@gmail.com)
   4:mi/stmlib/utils/buffer_allocator.h **** //
   5:mi/stmlib/utils/buffer_allocator.h **** // Permission is hereby granted, free of charge, to any person obtaining a copy
   6:mi/stmlib/utils/buffer_allocator.h **** // of this software and associated documentation files (the "Software"), to deal
   7:mi/stmlib/utils/buffer_allocator.h **** // in the Software without restriction, including without limitation the rights
   8:mi/stmlib/utils/buffer_allocator.h **** // to use, copy, modify, merge, publish, distribute, sublicense, and/or sell
   9:mi/stmlib/utils/buffer_allocator.h **** // copies of the Software, and to permit persons to whom the Software is
  10:mi/stmlib/utils/buffer_allocator.h **** // furnished to do so, subject to the following conditions:
  11:mi/stmlib/utils/buffer_allocator.h **** // 
  12:mi/stmlib/utils/buffer_allocator.h **** // The above copyright notice and this permission notice shall be included in
  13:mi/stmlib/utils/buffer_allocator.h **** // all copies or substantial portions of the Software.
  14:mi/stmlib/utils/buffer_allocator.h **** // 
  15:mi/stmlib/utils/buffer_allocator.h **** // THE SOFTWARE IS PROVIDED "AS IS", WITHOUT WARRANTY OF ANY KIND, EXPRESS OR
  16:mi/stmlib/utils/buffer_allocator.h **** // IMPLIED, INCLUDING BUT NOT LIMITED TO THE WARRANTIES OF MERCHANTABILITY,
  17:mi/stmlib/utils/buffer_allocator.h **** // FITNESS FOR A PARTICULAR PURPOSE AND NONINFRINGEMENT. IN NO EVENT SHALL THE
  18:mi/stmlib/utils/buffer_allocator.h **** // AUTHORS OR COPYRIGHT HOLDERS BE LIABLE FOR ANY CLAIM, DAMAGES OR OTHER
  19:mi/stmlib/utils/buffer_allocator.h **** // LIABILITY, WHETHER IN AN ACTION OF CONTRACT, TORT OR OTHERWISE, ARISING FROM,
  20:mi/stmlib/utils/buffer_allocator.h **** // OUT OF OR IN CONNECTION WITH THE SOFTWARE OR THE USE OR OTHER DEALINGS IN
  21:mi/stmlib/utils/buffer_allocator.h **** // THE SOFTWARE.
  22:mi/stmlib/utils/buffer_allocator.h **** // 
  23:mi/stmlib/utils/buffer_allocator.h **** // See http://creativecommons.org/licenses/MIT/ for more information.
  24:mi/stmlib/utils/buffer_allocator.h **** //
  25:mi/stmlib/utils/buffer_allocator.h **** // -----------------------------------------------------------------------------
  26:mi/stmlib/utils/buffer_allocator.h **** //
  27:mi/stmlib/utils/buffer_allocator.h **** // Stream buffer for serialization.
  28:mi/stmlib/utils/buffer_allocator.h **** 
  29:mi/stmlib/utils/buffer_allocator.h **** #ifndef STMLIB_UTILS_BUFFER_ALLOCATOR_H_
  30:mi/stmlib/utils/buffer_allocator.h **** #define STMLIB_UTILS_BUFFER_ALLOCATOR_H_
  31:mi/stmlib/utils/buffer_allocator.h **** 
  32:mi/stmlib/utils/buffer_allocator.h **** #include "stmlib/stmlib.h"
  33:mi/stmlib/utils/buffer_allocator.h **** 
  34:mi/stmlib/utils/buffer_allocator.h **** namespace stmlib {
  35:mi/stmlib/utils/buffer_allocator.h **** 
  36:mi/stmlib/utils/buffer_allocator.h **** class BufferAllocator {
  37:mi/stmlib/utils/buffer_allocator.h ****  public:
  38:mi/stmlib/utils/buffer_allocator.h ****   BufferAllocator() { }
  39:mi/stmlib/utils/buffer_allocator.h ****   ~BufferAllocator() { }
  40:mi/stmlib/utils/buffer_allocator.h ****   
  41:mi/stmlib/utils/buffer_allocator.h ****   BufferAllocator(void* buffer, size_t size) {
  42:mi/stmlib/utils/buffer_allocator.h ****     Init(buffer, size);
  43:mi/stmlib/utils/buffer_allocator.h ****   }
  44:mi/stmlib/utils/buffer_allocator.h ****   
  45:mi/stmlib/utils/buffer_allocator.h ****   inline void Init(void* buffer, size_t size) {
  46:mi/stmlib/utils/buffer_allocator.h ****     buffer_ = static_cast<uint8_t*>(buffer);
  47:mi/stmlib/utils/buffer_allocator.h ****     size_ = size;
  48:mi/stmlib/utils/buffer_allocator.h ****     Free();
  49:mi/stmlib/utils/buffer_allocator.h ****   }
  50:mi/stmlib/utils/buffer_allocator.h **** 
  51:mi/stmlib/utils/buffer_allocator.h ****   template<typename T>
  52:mi/stmlib/utils/buffer_allocator.h ****   inline T* Allocate() {
  53:mi/stmlib/utils/buffer_allocator.h ****     return Allocate<T>(1);
  54:mi/stmlib/utils/buffer_allocator.h ****   }
ARM GAS  /var/folders/9k/zk1mgrrd7wg4__6zvxvr9w8m0000gn/T//ccXXoDHF.s 			page 30


  55:mi/stmlib/utils/buffer_allocator.h ****   
  56:mi/stmlib/utils/buffer_allocator.h ****   template<typename T>
  57:mi/stmlib/utils/buffer_allocator.h ****   inline T* Allocate(size_t size) {
  58:mi/stmlib/utils/buffer_allocator.h ****     size_t size_bytes = sizeof(T) * size;
  59:mi/stmlib/utils/buffer_allocator.h ****     if (size_bytes <= free_) {
 287              		.loc 5 59 23 view .LVU68
 288 0002 8E68     		ldr	r6, [r1, #8]
 289              	.LBE195:
 290              	.LBE194:
 291              	.LBE193:
  46:mi/plaits/dsp/physical_modelling/string.cpp ****   string_.Init(allocator->Allocate<float>(kDelayLineSize));
 292              		.loc 1 46 47 view .LVU69
 293 0004 0D46     		mov	r5, r1
 294 0006 0446     		mov	r4, r0
 295              	.LVL12:
 296              	.LBB202:
 297              	.LBI193:
  57:mi/stmlib/utils/buffer_allocator.h ****     size_t size_bytes = sizeof(T) * size;
 298              		.loc 5 57 13 is_stmt 1 view .LVU70
 299              	.LBB200:
 300              	.LBB198:
 301              		.loc 5 59 5 is_stmt 0 view .LVU71
 302 0008 B6F5805F 		cmp	r6, #4096
 303 000c 25D3     		bcc	.L7
 304              	.LBB196:
  60:mi/stmlib/utils/buffer_allocator.h ****       T* start = static_cast<T*>(static_cast<void*>(next_));
 305              		.loc 5 60 10 view .LVU72
 306 000e 0868     		ldr	r0, [r1]
 307              	.LVL13:
  61:mi/stmlib/utils/buffer_allocator.h ****       next_ += size_bytes;
  62:mi/stmlib/utils/buffer_allocator.h ****       free_ -= size_bytes;
 308              		.loc 5 62 13 view .LVU73
 309 0010 A6F58056 		sub	r6, r6, #4096
  61:mi/stmlib/utils/buffer_allocator.h ****       next_ += size_bytes;
 310              		.loc 5 61 13 view .LVU74
 311 0014 00F58052 		add	r2, r0, #4096
 312              		.loc 5 62 13 view .LVU75
 313 0018 8E60     		str	r6, [r1, #8]
 314              	.LVL14:
 315              		.loc 5 62 13 view .LVU76
 316              	.LBE196:
 317              	.LBE198:
 318              	.LBE200:
 319              	.LBE202:
 320              	.LBB203:
 321              	.LBI203:
  44:mi/plaits/dsp/physical_modelling/delay_line.h ****     line_ = buffer;
 322              		.loc 2 44 8 is_stmt 1 view .LVU77
 323              	.LBE203:
 324              	.LBB223:
 325              	.LBB201:
 326              	.LBB199:
 327              	.LBB197:
  61:mi/stmlib/utils/buffer_allocator.h ****       next_ += size_bytes;
 328              		.loc 5 61 13 is_stmt 0 view .LVU78
 329 001a 0A60     		str	r2, [r1]
 330              	.LBE197:
ARM GAS  /var/folders/9k/zk1mgrrd7wg4__6zvxvr9w8m0000gn/T//ccXXoDHF.s 			page 31


 331              	.LBE199:
 332              	.LBE201:
 333              	.LBE223:
 334              	.LBB224:
 335              	.LBB204:
  45:mi/plaits/dsp/physical_modelling/delay_line.h ****     Reset();
 336              		.loc 2 45 11 view .LVU79
 337 001c 6060     		str	r0, [r4, #4]
 338              	.LVL15:
 339              	.LBB205:
 340              	.LBI205:
  49:mi/plaits/dsp/physical_modelling/delay_line.h ****     std::fill(&line_[0], &line_[max_delay], T(0));
 341              		.loc 2 49 8 is_stmt 1 view .LVU80
 342              	.LBB206:
 343              	.LBB207:
 344              	.LBI207:
 345              		.loc 3 937 5 view .LVU81
 346              	.LBB208:
 347              	.LBI208:
 913:/Library/DaisyToolchain/0.2.0/arm/arm-none-eabi/include/c++/10.3.1/bits/stl_algobase.h ****     { std::__fill_a1(__first, __last, __value); }
 348              		.loc 3 913 5 view .LVU82
 349              	.LBB209:
 350              	.LBI209:
 868:/Library/DaisyToolchain/0.2.0/arm/arm-none-eabi/include/c++/10.3.1/bits/stl_algobase.h **** 	      const _Tp& __value)
 351              		.loc 3 868 5 view .LVU83
 352              	.LBB210:
 872:/Library/DaisyToolchain/0.2.0/arm/arm-none-eabi/include/c++/10.3.1/bits/stl_algobase.h **** 	*__first = __tmp;
 353              		.loc 3 872 22 view .LVU84
 354              	.L10:
 873:/Library/DaisyToolchain/0.2.0/arm/arm-none-eabi/include/c++/10.3.1/bits/stl_algobase.h ****     }
 355              		.loc 3 873 11 is_stmt 0 view .LVU85
 356 001e 121A     		subs	r2, r2, r0
 357 0020 0021     		movs	r1, #0
 358              	.LVL16:
 873:/Library/DaisyToolchain/0.2.0/arm/arm-none-eabi/include/c++/10.3.1/bits/stl_algobase.h ****     }
 359              		.loc 3 873 11 view .LVU86
 360 0022 FFF7FEFF 		bl	memset
 361              	.LVL17:
 873:/Library/DaisyToolchain/0.2.0/arm/arm-none-eabi/include/c++/10.3.1/bits/stl_algobase.h ****     }
 362              		.loc 3 873 11 view .LVU87
 363              	.LBE210:
 364              	.LBE209:
 365              	.LBE208:
 366              	.LBE207:
 367              		.loc 2 51 16 view .LVU88
 368 0026 0023     		movs	r3, #0
 369              	.LBE206:
 370              	.LBE205:
 371              	.LBE204:
 372              	.LBE224:
 373              	.LBB225:
 374              	.LBB226:
 375              	.LBB227:
  59:mi/stmlib/utils/buffer_allocator.h ****       T* start = static_cast<T*>(static_cast<void*>(next_));
 376              		.loc 5 59 5 view .LVU89
 377 0028 B6F5806F 		cmp	r6, #1024
 378              	.LBE227:
ARM GAS  /var/folders/9k/zk1mgrrd7wg4__6zvxvr9w8m0000gn/T//ccXXoDHF.s 			page 32


 379              	.LBE226:
 380              	.LBE225:
 381              	.LBB236:
 382              	.LBB221:
 383              	.LBB218:
 384              	.LBB215:
 385              		.loc 2 51 16 view .LVU90
 386 002c 2360     		str	r3, [r4]
 387              	.LVL18:
 388              		.loc 2 51 16 view .LVU91
 389              	.LBE215:
 390              	.LBE218:
 391              	.LBE221:
 392              	.LBE236:
  48:mi/plaits/dsp/physical_modelling/string.cpp ****   delay_ = 100.0f;
 393              		.loc 1 48 3 is_stmt 1 view .LVU92
 394              	.LBB237:
 395              	.LBI225:
  57:mi/stmlib/utils/buffer_allocator.h ****     size_t size_bytes = sizeof(T) * size;
 396              		.loc 5 57 13 view .LVU93
 397              	.LBB233:
 398              	.LBB230:
  59:mi/stmlib/utils/buffer_allocator.h ****       T* start = static_cast<T*>(static_cast<void*>(next_));
 399              		.loc 5 59 5 is_stmt 0 view .LVU94
 400 002e 19D3     		bcc	.L8
 401              	.LBB228:
  60:mi/stmlib/utils/buffer_allocator.h ****       next_ += size_bytes;
 402              		.loc 5 60 10 view .LVU95
 403 0030 2868     		ldr	r0, [r5]
 404              	.LVL19:
 405              		.loc 5 62 13 view .LVU96
 406 0032 A6F58066 		sub	r6, r6, #1024
  61:mi/stmlib/utils/buffer_allocator.h ****       free_ -= size_bytes;
 407              		.loc 5 61 13 view .LVU97
 408 0036 00F58062 		add	r2, r0, #1024
 409              		.loc 5 62 13 view .LVU98
 410 003a AE60     		str	r6, [r5, #8]
 411              	.LVL20:
 412              		.loc 5 62 13 view .LVU99
 413              	.LBE228:
 414              	.LBE230:
 415              	.LBE233:
 416              	.LBE237:
 417              	.LBB238:
 418              	.LBI238:
  44:mi/plaits/dsp/physical_modelling/delay_line.h ****     line_ = buffer;
 419              		.loc 2 44 8 is_stmt 1 view .LVU100
 420              	.LBE238:
 421              	.LBB259:
 422              	.LBB234:
 423              	.LBB231:
 424              	.LBB229:
  61:mi/stmlib/utils/buffer_allocator.h ****       free_ -= size_bytes;
 425              		.loc 5 61 13 is_stmt 0 view .LVU101
 426 003c 2A60     		str	r2, [r5]
 427              	.LBE229:
 428              	.LBE231:
ARM GAS  /var/folders/9k/zk1mgrrd7wg4__6zvxvr9w8m0000gn/T//ccXXoDHF.s 			page 33


 429              	.LBE234:
 430              	.LBE259:
 431              	.LBB260:
 432              	.LBB239:
  45:mi/plaits/dsp/physical_modelling/delay_line.h ****     Reset();
 433              		.loc 2 45 11 view .LVU102
 434 003e E060     		str	r0, [r4, #12]
 435              	.LVL21:
 436              	.LBB240:
 437              	.LBI240:
  49:mi/plaits/dsp/physical_modelling/delay_line.h ****     std::fill(&line_[0], &line_[max_delay], T(0));
 438              		.loc 2 49 8 is_stmt 1 view .LVU103
 439              	.LBB241:
 440              	.LBB242:
 441              	.LBI242:
 442              		.loc 3 937 5 view .LVU104
 443              	.LBB243:
 444              	.LBI243:
 913:/Library/DaisyToolchain/0.2.0/arm/arm-none-eabi/include/c++/10.3.1/bits/stl_algobase.h ****     { std::__fill_a1(__first, __last, __value); }
 445              		.loc 3 913 5 view .LVU105
 446              	.LBB244:
 447              	.LBI244:
 868:/Library/DaisyToolchain/0.2.0/arm/arm-none-eabi/include/c++/10.3.1/bits/stl_algobase.h **** 	      const _Tp& __value)
 448              		.loc 3 868 5 view .LVU106
 449              	.LBB245:
 872:/Library/DaisyToolchain/0.2.0/arm/arm-none-eabi/include/c++/10.3.1/bits/stl_algobase.h **** 	*__first = __tmp;
 450              		.loc 3 872 22 view .LVU107
 451              	.L9:
 873:/Library/DaisyToolchain/0.2.0/arm/arm-none-eabi/include/c++/10.3.1/bits/stl_algobase.h ****     }
 452              		.loc 3 873 11 is_stmt 0 view .LVU108
 453 0040 121A     		subs	r2, r2, r0
 454 0042 0021     		movs	r1, #0
 455 0044 FFF7FEFF 		bl	memset
 456              	.LVL22:
 873:/Library/DaisyToolchain/0.2.0/arm/arm-none-eabi/include/c++/10.3.1/bits/stl_algobase.h ****     }
 457              		.loc 3 873 11 view .LVU109
 458              	.LBE245:
 459              	.LBE244:
 460              	.LBE243:
 461              	.LBE242:
 462              		.loc 2 51 16 view .LVU110
 463 0048 0022     		movs	r2, #0
 464              	.LBE241:
 465              	.LBE240:
 466              	.LBE239:
 467              	.LBE260:
  49:mi/plaits/dsp/physical_modelling/string.cpp ****   Reset();
 468              		.loc 1 49 10 view .LVU111
 469 004a 094B     		ldr	r3, .L12
  50:mi/plaits/dsp/physical_modelling/string.cpp **** }
 470              		.loc 1 50 8 view .LVU112
 471 004c 2046     		mov	r0, r4
 472              	.LBB261:
 473              	.LBB256:
 474              	.LBB253:
 475              	.LBB250:
 476              		.loc 2 51 16 view .LVU113
ARM GAS  /var/folders/9k/zk1mgrrd7wg4__6zvxvr9w8m0000gn/T//ccXXoDHF.s 			page 34


 477 004e A260     		str	r2, [r4, #8]
 478              	.LVL23:
 479              		.loc 2 51 16 view .LVU114
 480              	.LBE250:
 481              	.LBE253:
 482              	.LBE256:
 483              	.LBE261:
  49:mi/plaits/dsp/physical_modelling/string.cpp ****   Reset();
 484              		.loc 1 49 3 is_stmt 1 view .LVU115
  49:mi/plaits/dsp/physical_modelling/string.cpp ****   Reset();
 485              		.loc 1 49 10 is_stmt 0 view .LVU116
 486 0050 2363     		str	r3, [r4, #48]	@ float
  50:mi/plaits/dsp/physical_modelling/string.cpp **** }
 487              		.loc 1 50 3 is_stmt 1 view .LVU117
  51:mi/plaits/dsp/physical_modelling/string.cpp **** 
 488              		.loc 1 51 1 is_stmt 0 view .LVU118
 489 0052 BDE87040 		pop	{r4, r5, r6, lr}
 490              		.cfi_remember_state
 491              		.cfi_restore 14
 492              		.cfi_restore 6
 493              		.cfi_restore 5
 494              		.cfi_restore 4
 495              		.cfi_def_cfa_offset 0
 496              	.LVL24:
  50:mi/plaits/dsp/physical_modelling/string.cpp **** }
 497              		.loc 1 50 8 view .LVU119
 498 0056 FFF7FEBF 		b	_ZN6plaits6String5ResetEv
 499              	.LVL25:
 500              	.L7:
 501              		.cfi_restore_state
 502              	.LBB262:
  44:mi/plaits/dsp/physical_modelling/delay_line.h ****     line_ = buffer;
 503              		.loc 2 44 8 is_stmt 1 view .LVU120
 504              	.LBB222:
  45:mi/plaits/dsp/physical_modelling/delay_line.h ****     Reset();
 505              		.loc 2 45 11 is_stmt 0 view .LVU121
 506 005a 0020     		movs	r0, #0
 507              	.LVL26:
 508              	.LBB219:
 509              	.LBB216:
  50:mi/plaits/dsp/physical_modelling/delay_line.h ****     write_ptr_ = 0;
 510              		.loc 2 50 14 view .LVU122
 511 005c 4FF48052 		mov	r2, #4096
 512              	.LBE216:
 513              	.LBE219:
  45:mi/plaits/dsp/physical_modelling/delay_line.h ****     Reset();
 514              		.loc 2 45 11 view .LVU123
 515 0060 6060     		str	r0, [r4, #4]
 516              	.LVL27:
 517              	.LBB220:
  49:mi/plaits/dsp/physical_modelling/delay_line.h ****     std::fill(&line_[0], &line_[max_delay], T(0));
 518              		.loc 2 49 8 is_stmt 1 view .LVU124
 519              	.LBB217:
 520              	.LBB214:
 521              		.loc 3 937 5 view .LVU125
 522              	.LBB213:
 913:/Library/DaisyToolchain/0.2.0/arm/arm-none-eabi/include/c++/10.3.1/bits/stl_algobase.h ****     { std::__fill_a1(__first, __last, __value); }
ARM GAS  /var/folders/9k/zk1mgrrd7wg4__6zvxvr9w8m0000gn/T//ccXXoDHF.s 			page 35


 523              		.loc 3 913 5 view .LVU126
 524              	.LBB212:
 868:/Library/DaisyToolchain/0.2.0/arm/arm-none-eabi/include/c++/10.3.1/bits/stl_algobase.h **** 	      const _Tp& __value)
 525              		.loc 3 868 5 view .LVU127
 526              	.LBB211:
 872:/Library/DaisyToolchain/0.2.0/arm/arm-none-eabi/include/c++/10.3.1/bits/stl_algobase.h **** 	*__first = __tmp;
 527              		.loc 3 872 22 view .LVU128
 528 0062 DCE7     		b	.L10
 529              	.LVL28:
 530              	.L8:
 872:/Library/DaisyToolchain/0.2.0/arm/arm-none-eabi/include/c++/10.3.1/bits/stl_algobase.h **** 	*__first = __tmp;
 531              		.loc 3 872 22 is_stmt 0 view .LVU129
 532              	.LBE211:
 533              	.LBE212:
 534              	.LBE213:
 535              	.LBE214:
 536              	.LBE217:
 537              	.LBE220:
 538              	.LBE222:
 539              	.LBE262:
 540              	.LBB263:
  44:mi/plaits/dsp/physical_modelling/delay_line.h ****     line_ = buffer;
 541              		.loc 2 44 8 is_stmt 1 view .LVU130
 542              	.LBB257:
 543              	.LBB254:
 544              	.LBB251:
  50:mi/plaits/dsp/physical_modelling/delay_line.h ****     write_ptr_ = 0;
 545              		.loc 2 50 14 is_stmt 0 view .LVU131
 546 0064 4FF48062 		mov	r2, #1024
 547              	.LBE251:
 548              	.LBE254:
 549              	.LBE257:
 550              	.LBE263:
 551              	.LBB264:
 552              	.LBB235:
 553              	.LBB232:
  63:mi/stmlib/utils/buffer_allocator.h ****       return start;
  64:mi/stmlib/utils/buffer_allocator.h ****     } else {
  65:mi/stmlib/utils/buffer_allocator.h ****       return NULL;
 554              		.loc 5 65 14 view .LVU132
 555 0068 1846     		mov	r0, r3
 556              	.LBE232:
 557              	.LBE235:
 558              	.LBE264:
 559              	.LBB265:
 560              	.LBB258:
  45:mi/plaits/dsp/physical_modelling/delay_line.h ****     Reset();
 561              		.loc 2 45 11 view .LVU133
 562 006a E360     		str	r3, [r4, #12]
 563              	.LVL29:
 564              	.LBB255:
  49:mi/plaits/dsp/physical_modelling/delay_line.h ****     std::fill(&line_[0], &line_[max_delay], T(0));
 565              		.loc 2 49 8 is_stmt 1 view .LVU134
 566              	.LBB252:
 567              	.LBB249:
 568              		.loc 3 937 5 view .LVU135
 569              	.LBB248:
ARM GAS  /var/folders/9k/zk1mgrrd7wg4__6zvxvr9w8m0000gn/T//ccXXoDHF.s 			page 36


 913:/Library/DaisyToolchain/0.2.0/arm/arm-none-eabi/include/c++/10.3.1/bits/stl_algobase.h ****     { std::__fill_a1(__first, __last, __value); }
 570              		.loc 3 913 5 view .LVU136
 571              	.LBB247:
 868:/Library/DaisyToolchain/0.2.0/arm/arm-none-eabi/include/c++/10.3.1/bits/stl_algobase.h **** 	      const _Tp& __value)
 572              		.loc 3 868 5 view .LVU137
 573              	.LBB246:
 872:/Library/DaisyToolchain/0.2.0/arm/arm-none-eabi/include/c++/10.3.1/bits/stl_algobase.h **** 	*__first = __tmp;
 574              		.loc 3 872 22 view .LVU138
 575 006c E8E7     		b	.L9
 576              	.L13:
 577 006e 00BF     		.align	2
 578              	.L12:
 579 0070 0000C842 		.word	1120403456
 580              	.LBE246:
 581              	.LBE247:
 582              	.LBE248:
 583              	.LBE249:
 584              	.LBE252:
 585              	.LBE255:
 586              	.LBE258:
 587              	.LBE265:
 588              		.cfi_endproc
 589              	.LFE1545:
 591              		.section	.text._ZN6plaits6String15ProcessInternalILNS_18StringNonLinearityE0EEEvffffPKfPfj,"axG",%
 592              		.align	1
 593              		.p2align 2,,3
 594              		.weak	_ZN6plaits6String15ProcessInternalILNS_18StringNonLinearityE0EEEvffffPKfPfj
 595              		.syntax unified
 596              		.thumb
 597              		.thumb_func
 599              	_ZN6plaits6String15ProcessInternalILNS_18StringNonLinearityE0EEEvffffPKfPfj:
 600              	.LVL30:
 601              	.LFB1569:
  63:mi/plaits/dsp/physical_modelling/string.cpp **** 
  64:mi/plaits/dsp/physical_modelling/string.cpp **** void String::Process(
  65:mi/plaits/dsp/physical_modelling/string.cpp ****     float f0,
  66:mi/plaits/dsp/physical_modelling/string.cpp ****     float non_linearity_amount,
  67:mi/plaits/dsp/physical_modelling/string.cpp ****     float brightness,
  68:mi/plaits/dsp/physical_modelling/string.cpp ****     float damping,
  69:mi/plaits/dsp/physical_modelling/string.cpp ****     const float* in,
  70:mi/plaits/dsp/physical_modelling/string.cpp ****     float* out,
  71:mi/plaits/dsp/physical_modelling/string.cpp ****     size_t size) {
  72:mi/plaits/dsp/physical_modelling/string.cpp ****   if (non_linearity_amount <= 0.0f) {
  73:mi/plaits/dsp/physical_modelling/string.cpp ****     ProcessInternal<STRING_NON_LINEARITY_CURVED_BRIDGE>(
  74:mi/plaits/dsp/physical_modelling/string.cpp ****         f0, -non_linearity_amount, brightness, damping, in, out, size);
  75:mi/plaits/dsp/physical_modelling/string.cpp ****   } else {
  76:mi/plaits/dsp/physical_modelling/string.cpp ****     ProcessInternal<STRING_NON_LINEARITY_DISPERSION>(
  77:mi/plaits/dsp/physical_modelling/string.cpp ****         f0, non_linearity_amount, brightness, damping, in, out, size);
  78:mi/plaits/dsp/physical_modelling/string.cpp ****   }
  79:mi/plaits/dsp/physical_modelling/string.cpp **** }
  80:mi/plaits/dsp/physical_modelling/string.cpp **** 
  81:mi/plaits/dsp/physical_modelling/string.cpp **** template<StringNonLinearity non_linearity>
  82:mi/plaits/dsp/physical_modelling/string.cpp **** void String::ProcessInternal(
 602              		.loc 1 82 6 view -0
 603              		.cfi_startproc
 604              		@ args = 0, pretend = 0, frame = 0
 605              		@ frame_needed = 0, uses_anonymous_args = 0
ARM GAS  /var/folders/9k/zk1mgrrd7wg4__6zvxvr9w8m0000gn/T//ccXXoDHF.s 			page 37


  83:mi/plaits/dsp/physical_modelling/string.cpp ****     float f0,
  84:mi/plaits/dsp/physical_modelling/string.cpp ****     float non_linearity_amount,
  85:mi/plaits/dsp/physical_modelling/string.cpp ****     float brightness,
  86:mi/plaits/dsp/physical_modelling/string.cpp ****     float damping,
  87:mi/plaits/dsp/physical_modelling/string.cpp ****     const float* in,
  88:mi/plaits/dsp/physical_modelling/string.cpp ****     float* out,
  89:mi/plaits/dsp/physical_modelling/string.cpp ****     size_t size) {
  90:mi/plaits/dsp/physical_modelling/string.cpp ****   float delay = 1.0f / f0;
 606              		.loc 1 90 9 is_stmt 0 view .LVU140
 607 0000 F7EE006A 		vmov.f32	s13, #1.0e+0
  91:mi/plaits/dsp/physical_modelling/string.cpp ****   CONSTRAIN(delay, 4.0f, kDelayLineSize - 4.0f);
 608              		.loc 1 91 3 view .LVU141
 609 0004 B1EE007A 		vmov.f32	s14, #4.0e+0
  90:mi/plaits/dsp/physical_modelling/string.cpp ****   CONSTRAIN(delay, 4.0f, kDelayLineSize - 4.0f);
 610              		.loc 1 90 9 view .LVU142
 611 0008 86EE806A 		vdiv.f32	s12, s13, s0
 612              	.LVL31:
  82:mi/plaits/dsp/physical_modelling/string.cpp ****     float f0,
 613              		.loc 1 82 6 view .LVU143
 614 000c F0B5     		push	{r4, r5, r6, r7, lr}
 615              		.cfi_def_cfa_offset 20
 616              		.cfi_offset 4, -20
 617              		.cfi_offset 5, -16
 618              		.cfi_offset 6, -12
 619              		.cfi_offset 7, -8
 620              		.cfi_offset 14, -4
 621              		.loc 1 91 3 view .LVU144
 622 000e B4EEC76A 		vcmpe.f32	s12, s14
 623 0012 F1EE10FA 		vmrs	APSR_nzcv, FPSCR
 624 0016 00F1A181 		bmi	.L30
 625              		.loc 1 91 3 discriminator 2 view .LVU145
 626 001a DFEDD57A 		vldr.32	s15, .L44
 627 001e B4EE676A 		vcmp.f32	s12, s15
 628 0022 F1EE10FA 		vmrs	APSR_nzcv, FPSCR
 629 0026 37FE866A 		vselgt.f32	s12, s15, s12
 630              	.LVL32:
 631              	.L15:
  92:mi/plaits/dsp/physical_modelling/string.cpp ****   
  93:mi/plaits/dsp/physical_modelling/string.cpp ****   // If there is not enough delay time in the delay line, we play at the
  94:mi/plaits/dsp/physical_modelling/string.cpp ****   // lowest possible note and we upsample on the fly with a shitty linear
  95:mi/plaits/dsp/physical_modelling/string.cpp ****   // interpolator. We don't care because it's a corner case (f0 < 11.7Hz)
  96:mi/plaits/dsp/physical_modelling/string.cpp ****   float src_ratio = delay * f0;
 632              		.loc 1 96 9 view .LVU146
 633 002a 20EE064A 		vmul.f32	s8, s0, s12
 634              	.LVL33:
  97:mi/plaits/dsp/physical_modelling/string.cpp ****   if (src_ratio >= 0.9999f) {
 635              		.loc 1 97 3 view .LVU147
 636 002e DFEDD17A 		vldr.32	s15, .L44+4
 637 0032 B4EEE74A 		vcmpe.f32	s8, s15
 638 0036 F1EE10FA 		vmrs	APSR_nzcv, FPSCR
 639 003a 05DB     		blt	.L17
  98:mi/plaits/dsp/physical_modelling/string.cpp ****     // When we are above 11.7 Hz, we make sure that the linear interpolator
  99:mi/plaits/dsp/physical_modelling/string.cpp ****     // does not get in the way.
 100:mi/plaits/dsp/physical_modelling/string.cpp ****     src_phase_ = 1.0f;
 640              		.loc 1 100 16 view .LVU148
 641 003c F7EE007A 		vmov.f32	s15, #1.0e+0
 101:mi/plaits/dsp/physical_modelling/string.cpp ****     src_ratio = 1.0f;
ARM GAS  /var/folders/9k/zk1mgrrd7wg4__6zvxvr9w8m0000gn/T//ccXXoDHF.s 			page 38


 642              		.loc 1 101 15 view .LVU149
 643 0040 B0EE674A 		vmov.f32	s8, s15
 644              	.LVL34:
 100:mi/plaits/dsp/physical_modelling/string.cpp ****     src_ratio = 1.0f;
 645              		.loc 1 100 16 view .LVU150
 646 0044 C0ED0F7A 		vstr.32	s15, [r0, #60]
 647              	.LVL35:
 648              	.L17:
 102:mi/plaits/dsp/physical_modelling/string.cpp ****   }
 103:mi/plaits/dsp/physical_modelling/string.cpp **** 
 104:mi/plaits/dsp/physical_modelling/string.cpp ****   float damping_cutoff = min(
 105:mi/plaits/dsp/physical_modelling/string.cpp ****       12.0f + damping * damping * 60.0f + brightness * 24.0f,
 649              		.loc 1 105 23 view .LVU151
 650 0048 21EEA15A 		vmul.f32	s10, s3, s3
 651              		.loc 1 105 13 view .LVU152
 652 004c DFEDCA5A 		vldr.32	s11, .L44+8
 653 0050 F2EE086A 		vmov.f32	s13, #1.2e+1
 654              	.LBB304:
 655              	.LBB305:
 235:/Library/DaisyToolchain/0.2.0/arm/arm-none-eabi/include/c++/10.3.1/bits/stl_algobase.h **** 	return __b;
 656              		.loc 3 235 7 view .LVU153
 657 0054 9FEDC97A 		vldr.32	s14, .L44+12
 658              	.LBE305:
 659              	.LBE304:
 660              		.loc 1 105 41 view .LVU154
 661 0058 F3EE087A 		vmov.f32	s15, #2.4e+1
 662              		.loc 1 105 13 view .LVU155
 663 005c E5EE256A 		vfma.f32	s13, s10, s11
 664              		.loc 1 105 41 view .LVU156
 665 0060 E1EE276A 		vfma.f32	s13, s2, s15
 666              	.LVL36:
 667              	.LBB308:
 668              	.LBI304:
 230:/Library/DaisyToolchain/0.2.0/arm/arm-none-eabi/include/c++/10.3.1/bits/stl_algobase.h ****     {
 669              		.loc 3 230 5 is_stmt 1 view .LVU157
 670              	.LBB306:
 235:/Library/DaisyToolchain/0.2.0/arm/arm-none-eabi/include/c++/10.3.1/bits/stl_algobase.h **** 	return __b;
 671              		.loc 3 235 7 is_stmt 0 view .LVU158
 672 0064 F4EEC76A 		vcmpe.f32	s13, s14
 673 0068 F1EE10FA 		vmrs	APSR_nzcv, FPSCR
 674 006c 00F37981 		bgt	.L31
 675              	.LBE306:
 676              	.LBE308:
 677              	.LBB309:
 678              	.LBB310:
 679              		.file 6 "mi/stmlib/dsp/units.h"
   1:mi/stmlib/dsp/units.h **** // Copyright 2014 Emilie Gillet.
   2:mi/stmlib/dsp/units.h **** //
   3:mi/stmlib/dsp/units.h **** // Author: Emilie Gillet (emilie.o.gillet@gmail.com)
   4:mi/stmlib/dsp/units.h **** //
   5:mi/stmlib/dsp/units.h **** // Permission is hereby granted, free of charge, to any person obtaining a copy
   6:mi/stmlib/dsp/units.h **** // of this software and associated documentation files (the "Software"), to deal
   7:mi/stmlib/dsp/units.h **** // in the Software without restriction, including without limitation the rights
   8:mi/stmlib/dsp/units.h **** // to use, copy, modify, merge, publish, distribute, sublicense, and/or sell
   9:mi/stmlib/dsp/units.h **** // copies of the Software, and to permit persons to whom the Software is
  10:mi/stmlib/dsp/units.h **** // furnished to do so, subject to the following conditions:
  11:mi/stmlib/dsp/units.h **** // 
ARM GAS  /var/folders/9k/zk1mgrrd7wg4__6zvxvr9w8m0000gn/T//ccXXoDHF.s 			page 39


  12:mi/stmlib/dsp/units.h **** // The above copyright notice and this permission notice shall be included in
  13:mi/stmlib/dsp/units.h **** // all copies or substantial portions of the Software.
  14:mi/stmlib/dsp/units.h **** // 
  15:mi/stmlib/dsp/units.h **** // THE SOFTWARE IS PROVIDED "AS IS", WITHOUT WARRANTY OF ANY KIND, EXPRESS OR
  16:mi/stmlib/dsp/units.h **** // IMPLIED, INCLUDING BUT NOT LIMITED TO THE WARRANTIES OF MERCHANTABILITY,
  17:mi/stmlib/dsp/units.h **** // FITNESS FOR A PARTICULAR PURPOSE AND NONINFRINGEMENT. IN NO EVENT SHALL THE
  18:mi/stmlib/dsp/units.h **** // AUTHORS OR COPYRIGHT HOLDERS BE LIABLE FOR ANY CLAIM, DAMAGES OR OTHER
  19:mi/stmlib/dsp/units.h **** // LIABILITY, WHETHER IN AN ACTION OF CONTRACT, TORT OR OTHERWISE, ARISING FROM,
  20:mi/stmlib/dsp/units.h **** // OUT OF OR IN CONNECTION WITH THE SOFTWARE OR THE USE OR OTHER DEALINGS IN
  21:mi/stmlib/dsp/units.h **** // THE SOFTWARE.
  22:mi/stmlib/dsp/units.h **** // 
  23:mi/stmlib/dsp/units.h **** // See http://creativecommons.org/licenses/MIT/ for more information.
  24:mi/stmlib/dsp/units.h **** //
  25:mi/stmlib/dsp/units.h **** // -----------------------------------------------------------------------------
  26:mi/stmlib/dsp/units.h **** //
  27:mi/stmlib/dsp/units.h **** // Conversion from semitones to frequency ratio.
  28:mi/stmlib/dsp/units.h **** 
  29:mi/stmlib/dsp/units.h **** #ifndef STMLIB_DSP_UNITS_H_
  30:mi/stmlib/dsp/units.h **** #define STMLIB_DSP_UNITS_H_
  31:mi/stmlib/dsp/units.h **** 
  32:mi/stmlib/dsp/units.h **** #include "stmlib/stmlib.h"
  33:mi/stmlib/dsp/units.h **** #include "stmlib/dsp/dsp.h"
  34:mi/stmlib/dsp/units.h **** 
  35:mi/stmlib/dsp/units.h **** namespace stmlib {
  36:mi/stmlib/dsp/units.h **** 
  37:mi/stmlib/dsp/units.h **** extern const float lut_pitch_ratio_high[257];
  38:mi/stmlib/dsp/units.h **** extern const float lut_pitch_ratio_low[257];
  39:mi/stmlib/dsp/units.h **** 
  40:mi/stmlib/dsp/units.h **** inline float SemitonesToRatio(float semitones) {
  41:mi/stmlib/dsp/units.h ****   float pitch = semitones + 128.0f;
 680              		.loc 6 41 9 view .LVU159
 681 0070 9FEDC37A 		vldr.32	s14, .L44+16
 682 0074 36EE877A 		vadd.f32	s14, s13, s14
  42:mi/stmlib/dsp/units.h ****   MAKE_INTEGRAL_FRACTIONAL(pitch)
 683              		.loc 6 42 3 view .LVU160
 684 0078 FDEEC77A 		vcvt.s32.f32	s15, s14
 685 007c F8EEE75A 		vcvt.f32.s32	s11, s15
 686 0080 37EE657A 		vsub.f32	s14, s14, s11
  43:mi/stmlib/dsp/units.h **** 
  44:mi/stmlib/dsp/units.h ****   return lut_pitch_ratio_high[pitch_integral] * \
  45:mi/stmlib/dsp/units.h ****       lut_pitch_ratio_low[static_cast<int32_t>(pitch_fractional * 256.0f)];
 687              		.loc 6 45 27 view .LVU161
 688 0084 F0EE475A 		vmov.f32	s11, s14
 689 0088 FEEECC5A 		vcvt.s32.f32	s11, s11, #8
 690 008c 15EE904A 		vmov	r4, s11	@ int
 691              	.L19:
 692              	.LVL37:
 693              		.loc 6 45 27 view .LVU162
 694              	.LBE310:
 695              	.LBI309:
  40:mi/stmlib/dsp/units.h ****   float pitch = semitones + 128.0f;
 696              		.loc 6 40 14 is_stmt 1 view .LVU163
 697              	.LBB311:
  41:mi/stmlib/dsp/units.h ****   MAKE_INTEGRAL_FRACTIONAL(pitch)
 698              		.loc 6 41 3 view .LVU164
  42:mi/stmlib/dsp/units.h **** 
 699              		.loc 6 42 3 view .LVU165
ARM GAS  /var/folders/9k/zk1mgrrd7wg4__6zvxvr9w8m0000gn/T//ccXXoDHF.s 			page 40


  42:mi/stmlib/dsp/units.h **** 
 700              		.loc 6 42 3 view .LVU166
  44:mi/stmlib/dsp/units.h ****       lut_pitch_ratio_low[static_cast<int32_t>(pitch_fractional * 256.0f)];
 701              		.loc 6 44 3 view .LVU167
  44:mi/stmlib/dsp/units.h ****       lut_pitch_ratio_low[static_cast<int32_t>(pitch_fractional * 256.0f)];
 702              		.loc 6 44 45 is_stmt 0 view .LVU168
 703 0090 17EE906A 		vmov	r6, s15	@ int
 704 0094 BB4D     		ldr	r5, .L44+20
 705              	.LBE311:
 706              	.LBE309:
 707              	.LBB314:
 708              	.LBB315:
 235:/Library/DaisyToolchain/0.2.0/arm/arm-none-eabi/include/c++/10.3.1/bits/stl_algobase.h **** 	return __b;
 709              		.loc 3 235 7 view .LVU169
 710 0096 DFEDBC5A 		vldr.32	s11, .L44+24
 711              	.LBE315:
 712              	.LBE314:
 713              	.LBB318:
 714              	.LBB312:
  44:mi/stmlib/dsp/units.h ****       lut_pitch_ratio_low[static_cast<int32_t>(pitch_fractional * 256.0f)];
 715              		.loc 6 44 45 view .LVU170
 716 009a 05EB8605 		add	r5, r5, r6, lsl #2
 717              	.LBE312:
 718              	.LBE318:
 719              	.LBB319:
 106:mi/plaits/dsp/physical_modelling/string.cpp ****       84.0f);
 107:mi/plaits/dsp/physical_modelling/string.cpp ****   float damping_f = min(f0 * SemitonesToRatio(damping_cutoff), 0.499f);
 108:mi/plaits/dsp/physical_modelling/string.cpp ****   
 109:mi/plaits/dsp/physical_modelling/string.cpp ****   // Crossfade to infinite decay.
 110:mi/plaits/dsp/physical_modelling/string.cpp ****   if (damping >= 0.95f) {
 720              		.loc 1 110 3 view .LVU171
 721 009e 9FEDBB5A 		vldr.32	s10, .L44+28
 722              	.LBE319:
 723              	.LBB321:
 724              	.LBB313:
 725              		.loc 6 45 74 view .LVU172
 726 00a2 95ED007A 		vldr.32	s14, [r5]
 727 00a6 BA4D     		ldr	r5, .L44+32
 728 00a8 05EB8404 		add	r4, r5, r4, lsl #2
 729 00ac D4ED007A 		vldr.32	s15, [r4]
 730 00b0 27EE277A 		vmul.f32	s14, s14, s15
 731              	.LBE313:
 732              	.LBE321:
 107:mi/plaits/dsp/physical_modelling/string.cpp ****   
 733              		.loc 1 107 28 view .LVU173
 734 00b4 67EE007A 		vmul.f32	s15, s14, s0
 735              	.LVL38:
 736              	.LBB322:
 737              	.LBI314:
 230:/Library/DaisyToolchain/0.2.0/arm/arm-none-eabi/include/c++/10.3.1/bits/stl_algobase.h ****     {
 738              		.loc 3 230 5 is_stmt 1 view .LVU174
 739              	.LBB316:
 236:/Library/DaisyToolchain/0.2.0/arm/arm-none-eabi/include/c++/10.3.1/bits/stl_algobase.h ****       return __a;
 740              		.loc 3 236 9 is_stmt 0 view .LVU175
 741 00b8 F4EE657A 		vcmp.f32	s15, s11
 742 00bc F1EE10FA 		vmrs	APSR_nzcv, FPSCR
 743              	.LBE316:
ARM GAS  /var/folders/9k/zk1mgrrd7wg4__6zvxvr9w8m0000gn/T//ccXXoDHF.s 			page 41


 744              	.LBE322:
 745              	.LBB323:
 746              		.loc 1 110 3 view .LVU176
 747 00c0 F4EEC51A 		vcmpe.f32	s3, s10
 748              	.LBE323:
 749              	.LBB324:
 750              	.LBB317:
 236:/Library/DaisyToolchain/0.2.0/arm/arm-none-eabi/include/c++/10.3.1/bits/stl_algobase.h ****       return __a;
 751              		.loc 3 236 9 view .LVU177
 752 00c4 75FEA77A 		vselgt.f32	s15, s11, s15
 753              	.LVL39:
 236:/Library/DaisyToolchain/0.2.0/arm/arm-none-eabi/include/c++/10.3.1/bits/stl_algobase.h ****       return __a;
 754              		.loc 3 236 9 view .LVU178
 755              	.LBE317:
 756              	.LBE324:
 757              	.LBB325:
 758              		.loc 1 110 3 view .LVU179
 759 00c8 F1EE10FA 		vmrs	APSR_nzcv, FPSCR
 760 00cc 11DB     		blt	.L21
 761              	.LBB320:
 111:mi/plaits/dsp/physical_modelling/string.cpp ****     float to_infinite = 20.0f * (damping - 0.95f);
 762              		.loc 1 111 42 view .LVU180
 763 00ce 31EEC57A 		vsub.f32	s14, s3, s10
 112:mi/plaits/dsp/physical_modelling/string.cpp ****     brightness += to_infinite * (1.0f - brightness);
 113:mi/plaits/dsp/physical_modelling/string.cpp ****     damping_f += to_infinite * (0.4999f - damping_f);
 114:mi/plaits/dsp/physical_modelling/string.cpp ****     damping_cutoff += to_infinite * (128.0f - damping_cutoff);
 764              		.loc 1 114 45 view .LVU181
 765 00d2 DFEDAB5A 		vldr.32	s11, .L44+16
 111:mi/plaits/dsp/physical_modelling/string.cpp ****     float to_infinite = 20.0f * (damping - 0.95f);
 766              		.loc 1 111 11 view .LVU182
 767 00d6 F3EE044A 		vmov.f32	s9, #2.0e+1
 113:mi/plaits/dsp/physical_modelling/string.cpp ****     damping_cutoff += to_infinite * (128.0f - damping_cutoff);
 768              		.loc 1 113 41 view .LVU183
 769 00da 9FEDAE5A 		vldr.32	s10, .L44+36
 770              		.loc 1 114 45 view .LVU184
 771 00de 75EEE65A 		vsub.f32	s11, s11, s13
 113:mi/plaits/dsp/physical_modelling/string.cpp ****     damping_cutoff += to_infinite * (128.0f - damping_cutoff);
 772              		.loc 1 113 41 view .LVU185
 773 00e2 35EE675A 		vsub.f32	s10, s10, s15
 111:mi/plaits/dsp/physical_modelling/string.cpp ****     float to_infinite = 20.0f * (damping - 0.95f);
 774              		.loc 1 111 11 view .LVU186
 775 00e6 27EE247A 		vmul.f32	s14, s14, s9
 776              	.LVL40:
 113:mi/plaits/dsp/physical_modelling/string.cpp ****     damping_cutoff += to_infinite * (128.0f - damping_cutoff);
 777              		.loc 1 113 15 view .LVU187
 778 00ea E5EE077A 		vfma.f32	s15, s10, s14
 779              	.LVL41:
 780              		.loc 1 114 20 view .LVU188
 781 00ee E5EE876A 		vfma.f32	s13, s11, s14
 782              	.LVL42:
 783              	.L21:
 784              		.loc 1 114 20 view .LVU189
 785              	.LBE320:
 786              	.LBE325:
 787              	.LBB326:
 788              	.LBI326:
 223:mi/stmlib/dsp/filter.h ****     g_ = OnePole::tan<approximation>(f);
ARM GAS  /var/folders/9k/zk1mgrrd7wg4__6zvxvr9w8m0000gn/T//ccXXoDHF.s 			page 42


 789              		.loc 4 223 15 is_stmt 1 view .LVU190
 790              	.LBB327:
 791              	.LBB328:
 792              	.LBI328:
 107:mi/stmlib/dsp/filter.h ****     if (approximation == FREQUENCY_EXACT) {
 793              		.loc 4 107 23 view .LVU191
 794              	.LBB329:
 122:mi/stmlib/dsp/filter.h ****       return f * (M_PI_F + f2 * (a + b * f2));
 795              		.loc 4 122 13 is_stmt 0 view .LVU192
 796 00f2 67EEA72A 		vmul.f32	s5, s15, s15
 797              	.LVL43:
 123:mi/stmlib/dsp/filter.h ****     } else if (approximation == FREQUENCY_ACCURATE) {
 798              		.loc 4 123 36 view .LVU193
 799 00f6 9FEDA85A 		vldr.32	s10, .L44+40
 800 00fa DFEDA85A 		vldr.32	s11, .L44+44
 801              	.LBE329:
 802              	.LBE328:
 803              		.loc 4 226 23 view .LVU194
 804 00fe F7EE003A 		vmov.f32	s7, #1.0e+0
 805              	.LBB334:
 806              	.LBB330:
 123:mi/stmlib/dsp/filter.h ****     } else if (approximation == FREQUENCY_ACCURATE) {
 807              		.loc 4 123 26 view .LVU195
 808 0102 9FEDA77A 		vldr.32	s14, .L44+48
 809              	.LBE330:
 810              	.LBE334:
 225:mi/stmlib/dsp/filter.h ****     h_ = 1.0f / (1.0f + r_ * g_ + g_ * g_);
 811              		.loc 4 225 8 view .LVU196
 812 0106 B0EE003A 		vmov.f32	s6, #2.0e+0
 813              	.LBB335:
 814              	.LBB331:
 123:mi/stmlib/dsp/filter.h ****     } else if (approximation == FREQUENCY_ACCURATE) {
 815              		.loc 4 123 36 view .LVU197
 816 010a E2EE855A 		vfma.f32	s11, s5, s10
 817              	.LBE331:
 818              	.LBE335:
 819              	.LBE327:
 820              	.LBE326:
 821              	.LBB341:
 822              	.LBB342:
 823              		.file 7 "mi/stmlib/dsp/dsp.h"
   1:mi/stmlib/dsp/dsp.h **** // Copyright 2012 Emilie Gillet.
   2:mi/stmlib/dsp/dsp.h **** //
   3:mi/stmlib/dsp/dsp.h **** // Author: Emilie Gillet (emilie.o.gillet@gmail.com)
   4:mi/stmlib/dsp/dsp.h **** //
   5:mi/stmlib/dsp/dsp.h **** // Permission is hereby granted, free of charge, to any person obtaining a copy
   6:mi/stmlib/dsp/dsp.h **** // of this software and associated documentation files (the "Software"), to deal
   7:mi/stmlib/dsp/dsp.h **** // in the Software without restriction, including without limitation the rights
   8:mi/stmlib/dsp/dsp.h **** // to use, copy, modify, merge, publish, distribute, sublicense, and/or sell
   9:mi/stmlib/dsp/dsp.h **** // copies of the Software, and to permit persons to whom the Software is
  10:mi/stmlib/dsp/dsp.h **** // furnished to do so, subject to the following conditions:
  11:mi/stmlib/dsp/dsp.h **** // 
  12:mi/stmlib/dsp/dsp.h **** // The above copyright notice and this permission notice shall be included in
  13:mi/stmlib/dsp/dsp.h **** // all copies or substantial portions of the Software.
  14:mi/stmlib/dsp/dsp.h **** // 
  15:mi/stmlib/dsp/dsp.h **** // THE SOFTWARE IS PROVIDED "AS IS", WITHOUT WARRANTY OF ANY KIND, EXPRESS OR
  16:mi/stmlib/dsp/dsp.h **** // IMPLIED, INCLUDING BUT NOT LIMITED TO THE WARRANTIES OF MERCHANTABILITY,
ARM GAS  /var/folders/9k/zk1mgrrd7wg4__6zvxvr9w8m0000gn/T//ccXXoDHF.s 			page 43


  17:mi/stmlib/dsp/dsp.h **** // FITNESS FOR A PARTICULAR PURPOSE AND NONINFRINGEMENT. IN NO EVENT SHALL THE
  18:mi/stmlib/dsp/dsp.h **** // AUTHORS OR COPYRIGHT HOLDERS BE LIABLE FOR ANY CLAIM, DAMAGES OR OTHER
  19:mi/stmlib/dsp/dsp.h **** // LIABILITY, WHETHER IN AN ACTION OF CONTRACT, TORT OR OTHERWISE, ARISING FROM,
  20:mi/stmlib/dsp/dsp.h **** // OUT OF OR IN CONNECTION WITH THE SOFTWARE OR THE USE OR OTHER DEALINGS IN
  21:mi/stmlib/dsp/dsp.h **** // THE SOFTWARE.
  22:mi/stmlib/dsp/dsp.h **** // 
  23:mi/stmlib/dsp/dsp.h **** // See http://creativecommons.org/licenses/MIT/ for more information.
  24:mi/stmlib/dsp/dsp.h **** //
  25:mi/stmlib/dsp/dsp.h **** // -----------------------------------------------------------------------------
  26:mi/stmlib/dsp/dsp.h **** //
  27:mi/stmlib/dsp/dsp.h **** // DSP utility routines.
  28:mi/stmlib/dsp/dsp.h **** 
  29:mi/stmlib/dsp/dsp.h **** #ifndef STMLIB_UTILS_DSP_DSP_H_
  30:mi/stmlib/dsp/dsp.h **** #define STMLIB_UTILS_DSP_DSP_H_
  31:mi/stmlib/dsp/dsp.h **** 
  32:mi/stmlib/dsp/dsp.h **** #include "stmlib/stmlib.h"
  33:mi/stmlib/dsp/dsp.h **** 
  34:mi/stmlib/dsp/dsp.h **** #include <cmath>
  35:mi/stmlib/dsp/dsp.h **** #include <math.h>
  36:mi/stmlib/dsp/dsp.h **** 
  37:mi/stmlib/dsp/dsp.h **** namespace stmlib {
  38:mi/stmlib/dsp/dsp.h **** 
  39:mi/stmlib/dsp/dsp.h **** #define MAKE_INTEGRAL_FRACTIONAL(x) \
  40:mi/stmlib/dsp/dsp.h ****   int32_t x ## _integral = static_cast<int32_t>(x); \
  41:mi/stmlib/dsp/dsp.h ****   float x ## _fractional = x - static_cast<float>(x ## _integral);
  42:mi/stmlib/dsp/dsp.h **** 
  43:mi/stmlib/dsp/dsp.h **** inline float Interpolate(const float* table, float index, float size) {
  44:mi/stmlib/dsp/dsp.h ****   index *= size;
  45:mi/stmlib/dsp/dsp.h ****   MAKE_INTEGRAL_FRACTIONAL(index)
  46:mi/stmlib/dsp/dsp.h ****   float a = table[index_integral];
 824              		.loc 7 46 9 view .LVU198
 825 010e A54C     		ldr	r4, .L44+52
  45:mi/stmlib/dsp/dsp.h ****   float a = table[index_integral];
 826              		.loc 7 45 3 view .LVU199
 827 0110 BDEEE65A 		vcvt.s32.f32	s10, s13
 828              	.LBE342:
 829              	.LBE341:
 830              	.LBB347:
 831              	.LBB348:
 832              	.LBB349:
 833              		.file 8 "mi/stmlib/dsp/parameter_interpolator.h"
   1:mi/stmlib/dsp/parameter_interpolator.h **** // Copyright 2015 Emilie Gillet.
   2:mi/stmlib/dsp/parameter_interpolator.h **** //
   3:mi/stmlib/dsp/parameter_interpolator.h **** // Author: Emilie Gillet (emilie.o.gillet@gmail.com)
   4:mi/stmlib/dsp/parameter_interpolator.h **** //
   5:mi/stmlib/dsp/parameter_interpolator.h **** // Permission is hereby granted, free of charge, to any person obtaining a copy
   6:mi/stmlib/dsp/parameter_interpolator.h **** // of this software and associated documentation files (the "Software"), to deal
   7:mi/stmlib/dsp/parameter_interpolator.h **** // in the Software without restriction, including without limitation the rights
   8:mi/stmlib/dsp/parameter_interpolator.h **** // to use, copy, modify, merge, publish, distribute, sublicense, and/or sell
   9:mi/stmlib/dsp/parameter_interpolator.h **** // copies of the Software, and to permit persons to whom the Software is
  10:mi/stmlib/dsp/parameter_interpolator.h **** // furnished to do so, subject to the following conditions:
  11:mi/stmlib/dsp/parameter_interpolator.h **** // 
  12:mi/stmlib/dsp/parameter_interpolator.h **** // The above copyright notice and this permission notice shall be included in
  13:mi/stmlib/dsp/parameter_interpolator.h **** // all copies or substantial portions of the Software.
  14:mi/stmlib/dsp/parameter_interpolator.h **** // 
  15:mi/stmlib/dsp/parameter_interpolator.h **** // THE SOFTWARE IS PROVIDED "AS IS", WITHOUT WARRANTY OF ANY KIND, EXPRESS OR
  16:mi/stmlib/dsp/parameter_interpolator.h **** // IMPLIED, INCLUDING BUT NOT LIMITED TO THE WARRANTIES OF MERCHANTABILITY,
ARM GAS  /var/folders/9k/zk1mgrrd7wg4__6zvxvr9w8m0000gn/T//ccXXoDHF.s 			page 44


  17:mi/stmlib/dsp/parameter_interpolator.h **** // FITNESS FOR A PARTICULAR PURPOSE AND NONINFRINGEMENT. IN NO EVENT SHALL THE
  18:mi/stmlib/dsp/parameter_interpolator.h **** // AUTHORS OR COPYRIGHT HOLDERS BE LIABLE FOR ANY CLAIM, DAMAGES OR OTHER
  19:mi/stmlib/dsp/parameter_interpolator.h **** // LIABILITY, WHETHER IN AN ACTION OF CONTRACT, TORT OR OTHERWISE, ARISING FROM,
  20:mi/stmlib/dsp/parameter_interpolator.h **** // OUT OF OR IN CONNECTION WITH THE SOFTWARE OR THE USE OR OTHER DEALINGS IN
  21:mi/stmlib/dsp/parameter_interpolator.h **** // THE SOFTWARE.
  22:mi/stmlib/dsp/parameter_interpolator.h **** // 
  23:mi/stmlib/dsp/parameter_interpolator.h **** // See http://creativecommons.org/licenses/MIT/ for more information.
  24:mi/stmlib/dsp/parameter_interpolator.h **** //
  25:mi/stmlib/dsp/parameter_interpolator.h **** // -----------------------------------------------------------------------------
  26:mi/stmlib/dsp/parameter_interpolator.h **** //
  27:mi/stmlib/dsp/parameter_interpolator.h **** // Linear interpolation of parameters in rendering loops.
  28:mi/stmlib/dsp/parameter_interpolator.h **** 
  29:mi/stmlib/dsp/parameter_interpolator.h **** #ifndef STMLIB_DSP_PARAMETER_INTERPOLATOR_H_
  30:mi/stmlib/dsp/parameter_interpolator.h **** #define STMLIB_DSP_PARAMETER_INTERPOLATOR_H_
  31:mi/stmlib/dsp/parameter_interpolator.h **** 
  32:mi/stmlib/dsp/parameter_interpolator.h **** #include "stmlib/stmlib.h"
  33:mi/stmlib/dsp/parameter_interpolator.h **** 
  34:mi/stmlib/dsp/parameter_interpolator.h **** namespace stmlib {
  35:mi/stmlib/dsp/parameter_interpolator.h **** 
  36:mi/stmlib/dsp/parameter_interpolator.h **** class ParameterInterpolator {
  37:mi/stmlib/dsp/parameter_interpolator.h ****  public:
  38:mi/stmlib/dsp/parameter_interpolator.h ****   ParameterInterpolator() { }
  39:mi/stmlib/dsp/parameter_interpolator.h ****   ParameterInterpolator(float* state, float new_value, size_t size) {
  40:mi/stmlib/dsp/parameter_interpolator.h ****     Init(state, new_value, size);
  41:mi/stmlib/dsp/parameter_interpolator.h ****   }
  42:mi/stmlib/dsp/parameter_interpolator.h **** 
  43:mi/stmlib/dsp/parameter_interpolator.h ****   ParameterInterpolator(float* state, float new_value, float step) {
  44:mi/stmlib/dsp/parameter_interpolator.h ****     state_ = state;
  45:mi/stmlib/dsp/parameter_interpolator.h ****     value_ = *state;
  46:mi/stmlib/dsp/parameter_interpolator.h ****     increment_ = (new_value - *state) * step;
  47:mi/stmlib/dsp/parameter_interpolator.h ****   }
  48:mi/stmlib/dsp/parameter_interpolator.h **** 
  49:mi/stmlib/dsp/parameter_interpolator.h ****   ~ParameterInterpolator() {
  50:mi/stmlib/dsp/parameter_interpolator.h ****     *state_ = value_;
  51:mi/stmlib/dsp/parameter_interpolator.h ****   }
  52:mi/stmlib/dsp/parameter_interpolator.h ****   
  53:mi/stmlib/dsp/parameter_interpolator.h ****   inline void Init(float* state, float new_value, size_t size) {
  54:mi/stmlib/dsp/parameter_interpolator.h ****     state_ = state;
  55:mi/stmlib/dsp/parameter_interpolator.h ****     value_ = *state;
  56:mi/stmlib/dsp/parameter_interpolator.h ****     increment_ = (new_value - *state) / static_cast<float>(size);
 834              		.loc 8 56 41 view .LVU200
 835 0114 04EE903A 		vmov	s9, r3	@ int
 836              	.LBE349:
 837              	.LBE348:
 838              	.LBE347:
 839              	.LBB356:
 840              	.LBB338:
 225:mi/stmlib/dsp/filter.h ****     h_ = 1.0f / (1.0f + r_ * g_ + g_ * g_);
 841              		.loc 4 225 8 view .LVU201
 842 0118 80ED053A 		vstr.32	s6, [r0, #20]
 843              	.LBE338:
 844              	.LBE356:
 115:mi/plaits/dsp/physical_modelling/string.cpp ****   }
 116:mi/plaits/dsp/physical_modelling/string.cpp ****   
 117:mi/plaits/dsp/physical_modelling/string.cpp ****   iir_damping_filter_.set_f_q<FREQUENCY_FAST>(damping_f, 0.5f);
 118:mi/plaits/dsp/physical_modelling/string.cpp ****   
 119:mi/plaits/dsp/physical_modelling/string.cpp ****   float damping_compensation = Interpolate(lut_svf_shift, damping_cutoff, 1.0f);
ARM GAS  /var/folders/9k/zk1mgrrd7wg4__6zvxvr9w8m0000gn/T//ccXXoDHF.s 			page 45


 120:mi/plaits/dsp/physical_modelling/string.cpp ****   
 121:mi/plaits/dsp/physical_modelling/string.cpp ****   // Linearly interpolate delay time.
 122:mi/plaits/dsp/physical_modelling/string.cpp ****   ParameterInterpolator delay_modulation(
 123:mi/plaits/dsp/physical_modelling/string.cpp ****       &delay_, delay * damping_compensation, size);
 124:mi/plaits/dsp/physical_modelling/string.cpp ****   
 125:mi/plaits/dsp/physical_modelling/string.cpp ****   float stretch_point = non_linearity_amount * (2.0f - non_linearity_amount) * 0.225f;
 126:mi/plaits/dsp/physical_modelling/string.cpp ****   float stretch_correction = (160.0f / kSampleRate) * delay;
 127:mi/plaits/dsp/physical_modelling/string.cpp ****   CONSTRAIN(stretch_correction, 1.0f, 2.1f);
 128:mi/plaits/dsp/physical_modelling/string.cpp ****   
 129:mi/plaits/dsp/physical_modelling/string.cpp ****   float noise_amount_sqrt = non_linearity_amount > 0.75f
 130:mi/plaits/dsp/physical_modelling/string.cpp ****       ? 4.0f * (non_linearity_amount - 0.75f)
 131:mi/plaits/dsp/physical_modelling/string.cpp ****       : 0.0f;
 132:mi/plaits/dsp/physical_modelling/string.cpp ****   float noise_amount = noise_amount_sqrt * noise_amount_sqrt * 0.1f;
 133:mi/plaits/dsp/physical_modelling/string.cpp ****   float noise_filter = 0.06f + 0.94f * brightness * brightness;
 134:mi/plaits/dsp/physical_modelling/string.cpp ****   
 135:mi/plaits/dsp/physical_modelling/string.cpp ****   float bridge_curving_sqrt = non_linearity_amount;
 136:mi/plaits/dsp/physical_modelling/string.cpp ****   float bridge_curving = bridge_curving_sqrt * bridge_curving_sqrt * 0.01f;
 137:mi/plaits/dsp/physical_modelling/string.cpp ****   
 138:mi/plaits/dsp/physical_modelling/string.cpp ****   float ap_gain = -0.618f * non_linearity_amount / (0.15f + fabsf(non_linearity_amount));
 139:mi/plaits/dsp/physical_modelling/string.cpp ****   
 140:mi/plaits/dsp/physical_modelling/string.cpp ****   while (size--) {
 845              		.loc 1 140 3 view .LVU202
 846 011c 03F1FF3E 		add	lr, r3, #-1
 847              	.LBB357:
 848              	.LBB353:
 849              	.LBB350:
 850              		.loc 8 56 41 view .LVU203
 851 0120 B8EE642A 		vcvt.f32.u32	s4, s9
 852              	.LBE350:
 853              	.LBE353:
 854              	.LBE357:
 136:mi/plaits/dsp/physical_modelling/string.cpp ****   
 855              		.loc 1 136 9 view .LVU204
 856 0124 9FEDA01A 		vldr.32	s2, .L44+56
 857              	.LBB358:
 858              	.LBB343:
  45:mi/stmlib/dsp/dsp.h ****   float a = table[index_integral];
 859              		.loc 7 45 3 view .LVU205
 860 0128 15EE105A 		vmov	r5, s10	@ int
 861              	.LBE343:
 862              	.LBE358:
 863              	.LBB359:
 864              	.LBB354:
 865              	.LBB351:
  55:mi/stmlib/dsp/parameter_interpolator.h ****     increment_ = (new_value - *state) / static_cast<float>(size);
 866              		.loc 8 55 14 view .LVU206
 867 012c 90ED0C5A 		vldr.32	s10, [r0, #48]
 868              	.LBE351:
 869              	.LBE354:
 870              	.LBE359:
 136:mi/plaits/dsp/physical_modelling/string.cpp ****   
 871              		.loc 1 136 46 view .LVU207
 872 0130 60EEA04A 		vmul.f32	s9, s1, s1
 873              	.LBB360:
 874              	.LBB339:
 875              	.LBB336:
 876              	.LBB332:
ARM GAS  /var/folders/9k/zk1mgrrd7wg4__6zvxvr9w8m0000gn/T//ccXXoDHF.s 			page 46


 123:mi/stmlib/dsp/filter.h ****     } else if (approximation == FREQUENCY_ACCURATE) {
 877              		.loc 4 123 26 view .LVU208
 878 0134 A2EEA57A 		vfma.f32	s14, s5, s11
 879              	.LBE332:
 880              	.LBE336:
 881              	.LBE339:
 882              	.LBE360:
 883              	.LBB361:
 884              	.LBB344:
  45:mi/stmlib/dsp/dsp.h ****   float a = table[index_integral];
 885              		.loc 7 45 3 view .LVU209
 886 0138 01EE905A 		vmov	s3, r5	@ int
 887              	.LVL44:
 888              		.loc 7 46 9 view .LVU210
 889 013c 04EB8506 		add	r6, r4, r5, lsl #2
  45:mi/stmlib/dsp/dsp.h ****   float a = table[index_integral];
 890              		.loc 7 45 3 view .LVU211
 891 0140 F8EEE11A 		vcvt.f32.s32	s3, s3
 892              	.LBE344:
 893              	.LBE361:
 136:mi/plaits/dsp/physical_modelling/string.cpp ****   
 894              		.loc 1 136 9 view .LVU212
 895 0144 64EE814A 		vmul.f32	s9, s9, s2
 896              	.LBB362:
 897              	.LBB345:
  45:mi/stmlib/dsp/dsp.h ****   float a = table[index_integral];
 898              		.loc 7 45 3 view .LVU213
 899 0148 76EEE16A 		vsub.f32	s13, s13, s3
 900              	.LVL45:
  45:mi/stmlib/dsp/dsp.h ****   float a = table[index_integral];
 901              		.loc 7 45 3 view .LVU214
 902              	.LBE345:
 903              	.LBE362:
 904              	.LBB363:
 905              	.LBB340:
 906              	.LBB337:
 907              	.LBB333:
 123:mi/stmlib/dsp/filter.h ****     } else if (approximation == FREQUENCY_ACCURATE) {
 908              		.loc 4 123 45 view .LVU215
 909 014c 67EE877A 		vmul.f32	s15, s15, s14
 910              	.LVL46:
 123:mi/stmlib/dsp/filter.h ****     } else if (approximation == FREQUENCY_ACCURATE) {
 911              		.loc 4 123 45 view .LVU216
 912              	.LBE333:
 913              	.LBE337:
 914              		.loc 4 226 23 view .LVU217
 915 0150 B0EE637A 		vmov.f32	s14, s7
 224:mi/stmlib/dsp/filter.h ****     r_ = 1.0f / resonance;
 916              		.loc 4 224 8 view .LVU218
 917 0154 C0ED047A 		vstr.32	s15, [r0, #16]
 918              		.loc 4 226 23 view .LVU219
 919 0158 A7EE837A 		vfma.f32	s14, s15, s6
 920              		.loc 4 226 33 view .LVU220
 921 015c A7EEA77A 		vfma.f32	s14, s15, s15
 922              		.loc 4 226 15 view .LVU221
 923 0160 C3EE877A 		vdiv.f32	s15, s7, s14
 924              		.loc 4 226 8 view .LVU222
ARM GAS  /var/folders/9k/zk1mgrrd7wg4__6zvxvr9w8m0000gn/T//ccXXoDHF.s 			page 47


 925 0164 C0ED067A 		vstr.32	s15, [r0, #24]
 926              	.LVL47:
 927              		.loc 4 226 8 view .LVU223
 928              	.LBE340:
 929              	.LBE363:
 930              	.LBB364:
 931              	.LBI341:
  43:mi/stmlib/dsp/dsp.h ****   index *= size;
 932              		.loc 7 43 14 is_stmt 1 view .LVU224
 933              	.LBB346:
  44:mi/stmlib/dsp/dsp.h ****   MAKE_INTEGRAL_FRACTIONAL(index)
 934              		.loc 7 44 3 view .LVU225
  45:mi/stmlib/dsp/dsp.h ****   float a = table[index_integral];
 935              		.loc 7 45 3 view .LVU226
  45:mi/stmlib/dsp/dsp.h ****   float a = table[index_integral];
 936              		.loc 7 45 3 view .LVU227
 937              		.loc 7 46 3 view .LVU228
 938              		.loc 7 46 9 is_stmt 0 view .LVU229
 939 0168 D6ED007A 		vldr.32	s15, [r6]
 940              	.LVL48:
  47:mi/stmlib/dsp/dsp.h ****   float b = table[index_integral + 1];
 941              		.loc 7 47 3 is_stmt 1 view .LVU230
  48:mi/stmlib/dsp/dsp.h ****   return a + (b - a) * index_fractional;
 942              		.loc 7 48 3 view .LVU231
 943              		.loc 7 48 17 is_stmt 0 view .LVU232
 944 016c 96ED017A 		vldr.32	s14, [r6, #4]
 945 0170 37EE677A 		vsub.f32	s14, s14, s15
 946              		.loc 7 48 24 view .LVU233
 947 0174 E6EE877A 		vfma.f32	s15, s13, s14
 948              	.LVL49:
 949              		.loc 7 48 24 view .LVU234
 950              	.LBE346:
 951              	.LBE364:
 952              	.LBB365:
 953              	.LBI347:
  39:mi/stmlib/dsp/parameter_interpolator.h ****     Init(state, new_value, size);
 954              		.loc 8 39 3 is_stmt 1 view .LVU235
 955              	.LBE365:
  40:mi/stmlib/dsp/parameter_interpolator.h ****   }
 956              		.loc 8 40 5 view .LVU236
 957              	.LBB366:
 958              	.LBB355:
 959              	.LBI348:
  53:mi/stmlib/dsp/parameter_interpolator.h ****     state_ = state;
 960              		.loc 8 53 15 view .LVU237
 961              	.LBB352:
  54:mi/stmlib/dsp/parameter_interpolator.h ****     value_ = *state;
 962              		.loc 8 54 5 view .LVU238
  55:mi/stmlib/dsp/parameter_interpolator.h ****     increment_ = (new_value - *state) / static_cast<float>(size);
 963              		.loc 8 55 5 view .LVU239
 964              		.loc 8 56 5 view .LVU240
 965              		.loc 8 56 29 is_stmt 0 view .LVU241
 966 0178 B0EE457A 		vmov.f32	s14, s10
 967 017c 96EE277A 		vfnms.f32	s14, s12, s15
 968              		.loc 8 56 39 view .LVU242
 969 0180 C7EE023A 		vdiv.f32	s7, s14, s4
 970              	.LVL50:
ARM GAS  /var/folders/9k/zk1mgrrd7wg4__6zvxvr9w8m0000gn/T//ccXXoDHF.s 			page 48


 971              		.loc 8 56 39 view .LVU243
 972              	.LBE352:
 973              	.LBE355:
 974              	.LBE366:
 975              		.loc 1 140 3 is_stmt 1 view .LVU244
 976              		.loc 1 140 3 is_stmt 0 view .LVU245
 977 0184 002B     		cmp	r3, #0
 978 0186 40F0D080 		bne	.L29
 979 018a E4E0     		b	.L23
 980              	.LVL51:
 981              	.L24:
 982              	.LBB367:
 983              	.LBB368:
 984              	.LBB369:
 985              	.LBB370:
 141:mi/plaits/dsp/physical_modelling/string.cpp ****     src_phase_ += src_ratio;
 142:mi/plaits/dsp/physical_modelling/string.cpp ****     if (src_phase_ > 1.0f) {
 143:mi/plaits/dsp/physical_modelling/string.cpp ****       src_phase_ -= 1.0f;
 144:mi/plaits/dsp/physical_modelling/string.cpp ****       
 145:mi/plaits/dsp/physical_modelling/string.cpp ****       float delay = delay_modulation.Next();
 146:mi/plaits/dsp/physical_modelling/string.cpp ****       float s = 0.0f;
 147:mi/plaits/dsp/physical_modelling/string.cpp ****       
 148:mi/plaits/dsp/physical_modelling/string.cpp ****       if (non_linearity == STRING_NON_LINEARITY_DISPERSION) {
 149:mi/plaits/dsp/physical_modelling/string.cpp ****         float noise = Random::GetFloat() - 0.5f;
 150:mi/plaits/dsp/physical_modelling/string.cpp ****         ONE_POLE(dispersion_noise_, noise, noise_filter)
 151:mi/plaits/dsp/physical_modelling/string.cpp ****         delay *= 1.0f + dispersion_noise_ * noise_amount;
 152:mi/plaits/dsp/physical_modelling/string.cpp ****       } else {
 153:mi/plaits/dsp/physical_modelling/string.cpp ****         delay *= 1.0f - curved_bridge_ * bridge_curving;
 986              		.loc 1 153 23 view .LVU246
 987 018c B0EE656A 		vmov.f32	s12, s11
 988 0190 90ED0E7A 		vldr.32	s14, [r0, #56]
 989              	.LBE370:
 990              	.LBB371:
 991              	.LBB372:
  57:mi/stmlib/dsp/parameter_interpolator.h ****   }
  58:mi/stmlib/dsp/parameter_interpolator.h **** 
  59:mi/stmlib/dsp/parameter_interpolator.h ****   inline float Next() {
  60:mi/stmlib/dsp/parameter_interpolator.h ****     value_ += increment_;
 992              		.loc 8 60 12 view .LVU247
 993 0194 35EE235A 		vadd.f32	s10, s10, s7
 994              	.LVL52:
 995              		.loc 8 60 12 view .LVU248
 996              	.LBE372:
 997              	.LBE371:
 998              	.LBB374:
 154:mi/plaits/dsp/physical_modelling/string.cpp ****       }
 155:mi/plaits/dsp/physical_modelling/string.cpp ****       
 156:mi/plaits/dsp/physical_modelling/string.cpp ****       if (non_linearity == STRING_NON_LINEARITY_DISPERSION) {
 157:mi/plaits/dsp/physical_modelling/string.cpp ****         float ap_delay = delay * stretch_point;
 158:mi/plaits/dsp/physical_modelling/string.cpp ****         float main_delay = delay - ap_delay * (0.408f - stretch_point * 0.308f) * stretch_correctio
 159:mi/plaits/dsp/physical_modelling/string.cpp ****         if (ap_delay >= 4.0f && main_delay >= 4.0f) {
 160:mi/plaits/dsp/physical_modelling/string.cpp ****           s = string_.Read(main_delay);
 161:mi/plaits/dsp/physical_modelling/string.cpp ****           s = stretch_.Allpass(s, ap_delay, ap_gain);
 162:mi/plaits/dsp/physical_modelling/string.cpp ****         } else {
 163:mi/plaits/dsp/physical_modelling/string.cpp ****           s = string_.ReadHermite(delay);
 164:mi/plaits/dsp/physical_modelling/string.cpp ****         }
 165:mi/plaits/dsp/physical_modelling/string.cpp ****       } else {
ARM GAS  /var/folders/9k/zk1mgrrd7wg4__6zvxvr9w8m0000gn/T//ccXXoDHF.s 			page 49


 166:mi/plaits/dsp/physical_modelling/string.cpp ****         s = string_.ReadHermite(delay);
 167:mi/plaits/dsp/physical_modelling/string.cpp ****       }
 168:mi/plaits/dsp/physical_modelling/string.cpp ****       
 169:mi/plaits/dsp/physical_modelling/string.cpp ****       if (non_linearity == STRING_NON_LINEARITY_CURVED_BRIDGE) {
 170:mi/plaits/dsp/physical_modelling/string.cpp ****         float value = fabsf(s) - 0.025f;
 999              		.loc 1 170 15 view .LVU249
 1000 0198 9FED840A 		vldr.32	s0, .L44+60
 1001              	.LBE374:
 143:mi/plaits/dsp/physical_modelling/string.cpp ****       
 1002              		.loc 1 143 18 view .LVU250
 1003 019c 77EEE57A 		vsub.f32	s15, s15, s11
 1004              	.LBB375:
 153:mi/plaits/dsp/physical_modelling/string.cpp ****       }
 1005              		.loc 1 153 23 view .LVU251
 1006 01a0 A7EE646A 		vfms.f32	s12, s14, s9
 1007              	.LBE375:
 1008              	.LBB376:
 1009              	.LBB377:
 1010              	.LBB378:
  52:mi/plaits/dsp/physical_modelling/delay_line.h ****   }
  53:mi/plaits/dsp/physical_modelling/delay_line.h ****   
  54:mi/plaits/dsp/physical_modelling/delay_line.h ****   inline void Write(const T sample) {
  55:mi/plaits/dsp/physical_modelling/delay_line.h ****     line_[write_ptr_] = sample;
  56:mi/plaits/dsp/physical_modelling/delay_line.h ****     write_ptr_ = (write_ptr_ - 1 + max_delay) % max_delay;
  57:mi/plaits/dsp/physical_modelling/delay_line.h ****   }
  58:mi/plaits/dsp/physical_modelling/delay_line.h ****   
  59:mi/plaits/dsp/physical_modelling/delay_line.h ****   inline const T Allpass(const T sample, size_t delay, const T coefficient) {
  60:mi/plaits/dsp/physical_modelling/delay_line.h ****     T read = line_[(write_ptr_ + delay) % max_delay];
  61:mi/plaits/dsp/physical_modelling/delay_line.h ****     T write = sample + coefficient * read;
  62:mi/plaits/dsp/physical_modelling/delay_line.h ****     Write(write);
  63:mi/plaits/dsp/physical_modelling/delay_line.h ****     return -write * coefficient + read;
  64:mi/plaits/dsp/physical_modelling/delay_line.h ****   }
  65:mi/plaits/dsp/physical_modelling/delay_line.h **** 
  66:mi/plaits/dsp/physical_modelling/delay_line.h ****   inline const T WriteRead(const T sample, float delay) {
  67:mi/plaits/dsp/physical_modelling/delay_line.h ****     Write(sample);
  68:mi/plaits/dsp/physical_modelling/delay_line.h ****     return Read(delay);
  69:mi/plaits/dsp/physical_modelling/delay_line.h ****   }
  70:mi/plaits/dsp/physical_modelling/delay_line.h ****   
  71:mi/plaits/dsp/physical_modelling/delay_line.h ****   inline const T Read(float delay) const {
  72:mi/plaits/dsp/physical_modelling/delay_line.h ****     MAKE_INTEGRAL_FRACTIONAL(delay)
  73:mi/plaits/dsp/physical_modelling/delay_line.h ****     const T a = line_[(write_ptr_ + delay_integral) % max_delay];
  74:mi/plaits/dsp/physical_modelling/delay_line.h ****     const T b = line_[(write_ptr_ + delay_integral + 1) % max_delay];
  75:mi/plaits/dsp/physical_modelling/delay_line.h ****     return a + (b - a) * T(delay_fractional);
  76:mi/plaits/dsp/physical_modelling/delay_line.h ****   }
  77:mi/plaits/dsp/physical_modelling/delay_line.h ****   
  78:mi/plaits/dsp/physical_modelling/delay_line.h ****   inline const T ReadHermite(float delay) const {
  79:mi/plaits/dsp/physical_modelling/delay_line.h ****     MAKE_INTEGRAL_FRACTIONAL(delay)
  80:mi/plaits/dsp/physical_modelling/delay_line.h ****     int32_t t = (write_ptr_ + delay_integral + max_delay);
  81:mi/plaits/dsp/physical_modelling/delay_line.h ****     const T xm1 = line_[(t - 1) % max_delay];
  82:mi/plaits/dsp/physical_modelling/delay_line.h ****     const T x0 = line_[(t) % max_delay];
  83:mi/plaits/dsp/physical_modelling/delay_line.h ****     const T x1 = line_[(t + 1) % max_delay];
  84:mi/plaits/dsp/physical_modelling/delay_line.h ****     const T x2 = line_[(t + 2) % max_delay];
  85:mi/plaits/dsp/physical_modelling/delay_line.h ****     const T c = (x1 - xm1) * 0.5f;
  86:mi/plaits/dsp/physical_modelling/delay_line.h ****     const T v = x0 - x1;
  87:mi/plaits/dsp/physical_modelling/delay_line.h ****     const T w = c + v;
 1011              		.loc 2 87 13 view .LVU252
 1012 01a4 F6EE001A 		vmov.f32	s3, #5.0e-1
ARM GAS  /var/folders/9k/zk1mgrrd7wg4__6zvxvr9w8m0000gn/T//ccXXoDHF.s 			page 50


 1013              	.LBE378:
 1014              	.LBE377:
 1015              	.LBE376:
 143:mi/plaits/dsp/physical_modelling/string.cpp ****       
 1016              		.loc 1 143 18 view .LVU253
 1017 01a8 C0ED0F7A 		vstr.32	s15, [r0, #60]
 1018              	.LVL53:
 1019              	.LBB381:
 1020              	.LBI371:
  59:mi/stmlib/dsp/parameter_interpolator.h ****     value_ += increment_;
 1021              		.loc 8 59 16 is_stmt 1 view .LVU254
 1022              	.LBB373:
 1023              		.loc 8 60 5 view .LVU255
  61:mi/stmlib/dsp/parameter_interpolator.h ****     return value_;
 1024              		.loc 8 61 5 view .LVU256
 1025              		.loc 8 61 5 is_stmt 0 view .LVU257
 1026              	.LBE373:
 1027              	.LBE381:
 1028              	.LBB382:
 171:mi/plaits/dsp/physical_modelling/string.cpp ****         float sign = s > 0.0f ? 1.0f : -1.5f;
 1029              		.loc 1 171 31 view .LVU258
 1030 01ac FFEE080A 		vmov.f32	s1, #-1.5e+0
 1031              	.LBE382:
 172:mi/plaits/dsp/physical_modelling/string.cpp ****         curved_bridge_ = (fabsf(value) + value) * sign;
 173:mi/plaits/dsp/physical_modelling/string.cpp ****       }
 174:mi/plaits/dsp/physical_modelling/string.cpp ****     
 175:mi/plaits/dsp/physical_modelling/string.cpp ****       s += *in;
 176:mi/plaits/dsp/physical_modelling/string.cpp ****       CONSTRAIN(s, -20.0f, +20.0f);
 1032              		.loc 1 176 7 view .LVU259
 1033 01b0 BBEE042A 		vmov.f32	s4, #-2.0e+1
 1034 01b4 D0E90045 		ldrd	r4, r5, [r0]
 1035              	.LBB383:
 153:mi/plaits/dsp/physical_modelling/string.cpp ****       }
 1036              		.loc 1 153 15 view .LVU260
 1037 01b8 26EE056A 		vmul.f32	s12, s12, s10
 1038              	.LVL54:
 153:mi/plaits/dsp/physical_modelling/string.cpp ****       }
 1039              		.loc 1 153 15 view .LVU261
 1040              	.LBE383:
 1041              	.LBB384:
 1042              	.LBB380:
 1043              	.LBI377:
  78:mi/plaits/dsp/physical_modelling/delay_line.h ****     MAKE_INTEGRAL_FRACTIONAL(delay)
 1044              		.loc 2 78 18 is_stmt 1 view .LVU262
 1045              	.LBB379:
  79:mi/plaits/dsp/physical_modelling/delay_line.h ****     int32_t t = (write_ptr_ + delay_integral + max_delay);
 1046              		.loc 2 79 5 is_stmt 0 view .LVU263
 1047 01bc FDEEC67A 		vcvt.s32.f32	s15, s12
 1048              	.LVL55:
  80:mi/plaits/dsp/physical_modelling/delay_line.h ****     const T xm1 = line_[(t - 1) % max_delay];
 1049              		.loc 2 80 29 view .LVU264
 1050 01c0 17EE903A 		vmov	r3, s15	@ int
  79:mi/plaits/dsp/physical_modelling/delay_line.h ****     int32_t t = (write_ptr_ + delay_integral + max_delay);
 1051              		.loc 2 79 5 view .LVU265
 1052 01c4 F8EEE72A 		vcvt.f32.s32	s5, s15
  80:mi/plaits/dsp/physical_modelling/delay_line.h ****     const T xm1 = line_[(t - 1) % max_delay];
 1053              		.loc 2 80 29 view .LVU266
ARM GAS  /var/folders/9k/zk1mgrrd7wg4__6zvxvr9w8m0000gn/T//ccXXoDHF.s 			page 51


 1054 01c8 2344     		add	r3, r3, r4
  79:mi/plaits/dsp/physical_modelling/delay_line.h ****     int32_t t = (write_ptr_ + delay_integral + max_delay);
 1055              		.loc 2 79 5 view .LVU267
 1056 01ca 36EE626A 		vsub.f32	s12, s12, s5
 1057              	.LVL56:
  83:mi/plaits/dsp/physical_modelling/delay_line.h ****     const T x2 = line_[(t + 2) % max_delay];
 1058              		.loc 2 83 32 view .LVU268
 1059 01ce 03F20146 		addw	r6, r3, #1025
  81:mi/plaits/dsp/physical_modelling/delay_line.h ****     const T x0 = line_[(t) % max_delay];
 1060              		.loc 2 81 33 view .LVU269
 1061 01d2 03F2FF3C 		addw	ip, r3, #1023
  82:mi/plaits/dsp/physical_modelling/delay_line.h ****     const T x1 = line_[(t + 1) % max_delay];
 1062              		.loc 2 82 23 view .LVU270
 1063 01d6 C3F30907 		ubfx	r7, r3, #0, #10
 1064              	.LVL57:
  84:mi/plaits/dsp/physical_modelling/delay_line.h ****     const T c = (x1 - xm1) * 0.5f;
 1065              		.loc 2 84 32 view .LVU271
 1066 01da 03F20243 		addw	r3, r3, #1026
 1067              	.LVL58:
  83:mi/plaits/dsp/physical_modelling/delay_line.h ****     const T x2 = line_[(t + 2) % max_delay];
 1068              		.loc 2 83 32 view .LVU272
 1069 01de C6F30906 		ubfx	r6, r6, #0, #10
  81:mi/plaits/dsp/physical_modelling/delay_line.h ****     const T x0 = line_[(t) % max_delay];
 1070              		.loc 2 81 33 view .LVU273
 1071 01e2 CCF3090C 		ubfx	ip, ip, #0, #10
  82:mi/plaits/dsp/physical_modelling/delay_line.h ****     const T x1 = line_[(t + 1) % max_delay];
 1072              		.loc 2 82 13 view .LVU274
 1073 01e6 05EB8707 		add	r7, r5, r7, lsl #2
  84:mi/plaits/dsp/physical_modelling/delay_line.h ****     const T c = (x1 - xm1) * 0.5f;
 1074              		.loc 2 84 32 view .LVU275
 1075 01ea C3F30903 		ubfx	r3, r3, #0, #10
 1076              	.LVL59:
  83:mi/plaits/dsp/physical_modelling/delay_line.h ****     const T x2 = line_[(t + 2) % max_delay];
 1077              		.loc 2 83 13 view .LVU276
 1078 01ee 05EB8606 		add	r6, r5, r6, lsl #2
  81:mi/plaits/dsp/physical_modelling/delay_line.h ****     const T x0 = line_[(t) % max_delay];
 1079              		.loc 2 81 13 view .LVU277
 1080 01f2 05EB8C0C 		add	ip, r5, ip, lsl #2
  82:mi/plaits/dsp/physical_modelling/delay_line.h ****     const T x1 = line_[(t + 1) % max_delay];
 1081              		.loc 2 82 13 view .LVU278
 1082 01f6 D7ED007A 		vldr.32	s15, [r7]
 1083              	.LVL60:
  83:mi/plaits/dsp/physical_modelling/delay_line.h ****     const T x2 = line_[(t + 2) % max_delay];
 1084              		.loc 2 83 13 view .LVU279
 1085 01fa D6ED006A 		vldr.32	s13, [r6]
 1086              	.LVL61:
  84:mi/plaits/dsp/physical_modelling/delay_line.h ****     const T c = (x1 - xm1) * 0.5f;
 1087              		.loc 2 84 13 view .LVU280
 1088 01fe 05EB8303 		add	r3, r5, r3, lsl #2
  85:mi/plaits/dsp/physical_modelling/delay_line.h ****     const T v = x0 - x1;
 1089              		.loc 2 85 21 view .LVU281
 1090 0202 9CED003A 		vldr.32	s6, [ip]
  88:mi/plaits/dsp/physical_modelling/delay_line.h ****     const T a = w + v + (x2 - x0) * 0.5f;
 1091              		.loc 2 88 29 view .LVU282
 1092 0206 93ED001A 		vldr.32	s2, [r3]
  85:mi/plaits/dsp/physical_modelling/delay_line.h ****     const T v = x0 - x1;
 1093              		.loc 2 85 21 view .LVU283
ARM GAS  /var/folders/9k/zk1mgrrd7wg4__6zvxvr9w8m0000gn/T//ccXXoDHF.s 			page 52


 1094 020a 36EEC33A 		vsub.f32	s6, s13, s6
 1095              	.LVL62:
  86:mi/plaits/dsp/physical_modelling/delay_line.h ****     const T w = c + v;
 1096              		.loc 2 86 13 view .LVU284
 1097 020e 77EEE66A 		vsub.f32	s13, s15, s13
 1098              	.LVL63:
 1099              		.loc 2 88 29 view .LVU285
 1100 0212 71EE672A 		vsub.f32	s5, s2, s15
  87:mi/plaits/dsp/physical_modelling/delay_line.h ****     const T a = w + v + (x2 - x0) * 0.5f;
 1101              		.loc 2 87 13 view .LVU286
 1102 0216 B0EE667A 		vmov.f32	s14, s13
 1103              	.LVL64:
  87:mi/plaits/dsp/physical_modelling/delay_line.h ****     const T a = w + v + (x2 - x0) * 0.5f;
 1104              		.loc 2 87 13 view .LVU287
 1105 021a A3EE217A 		vfma.f32	s14, s6, s3
 1106              	.LVL65:
 1107              		.loc 2 88 19 view .LVU288
 1108 021e 76EE876A 		vadd.f32	s13, s13, s14
 1109              	.LVL66:
 1110              		.loc 2 88 13 view .LVU289
 1111 0222 E2EEA16A 		vfma.f32	s13, s5, s3
 1112              	.LVL67:
  89:mi/plaits/dsp/physical_modelling/delay_line.h ****     const T b_neg = w + a;
 1113              		.loc 2 89 13 view .LVU290
 1114 0226 37EE267A 		vadd.f32	s14, s14, s13
 1115              	.LVL68:
  90:mi/plaits/dsp/physical_modelling/delay_line.h ****     const T f = delay_fractional;
  91:mi/plaits/dsp/physical_modelling/delay_line.h ****     return (((a * f) - b_neg) * f + c) * f + x0;
 1116              		.loc 2 91 22 view .LVU291
 1117 022a 96EE267A 		vfnms.f32	s14, s12, s13
 1118              	.LVL69:
 1119              		.loc 2 91 31 view .LVU292
 1120 022e 26EE077A 		vmul.f32	s14, s12, s14
 1121              		.loc 2 91 35 view .LVU293
 1122 0232 A3EE217A 		vfma.f32	s14, s6, s3
 1123              		.loc 2 91 46 view .LVU294
 1124 0236 E6EE077A 		vfma.f32	s15, s12, s14
 1125              	.LVL70:
 1126              		.loc 2 91 46 view .LVU295
 1127              	.LBE379:
 1128              	.LBE380:
 1129              	.LBE384:
 1130              	.LBB385:
 170:mi/plaits/dsp/physical_modelling/string.cpp ****         float sign = s > 0.0f ? 1.0f : -1.5f;
 1131              		.loc 1 170 28 view .LVU296
 1132 023a B0EEE77A 		vabs.f32	s14, s15
 171:mi/plaits/dsp/physical_modelling/string.cpp ****         curved_bridge_ = (fabsf(value) + value) * sign;
 1133              		.loc 1 171 31 view .LVU297
 1134 023e F5EEC07A 		vcmpe.f32	s15, #0
 170:mi/plaits/dsp/physical_modelling/string.cpp ****         float sign = s > 0.0f ? 1.0f : -1.5f;
 1135              		.loc 1 170 15 view .LVU298
 1136 0242 77EE406A 		vsub.f32	s13, s14, s0
 1137              	.LVL71:
 171:mi/plaits/dsp/physical_modelling/string.cpp ****         curved_bridge_ = (fabsf(value) + value) * sign;
 1138              		.loc 1 171 31 view .LVU299
 1139 0246 F1EE10FA 		vmrs	APSR_nzcv, FPSCR
 172:mi/plaits/dsp/physical_modelling/string.cpp ****       }
ARM GAS  /var/folders/9k/zk1mgrrd7wg4__6zvxvr9w8m0000gn/T//ccXXoDHF.s 			page 53


 1140              		.loc 1 172 32 view .LVU300
 1141 024a B0EEE67A 		vabs.f32	s14, s13
 171:mi/plaits/dsp/physical_modelling/string.cpp ****         curved_bridge_ = (fabsf(value) + value) * sign;
 1142              		.loc 1 171 31 view .LVU301
 1143 024e 75FEA05A 		vselgt.f32	s11, s11, s1
 1144              	.LVL72:
 172:mi/plaits/dsp/physical_modelling/string.cpp ****       }
 1145              		.loc 1 172 40 view .LVU302
 1146 0252 37EE267A 		vadd.f32	s14, s14, s13
 172:mi/plaits/dsp/physical_modelling/string.cpp ****       }
 1147              		.loc 1 172 49 view .LVU303
 1148 0256 67EE255A 		vmul.f32	s11, s14, s11
 1149              	.LVL73:
 172:mi/plaits/dsp/physical_modelling/string.cpp ****       }
 1150              		.loc 1 172 24 view .LVU304
 1151 025a C0ED0E5A 		vstr.32	s11, [r0, #56]
 1152              	.LVL74:
 172:mi/plaits/dsp/physical_modelling/string.cpp ****       }
 1153              		.loc 1 172 24 view .LVU305
 1154              	.LBE385:
 175:mi/plaits/dsp/physical_modelling/string.cpp ****       CONSTRAIN(s, -20.0f, +20.0f);
 1155              		.loc 1 175 9 view .LVU306
 1156 025e 91ED007A 		vldr.32	s14, [r1]
 1157 0262 77EE877A 		vadd.f32	s15, s15, s14
 1158              	.LVL75:
 1159              		.loc 1 176 7 view .LVU307
 1160 0266 F4EEC27A 		vcmpe.f32	s15, s4
 1161 026a F1EE10FA 		vmrs	APSR_nzcv, FPSCR
 1162              	.LVL76:
 1163              		.loc 1 176 7 view .LVU308
 1164 026e 6FD4     		bmi	.L34
 1165              		.loc 1 176 7 discriminator 2 view .LVU309
 1166 0270 B3EE047A 		vmov.f32	s14, #2.0e+1
 1167 0274 F4EE477A 		vcmp.f32	s15, s14
 1168 0278 F1EE10FA 		vmrs	APSR_nzcv, FPSCR
 1169 027c 77FE277A 		vselgt.f32	s15, s14, s15
 1170              	.LVL77:
 1171              	.L27:
 1172              	.LBB386:
 1173              	.LBI386:
  73:mi/stmlib/dsp/filter.h ****     float x = x_;
 1174              		.loc 4 73 15 is_stmt 1 view .LVU310
 1175              	.LBB387:
  74:mi/stmlib/dsp/filter.h ****     float y = y_;
 1176              		.loc 4 74 5 view .LVU311
  75:mi/stmlib/dsp/filter.h ****     const float pole = pole_;
 1177              		.loc 4 75 5 view .LVU312
  76:mi/stmlib/dsp/filter.h ****     while (size--) {
 1178              		.loc 4 76 5 view .LVU313
  77:mi/stmlib/dsp/filter.h ****       float old_x = x;
 1179              		.loc 4 77 5 view .LVU314
  77:mi/stmlib/dsp/filter.h ****       float old_x = x;
 1180              		.loc 4 77 16 view .LVU315
 1181              	.LBB388:
  78:mi/stmlib/dsp/filter.h ****       x = *in_out;
 1182              		.loc 4 78 7 view .LVU316
  79:mi/stmlib/dsp/filter.h ****       *in_out++ = y = y * pole + x - old_x;
ARM GAS  /var/folders/9k/zk1mgrrd7wg4__6zvxvr9w8m0000gn/T//ccXXoDHF.s 			page 54


 1183              		.loc 4 79 7 view .LVU317
  80:mi/stmlib/dsp/filter.h ****     }
 1184              		.loc 4 80 7 view .LVU318
  80:mi/stmlib/dsp/filter.h ****     }
 1185              		.loc 4 80 32 is_stmt 0 view .LVU319
 1186 0280 F0EE675A 		vmov.f32	s11, s15
 1187 0284 90ED0B6A 		vldr.32	s12, [r0, #44]
 1188              	.LVL78:
  80:mi/stmlib/dsp/filter.h ****     }
 1189              		.loc 4 80 32 view .LVU320
 1190 0288 90ED097A 		vldr.32	s14, [r0, #36]
 1191              	.LBE388:
 1192              	.LBE387:
 1193              	.LBE386:
 1194              	.LBB396:
 1195              	.LBB397:
  55:mi/plaits/dsp/physical_modelling/delay_line.h ****     write_ptr_ = (write_ptr_ - 1 + max_delay) % max_delay;
 1196              		.loc 2 55 23 view .LVU321
 1197 028c 05EB8405 		add	r5, r5, r4, lsl #2
 1198              	.LBE397:
 1199              	.LBE396:
 1200              	.LBB402:
 1201              	.LBB392:
 1202              	.LBB389:
  80:mi/stmlib/dsp/filter.h ****     }
 1203              		.loc 4 80 21 view .LVU322
 1204 0290 90ED0A2A 		vldr.32	s4, [r0, #40]
 1205              	.LBE389:
 1206              	.LBE392:
 1207              	.LBE402:
 1208              	.LBB403:
 1209              	.LBB398:
  56:mi/plaits/dsp/physical_modelling/delay_line.h ****   }
 1210              		.loc 2 56 34 view .LVU323
 1211 0294 04F2FF34 		addw	r4, r4, #1023
 1212              	.LBE398:
 1213              	.LBE403:
 1214              	.LBB404:
 1215              	.LBB393:
 1216              	.LBB390:
  80:mi/stmlib/dsp/filter.h ****     }
 1217              		.loc 4 80 32 view .LVU324
 1218 0298 E6EE075A 		vfma.f32	s11, s12, s14
 1219              	.LBE390:
  82:mi/stmlib/dsp/filter.h ****     y_ = y;
 1220              		.loc 4 82 8 view .LVU325
 1221 029c C0ED0A7A 		vstr.32	s15, [r0, #40]
 1222              	.LVL79:
  82:mi/stmlib/dsp/filter.h ****     y_ = y;
 1223              		.loc 4 82 8 view .LVU326
 1224              	.LBE393:
 1225              	.LBE404:
 1226              	.LBB405:
 1227              	.LBB406:
 227:mi/stmlib/dsp/filter.h ****   }
 228:mi/stmlib/dsp/filter.h ****   
 229:mi/stmlib/dsp/filter.h ****   template<FilterMode mode>
ARM GAS  /var/folders/9k/zk1mgrrd7wg4__6zvxvr9w8m0000gn/T//ccXXoDHF.s 			page 55


 230:mi/stmlib/dsp/filter.h ****   inline float Process(float in) {
 231:mi/stmlib/dsp/filter.h ****     float hp, bp, lp;
 232:mi/stmlib/dsp/filter.h ****     hp = (in - r_ * state_1_ - g_ * state_1_ - state_2_) * h_;
 1228              		.loc 4 232 21 view .LVU327
 1229 02a0 D0ED076A 		vldr.32	s13, [r0, #28]
 1230              	.LVL80:
 1231              		.loc 4 232 21 view .LVU328
 1232              	.LBE406:
 1233              	.LBE405:
 1234              	.LBB411:
 1235              	.LBB399:
  56:mi/plaits/dsp/physical_modelling/delay_line.h ****   }
 1236              		.loc 2 56 47 view .LVU329
 1237 02a4 C4F30904 		ubfx	r4, r4, #0, #10
 1238              	.LBE399:
 1239              	.LBE411:
 1240              	.LBB412:
 1241              	.LBB407:
 1242              		.loc 4 232 14 view .LVU330
 1243 02a8 D0ED052A 		vldr.32	s5, [r0, #20]
 1244              		.loc 4 232 32 view .LVU331
 1245 02ac 90ED046A 		vldr.32	s12, [r0, #16]
 1246              		.loc 4 232 48 view .LVU332
 1247 02b0 90ED087A 		vldr.32	s14, [r0, #32]
 1248              		.loc 4 232 8 view .LVU333
 1249 02b4 90ED063A 		vldr.32	s6, [r0, #24]
 1250              	.LBE407:
 1251              	.LBE412:
 1252              	.LBB413:
 1253              	.LBB394:
 1254              	.LBB391:
  80:mi/stmlib/dsp/filter.h ****     }
 1255              		.loc 4 80 21 view .LVU334
 1256 02b8 75EEC25A 		vsub.f32	s11, s11, s4
 1257              	.LVL81:
  80:mi/stmlib/dsp/filter.h ****     }
 1258              		.loc 4 80 21 view .LVU335
 1259              	.LBE391:
  77:mi/stmlib/dsp/filter.h ****       float old_x = x;
 1260              		.loc 4 77 5 is_stmt 1 view .LVU336
  77:mi/stmlib/dsp/filter.h ****       float old_x = x;
 1261              		.loc 4 77 16 view .LVU337
  82:mi/stmlib/dsp/filter.h ****     y_ = y;
 1262              		.loc 4 82 5 view .LVU338
  83:mi/stmlib/dsp/filter.h ****   }
 1263              		.loc 4 83 5 view .LVU339
 1264              	.LBE394:
 1265              	.LBE413:
 1266              	.LBB414:
 1267              	.LBB408:
 1268              		.loc 4 232 14 is_stmt 0 view .LVU340
 1269 02bc F0EE657A 		vmov.f32	s15, s11
 1270              	.LVL82:
 1271              		.loc 4 232 14 view .LVU341
 1272              	.LBE408:
 1273              	.LBE414:
 1274              	.LBB415:
ARM GAS  /var/folders/9k/zk1mgrrd7wg4__6zvxvr9w8m0000gn/T//ccXXoDHF.s 			page 56


 1275              	.LBB395:
  83:mi/stmlib/dsp/filter.h ****   }
 1276              		.loc 4 83 8 view .LVU342
 1277 02c0 C0ED0B5A 		vstr.32	s11, [r0, #44]
 1278              	.LBE395:
 1279              	.LBE415:
 1280              	.LBB416:
 1281              	.LBB409:
 1282              		.loc 4 232 14 view .LVU343
 1283 02c4 E2EEE67A 		vfms.f32	s15, s5, s13
 1284              	.LVL83:
 1285              		.loc 4 232 14 view .LVU344
 1286              	.LBE409:
 1287              	.LBI405:
 230:mi/stmlib/dsp/filter.h ****     float hp, bp, lp;
 1288              		.loc 4 230 16 is_stmt 1 view .LVU345
 1289              	.LBB410:
 1290              		.loc 4 232 30 is_stmt 0 view .LVU346
 1291 02c8 E6EEC67A 		vfms.f32	s15, s13, s12
 1292              		.loc 4 232 46 view .LVU347
 1293 02cc 77EEC77A 		vsub.f32	s15, s15, s14
 1294              		.loc 4 232 8 view .LVU348
 1295 02d0 67EE837A 		vmul.f32	s15, s15, s6
 1296              	.LVL84:
 233:mi/stmlib/dsp/filter.h ****     bp = g_ * hp + state_1_;
 1297              		.loc 4 233 8 view .LVU349
 1298 02d4 E6EE276A 		vfma.f32	s13, s12, s15
 1299              	.LVL85:
 234:mi/stmlib/dsp/filter.h ****     state_1_ = g_ * hp + bp;
 235:mi/stmlib/dsp/filter.h ****     lp = g_ * bp + state_2_;
 1300              		.loc 4 235 8 view .LVU350
 1301 02d8 A6EE267A 		vfma.f32	s14, s12, s13
 1302              	.LVL86:
 234:mi/stmlib/dsp/filter.h ****     state_1_ = g_ * hp + bp;
 1303              		.loc 4 234 24 view .LVU351
 1304 02dc F0EE665A 		vmov.f32	s11, s13
 1305              	.LVL87:
 234:mi/stmlib/dsp/filter.h ****     state_1_ = g_ * hp + bp;
 1306              		.loc 4 234 24 view .LVU352
 1307 02e0 E6EE275A 		vfma.f32	s11, s12, s15
 236:mi/stmlib/dsp/filter.h ****     state_2_ = g_ * bp + lp;
 1308              		.loc 4 236 24 view .LVU353
 1309 02e4 F0EE477A 		vmov.f32	s15, s14
 1310              	.LVL88:
 1311              		.loc 4 236 24 view .LVU354
 1312 02e8 E6EE267A 		vfma.f32	s15, s12, s13
 234:mi/stmlib/dsp/filter.h ****     state_1_ = g_ * hp + bp;
 1313              		.loc 4 234 14 view .LVU355
 1314 02ec C0ED075A 		vstr.32	s11, [r0, #28]
 1315              	.LVL89:
 1316              		.loc 4 236 14 view .LVU356
 1317 02f0 C0ED087A 		vstr.32	s15, [r0, #32]
 1318              	.LVL90:
 1319              		.loc 4 236 14 view .LVU357
 1320              	.LBE410:
 1321              	.LBE416:
 1322              	.LBB417:
ARM GAS  /var/folders/9k/zk1mgrrd7wg4__6zvxvr9w8m0000gn/T//ccXXoDHF.s 			page 57


 1323              	.LBI396:
  54:mi/plaits/dsp/physical_modelling/delay_line.h ****     line_[write_ptr_] = sample;
 1324              		.loc 2 54 15 is_stmt 1 view .LVU358
 1325              	.LBB400:
  55:mi/plaits/dsp/physical_modelling/delay_line.h ****     write_ptr_ = (write_ptr_ - 1 + max_delay) % max_delay;
 1326              		.loc 2 55 23 is_stmt 0 view .LVU359
 1327 02f4 85ED007A 		vstr.32	s14, [r5]
 1328              	.LVL91:
  55:mi/plaits/dsp/physical_modelling/delay_line.h ****     write_ptr_ = (write_ptr_ - 1 + max_delay) % max_delay;
 1329              		.loc 2 55 23 view .LVU360
 1330              	.LBE400:
 1331              	.LBE417:
 177:mi/plaits/dsp/physical_modelling/string.cpp ****       
 178:mi/plaits/dsp/physical_modelling/string.cpp ****       dc_blocker_.Process(&s, 1);
