ARM GAS  /var/folders/9k/zk1mgrrd7wg4__6zvxvr9w8m0000gn/T//ccjjMUN9.s 			page 1


   1              		.cpu cortex-m7
   2              		.arch armv7e-m
   3              		.fpu fpv5-d16
   4              		.eabi_attribute 28, 1
   5              		.eabi_attribute 20, 1
   6              		.eabi_attribute 21, 1
   7              		.eabi_attribute 23, 3
   8              		.eabi_attribute 24, 1
   9              		.eabi_attribute 25, 1
  10              		.eabi_attribute 26, 1
  11              		.eabi_attribute 30, 2
  12              		.eabi_attribute 34, 1
  13              		.eabi_attribute 18, 4
  14              		.file	"snare_drum_engine.cpp"
  15              		.text
  16              	.Ltext0:
  17              		.cfi_sections	.debug_frame
  18              		.section	.text._ZN6plaits15SnareDrumEngine12LoadUserDataEPKh,"axG",%progbits,_ZN6plaits15SnareDrum
  19              		.align	1
  20              		.p2align 2,,3
  21              		.weak	_ZN6plaits15SnareDrumEngine12LoadUserDataEPKh
  22              		.syntax unified
  23              		.thumb
  24              		.thumb_func
  26              	_ZN6plaits15SnareDrumEngine12LoadUserDataEPKh:
  27              	.LVL0:
  28              	.LFB1597:
  29              		.file 1 "mi/plaits/dsp/engine/snare_drum_engine.h"
   1:mi/plaits/dsp/engine/snare_drum_engine.h **** // Copyright 2016 Emilie Gillet.
   2:mi/plaits/dsp/engine/snare_drum_engine.h **** //
   3:mi/plaits/dsp/engine/snare_drum_engine.h **** // Author: Emilie Gillet (emilie.o.gillet@gmail.com)
   4:mi/plaits/dsp/engine/snare_drum_engine.h **** //
   5:mi/plaits/dsp/engine/snare_drum_engine.h **** // Permission is hereby granted, free of charge, to any person obtaining a copy
   6:mi/plaits/dsp/engine/snare_drum_engine.h **** // of this software and associated documentation files (the "Software"), to deal
   7:mi/plaits/dsp/engine/snare_drum_engine.h **** // in the Software without restriction, including without limitation the rights
   8:mi/plaits/dsp/engine/snare_drum_engine.h **** // to use, copy, modify, merge, publish, distribute, sublicense, and/or sell
   9:mi/plaits/dsp/engine/snare_drum_engine.h **** // copies of the Software, and to permit persons to whom the Software is
  10:mi/plaits/dsp/engine/snare_drum_engine.h **** // furnished to do so, subject to the following conditions:
  11:mi/plaits/dsp/engine/snare_drum_engine.h **** // 
  12:mi/plaits/dsp/engine/snare_drum_engine.h **** // The above copyright notice and this permission notice shall be included in
  13:mi/plaits/dsp/engine/snare_drum_engine.h **** // all copies or substantial portions of the Software.
  14:mi/plaits/dsp/engine/snare_drum_engine.h **** // 
  15:mi/plaits/dsp/engine/snare_drum_engine.h **** // THE SOFTWARE IS PROVIDED "AS IS", WITHOUT WARRANTY OF ANY KIND, EXPRESS OR
  16:mi/plaits/dsp/engine/snare_drum_engine.h **** // IMPLIED, INCLUDING BUT NOT LIMITED TO THE WARRANTIES OF MERCHANTABILITY,
  17:mi/plaits/dsp/engine/snare_drum_engine.h **** // FITNESS FOR A PARTICULAR PURPOSE AND NONINFRINGEMENT. IN NO EVENT SHALL THE
  18:mi/plaits/dsp/engine/snare_drum_engine.h **** // AUTHORS OR COPYRIGHT HOLDERS BE LIABLE FOR ANY CLAIM, DAMAGES OR OTHER
  19:mi/plaits/dsp/engine/snare_drum_engine.h **** // LIABILITY, WHETHER IN AN ACTION OF CONTRACT, TORT OR OTHERWISE, ARISING FROM,
  20:mi/plaits/dsp/engine/snare_drum_engine.h **** // OUT OF OR IN CONNECTION WITH THE SOFTWARE OR THE USE OR OTHER DEALINGS IN
  21:mi/plaits/dsp/engine/snare_drum_engine.h **** // THE SOFTWARE.
  22:mi/plaits/dsp/engine/snare_drum_engine.h **** // 
  23:mi/plaits/dsp/engine/snare_drum_engine.h **** // See http://creativecommons.org/licenses/MIT/ for more information.
  24:mi/plaits/dsp/engine/snare_drum_engine.h **** //
  25:mi/plaits/dsp/engine/snare_drum_engine.h **** // -----------------------------------------------------------------------------
  26:mi/plaits/dsp/engine/snare_drum_engine.h **** //
  27:mi/plaits/dsp/engine/snare_drum_engine.h **** // 808 and synthetic snare drum generators.
  28:mi/plaits/dsp/engine/snare_drum_engine.h **** 
  29:mi/plaits/dsp/engine/snare_drum_engine.h **** #ifndef PLAITS_DSP_ENGINE_SNARE_DRUM_ENGINE_H_
ARM GAS  /var/folders/9k/zk1mgrrd7wg4__6zvxvr9w8m0000gn/T//ccjjMUN9.s 			page 2


  30:mi/plaits/dsp/engine/snare_drum_engine.h **** #define PLAITS_DSP_ENGINE_SNARE_DRUM_ENGINE_H_
  31:mi/plaits/dsp/engine/snare_drum_engine.h **** 
  32:mi/plaits/dsp/engine/snare_drum_engine.h **** #include "plaits/dsp/drums/analog_snare_drum.h"
  33:mi/plaits/dsp/engine/snare_drum_engine.h **** #include "plaits/dsp/drums/synthetic_snare_drum.h"
  34:mi/plaits/dsp/engine/snare_drum_engine.h **** #include "plaits/dsp/engine/engine.h"
  35:mi/plaits/dsp/engine/snare_drum_engine.h **** 
  36:mi/plaits/dsp/engine/snare_drum_engine.h **** namespace plaits {
  37:mi/plaits/dsp/engine/snare_drum_engine.h ****   
  38:mi/plaits/dsp/engine/snare_drum_engine.h **** class SnareDrumEngine : public Engine {
  39:mi/plaits/dsp/engine/snare_drum_engine.h ****  public:
  40:mi/plaits/dsp/engine/snare_drum_engine.h ****   SnareDrumEngine() { }
  41:mi/plaits/dsp/engine/snare_drum_engine.h ****   ~SnareDrumEngine() { }
  42:mi/plaits/dsp/engine/snare_drum_engine.h ****   
  43:mi/plaits/dsp/engine/snare_drum_engine.h ****   virtual void Init(stmlib::BufferAllocator* allocator);
  44:mi/plaits/dsp/engine/snare_drum_engine.h ****   virtual void Reset();
  45:mi/plaits/dsp/engine/snare_drum_engine.h ****   virtual void LoadUserData(const uint8_t* user_data) { }
  30              		.loc 1 45 16 view -0
  31              		.cfi_startproc
  32              		@ args = 0, pretend = 0, frame = 0
  33              		@ frame_needed = 0, uses_anonymous_args = 0
  34              		@ link register save eliminated.
  35              		.loc 1 45 57 is_stmt 0 view .LVU1
  36 0000 7047     		bx	lr
  37              		.cfi_endproc
  38              	.LFE1597:
  40 0002 00BF     		.section	.text._ZN6plaits15SnareDrumEngine4InitEPN6stmlib15BufferAllocatorE,"ax",%progbits
  41              		.align	1
  42              		.p2align 2,,3
  43              		.global	_ZN6plaits15SnareDrumEngine4InitEPN6stmlib15BufferAllocatorE
  44              		.syntax unified
  45              		.thumb
  46              		.thumb_func
  48              	_ZN6plaits15SnareDrumEngine4InitEPN6stmlib15BufferAllocatorE:
  49              	.LVL1:
  50              	.LFB1598:
  51              		.file 2 "mi/plaits/dsp/engine/snare_drum_engine.cpp"
   1:mi/plaits/dsp/engine/snare_drum_engine.cpp **** // Copyright 2016 Emilie Gillet.
   2:mi/plaits/dsp/engine/snare_drum_engine.cpp **** //
   3:mi/plaits/dsp/engine/snare_drum_engine.cpp **** // Author: Emilie Gillet (emilie.o.gillet@gmail.com)
   4:mi/plaits/dsp/engine/snare_drum_engine.cpp **** //
   5:mi/plaits/dsp/engine/snare_drum_engine.cpp **** // Permission is hereby granted, free of charge, to any person obtaining a copy
   6:mi/plaits/dsp/engine/snare_drum_engine.cpp **** // of this software and associated documentation files (the "Software"), to deal
   7:mi/plaits/dsp/engine/snare_drum_engine.cpp **** // in the Software without restriction, including without limitation the rights
   8:mi/plaits/dsp/engine/snare_drum_engine.cpp **** // to use, copy, modify, merge, publish, distribute, sublicense, and/or sell
   9:mi/plaits/dsp/engine/snare_drum_engine.cpp **** // copies of the Software, and to permit persons to whom the Software is
  10:mi/plaits/dsp/engine/snare_drum_engine.cpp **** // furnished to do so, subject to the following conditions:
  11:mi/plaits/dsp/engine/snare_drum_engine.cpp **** // 
  12:mi/plaits/dsp/engine/snare_drum_engine.cpp **** // The above copyright notice and this permission notice shall be included in
  13:mi/plaits/dsp/engine/snare_drum_engine.cpp **** // all copies or substantial portions of the Software.
  14:mi/plaits/dsp/engine/snare_drum_engine.cpp **** // 
  15:mi/plaits/dsp/engine/snare_drum_engine.cpp **** // THE SOFTWARE IS PROVIDED "AS IS", WITHOUT WARRANTY OF ANY KIND, EXPRESS OR
  16:mi/plaits/dsp/engine/snare_drum_engine.cpp **** // IMPLIED, INCLUDING BUT NOT LIMITED TO THE WARRANTIES OF MERCHANTABILITY,
  17:mi/plaits/dsp/engine/snare_drum_engine.cpp **** // FITNESS FOR A PARTICULAR PURPOSE AND NONINFRINGEMENT. IN NO EVENT SHALL THE
  18:mi/plaits/dsp/engine/snare_drum_engine.cpp **** // AUTHORS OR COPYRIGHT HOLDERS BE LIABLE FOR ANY CLAIM, DAMAGES OR OTHER
  19:mi/plaits/dsp/engine/snare_drum_engine.cpp **** // LIABILITY, WHETHER IN AN ACTION OF CONTRACT, TORT OR OTHERWISE, ARISING FROM,
  20:mi/plaits/dsp/engine/snare_drum_engine.cpp **** // OUT OF OR IN CONNECTION WITH THE SOFTWARE OR THE USE OR OTHER DEALINGS IN
  21:mi/plaits/dsp/engine/snare_drum_engine.cpp **** // THE SOFTWARE.
ARM GAS  /var/folders/9k/zk1mgrrd7wg4__6zvxvr9w8m0000gn/T//ccjjMUN9.s 			page 3


  22:mi/plaits/dsp/engine/snare_drum_engine.cpp **** // 
  23:mi/plaits/dsp/engine/snare_drum_engine.cpp **** // See http://creativecommons.org/licenses/MIT/ for more information.
  24:mi/plaits/dsp/engine/snare_drum_engine.cpp **** //
  25:mi/plaits/dsp/engine/snare_drum_engine.cpp **** // -----------------------------------------------------------------------------
  26:mi/plaits/dsp/engine/snare_drum_engine.cpp **** //
  27:mi/plaits/dsp/engine/snare_drum_engine.cpp **** // 808 and synthetic snare drum generators.
  28:mi/plaits/dsp/engine/snare_drum_engine.cpp **** 
  29:mi/plaits/dsp/engine/snare_drum_engine.cpp **** #include "plaits/dsp/engine/snare_drum_engine.h"
  30:mi/plaits/dsp/engine/snare_drum_engine.cpp **** 
  31:mi/plaits/dsp/engine/snare_drum_engine.cpp **** #include <algorithm>
  32:mi/plaits/dsp/engine/snare_drum_engine.cpp **** 
  33:mi/plaits/dsp/engine/snare_drum_engine.cpp **** namespace plaits {
  34:mi/plaits/dsp/engine/snare_drum_engine.cpp **** 
  35:mi/plaits/dsp/engine/snare_drum_engine.cpp **** using namespace std;
  36:mi/plaits/dsp/engine/snare_drum_engine.cpp **** using namespace stmlib;
  37:mi/plaits/dsp/engine/snare_drum_engine.cpp **** 
  38:mi/plaits/dsp/engine/snare_drum_engine.cpp **** void SnareDrumEngine::Init(BufferAllocator* allocator) {
  52              		.loc 2 38 56 is_stmt 1 view -0
  53              		.cfi_startproc
  54              		@ args = 0, pretend = 0, frame = 0
  55              		@ frame_needed = 0, uses_anonymous_args = 0
  39:mi/plaits/dsp/engine/snare_drum_engine.cpp ****   analog_snare_drum_.Init();
  56              		.loc 2 39 3 view .LVU3
  57              	.LBB175:
  58              	.LBB176:
  59              		.file 3 "mi/plaits/dsp/drums/analog_snare_drum.h"
   1:mi/plaits/dsp/drums/analog_snare_drum.h **** // Copyright 2016 Emilie Gillet.
   2:mi/plaits/dsp/drums/analog_snare_drum.h **** //
   3:mi/plaits/dsp/drums/analog_snare_drum.h **** // Author: Emilie Gillet (emilie.o.gillet@gmail.com)
   4:mi/plaits/dsp/drums/analog_snare_drum.h **** //
   5:mi/plaits/dsp/drums/analog_snare_drum.h **** // Permission is hereby granted, free of charge, to any person obtaining a copy
   6:mi/plaits/dsp/drums/analog_snare_drum.h **** // of this software and associated documentation files (the "Software"), to deal
   7:mi/plaits/dsp/drums/analog_snare_drum.h **** // in the Software without restriction, including without limitation the rights
   8:mi/plaits/dsp/drums/analog_snare_drum.h **** // to use, copy, modify, merge, publish, distribute, sublicense, and/or sell
   9:mi/plaits/dsp/drums/analog_snare_drum.h **** // copies of the Software, and to permit persons to whom the Software is
  10:mi/plaits/dsp/drums/analog_snare_drum.h **** // furnished to do so, subject to the following conditions:
  11:mi/plaits/dsp/drums/analog_snare_drum.h **** // 
  12:mi/plaits/dsp/drums/analog_snare_drum.h **** // The above copyright notice and this permission notice shall be included in
  13:mi/plaits/dsp/drums/analog_snare_drum.h **** // all copies or substantial portions of the Software.
  14:mi/plaits/dsp/drums/analog_snare_drum.h **** // 
  15:mi/plaits/dsp/drums/analog_snare_drum.h **** // THE SOFTWARE IS PROVIDED "AS IS", WITHOUT WARRANTY OF ANY KIND, EXPRESS OR
  16:mi/plaits/dsp/drums/analog_snare_drum.h **** // IMPLIED, INCLUDING BUT NOT LIMITED TO THE WARRANTIES OF MERCHANTABILITY,
  17:mi/plaits/dsp/drums/analog_snare_drum.h **** // FITNESS FOR A PARTICULAR PURPOSE AND NONINFRINGEMENT. IN NO EVENT SHALL THE
  18:mi/plaits/dsp/drums/analog_snare_drum.h **** // AUTHORS OR COPYRIGHT HOLDERS BE LIABLE FOR ANY CLAIM, DAMAGES OR OTHER
  19:mi/plaits/dsp/drums/analog_snare_drum.h **** // LIABILITY, WHETHER IN AN ACTION OF CONTRACT, TORT OR OTHERWISE, ARISING FROM,
  20:mi/plaits/dsp/drums/analog_snare_drum.h **** // OUT OF OR IN CONNECTION WITH THE SOFTWARE OR THE USE OR OTHER DEALINGS IN
  21:mi/plaits/dsp/drums/analog_snare_drum.h **** // THE SOFTWARE.
  22:mi/plaits/dsp/drums/analog_snare_drum.h **** // 
  23:mi/plaits/dsp/drums/analog_snare_drum.h **** // See http://creativecommons.org/licenses/MIT/ for more information.
  24:mi/plaits/dsp/drums/analog_snare_drum.h **** //
  25:mi/plaits/dsp/drums/analog_snare_drum.h **** // -----------------------------------------------------------------------------
  26:mi/plaits/dsp/drums/analog_snare_drum.h **** //
  27:mi/plaits/dsp/drums/analog_snare_drum.h **** // 808 snare drum model, revisited.
  28:mi/plaits/dsp/drums/analog_snare_drum.h **** 
  29:mi/plaits/dsp/drums/analog_snare_drum.h **** #ifndef PLAITS_DSP_DRUMS_ANALOG_SNARE_DRUM_H_
  30:mi/plaits/dsp/drums/analog_snare_drum.h **** #define PLAITS_DSP_DRUMS_ANALOG_SNARE_DRUM_H_
  31:mi/plaits/dsp/drums/analog_snare_drum.h **** 
ARM GAS  /var/folders/9k/zk1mgrrd7wg4__6zvxvr9w8m0000gn/T//ccjjMUN9.s 			page 4


  32:mi/plaits/dsp/drums/analog_snare_drum.h **** #include <algorithm>
  33:mi/plaits/dsp/drums/analog_snare_drum.h **** 
  34:mi/plaits/dsp/drums/analog_snare_drum.h **** #include "stmlib/dsp/dsp.h"
  35:mi/plaits/dsp/drums/analog_snare_drum.h **** #include "stmlib/dsp/filter.h"
  36:mi/plaits/dsp/drums/analog_snare_drum.h **** #include "stmlib/dsp/parameter_interpolator.h"
  37:mi/plaits/dsp/drums/analog_snare_drum.h **** #include "stmlib/dsp/units.h"
  38:mi/plaits/dsp/drums/analog_snare_drum.h **** #include "stmlib/utils/random.h"
  39:mi/plaits/dsp/drums/analog_snare_drum.h **** 
  40:mi/plaits/dsp/drums/analog_snare_drum.h **** #include "plaits/dsp/dsp.h"
  41:mi/plaits/dsp/drums/analog_snare_drum.h **** #include "plaits/dsp/oscillator/sine_oscillator.h"
  42:mi/plaits/dsp/drums/analog_snare_drum.h **** 
  43:mi/plaits/dsp/drums/analog_snare_drum.h **** namespace plaits {
  44:mi/plaits/dsp/drums/analog_snare_drum.h **** 
  45:mi/plaits/dsp/drums/analog_snare_drum.h **** class AnalogSnareDrum {
  46:mi/plaits/dsp/drums/analog_snare_drum.h ****  public:
  47:mi/plaits/dsp/drums/analog_snare_drum.h ****   AnalogSnareDrum() { }
  48:mi/plaits/dsp/drums/analog_snare_drum.h ****   ~AnalogSnareDrum() { }
  49:mi/plaits/dsp/drums/analog_snare_drum.h **** 
  50:mi/plaits/dsp/drums/analog_snare_drum.h ****   static const int kNumModes = 5;
  51:mi/plaits/dsp/drums/analog_snare_drum.h **** 
  52:mi/plaits/dsp/drums/analog_snare_drum.h ****   void Init() {
  53:mi/plaits/dsp/drums/analog_snare_drum.h ****     pulse_remaining_samples_ = 0;
  60              		.loc 3 53 30 is_stmt 0 view .LVU4
  61 0000 0021     		movs	r1, #0
  62              	.LVL2:
  63              		.loc 3 53 30 view .LVU5
  64              	.LBE176:
  65              	.LBI175:
  52:mi/plaits/dsp/drums/analog_snare_drum.h ****     pulse_remaining_samples_ = 0;
  66              		.loc 3 52 8 is_stmt 1 view .LVU6
  67              	.LBB222:
  68              		.loc 3 53 5 view .LVU7
  54:mi/plaits/dsp/drums/analog_snare_drum.h ****     pulse_ = 0.0f;
  69              		.loc 3 54 12 is_stmt 0 view .LVU8
  70 0002 0023     		movs	r3, #0
  71 0004 0246     		mov	r2, r0
  53:mi/plaits/dsp/drums/analog_snare_drum.h ****     pulse_ = 0.0f;
  72              		.loc 3 53 30 view .LVU9
  73 0006 0161     		str	r1, [r0, #16]
  74              		.loc 3 54 5 is_stmt 1 view .LVU10
  55:mi/plaits/dsp/drums/analog_snare_drum.h ****     pulse_height_ = 0.0f;
  56:mi/plaits/dsp/drums/analog_snare_drum.h ****     pulse_lp_ = 0.0f;
  57:mi/plaits/dsp/drums/analog_snare_drum.h ****     noise_envelope_ = 0.0f;
  58:mi/plaits/dsp/drums/analog_snare_drum.h ****     sustain_gain_ = 0.0f;
  75              		.loc 3 58 19 is_stmt 0 view .LVU11
  76 0008 0146     		mov	r1, r0
  54:mi/plaits/dsp/drums/analog_snare_drum.h ****     pulse_height_ = 0.0f;
  77              		.loc 3 54 12 view .LVU12
  78 000a 4361     		str	r3, [r0, #20]	@ float
  55:mi/plaits/dsp/drums/analog_snare_drum.h ****     pulse_height_ = 0.0f;
  79              		.loc 3 55 5 is_stmt 1 view .LVU13
  55:mi/plaits/dsp/drums/analog_snare_drum.h ****     pulse_height_ = 0.0f;
  80              		.loc 3 55 19 is_stmt 0 view .LVU14
  81 000c 8361     		str	r3, [r0, #24]	@ float
  56:mi/plaits/dsp/drums/analog_snare_drum.h ****     noise_envelope_ = 0.0f;
  82              		.loc 3 56 5 is_stmt 1 view .LVU15
  56:mi/plaits/dsp/drums/analog_snare_drum.h ****     noise_envelope_ = 0.0f;
ARM GAS  /var/folders/9k/zk1mgrrd7wg4__6zvxvr9w8m0000gn/T//ccjjMUN9.s 			page 5


  83              		.loc 3 56 15 is_stmt 0 view .LVU16
  84 000e C361     		str	r3, [r0, #28]	@ float
  57:mi/plaits/dsp/drums/analog_snare_drum.h ****     sustain_gain_ = 0.0f;
  85              		.loc 3 57 5 is_stmt 1 view .LVU17
  57:mi/plaits/dsp/drums/analog_snare_drum.h ****     sustain_gain_ = 0.0f;
  86              		.loc 3 57 21 is_stmt 0 view .LVU18
  87 0010 0362     		str	r3, [r0, #32]	@ float
  88              		.loc 3 58 5 is_stmt 1 view .LVU19
  89              		.loc 3 58 19 is_stmt 0 view .LVU20
  90 0012 4362     		str	r3, [r0, #36]	@ float
  59:mi/plaits/dsp/drums/analog_snare_drum.h **** 
  60:mi/plaits/dsp/drums/analog_snare_drum.h ****     for (int i = 0; i < kNumModes; ++i) {
  91              		.loc 3 60 5 is_stmt 1 view .LVU21
  92              	.LVL3:
  93              	.LBB177:
  94              		.loc 3 60 23 view .LVU22
  95              	.LBE177:
  96              	.LBE222:
  97              	.LBE175:
  38:mi/plaits/dsp/engine/snare_drum_engine.cpp ****   analog_snare_drum_.Init();
  98              		.loc 2 38 56 is_stmt 0 view .LVU23
  99 0014 10B5     		push	{r4, lr}
 100              		.cfi_def_cfa_offset 8
 101              		.cfi_offset 4, -8
 102              		.cfi_offset 14, -4
 103 0016 00F16404 		add	r4, r0, #100
 104              	.LVL4:
 105              	.L4:
 106              	.LBB231:
 107              	.LBB223:
 108              	.LBB202:
  61:mi/plaits/dsp/drums/analog_snare_drum.h ****       resonator_[i].Init();
 109              		.loc 3 61 7 is_stmt 1 view .LVU24
 110              	.LBB178:
 111              	.LBI178:
 112              		.file 4 "mi/stmlib/dsp/filter.h"
   1:mi/stmlib/dsp/filter.h **** // Copyright 2014 Emilie Gillet.
   2:mi/stmlib/dsp/filter.h **** //
   3:mi/stmlib/dsp/filter.h **** // Author: Emilie Gillet (emilie.o.gillet@gmail.com)
   4:mi/stmlib/dsp/filter.h **** //
   5:mi/stmlib/dsp/filter.h **** // Permission is hereby granted, free of charge, to any person obtaining a copy
   6:mi/stmlib/dsp/filter.h **** // of this software and associated documentation files (the "Software"), to deal
   7:mi/stmlib/dsp/filter.h **** // in the Software without restriction, including without limitation the rights
   8:mi/stmlib/dsp/filter.h **** // to use, copy, modify, merge, publish, distribute, sublicense, and/or sell
   9:mi/stmlib/dsp/filter.h **** // copies of the Software, and to permit persons to whom the Software is
  10:mi/stmlib/dsp/filter.h **** // furnished to do so, subject to the following conditions:
  11:mi/stmlib/dsp/filter.h **** // 
  12:mi/stmlib/dsp/filter.h **** // The above copyright notice and this permission notice shall be included in
  13:mi/stmlib/dsp/filter.h **** // all copies or substantial portions of the Software.
  14:mi/stmlib/dsp/filter.h **** // 
  15:mi/stmlib/dsp/filter.h **** // THE SOFTWARE IS PROVIDED "AS IS", WITHOUT WARRANTY OF ANY KIND, EXPRESS OR
  16:mi/stmlib/dsp/filter.h **** // IMPLIED, INCLUDING BUT NOT LIMITED TO THE WARRANTIES OF MERCHANTABILITY,
  17:mi/stmlib/dsp/filter.h **** // FITNESS FOR A PARTICULAR PURPOSE AND NONINFRINGEMENT. IN NO EVENT SHALL THE
  18:mi/stmlib/dsp/filter.h **** // AUTHORS OR COPYRIGHT HOLDERS BE LIABLE FOR ANY CLAIM, DAMAGES OR OTHER
  19:mi/stmlib/dsp/filter.h **** // LIABILITY, WHETHER IN AN ACTION OF CONTRACT, TORT OR OTHERWISE, ARISING FROM,
  20:mi/stmlib/dsp/filter.h **** // OUT OF OR IN CONNECTION WITH THE SOFTWARE OR THE USE OR OTHER DEALINGS IN
  21:mi/stmlib/dsp/filter.h **** // THE SOFTWARE.
ARM GAS  /var/folders/9k/zk1mgrrd7wg4__6zvxvr9w8m0000gn/T//ccjjMUN9.s 			page 6


  22:mi/stmlib/dsp/filter.h **** // 
  23:mi/stmlib/dsp/filter.h **** // See http://creativecommons.org/licenses/MIT/ for more information.
  24:mi/stmlib/dsp/filter.h **** //
  25:mi/stmlib/dsp/filter.h **** // -----------------------------------------------------------------------------
  26:mi/stmlib/dsp/filter.h **** //
  27:mi/stmlib/dsp/filter.h **** // Zero-delay-feedback filters (one pole and SVF).
  28:mi/stmlib/dsp/filter.h **** // Naive SVF.
  29:mi/stmlib/dsp/filter.h **** 
  30:mi/stmlib/dsp/filter.h **** #ifndef STMLIB_DSP_FILTER_H_
  31:mi/stmlib/dsp/filter.h **** #define STMLIB_DSP_FILTER_H_
  32:mi/stmlib/dsp/filter.h **** 
  33:mi/stmlib/dsp/filter.h **** #include "stmlib/stmlib.h"
  34:mi/stmlib/dsp/filter.h **** 
  35:mi/stmlib/dsp/filter.h **** #include <cmath>
  36:mi/stmlib/dsp/filter.h **** #include <algorithm>
  37:mi/stmlib/dsp/filter.h **** 
  38:mi/stmlib/dsp/filter.h **** namespace stmlib {
  39:mi/stmlib/dsp/filter.h **** 
  40:mi/stmlib/dsp/filter.h **** enum FilterMode {
  41:mi/stmlib/dsp/filter.h ****   FILTER_MODE_LOW_PASS,
  42:mi/stmlib/dsp/filter.h ****   FILTER_MODE_BAND_PASS,
  43:mi/stmlib/dsp/filter.h ****   FILTER_MODE_BAND_PASS_NORMALIZED,
  44:mi/stmlib/dsp/filter.h ****   FILTER_MODE_HIGH_PASS
  45:mi/stmlib/dsp/filter.h **** };
  46:mi/stmlib/dsp/filter.h **** 
  47:mi/stmlib/dsp/filter.h **** enum FrequencyApproximation {
  48:mi/stmlib/dsp/filter.h ****   FREQUENCY_EXACT,
  49:mi/stmlib/dsp/filter.h ****   FREQUENCY_ACCURATE,
  50:mi/stmlib/dsp/filter.h ****   FREQUENCY_FAST,
  51:mi/stmlib/dsp/filter.h ****   FREQUENCY_DIRTY
  52:mi/stmlib/dsp/filter.h **** };
  53:mi/stmlib/dsp/filter.h **** 
  54:mi/stmlib/dsp/filter.h **** #define M_PI_F float(M_PI)
  55:mi/stmlib/dsp/filter.h **** #define M_PI_POW_2 M_PI * M_PI
  56:mi/stmlib/dsp/filter.h **** #define M_PI_POW_3 M_PI_POW_2 * M_PI
  57:mi/stmlib/dsp/filter.h **** #define M_PI_POW_5 M_PI_POW_3 * M_PI_POW_2
  58:mi/stmlib/dsp/filter.h **** #define M_PI_POW_7 M_PI_POW_5 * M_PI_POW_2
  59:mi/stmlib/dsp/filter.h **** #define M_PI_POW_9 M_PI_POW_7 * M_PI_POW_2
  60:mi/stmlib/dsp/filter.h **** #define M_PI_POW_11 M_PI_POW_9 * M_PI_POW_2
  61:mi/stmlib/dsp/filter.h **** 
  62:mi/stmlib/dsp/filter.h **** class DCBlocker {
  63:mi/stmlib/dsp/filter.h ****  public:
  64:mi/stmlib/dsp/filter.h ****   DCBlocker() { }
  65:mi/stmlib/dsp/filter.h ****   ~DCBlocker() { }
  66:mi/stmlib/dsp/filter.h ****   
  67:mi/stmlib/dsp/filter.h ****   void Init(float pole) {
  68:mi/stmlib/dsp/filter.h ****     x_ = 0.0f;
  69:mi/stmlib/dsp/filter.h ****     y_ = 0.0f;
  70:mi/stmlib/dsp/filter.h ****     pole_ = pole;
  71:mi/stmlib/dsp/filter.h ****   }
  72:mi/stmlib/dsp/filter.h ****   
  73:mi/stmlib/dsp/filter.h ****   inline void Process(float* in_out, size_t size) {
  74:mi/stmlib/dsp/filter.h ****     float x = x_;
  75:mi/stmlib/dsp/filter.h ****     float y = y_;
  76:mi/stmlib/dsp/filter.h ****     const float pole = pole_;
  77:mi/stmlib/dsp/filter.h ****     while (size--) {
  78:mi/stmlib/dsp/filter.h ****       float old_x = x;
ARM GAS  /var/folders/9k/zk1mgrrd7wg4__6zvxvr9w8m0000gn/T//ccjjMUN9.s 			page 7


  79:mi/stmlib/dsp/filter.h ****       x = *in_out;
  80:mi/stmlib/dsp/filter.h ****       *in_out++ = y = y * pole + x - old_x;
  81:mi/stmlib/dsp/filter.h ****     }
  82:mi/stmlib/dsp/filter.h ****     x_ = x;
  83:mi/stmlib/dsp/filter.h ****     y_ = y;
  84:mi/stmlib/dsp/filter.h ****   }
  85:mi/stmlib/dsp/filter.h ****   
  86:mi/stmlib/dsp/filter.h ****  private:
  87:mi/stmlib/dsp/filter.h ****   float pole_;
  88:mi/stmlib/dsp/filter.h ****   float x_;
  89:mi/stmlib/dsp/filter.h ****   float y_;
  90:mi/stmlib/dsp/filter.h **** };
  91:mi/stmlib/dsp/filter.h **** 
  92:mi/stmlib/dsp/filter.h **** class OnePole {
  93:mi/stmlib/dsp/filter.h ****  public:
  94:mi/stmlib/dsp/filter.h ****   OnePole() { }
  95:mi/stmlib/dsp/filter.h ****   ~OnePole() { }
  96:mi/stmlib/dsp/filter.h ****   
  97:mi/stmlib/dsp/filter.h ****   void Init() {
  98:mi/stmlib/dsp/filter.h ****     set_f<FREQUENCY_DIRTY>(0.01f);
  99:mi/stmlib/dsp/filter.h ****     Reset();
 100:mi/stmlib/dsp/filter.h ****   }
 101:mi/stmlib/dsp/filter.h ****   
 102:mi/stmlib/dsp/filter.h ****   void Reset() {
 103:mi/stmlib/dsp/filter.h ****     state_ = 0.0f;
 104:mi/stmlib/dsp/filter.h ****   }
 105:mi/stmlib/dsp/filter.h ****   
 106:mi/stmlib/dsp/filter.h ****   template<FrequencyApproximation approximation>
 107:mi/stmlib/dsp/filter.h ****   static inline float tan(float f) {
 108:mi/stmlib/dsp/filter.h ****     if (approximation == FREQUENCY_EXACT) {
 109:mi/stmlib/dsp/filter.h ****       // Clip coefficient to about 100.
 110:mi/stmlib/dsp/filter.h ****       f = f < 0.497f ? f : 0.497f;
 111:mi/stmlib/dsp/filter.h ****       return tanf(M_PI_F * f);
 112:mi/stmlib/dsp/filter.h ****     } else if (approximation == FREQUENCY_DIRTY) {
 113:mi/stmlib/dsp/filter.h ****       // Optimized for frequencies below 8kHz.
 114:mi/stmlib/dsp/filter.h ****       const float a = 3.736e-01f * M_PI_POW_3;
 115:mi/stmlib/dsp/filter.h ****       return f * (M_PI_F + a * f * f);
 116:mi/stmlib/dsp/filter.h ****     } else if (approximation == FREQUENCY_FAST) {
 117:mi/stmlib/dsp/filter.h ****       // The usual tangent approximation uses 3.1755e-01 and 2.033e-01, but
 118:mi/stmlib/dsp/filter.h ****       // the coefficients used here are optimized to minimize error for the
 119:mi/stmlib/dsp/filter.h ****       // 16Hz to 16kHz range, with a sample rate of 48kHz.
 120:mi/stmlib/dsp/filter.h ****       const float a = 3.260e-01f * M_PI_POW_3;
 121:mi/stmlib/dsp/filter.h ****       const float b = 1.823e-01f * M_PI_POW_5;
 122:mi/stmlib/dsp/filter.h ****       float f2 = f * f;
 123:mi/stmlib/dsp/filter.h ****       return f * (M_PI_F + f2 * (a + b * f2));
 124:mi/stmlib/dsp/filter.h ****     } else if (approximation == FREQUENCY_ACCURATE) {
 125:mi/stmlib/dsp/filter.h ****       // These coefficients don't need to be tweaked for the audio range.
 126:mi/stmlib/dsp/filter.h ****       const float a = 3.333314036e-01f * M_PI_POW_3;
 127:mi/stmlib/dsp/filter.h ****       const float b = 1.333923995e-01f * M_PI_POW_5;
 128:mi/stmlib/dsp/filter.h ****       const float c = 5.33740603e-02f * M_PI_POW_7;
 129:mi/stmlib/dsp/filter.h ****       const float d = 2.900525e-03f * M_PI_POW_9;
 130:mi/stmlib/dsp/filter.h ****       const float e = 9.5168091e-03f * M_PI_POW_11;
 131:mi/stmlib/dsp/filter.h ****       float f2 = f * f;
 132:mi/stmlib/dsp/filter.h ****       return f * (M_PI_F + f2 * (a + f2 * (b + f2 * (c + f2 * (d + f2 * e)))));
 133:mi/stmlib/dsp/filter.h ****     }
 134:mi/stmlib/dsp/filter.h ****   }
 135:mi/stmlib/dsp/filter.h ****   
ARM GAS  /var/folders/9k/zk1mgrrd7wg4__6zvxvr9w8m0000gn/T//ccjjMUN9.s 			page 8


 136:mi/stmlib/dsp/filter.h ****   // Set frequency and resonance from true units. Various approximations
 137:mi/stmlib/dsp/filter.h ****   // are available to avoid the cost of tanf.
 138:mi/stmlib/dsp/filter.h ****   template<FrequencyApproximation approximation>
 139:mi/stmlib/dsp/filter.h ****   inline void set_f(float f) {
 140:mi/stmlib/dsp/filter.h ****     g_ = tan<approximation>(f);
 141:mi/stmlib/dsp/filter.h ****     gi_ = 1.0f / (1.0f + g_);
 142:mi/stmlib/dsp/filter.h ****   }
 143:mi/stmlib/dsp/filter.h ****   
 144:mi/stmlib/dsp/filter.h ****   template<FilterMode mode>
 145:mi/stmlib/dsp/filter.h ****   inline float Process(float in) {
 146:mi/stmlib/dsp/filter.h ****     float lp;
 147:mi/stmlib/dsp/filter.h ****     lp = (g_ * in + state_) * gi_;
 148:mi/stmlib/dsp/filter.h ****     state_ = g_ * (in - lp) + lp;
 149:mi/stmlib/dsp/filter.h **** 
 150:mi/stmlib/dsp/filter.h ****     if (mode == FILTER_MODE_LOW_PASS) {
 151:mi/stmlib/dsp/filter.h ****       return lp;
 152:mi/stmlib/dsp/filter.h ****     } else if (mode == FILTER_MODE_HIGH_PASS) {
 153:mi/stmlib/dsp/filter.h ****       return in - lp;
 154:mi/stmlib/dsp/filter.h ****     } else {
 155:mi/stmlib/dsp/filter.h ****       return 0.0f;
 156:mi/stmlib/dsp/filter.h ****     }
 157:mi/stmlib/dsp/filter.h ****   }
 158:mi/stmlib/dsp/filter.h ****   
 159:mi/stmlib/dsp/filter.h ****   template<FilterMode mode>
 160:mi/stmlib/dsp/filter.h ****   inline void Process(float* in_out, size_t size) {
 161:mi/stmlib/dsp/filter.h ****     while (size--) {
 162:mi/stmlib/dsp/filter.h ****       *in_out = Process<mode>(*in_out);
 163:mi/stmlib/dsp/filter.h ****       ++in_out;
 164:mi/stmlib/dsp/filter.h ****     }
 165:mi/stmlib/dsp/filter.h ****   }
 166:mi/stmlib/dsp/filter.h ****   
 167:mi/stmlib/dsp/filter.h ****  private:
 168:mi/stmlib/dsp/filter.h ****   float g_;
 169:mi/stmlib/dsp/filter.h ****   float gi_;
 170:mi/stmlib/dsp/filter.h ****   float state_;
 171:mi/stmlib/dsp/filter.h ****   
 172:mi/stmlib/dsp/filter.h ****   DISALLOW_COPY_AND_ASSIGN(OnePole);
 173:mi/stmlib/dsp/filter.h **** };
 174:mi/stmlib/dsp/filter.h **** 
 175:mi/stmlib/dsp/filter.h **** 
 176:mi/stmlib/dsp/filter.h **** 
 177:mi/stmlib/dsp/filter.h **** class Svf {
 178:mi/stmlib/dsp/filter.h ****  public:
 179:mi/stmlib/dsp/filter.h ****   Svf() { }
 180:mi/stmlib/dsp/filter.h ****   ~Svf() { }
 181:mi/stmlib/dsp/filter.h ****   
 182:mi/stmlib/dsp/filter.h ****   void Init() {
 113              		.loc 4 182 8 view .LVU25
 114              	.LBE178:
 115              	.LBE202:
 116              	.LBE223:
 117              	.LBE231:
 183:mi/stmlib/dsp/filter.h ****     set_f_q<FREQUENCY_DIRTY>(0.01f, 100.0f);
 118              		.loc 4 183 5 view .LVU26
 119              	.LBB232:
 120              	.LBB224:
 121              	.LBB203:
ARM GAS  /var/folders/9k/zk1mgrrd7wg4__6zvxvr9w8m0000gn/T//ccjjMUN9.s 			page 9


 122              	.LBB194:
 123              	.LBB179:
 124              	.LBI179:
 184:mi/stmlib/dsp/filter.h ****     Reset();
 185:mi/stmlib/dsp/filter.h ****   }
 186:mi/stmlib/dsp/filter.h ****   
 187:mi/stmlib/dsp/filter.h ****   void Reset() {
 188:mi/stmlib/dsp/filter.h ****     state_1_ = state_2_ = 0.0f;
 189:mi/stmlib/dsp/filter.h ****   }
 190:mi/stmlib/dsp/filter.h ****   
 191:mi/stmlib/dsp/filter.h ****   // Copy settings from another filter.
 192:mi/stmlib/dsp/filter.h ****   inline void set(const Svf& f) {
 193:mi/stmlib/dsp/filter.h ****     g_ = f.g();
 194:mi/stmlib/dsp/filter.h ****     r_ = f.r();
 195:mi/stmlib/dsp/filter.h ****     h_ = f.h();
 196:mi/stmlib/dsp/filter.h ****   }
 197:mi/stmlib/dsp/filter.h **** 
 198:mi/stmlib/dsp/filter.h ****   // Set all parameters from LUT.
 199:mi/stmlib/dsp/filter.h ****   inline void set_g_r_h(float g, float r, float h) {
 200:mi/stmlib/dsp/filter.h ****     g_ = g;
 201:mi/stmlib/dsp/filter.h ****     r_ = r;
 202:mi/stmlib/dsp/filter.h ****     h_ = h;
 203:mi/stmlib/dsp/filter.h ****   }
 204:mi/stmlib/dsp/filter.h ****   
 205:mi/stmlib/dsp/filter.h ****   // Set frequency and resonance coefficients from LUT, adjust remaining
 206:mi/stmlib/dsp/filter.h ****   // parameter.
 207:mi/stmlib/dsp/filter.h ****   inline void set_g_r(float g, float r) {
 208:mi/stmlib/dsp/filter.h ****     g_ = g;
 209:mi/stmlib/dsp/filter.h ****     r_ = r;
 210:mi/stmlib/dsp/filter.h ****     h_ = 1.0f / (1.0f + r_ * g_ + g_ * g_);
 211:mi/stmlib/dsp/filter.h ****   }
 212:mi/stmlib/dsp/filter.h **** 
 213:mi/stmlib/dsp/filter.h ****   // Set frequency from LUT, resonance in true units, adjust the rest.
 214:mi/stmlib/dsp/filter.h ****   inline void set_g_q(float g, float resonance) {
 215:mi/stmlib/dsp/filter.h ****     g_ = g;
 216:mi/stmlib/dsp/filter.h ****     r_ = 1.0f / resonance;
 217:mi/stmlib/dsp/filter.h ****     h_ = 1.0f / (1.0f + r_ * g_ + g_ * g_);
 218:mi/stmlib/dsp/filter.h ****   }
 219:mi/stmlib/dsp/filter.h **** 
 220:mi/stmlib/dsp/filter.h ****   // Set frequency and resonance from true units. Various approximations
 221:mi/stmlib/dsp/filter.h ****   // are available to avoid the cost of tanf.
 222:mi/stmlib/dsp/filter.h ****   template<FrequencyApproximation approximation>
 223:mi/stmlib/dsp/filter.h ****   inline void set_f_q(float f, float resonance) {
 125              		.loc 4 223 15 view .LVU27
 126              		.loc 4 223 15 is_stmt 0 view .LVU28
 127              	.LBE179:
 128              	.LBB184:
 129              	.LBB185:
 188:mi/stmlib/dsp/filter.h ****   }
 130              		.loc 4 188 25 view .LVU29
 131 001a 0023     		movs	r3, #0
 132              	.LBE185:
 133              	.LBE184:
 134              	.LBB188:
 135              	.LBB180:
 224:mi/stmlib/dsp/filter.h ****     g_ = OnePole::tan<approximation>(f);
 136              		.loc 4 224 8 view .LVU30
ARM GAS  /var/folders/9k/zk1mgrrd7wg4__6zvxvr9w8m0000gn/T//ccjjMUN9.s 			page 10


 137 001c DFF898C0 		ldr	ip, .L7+8
 225:mi/stmlib/dsp/filter.h ****     r_ = 1.0f / resonance;
 138              		.loc 4 225 8 view .LVU31
 139 0020 DFED237A 		vldr.32	s15, .L7
 140              	.LBE180:
 141              	.LBE188:
 142              	.LBE194:
  60:mi/plaits/dsp/drums/analog_snare_drum.h ****       resonator_[i].Init();
 143              		.loc 3 60 23 view .LVU32
 144 0024 1432     		adds	r2, r2, #20
 145              	.LBB195:
 146              	.LBB189:
 147              	.LBB181:
 226:mi/stmlib/dsp/filter.h ****     h_ = 1.0f / (1.0f + r_ * g_ + g_ * g_);
 148              		.loc 4 226 8 view .LVU33
 149 0026 DFF894E0 		ldr	lr, .L7+12
 150              	.LBE181:
 151              	.LBE189:
 152              	.LBE195:
  60:mi/plaits/dsp/drums/analog_snare_drum.h ****       resonator_[i].Init();
 153              		.loc 3 60 23 view .LVU34
 154 002a 0C31     		adds	r1, r1, #12
 155              	.LBB196:
 156              	.LBB190:
 157              	.LBB182:
 224:mi/stmlib/dsp/filter.h ****     r_ = 1.0f / resonance;
 158              		.loc 4 224 8 view .LVU35
 159 002c C2F814C0 		str	ip, [r2, #20]	@ float
 160              	.LBE182:
 161              	.LBE190:
 162              	.LBB191:
 163              	.LBB186:
 188:mi/stmlib/dsp/filter.h ****   }
 164              		.loc 4 188 25 view .LVU36
 165 0030 5362     		str	r3, [r2, #36]	@ float
 166              	.LBE186:
 167              	.LBE191:
 168              	.LBB192:
 169              	.LBB183:
 225:mi/stmlib/dsp/filter.h ****     h_ = 1.0f / (1.0f + r_ * g_ + g_ * g_);
 170              		.loc 4 225 8 view .LVU37
 171 0032 C2ED067A 		vstr.32	s15, [r2, #24]
 172              		.loc 4 226 8 view .LVU38
 173 0036 C2F81CE0 		str	lr, [r2, #28]	@ float
 174              	.LVL5:
 175              		.loc 4 226 8 view .LVU39
 176              	.LBE183:
 177              	.LBE192:
 178              	.LBE196:
 179              	.LBE203:
 180              	.LBE224:
 181              	.LBE232:
 184:mi/stmlib/dsp/filter.h ****   }
 182              		.loc 4 184 5 is_stmt 1 view .LVU40
 183              	.LBB233:
 184              	.LBB225:
 185              	.LBB204:
ARM GAS  /var/folders/9k/zk1mgrrd7wg4__6zvxvr9w8m0000gn/T//ccjjMUN9.s 			page 11


 186              	.LBB197:
 187              	.LBB193:
 188              	.LBI184:
 187:mi/stmlib/dsp/filter.h ****     state_1_ = state_2_ = 0.0f;
 189              		.loc 4 187 8 view .LVU41
 190              	.LBB187:
 188:mi/stmlib/dsp/filter.h ****   }
 191              		.loc 4 188 5 view .LVU42
 188:mi/stmlib/dsp/filter.h ****   }
 192              		.loc 4 188 14 is_stmt 0 view .LVU43
 193 003a 1362     		str	r3, [r2, #32]	@ float
 188:mi/stmlib/dsp/filter.h ****   }
 194              		.loc 4 188 14 view .LVU44
 195              	.LBE187:
 196              	.LBE193:
 197              	.LBE197:
  62:mi/plaits/dsp/drums/analog_snare_drum.h ****       oscillator_[i].Init();
 198              		.loc 3 62 7 is_stmt 1 view .LVU45
 199              	.LVL6:
 200              	.LBB198:
 201              	.LBI198:
 202              		.file 5 "mi/plaits/dsp/oscillator/sine_oscillator.h"
   1:mi/plaits/dsp/oscillator/sine_oscillator.h **** // Copyright 2016 Emilie Gillet.
   2:mi/plaits/dsp/oscillator/sine_oscillator.h **** //
   3:mi/plaits/dsp/oscillator/sine_oscillator.h **** // Author: Emilie Gillet (emilie.o.gillet@gmail.com)
   4:mi/plaits/dsp/oscillator/sine_oscillator.h **** //
   5:mi/plaits/dsp/oscillator/sine_oscillator.h **** // Permission is hereby granted, free of charge, to any person obtaining a copy
   6:mi/plaits/dsp/oscillator/sine_oscillator.h **** // of this software and associated documentation files (the "Software"), to deal
   7:mi/plaits/dsp/oscillator/sine_oscillator.h **** // in the Software without restriction, including without limitation the rights
   8:mi/plaits/dsp/oscillator/sine_oscillator.h **** // to use, copy, modify, merge, publish, distribute, sublicense, and/or sell
   9:mi/plaits/dsp/oscillator/sine_oscillator.h **** // copies of the Software, and to permit persons to whom the Software is
  10:mi/plaits/dsp/oscillator/sine_oscillator.h **** // furnished to do so, subject to the following conditions:
  11:mi/plaits/dsp/oscillator/sine_oscillator.h **** // 
  12:mi/plaits/dsp/oscillator/sine_oscillator.h **** // The above copyright notice and this permission notice shall be included in
  13:mi/plaits/dsp/oscillator/sine_oscillator.h **** // all copies or substantial portions of the Software.
  14:mi/plaits/dsp/oscillator/sine_oscillator.h **** // 
  15:mi/plaits/dsp/oscillator/sine_oscillator.h **** // THE SOFTWARE IS PROVIDED "AS IS", WITHOUT WARRANTY OF ANY KIND, EXPRESS OR
  16:mi/plaits/dsp/oscillator/sine_oscillator.h **** // IMPLIED, INCLUDING BUT NOT LIMITED TO THE WARRANTIES OF MERCHANTABILITY,
  17:mi/plaits/dsp/oscillator/sine_oscillator.h **** // FITNESS FOR A PARTICULAR PURPOSE AND NONINFRINGEMENT. IN NO EVENT SHALL THE
  18:mi/plaits/dsp/oscillator/sine_oscillator.h **** // AUTHORS OR COPYRIGHT HOLDERS BE LIABLE FOR ANY CLAIM, DAMAGES OR OTHER
  19:mi/plaits/dsp/oscillator/sine_oscillator.h **** // LIABILITY, WHETHER IN AN ACTION OF CONTRACT, TORT OR OTHERWISE, ARISING FROM,
  20:mi/plaits/dsp/oscillator/sine_oscillator.h **** // OUT OF OR IN CONNECTION WITH THE SOFTWARE OR THE USE OR OTHER DEALINGS IN
  21:mi/plaits/dsp/oscillator/sine_oscillator.h **** // THE SOFTWARE.
  22:mi/plaits/dsp/oscillator/sine_oscillator.h **** // 
  23:mi/plaits/dsp/oscillator/sine_oscillator.h **** // See http://creativecommons.org/licenses/MIT/ for more information.
  24:mi/plaits/dsp/oscillator/sine_oscillator.h **** //
  25:mi/plaits/dsp/oscillator/sine_oscillator.h **** // -----------------------------------------------------------------------------
  26:mi/plaits/dsp/oscillator/sine_oscillator.h **** //
  27:mi/plaits/dsp/oscillator/sine_oscillator.h **** // Simple sine oscillator (wavetable) + fast sine oscillator (magic circle).
  28:mi/plaits/dsp/oscillator/sine_oscillator.h **** //
  29:mi/plaits/dsp/oscillator/sine_oscillator.h **** // The fast implementation might glitch a bit under heavy modulations of the
  30:mi/plaits/dsp/oscillator/sine_oscillator.h **** // frequency.
  31:mi/plaits/dsp/oscillator/sine_oscillator.h **** 
  32:mi/plaits/dsp/oscillator/sine_oscillator.h **** #ifndef PLAITS_DSP_OSCILLATOR_SINE_OSCILLATOR_H_
  33:mi/plaits/dsp/oscillator/sine_oscillator.h **** #define PLAITS_DSP_OSCILLATOR_SINE_OSCILLATOR_H_
  34:mi/plaits/dsp/oscillator/sine_oscillator.h **** 
  35:mi/plaits/dsp/oscillator/sine_oscillator.h **** #include "stmlib/dsp/dsp.h"
ARM GAS  /var/folders/9k/zk1mgrrd7wg4__6zvxvr9w8m0000gn/T//ccjjMUN9.s 			page 12


  36:mi/plaits/dsp/oscillator/sine_oscillator.h **** #include "stmlib/dsp/parameter_interpolator.h"
  37:mi/plaits/dsp/oscillator/sine_oscillator.h **** #include "stmlib/dsp/rsqrt.h"
  38:mi/plaits/dsp/oscillator/sine_oscillator.h **** 
  39:mi/plaits/dsp/oscillator/sine_oscillator.h **** #include "plaits/resources.h"
  40:mi/plaits/dsp/oscillator/sine_oscillator.h **** 
  41:mi/plaits/dsp/oscillator/sine_oscillator.h **** namespace plaits {
  42:mi/plaits/dsp/oscillator/sine_oscillator.h ****   
  43:mi/plaits/dsp/oscillator/sine_oscillator.h **** const float kSineLUTSize = 512.0f;
  44:mi/plaits/dsp/oscillator/sine_oscillator.h **** const size_t kSineLUTQuadrature = 128;
  45:mi/plaits/dsp/oscillator/sine_oscillator.h **** const size_t kSineLUTBits = 9;
  46:mi/plaits/dsp/oscillator/sine_oscillator.h **** 
  47:mi/plaits/dsp/oscillator/sine_oscillator.h **** // Safe for phase >= 0.0f, will wrap.
  48:mi/plaits/dsp/oscillator/sine_oscillator.h **** inline float Sine(float phase) {
  49:mi/plaits/dsp/oscillator/sine_oscillator.h ****   return stmlib::InterpolateWrap(lut_sine, phase, kSineLUTSize);
  50:mi/plaits/dsp/oscillator/sine_oscillator.h **** }
  51:mi/plaits/dsp/oscillator/sine_oscillator.h **** 
  52:mi/plaits/dsp/oscillator/sine_oscillator.h **** // Potentially unsafe, if phase >= 1.25.
  53:mi/plaits/dsp/oscillator/sine_oscillator.h **** inline float SineNoWrap(float phase) {
  54:mi/plaits/dsp/oscillator/sine_oscillator.h ****   return stmlib::Interpolate(lut_sine, phase, kSineLUTSize);
  55:mi/plaits/dsp/oscillator/sine_oscillator.h **** }
  56:mi/plaits/dsp/oscillator/sine_oscillator.h **** 
  57:mi/plaits/dsp/oscillator/sine_oscillator.h **** // With positive of negative phase modulation up to an index of 32.
  58:mi/plaits/dsp/oscillator/sine_oscillator.h **** inline float SinePM(uint32_t phase, float pm) {
  59:mi/plaits/dsp/oscillator/sine_oscillator.h ****   const float max_uint32 = 4294967296.0f;
  60:mi/plaits/dsp/oscillator/sine_oscillator.h ****   const int max_index = 32;
  61:mi/plaits/dsp/oscillator/sine_oscillator.h ****   const float offset = float(max_index);
  62:mi/plaits/dsp/oscillator/sine_oscillator.h ****   const float scale = max_uint32 / float(max_index * 2);
  63:mi/plaits/dsp/oscillator/sine_oscillator.h **** 
  64:mi/plaits/dsp/oscillator/sine_oscillator.h ****   phase += static_cast<uint32_t>((pm + offset) * scale) * max_index * 2;
  65:mi/plaits/dsp/oscillator/sine_oscillator.h ****   
  66:mi/plaits/dsp/oscillator/sine_oscillator.h ****   uint32_t integral = phase >> (32 - kSineLUTBits);
  67:mi/plaits/dsp/oscillator/sine_oscillator.h ****   float fractional = static_cast<float>(phase << kSineLUTBits) / float(max_uint32);
  68:mi/plaits/dsp/oscillator/sine_oscillator.h ****   float a = lut_sine[integral];
  69:mi/plaits/dsp/oscillator/sine_oscillator.h ****   float b = lut_sine[integral + 1];
  70:mi/plaits/dsp/oscillator/sine_oscillator.h ****   return a + (b - a) * fractional;
  71:mi/plaits/dsp/oscillator/sine_oscillator.h **** }
  72:mi/plaits/dsp/oscillator/sine_oscillator.h **** 
  73:mi/plaits/dsp/oscillator/sine_oscillator.h **** // Direct lookup without interpolation.
  74:mi/plaits/dsp/oscillator/sine_oscillator.h **** inline float SineRaw(uint32_t phase) {
  75:mi/plaits/dsp/oscillator/sine_oscillator.h ****   return lut_sine[phase >> (32 - kSineLUTBits)];
  76:mi/plaits/dsp/oscillator/sine_oscillator.h **** }
  77:mi/plaits/dsp/oscillator/sine_oscillator.h **** 
  78:mi/plaits/dsp/oscillator/sine_oscillator.h **** class SineOscillator {
  79:mi/plaits/dsp/oscillator/sine_oscillator.h ****  public:
  80:mi/plaits/dsp/oscillator/sine_oscillator.h ****   SineOscillator() { }
  81:mi/plaits/dsp/oscillator/sine_oscillator.h ****   ~SineOscillator() { }
  82:mi/plaits/dsp/oscillator/sine_oscillator.h **** 
  83:mi/plaits/dsp/oscillator/sine_oscillator.h ****   void Init() {
 203              		.loc 5 83 8 view .LVU46
 204              	.LBB199:
  84:mi/plaits/dsp/oscillator/sine_oscillator.h ****     phase_ = 0.0f;
 205              		.loc 5 84 5 view .LVU47
 206              	.LBE199:
 207              	.LBE198:
  60:mi/plaits/dsp/drums/analog_snare_drum.h ****       resonator_[i].Init();
 208              		.loc 3 60 23 is_stmt 0 view .LVU48
 209 003c A242     		cmp	r2, r4
ARM GAS  /var/folders/9k/zk1mgrrd7wg4__6zvxvr9w8m0000gn/T//ccjjMUN9.s 			page 13


 210              	.LBB201:
 211              	.LBB200:
 212              		.loc 5 84 12 view .LVU49
 213 003e C1F89430 		str	r3, [r1, #148]	@ float
  85:mi/plaits/dsp/oscillator/sine_oscillator.h ****     frequency_ = 0.0f;
 214              		.loc 5 85 5 is_stmt 1 view .LVU50
 215              		.loc 5 85 16 is_stmt 0 view .LVU51
 216 0042 C1F89830 		str	r3, [r1, #152]	@ float
  86:mi/plaits/dsp/oscillator/sine_oscillator.h ****     amplitude_ = 0.0f;
 217              		.loc 5 86 5 is_stmt 1 view .LVU52
 218              		.loc 5 86 16 is_stmt 0 view .LVU53
 219 0046 C1F89C30 		str	r3, [r1, #156]	@ float
 220              		.loc 5 86 16 view .LVU54
 221              	.LBE200:
 222              	.LBE201:
  60:mi/plaits/dsp/drums/analog_snare_drum.h ****       resonator_[i].Init();
 223              		.loc 3 60 5 is_stmt 1 view .LVU55
  60:mi/plaits/dsp/drums/analog_snare_drum.h ****       resonator_[i].Init();
 224              		.loc 3 60 23 view .LVU56
 225 004a E6D1     		bne	.L4
 226              	.LBE204:
  63:mi/plaits/dsp/drums/analog_snare_drum.h ****     }
  64:mi/plaits/dsp/drums/analog_snare_drum.h ****     noise_filter_.Init();
 227              		.loc 3 64 5 view .LVU57
 228              	.LVL7:
 229              	.LBB205:
 230              	.LBI205:
 182:mi/stmlib/dsp/filter.h ****     set_f_q<FREQUENCY_DIRTY>(0.01f, 100.0f);
 231              		.loc 4 182 8 view .LVU58
 232              	.LBE205:
 233              	.LBE225:
 234              	.LBE233:
 183:mi/stmlib/dsp/filter.h ****     Reset();
 235              		.loc 4 183 5 view .LVU59
 236              	.LBB234:
 237              	.LBB226:
 238              	.LBB217:
 239              	.LBB206:
 240              	.LBI206:
 223:mi/stmlib/dsp/filter.h ****     g_ = OnePole::tan<approximation>(f);
 241              		.loc 4 223 15 view .LVU60
 223:mi/stmlib/dsp/filter.h ****     g_ = OnePole::tan<approximation>(f);
 242              		.loc 4 223 15 is_stmt 0 view .LVU61
 243              	.LBE206:
 244              	.LBB210:
 245              	.LBB211:
 188:mi/stmlib/dsp/filter.h ****   }
 246              		.loc 4 188 25 view .LVU62
 247 004c C0F89C30 		str	r3, [r0, #156]	@ float
 188:mi/stmlib/dsp/filter.h ****   }
 248              		.loc 4 188 14 view .LVU63
 249 0050 C0F89830 		str	r3, [r0, #152]	@ float
 250              	.LBE211:
 251              	.LBE210:
 252              	.LBE217:
 253              	.LBE226:
 254              	.LBE234:
ARM GAS  /var/folders/9k/zk1mgrrd7wg4__6zvxvr9w8m0000gn/T//ccjjMUN9.s 			page 14


 255              	.LBB235:
 256              	.LBB236:
 257              		.file 6 "mi/plaits/dsp/drums/synthetic_snare_drum.h"
   1:mi/plaits/dsp/drums/synthetic_snare_drum.h **** // Copyright 2016 Emilie Gillet.
   2:mi/plaits/dsp/drums/synthetic_snare_drum.h **** //
   3:mi/plaits/dsp/drums/synthetic_snare_drum.h **** // Author: Emilie Gillet (emilie.o.gillet@gmail.com)
   4:mi/plaits/dsp/drums/synthetic_snare_drum.h **** //
   5:mi/plaits/dsp/drums/synthetic_snare_drum.h **** // Permission is hereby granted, free of charge, to any person obtaining a copy
   6:mi/plaits/dsp/drums/synthetic_snare_drum.h **** // of this software and associated documentation files (the "Software"), to deal
   7:mi/plaits/dsp/drums/synthetic_snare_drum.h **** // in the Software without restriction, including without limitation the rights
   8:mi/plaits/dsp/drums/synthetic_snare_drum.h **** // to use, copy, modify, merge, publish, distribute, sublicense, and/or sell
   9:mi/plaits/dsp/drums/synthetic_snare_drum.h **** // copies of the Software, and to permit persons to whom the Software is
  10:mi/plaits/dsp/drums/synthetic_snare_drum.h **** // furnished to do so, subject to the following conditions:
  11:mi/plaits/dsp/drums/synthetic_snare_drum.h **** // 
  12:mi/plaits/dsp/drums/synthetic_snare_drum.h **** // The above copyright notice and this permission notice shall be included in
  13:mi/plaits/dsp/drums/synthetic_snare_drum.h **** // all copies or substantial portions of the Software.
  14:mi/plaits/dsp/drums/synthetic_snare_drum.h **** // 
  15:mi/plaits/dsp/drums/synthetic_snare_drum.h **** // THE SOFTWARE IS PROVIDED "AS IS", WITHOUT WARRANTY OF ANY KIND, EXPRESS OR
  16:mi/plaits/dsp/drums/synthetic_snare_drum.h **** // IMPLIED, INCLUDING BUT NOT LIMITED TO THE WARRANTIES OF MERCHANTABILITY,
  17:mi/plaits/dsp/drums/synthetic_snare_drum.h **** // FITNESS FOR A PARTICULAR PURPOSE AND NONINFRINGEMENT. IN NO EVENT SHALL THE
  18:mi/plaits/dsp/drums/synthetic_snare_drum.h **** // AUTHORS OR COPYRIGHT HOLDERS BE LIABLE FOR ANY CLAIM, DAMAGES OR OTHER
  19:mi/plaits/dsp/drums/synthetic_snare_drum.h **** // LIABILITY, WHETHER IN AN ACTION OF CONTRACT, TORT OR OTHERWISE, ARISING FROM,
  20:mi/plaits/dsp/drums/synthetic_snare_drum.h **** // OUT OF OR IN CONNECTION WITH THE SOFTWARE OR THE USE OR OTHER DEALINGS IN
  21:mi/plaits/dsp/drums/synthetic_snare_drum.h **** // THE SOFTWARE.
  22:mi/plaits/dsp/drums/synthetic_snare_drum.h **** // 
  23:mi/plaits/dsp/drums/synthetic_snare_drum.h **** // See http://creativecommons.org/licenses/MIT/ for more information.
  24:mi/plaits/dsp/drums/synthetic_snare_drum.h **** //
  25:mi/plaits/dsp/drums/synthetic_snare_drum.h **** // -----------------------------------------------------------------------------
  26:mi/plaits/dsp/drums/synthetic_snare_drum.h **** //
  27:mi/plaits/dsp/drums/synthetic_snare_drum.h **** // Naive snare drum model (two modulated oscillators + filtered noise).
  28:mi/plaits/dsp/drums/synthetic_snare_drum.h **** // Uses a few magic numbers taken from the 909 schematics:
  29:mi/plaits/dsp/drums/synthetic_snare_drum.h **** // - Ratio between the two modes of the drum set to 1.47.
  30:mi/plaits/dsp/drums/synthetic_snare_drum.h **** // - Funky coupling between the two modes.
  31:mi/plaits/dsp/drums/synthetic_snare_drum.h **** // - Noise coloration filters and envelope shapes for the snare.
  32:mi/plaits/dsp/drums/synthetic_snare_drum.h **** 
  33:mi/plaits/dsp/drums/synthetic_snare_drum.h **** #ifndef PLAITS_DSP_DRUMS_SYNTHETIC_SNARE_DRUM_H_
  34:mi/plaits/dsp/drums/synthetic_snare_drum.h **** #define PLAITS_DSP_DRUMS_SYNTHETIC_SNARE_DRUM_H_
  35:mi/plaits/dsp/drums/synthetic_snare_drum.h **** 
  36:mi/plaits/dsp/drums/synthetic_snare_drum.h **** #include <algorithm>
  37:mi/plaits/dsp/drums/synthetic_snare_drum.h **** 
  38:mi/plaits/dsp/drums/synthetic_snare_drum.h **** #include "stmlib/dsp/dsp.h"
  39:mi/plaits/dsp/drums/synthetic_snare_drum.h **** #include "stmlib/dsp/parameter_interpolator.h"
  40:mi/plaits/dsp/drums/synthetic_snare_drum.h **** #include "stmlib/dsp/units.h"
  41:mi/plaits/dsp/drums/synthetic_snare_drum.h **** 
  42:mi/plaits/dsp/drums/synthetic_snare_drum.h **** #include "plaits/dsp/dsp.h"
  43:mi/plaits/dsp/drums/synthetic_snare_drum.h **** 
  44:mi/plaits/dsp/drums/synthetic_snare_drum.h **** namespace plaits {
  45:mi/plaits/dsp/drums/synthetic_snare_drum.h **** 
  46:mi/plaits/dsp/drums/synthetic_snare_drum.h **** class SyntheticSnareDrum {
  47:mi/plaits/dsp/drums/synthetic_snare_drum.h ****  public:
  48:mi/plaits/dsp/drums/synthetic_snare_drum.h ****   SyntheticSnareDrum() { }
  49:mi/plaits/dsp/drums/synthetic_snare_drum.h ****   ~SyntheticSnareDrum() { }
  50:mi/plaits/dsp/drums/synthetic_snare_drum.h **** 
  51:mi/plaits/dsp/drums/synthetic_snare_drum.h ****   void Init() {
  52:mi/plaits/dsp/drums/synthetic_snare_drum.h ****     phase_[0] = 0.0f;
 258              		.loc 6 52 15 view .LVU64
 259 0054 C0F8DC30 		str	r3, [r0, #220]	@ float
ARM GAS  /var/folders/9k/zk1mgrrd7wg4__6zvxvr9w8m0000gn/T//ccjjMUN9.s 			page 15


  53:mi/plaits/dsp/drums/synthetic_snare_drum.h ****     phase_[1] = 0.0f;
 260              		.loc 6 53 15 view .LVU65
 261 0058 C0F8E030 		str	r3, [r0, #224]	@ float
  54:mi/plaits/dsp/drums/synthetic_snare_drum.h ****     drum_amplitude_ = 0.0f;
 262              		.loc 6 54 21 view .LVU66
 263 005c C0F8E430 		str	r3, [r0, #228]	@ float
  55:mi/plaits/dsp/drums/synthetic_snare_drum.h ****     snare_amplitude_ = 0.0f;
 264              		.loc 6 55 22 view .LVU67
 265 0060 C0F8E830 		str	r3, [r0, #232]	@ float
  56:mi/plaits/dsp/drums/synthetic_snare_drum.h ****     fm_ = 0.0f;
 266              		.loc 6 56 9 view .LVU68
 267 0064 C0F8EC30 		str	r3, [r0, #236]	@ float
  57:mi/plaits/dsp/drums/synthetic_snare_drum.h ****     hold_counter_ = 0;
  58:mi/plaits/dsp/drums/synthetic_snare_drum.h ****     sustain_gain_ = 0.0f;
 268              		.loc 6 58 19 view .LVU69
 269 0068 C0F8F030 		str	r3, [r0, #240]	@ float
 270              	.LBB237:
 271              	.LBB238:
 272              	.LBB239:
 103:mi/stmlib/dsp/filter.h ****   }
 273              		.loc 4 103 12 view .LVU70
 274 006c C0F80031 		str	r3, [r0, #256]	@ float
 275              	.LBE239:
 276              	.LBE238:
 277              	.LBE237:
 278              	.LBB249:
 279              	.LBB250:
 280              	.LBB251:
 281 0070 C0F80C31 		str	r3, [r0, #268]	@ float
 282              	.LBE251:
 283              	.LBE250:
 284              	.LBE249:
 285              	.LBB259:
 286              	.LBB260:
 287              	.LBB261:
 188:mi/stmlib/dsp/filter.h ****   }
 288              		.loc 4 188 25 view .LVU71
 289 0074 C0F82031 		str	r3, [r0, #288]	@ float
 188:mi/stmlib/dsp/filter.h ****   }
 290              		.loc 4 188 14 view .LVU72
 291 0078 C0F81C31 		str	r3, [r0, #284]	@ float
 292              	.LBE261:
 293              	.LBE260:
 294              	.LBE259:
 295              	.LBB269:
 296              	.LBB241:
 297              	.LBB242:
 141:mi/stmlib/dsp/filter.h ****   }
 298              		.loc 4 141 9 view .LVU73
 299 007c 0D4B     		ldr	r3, .L7+4
 300              	.LBE242:
 301              	.LBE241:
 302              	.LBE269:
 303              	.LBE236:
 304              	.LBE235:
 305              	.LBB294:
 306              	.LBB227:
ARM GAS  /var/folders/9k/zk1mgrrd7wg4__6zvxvr9w8m0000gn/T//ccjjMUN9.s 			page 16


 307              	.LBB218:
 308              	.LBB213:
 309              	.LBB207:
 224:mi/stmlib/dsp/filter.h ****     r_ = 1.0f / resonance;
 310              		.loc 4 224 8 view .LVU74
 311 007e C0F88CC0 		str	ip, [r0, #140]	@ float
 312              	.LBE207:
 313              	.LBE213:
 314              	.LBE218:
 315              	.LBE227:
 316              	.LBE294:
 317              	.LBB295:
 318              	.LBB285:
 319              	.LBB270:
 320              	.LBB245:
 321              	.LBB243:
 141:mi/stmlib/dsp/filter.h ****   }
 322              		.loc 4 141 9 view .LVU75
 323 0082 C0F8FC30 		str	r3, [r0, #252]	@ float
 324              	.LBE243:
 325              	.LBE245:
 326              	.LBE270:
 327              	.LBB271:
 328              	.LBB253:
 329              	.LBB254:
 330 0086 C0F80831 		str	r3, [r0, #264]	@ float
 331              	.LBE254:
 332              	.LBE253:
 333              	.LBE271:
  57:mi/plaits/dsp/drums/synthetic_snare_drum.h ****     sustain_gain_ = 0.0f;
 334              		.loc 6 57 19 view .LVU76
 335 008a 0023     		movs	r3, #0
 336              	.LBE285:
 337              	.LBE295:
 338              	.LBB296:
 339              	.LBB228:
 340              	.LBB219:
 341              	.LBB214:
 342              	.LBB208:
 225:mi/stmlib/dsp/filter.h ****     h_ = 1.0f / (1.0f + r_ * g_ + g_ * g_);
 343              		.loc 4 225 8 view .LVU77
 344 008c C0ED247A 		vstr.32	s15, [r0, #144]
 345              	.LBE208:
 346              	.LBE214:
 347              	.LBE219:
 348              	.LBE228:
 349              	.LBE296:
 350              	.LBB297:
 351              	.LBB286:
 352              	.LBB272:
 353              	.LBB263:
 354              	.LBB264:
 355 0090 C0ED457A 		vstr.32	s15, [r0, #276]
 356              	.LBE264:
 357              	.LBE263:
 358              	.LBE272:
 359              	.LBE286:
ARM GAS  /var/folders/9k/zk1mgrrd7wg4__6zvxvr9w8m0000gn/T//ccjjMUN9.s 			page 17


 360              	.LBE297:
 361              	.LBB298:
 362              	.LBB229:
 363              	.LBB220:
 364              	.LBB215:
 365              	.LBB209:
 366              		.loc 4 226 8 view .LVU78
 367 0094 C0F894E0 		str	lr, [r0, #148]	@ float
 368              	.LVL8:
 369              		.loc 4 226 8 view .LVU79
 370              	.LBE209:
 371              	.LBE215:
 372              	.LBE220:
 373              	.LBE229:
 374              	.LBE298:
 184:mi/stmlib/dsp/filter.h ****   }
 375              		.loc 4 184 5 is_stmt 1 view .LVU80
 376              	.LBB299:
 377              	.LBB230:
 378              	.LBB221:
 379              	.LBB216:
 380              	.LBI210:
 187:mi/stmlib/dsp/filter.h ****     state_1_ = state_2_ = 0.0f;
 381              		.loc 4 187 8 view .LVU81
 382              	.LBB212:
 188:mi/stmlib/dsp/filter.h ****   }
 383              		.loc 4 188 5 view .LVU82
 188:mi/stmlib/dsp/filter.h ****   }
 384              		.loc 4 188 5 is_stmt 0 view .LVU83
 385              	.LBE212:
 386              	.LBE216:
 387              	.LBE221:
 388              	.LBE230:
 389              	.LBE299:
  40:mi/plaits/dsp/engine/snare_drum_engine.cpp ****   synthetic_snare_drum_.Init();
 390              		.loc 2 40 3 is_stmt 1 view .LVU84
 391              	.LBB300:
 392              	.LBI235:
  51:mi/plaits/dsp/drums/synthetic_snare_drum.h ****     phase_[0] = 0.0f;
 393              		.loc 6 51 8 view .LVU85
 394              	.LBB287:
  52:mi/plaits/dsp/drums/synthetic_snare_drum.h ****     phase_[1] = 0.0f;
 395              		.loc 6 52 5 view .LVU86
  53:mi/plaits/dsp/drums/synthetic_snare_drum.h ****     drum_amplitude_ = 0.0f;
 396              		.loc 6 53 5 view .LVU87
  54:mi/plaits/dsp/drums/synthetic_snare_drum.h ****     snare_amplitude_ = 0.0f;
 397              		.loc 6 54 5 view .LVU88
  55:mi/plaits/dsp/drums/synthetic_snare_drum.h ****     fm_ = 0.0f;
 398              		.loc 6 55 5 view .LVU89
  56:mi/plaits/dsp/drums/synthetic_snare_drum.h ****     hold_counter_ = 0;
 399              		.loc 6 56 5 view .LVU90
  57:mi/plaits/dsp/drums/synthetic_snare_drum.h ****     sustain_gain_ = 0.0f;
 400              		.loc 6 57 5 view .LVU91
 401              	.LBB273:
 402              	.LBB246:
 403              	.LBB244:
 140:mi/stmlib/dsp/filter.h ****     gi_ = 1.0f / (1.0f + g_);
ARM GAS  /var/folders/9k/zk1mgrrd7wg4__6zvxvr9w8m0000gn/T//ccjjMUN9.s 			page 18


 404              		.loc 4 140 8 is_stmt 0 view .LVU92
 405 0098 C0F8F8C0 		str	ip, [r0, #248]	@ float
 406              	.LBE244:
 407              	.LBE246:
 408              	.LBE273:
 409              	.LBB274:
 410              	.LBB256:
 411              	.LBB255:
 412 009c C0F804C1 		str	ip, [r0, #260]	@ float
 413              	.LBE255:
 414              	.LBE256:
 415              	.LBE274:
 416              	.LBB275:
 417              	.LBB266:
 418              	.LBB265:
 224:mi/stmlib/dsp/filter.h ****     r_ = 1.0f / resonance;
 419              		.loc 4 224 8 view .LVU93
 420 00a0 C0F810C1 		str	ip, [r0, #272]	@ float
 421              		.loc 4 226 8 view .LVU94
 422 00a4 C0F818E1 		str	lr, [r0, #280]	@ float
 423              	.LBE265:
 424              	.LBE266:
 425              	.LBE275:
  57:mi/plaits/dsp/drums/synthetic_snare_drum.h ****     sustain_gain_ = 0.0f;
 426              		.loc 6 57 19 view .LVU95
 427 00a8 C0F8F430 		str	r3, [r0, #244]
 428              		.loc 6 58 5 is_stmt 1 view .LVU96
  59:mi/plaits/dsp/drums/synthetic_snare_drum.h **** 
  60:mi/plaits/dsp/drums/synthetic_snare_drum.h ****     drum_lp_.Init();
 429              		.loc 6 60 5 view .LVU97
 430              	.LVL9:
 431              	.LBB276:
 432              	.LBI237:
  97:mi/stmlib/dsp/filter.h ****     set_f<FREQUENCY_DIRTY>(0.01f);
 433              		.loc 4 97 8 view .LVU98
 434              	.LBE276:
 435              	.LBE287:
 436              	.LBE300:
  98:mi/stmlib/dsp/filter.h ****     Reset();
 437              		.loc 4 98 5 view .LVU99
 438              	.LBB301:
 439              	.LBB288:
 440              	.LBB277:
 441              	.LBB247:
 442              	.LBI241:
 139:mi/stmlib/dsp/filter.h ****     g_ = tan<approximation>(f);
 443              		.loc 4 139 15 view .LVU100
 139:mi/stmlib/dsp/filter.h ****     g_ = tan<approximation>(f);
 444              		.loc 4 139 15 is_stmt 0 view .LVU101
 445              	.LBE247:
 446              	.LBE277:
 447              	.LBE288:
 448              	.LBE301:
  99:mi/stmlib/dsp/filter.h ****   }
 449              		.loc 4 99 5 is_stmt 1 view .LVU102
 450              	.LBB302:
 451              	.LBB289:
ARM GAS  /var/folders/9k/zk1mgrrd7wg4__6zvxvr9w8m0000gn/T//ccjjMUN9.s 			page 19


 452              	.LBB278:
 453              	.LBB248:
 454              	.LBI238:
 102:mi/stmlib/dsp/filter.h ****     state_ = 0.0f;
 455              		.loc 4 102 8 view .LVU103
 456              	.LBB240:
 103:mi/stmlib/dsp/filter.h ****   }
 457              		.loc 4 103 5 view .LVU104
 103:mi/stmlib/dsp/filter.h ****   }
 458              		.loc 4 103 5 is_stmt 0 view .LVU105
 459              	.LBE240:
 460              	.LBE248:
 461              	.LBE278:
  61:mi/plaits/dsp/drums/synthetic_snare_drum.h ****     snare_hp_.Init();
 462              		.loc 6 61 5 is_stmt 1 view .LVU106
 463              	.LBB279:
 464              	.LBI249:
  97:mi/stmlib/dsp/filter.h ****     set_f<FREQUENCY_DIRTY>(0.01f);
 465              		.loc 4 97 8 view .LVU107
 466              	.LBE279:
 467              	.LBE289:
 468              	.LBE302:
  98:mi/stmlib/dsp/filter.h ****     Reset();
 469              		.loc 4 98 5 view .LVU108
 470              	.LBB303:
 471              	.LBB290:
 472              	.LBB280:
 473              	.LBB257:
 474              	.LBI253:
 139:mi/stmlib/dsp/filter.h ****     g_ = tan<approximation>(f);
 475              		.loc 4 139 15 view .LVU109
 139:mi/stmlib/dsp/filter.h ****     g_ = tan<approximation>(f);
 476              		.loc 4 139 15 is_stmt 0 view .LVU110
 477              	.LBE257:
 478              	.LBE280:
 479              	.LBE290:
 480              	.LBE303:
  99:mi/stmlib/dsp/filter.h ****   }
 481              		.loc 4 99 5 is_stmt 1 view .LVU111
 482              	.LBB304:
 483              	.LBB291:
 484              	.LBB281:
 485              	.LBB258:
 486              	.LBI250:
 102:mi/stmlib/dsp/filter.h ****     state_ = 0.0f;
 487              		.loc 4 102 8 view .LVU112
 488              	.LBB252:
 103:mi/stmlib/dsp/filter.h ****   }
 489              		.loc 4 103 5 view .LVU113
 103:mi/stmlib/dsp/filter.h ****   }
 490              		.loc 4 103 5 is_stmt 0 view .LVU114
 491              	.LBE252:
 492              	.LBE258:
 493              	.LBE281:
  62:mi/plaits/dsp/drums/synthetic_snare_drum.h ****     snare_lp_.Init();
 494              		.loc 6 62 5 is_stmt 1 view .LVU115
 495              	.LBB282:
ARM GAS  /var/folders/9k/zk1mgrrd7wg4__6zvxvr9w8m0000gn/T//ccjjMUN9.s 			page 20


 496              	.LBI259:
 182:mi/stmlib/dsp/filter.h ****     set_f_q<FREQUENCY_DIRTY>(0.01f, 100.0f);
 497              		.loc 4 182 8 view .LVU116
 498              	.LBE282:
 499              	.LBE291:
 500              	.LBE304:
 183:mi/stmlib/dsp/filter.h ****     Reset();
 501              		.loc 4 183 5 view .LVU117
 502              	.LBB305:
 503              	.LBB292:
 504              	.LBB283:
 505              	.LBB267:
 506              	.LBI263:
 223:mi/stmlib/dsp/filter.h ****     g_ = OnePole::tan<approximation>(f);
 507              		.loc 4 223 15 view .LVU118
 223:mi/stmlib/dsp/filter.h ****     g_ = OnePole::tan<approximation>(f);
 508              		.loc 4 223 15 is_stmt 0 view .LVU119
 509              	.LBE267:
 510              	.LBE283:
 511              	.LBE292:
 512              	.LBE305:
 184:mi/stmlib/dsp/filter.h ****   }
 513              		.loc 4 184 5 is_stmt 1 view .LVU120
 514              	.LBB306:
 515              	.LBB293:
 516              	.LBB284:
 517              	.LBB268:
 518              	.LBI260:
 187:mi/stmlib/dsp/filter.h ****     state_1_ = state_2_ = 0.0f;
 519              		.loc 4 187 8 view .LVU121
 520              	.LBB262:
 188:mi/stmlib/dsp/filter.h ****   }
 521              		.loc 4 188 5 view .LVU122
 188:mi/stmlib/dsp/filter.h ****   }
 522              		.loc 4 188 5 is_stmt 0 view .LVU123
 523              	.LBE262:
 524              	.LBE268:
 525              	.LBE284:
 526              	.LBE293:
 527              	.LBE306:
  41:mi/plaits/dsp/engine/snare_drum_engine.cpp **** }
 528              		.loc 2 41 1 view .LVU124
 529 00ac 10BD     		pop	{r4, pc}
 530              	.L8:
 531 00ae 00BF     		.align	2
 532              	.L7:
 533 00b0 0AD7233C 		.word	1008981770
 534 00b4 2033783F 		.word	1064842016
 535 00b8 22BA003D 		.word	1023457826
 536 00bc CAAA7F3F 		.word	1065331402
 537              		.cfi_endproc
 538              	.LFE1598:
 540              		.section	.text._ZN6plaits15SnareDrumEngine5ResetEv,"ax",%progbits
 541              		.align	1
 542              		.p2align 2,,3
 543              		.global	_ZN6plaits15SnareDrumEngine5ResetEv
 544              		.syntax unified
ARM GAS  /var/folders/9k/zk1mgrrd7wg4__6zvxvr9w8m0000gn/T//ccjjMUN9.s 			page 21


 545              		.thumb
 546              		.thumb_func
 548              	_ZN6plaits15SnareDrumEngine5ResetEv:
 549              	.LVL10:
 550              	.LFB1599:
  42:mi/plaits/dsp/engine/snare_drum_engine.cpp **** 
  43:mi/plaits/dsp/engine/snare_drum_engine.cpp **** void SnareDrumEngine::Reset() {
 551              		.loc 2 43 31 is_stmt 1 view -0
 552              		.cfi_startproc
 553              		@ args = 0, pretend = 0, frame = 0
 554              		@ frame_needed = 0, uses_anonymous_args = 0
 555              		@ link register save eliminated.
  44:mi/plaits/dsp/engine/snare_drum_engine.cpp ****   
  45:mi/plaits/dsp/engine/snare_drum_engine.cpp **** }
 556              		.loc 2 45 1 is_stmt 0 view .LVU126
 557 0000 7047     		bx	lr
 558              		.cfi_endproc
 559              	.LFE1599:
 561 0002 00BF     		.section	.text._ZN6plaits15AnalogSnareDrum6RenderEbbfffffPfj,"axG",%progbits,_ZN6plaits15AnalogSna
 562              		.align	1
 563              		.p2align 2,,3
 564              		.weak	_ZN6plaits15AnalogSnareDrum6RenderEbbfffffPfj
 565              		.syntax unified
 566              		.thumb
 567              		.thumb_func
 569              	_ZN6plaits15AnalogSnareDrum6RenderEbbfffffPfj:
 570              	.LVL11:
 571              	.LFB1554:
  65:mi/plaits/dsp/drums/analog_snare_drum.h ****   }
  66:mi/plaits/dsp/drums/analog_snare_drum.h ****   
  67:mi/plaits/dsp/drums/analog_snare_drum.h ****   void Render(
 572              		.loc 3 67 8 is_stmt 1 view -0
 573              		.cfi_startproc
 574              		@ args = 4, pretend = 0, frame = 40
 575              		@ frame_needed = 0, uses_anonymous_args = 0
  68:mi/plaits/dsp/drums/analog_snare_drum.h ****       bool sustain,
  69:mi/plaits/dsp/drums/analog_snare_drum.h ****       bool trigger,
  70:mi/plaits/dsp/drums/analog_snare_drum.h ****       float accent,
  71:mi/plaits/dsp/drums/analog_snare_drum.h ****       float f0,
  72:mi/plaits/dsp/drums/analog_snare_drum.h ****       float tone,
  73:mi/plaits/dsp/drums/analog_snare_drum.h ****       float decay,
  74:mi/plaits/dsp/drums/analog_snare_drum.h ****       float snappy,
  75:mi/plaits/dsp/drums/analog_snare_drum.h ****       float* out,
  76:mi/plaits/dsp/drums/analog_snare_drum.h ****       size_t size) {
  77:mi/plaits/dsp/drums/analog_snare_drum.h ****     const float decay_xt = decay * (1.0f + decay * (decay - 1.0f));
 576              		.loc 3 77 5 view .LVU128
 577              		.loc 3 77 59 is_stmt 0 view .LVU129
 578 0000 B7EE006A 		vmov.f32	s12, #1.0e+0
  78:mi/plaits/dsp/drums/analog_snare_drum.h ****     const int kTriggerPulseDuration = 1.0e-3f * kSampleRate;
  79:mi/plaits/dsp/drums/analog_snare_drum.h ****     const float kPulseDecayTime = 0.1e-3f * kSampleRate;
  80:mi/plaits/dsp/drums/analog_snare_drum.h ****     const float q = 2000.0f * stmlib::SemitonesToRatio(decay_xt * 84.0f);
  81:mi/plaits/dsp/drums/analog_snare_drum.h ****     const float noise_envelope_decay = 1.0f - 0.0017f * \
  82:mi/plaits/dsp/drums/analog_snare_drum.h ****         stmlib::SemitonesToRatio(-decay * (50.0f + snappy * 10.0f));
 579              		.loc 3 82 50 view .LVU130
 580 0004 DFED714A 		vldr.32	s9, .L68
 581 0008 F2EE043A 		vmov.f32	s7, #1.0e+1
 582              	.LBB360:
ARM GAS  /var/folders/9k/zk1mgrrd7wg4__6zvxvr9w8m0000gn/T//ccjjMUN9.s 			page 22


 583              	.LBB361:
 584              		.file 7 "mi/stmlib/dsp/units.h"
   1:mi/stmlib/dsp/units.h **** // Copyright 2014 Emilie Gillet.
   2:mi/stmlib/dsp/units.h **** //
   3:mi/stmlib/dsp/units.h **** // Author: Emilie Gillet (emilie.o.gillet@gmail.com)
   4:mi/stmlib/dsp/units.h **** //
   5:mi/stmlib/dsp/units.h **** // Permission is hereby granted, free of charge, to any person obtaining a copy
   6:mi/stmlib/dsp/units.h **** // of this software and associated documentation files (the "Software"), to deal
   7:mi/stmlib/dsp/units.h **** // in the Software without restriction, including without limitation the rights
   8:mi/stmlib/dsp/units.h **** // to use, copy, modify, merge, publish, distribute, sublicense, and/or sell
   9:mi/stmlib/dsp/units.h **** // copies of the Software, and to permit persons to whom the Software is
  10:mi/stmlib/dsp/units.h **** // furnished to do so, subject to the following conditions:
  11:mi/stmlib/dsp/units.h **** // 
  12:mi/stmlib/dsp/units.h **** // The above copyright notice and this permission notice shall be included in
  13:mi/stmlib/dsp/units.h **** // all copies or substantial portions of the Software.
  14:mi/stmlib/dsp/units.h **** // 
  15:mi/stmlib/dsp/units.h **** // THE SOFTWARE IS PROVIDED "AS IS", WITHOUT WARRANTY OF ANY KIND, EXPRESS OR
  16:mi/stmlib/dsp/units.h **** // IMPLIED, INCLUDING BUT NOT LIMITED TO THE WARRANTIES OF MERCHANTABILITY,
  17:mi/stmlib/dsp/units.h **** // FITNESS FOR A PARTICULAR PURPOSE AND NONINFRINGEMENT. IN NO EVENT SHALL THE
  18:mi/stmlib/dsp/units.h **** // AUTHORS OR COPYRIGHT HOLDERS BE LIABLE FOR ANY CLAIM, DAMAGES OR OTHER
  19:mi/stmlib/dsp/units.h **** // LIABILITY, WHETHER IN AN ACTION OF CONTRACT, TORT OR OTHERWISE, ARISING FROM,
  20:mi/stmlib/dsp/units.h **** // OUT OF OR IN CONNECTION WITH THE SOFTWARE OR THE USE OR OTHER DEALINGS IN
  21:mi/stmlib/dsp/units.h **** // THE SOFTWARE.
  22:mi/stmlib/dsp/units.h **** // 
  23:mi/stmlib/dsp/units.h **** // See http://creativecommons.org/licenses/MIT/ for more information.
  24:mi/stmlib/dsp/units.h **** //
  25:mi/stmlib/dsp/units.h **** // -----------------------------------------------------------------------------
  26:mi/stmlib/dsp/units.h **** //
  27:mi/stmlib/dsp/units.h **** // Conversion from semitones to frequency ratio.
  28:mi/stmlib/dsp/units.h **** 
  29:mi/stmlib/dsp/units.h **** #ifndef STMLIB_DSP_UNITS_H_
  30:mi/stmlib/dsp/units.h **** #define STMLIB_DSP_UNITS_H_
  31:mi/stmlib/dsp/units.h **** 
  32:mi/stmlib/dsp/units.h **** #include "stmlib/stmlib.h"
  33:mi/stmlib/dsp/units.h **** #include "stmlib/dsp/dsp.h"
  34:mi/stmlib/dsp/units.h **** 
  35:mi/stmlib/dsp/units.h **** namespace stmlib {
  36:mi/stmlib/dsp/units.h **** 
  37:mi/stmlib/dsp/units.h **** extern const float lut_pitch_ratio_high[257];
  38:mi/stmlib/dsp/units.h **** extern const float lut_pitch_ratio_low[257];
  39:mi/stmlib/dsp/units.h **** 
  40:mi/stmlib/dsp/units.h **** inline float SemitonesToRatio(float semitones) {
  41:mi/stmlib/dsp/units.h ****   float pitch = semitones + 128.0f;
 585              		.loc 7 41 9 view .LVU131
 586 000c DFED707A 		vldr.32	s15, .L68+4
 587 0010 9FED705A 		vldr.32	s10, .L68+8
 588              	.LBE361:
 589              	.LBE360:
  83:mi/plaits/dsp/drums/analog_snare_drum.h ****     const float exciter_leak = snappy * (2.0f - snappy) * 0.1f;
 590              		.loc 3 83 47 view .LVU132
 591 0014 F0EE006A 		vmov.f32	s13, #2.0e+0
  77:mi/plaits/dsp/drums/analog_snare_drum.h ****     const int kTriggerPulseDuration = 1.0e-3f * kSampleRate;
 592              		.loc 3 77 59 view .LVU133
 593 0018 31EEC67A 		vsub.f32	s14, s3, s12
  84:mi/plaits/dsp/drums/analog_snare_drum.h ****     
  85:mi/plaits/dsp/drums/analog_snare_drum.h ****     snappy = snappy * 1.1f - 0.05f;
 594              		.loc 3 85 12 view .LVU134
ARM GAS  /var/folders/9k/zk1mgrrd7wg4__6zvxvr9w8m0000gn/T//ccjjMUN9.s 			page 23


 595 001c 9FED6E4A 		vldr.32	s8, .L68+12
  77:mi/plaits/dsp/drums/analog_snare_drum.h ****     const int kTriggerPulseDuration = 1.0e-3f * kSampleRate;
 596              		.loc 3 77 42 view .LVU135
 597 0020 F0EE465A 		vmov.f32	s11, s12
  83:mi/plaits/dsp/drums/analog_snare_drum.h ****     
 598              		.loc 3 83 17 view .LVU136
 599 0024 9FED6D3A 		vldr.32	s6, .L68+16
  82:mi/plaits/dsp/drums/analog_snare_drum.h ****     const float exciter_leak = snappy * (2.0f - snappy) * 0.1f;
 600              		.loc 3 82 50 view .LVU137
 601 0028 E2EE234A 		vfma.f32	s9, s4, s7
  82:mi/plaits/dsp/drums/analog_snare_drum.h ****     const float exciter_leak = snappy * (2.0f - snappy) * 0.1f;
 602              		.loc 3 82 67 view .LVU138
 603 002c DFED6C3A 		vldr.32	s7, .L68+20
  83:mi/plaits/dsp/drums/analog_snare_drum.h ****     
 604              		.loc 3 83 47 view .LVU139
 605 0030 76EEC26A 		vsub.f32	s13, s13, s4
  77:mi/plaits/dsp/drums/analog_snare_drum.h ****     const int kTriggerPulseDuration = 1.0e-3f * kSampleRate;
 606              		.loc 3 77 42 view .LVU140
 607 0034 E7EE215A 		vfma.f32	s11, s14, s3
 608              	.LVL12:
  78:mi/plaits/dsp/drums/analog_snare_drum.h ****     const float kPulseDecayTime = 0.1e-3f * kSampleRate;
 609              		.loc 3 78 5 is_stmt 1 view .LVU141
  79:mi/plaits/dsp/drums/analog_snare_drum.h ****     const float q = 2000.0f * stmlib::SemitonesToRatio(decay_xt * 84.0f);
 610              		.loc 3 79 5 view .LVU142
  80:mi/plaits/dsp/drums/analog_snare_drum.h ****     const float noise_envelope_decay = 1.0f - 0.0017f * \
 611              		.loc 3 80 5 view .LVU143
 612              	.LBB373:
 613              	.LBI360:
  40:mi/stmlib/dsp/units.h ****   float pitch = semitones + 128.0f;
 614              		.loc 7 40 14 view .LVU144
 615              	.LBB362:
 616              		.loc 7 41 3 view .LVU145
 617              		.loc 7 41 9 is_stmt 0 view .LVU146
 618 0038 B0EE677A 		vmov.f32	s14, s15
 619              	.LBE362:
 620              	.LBE373:
  67:mi/plaits/dsp/drums/analog_snare_drum.h ****       bool sustain,
 621              		.loc 3 67 8 view .LVU147
 622 003c 2DE9F04F 		push	{r4, r5, r6, r7, r8, r9, r10, fp, lr}
 623              		.cfi_def_cfa_offset 36
 624              		.cfi_offset 4, -36
 625              		.cfi_offset 5, -32
 626              		.cfi_offset 6, -28
 627              		.cfi_offset 7, -24
 628              		.cfi_offset 8, -20
 629              		.cfi_offset 9, -16
 630              		.cfi_offset 10, -12
 631              		.cfi_offset 11, -8
 632              		.cfi_offset 14, -4
 633              	.LBB374:
 634              	.LBB375:
 635              		.loc 7 41 9 view .LVU148
 636 0040 E1EEE47A 		vfms.f32	s15, s3, s9
 637              	.LBE375:
 638              	.LBE374:
 639              	.LBB386:
 640              	.LBB363:
ARM GAS  /var/folders/9k/zk1mgrrd7wg4__6zvxvr9w8m0000gn/T//ccjjMUN9.s 			page 24


  42:mi/stmlib/dsp/units.h ****   MAKE_INTEGRAL_FRACTIONAL(pitch)
  43:mi/stmlib/dsp/units.h **** 
  44:mi/stmlib/dsp/units.h ****   return lut_pitch_ratio_high[pitch_integral] * \
  45:mi/stmlib/dsp/units.h ****       lut_pitch_ratio_low[static_cast<int32_t>(pitch_fractional * 256.0f)];
 641              		.loc 7 45 74 view .LVU149
 642 0044 674C     		ldr	r4, .L68+24
 643              	.LBE363:
 644              	.LBE386:
  77:mi/plaits/dsp/drums/analog_snare_drum.h ****     const int kTriggerPulseDuration = 1.0e-3f * kSampleRate;
 645              		.loc 3 77 17 view .LVU150
 646 0046 65EEA15A 		vmul.f32	s11, s11, s3
 647              	.LVL13:
  67:mi/plaits/dsp/drums/analog_snare_drum.h ****       bool sustain,
 648              		.loc 3 67 8 view .LVU151
 649 004a 9A46     		mov	r10, r3
 650 004c 2DED048B 		vpush.64	{d8, d9}
 651              		.cfi_def_cfa_offset 52
 652              		.cfi_offset 80, -52
 653              		.cfi_offset 81, -48
 654              		.cfi_offset 82, -44
 655              		.cfi_offset 83, -40
 656              	.LBB387:
 657              	.LBB364:
  41:mi/stmlib/dsp/units.h ****   MAKE_INTEGRAL_FRACTIONAL(pitch)
 658              		.loc 7 41 9 view .LVU152
 659 0050 A5EE857A 		vfma.f32	s14, s11, s10
 660              	.LVL14:
  42:mi/stmlib/dsp/units.h ****   MAKE_INTEGRAL_FRACTIONAL(pitch)
 661              		.loc 7 42 3 is_stmt 1 view .LVU153
 662              	.LBE364:
 663              	.LBE387:
 664              		.loc 3 85 12 is_stmt 0 view .LVU154
 665 0054 9FED648A 		vldr.32	s16, .L68+28
  82:mi/plaits/dsp/drums/analog_snare_drum.h ****     const float exciter_leak = snappy * (2.0f - snappy) * 0.1f;
 666              		.loc 3 82 67 view .LVU155
 667 0058 F0EE468A 		vmov.f32	s17, s12
  67:mi/plaits/dsp/drums/analog_snare_drum.h ****       bool sustain,
 668              		.loc 3 67 8 view .LVU156
 669 005c 8BB0     		sub	sp, sp, #44
 670              		.cfi_def_cfa_offset 96
 671              		.loc 3 85 12 view .LVU157
 672 005e A2EE048A 		vfma.f32	s16, s4, s8
  83:mi/plaits/dsp/drums/analog_snare_drum.h ****     
 673              		.loc 3 83 39 view .LVU158
 674 0062 26EE822A 		vmul.f32	s4, s13, s4
 675              	.LVL15:
  67:mi/plaits/dsp/drums/analog_snare_drum.h ****       bool sustain,
 676              		.loc 3 67 8 view .LVU159
 677 0066 189E     		ldr	r6, [sp, #96]
 678              	.LBB388:
 679              	.LBB376:
  42:mi/stmlib/dsp/units.h **** 
 680              		.loc 7 42 3 view .LVU160
 681 0068 FDEEE76A 		vcvt.s32.f32	s13, s15
 682              	.LBE376:
 683              	.LBE388:
 684              	.LBB389:
ARM GAS  /var/folders/9k/zk1mgrrd7wg4__6zvxvr9w8m0000gn/T//ccjjMUN9.s 			page 25


 685              	.LBB365:
 686 006c FDEEC75A 		vcvt.s32.f32	s11, s14
 687              	.LVL16:
  42:mi/stmlib/dsp/units.h **** 
 688              		.loc 7 42 3 is_stmt 1 view .LVU161
  44:mi/stmlib/dsp/units.h ****       lut_pitch_ratio_low[static_cast<int32_t>(pitch_fractional * 256.0f)];
 689              		.loc 7 44 3 view .LVU162
  44:mi/stmlib/dsp/units.h ****       lut_pitch_ratio_low[static_cast<int32_t>(pitch_fractional * 256.0f)];
 690              		.loc 7 44 3 is_stmt 0 view .LVU163
 691              	.LBE365:
 692              	.LBE389:
 693              	.LBB390:
 694              	.LBB377:
  42:mi/stmlib/dsp/units.h **** 
 695              		.loc 7 42 3 view .LVU164
 696 0070 F8EEE64A 		vcvt.f32.s32	s9, s13
 697              	.LBE377:
 698              	.LBE390:
  86:mi/plaits/dsp/drums/analog_snare_drum.h ****     CONSTRAIN(snappy, 0.0f, 1.0f);
 699              		.loc 3 86 5 view .LVU165
 700 0074 B5EEC08A 		vcmpe.f32	s16, #0
 701              	.LBB391:
 702              	.LBB366:
  42:mi/stmlib/dsp/units.h **** 
 703              		.loc 7 42 3 view .LVU166
 704 0078 B8EEE55A 		vcvt.f32.s32	s10, s11
 705              	.LBE366:
 706              	.LBE391:
 707              	.LBB392:
 708              	.LBB378:
 709 007c 77EEE47A 		vsub.f32	s15, s15, s9
 710              	.LBE378:
 711              	.LBE392:
 712              		.loc 3 86 5 view .LVU167
 713 0080 F1EE10FA 		vmrs	APSR_nzcv, FPSCR
 714              	.LBB393:
 715              	.LBB367:
  42:mi/stmlib/dsp/units.h **** 
 716              		.loc 7 42 3 view .LVU168
 717 0084 37EE457A 		vsub.f32	s14, s14, s10
 718              	.LBE367:
 719              	.LBE393:
  80:mi/plaits/dsp/drums/analog_snare_drum.h ****     const float noise_envelope_decay = 1.0f - 0.0017f * \
 720              		.loc 3 80 72 view .LVU169
 721 0088 9FED585A 		vldr.32	s10, .L68+32
 722              	.LBB394:
 723              	.LBB379:
 724              		.loc 7 45 27 view .LVU170
 725 008c FEEECC7A 		vcvt.s32.f32	s15, s15, #8
 726              	.LBE379:
 727              	.LBE394:
  83:mi/plaits/dsp/drums/analog_snare_drum.h ****     
 728              		.loc 3 83 17 view .LVU171
 729 0090 22EE033A 		vmul.f32	s6, s4, s6
 730              	.LBB395:
 731              	.LBB368:
 732              		.loc 7 45 27 view .LVU172
ARM GAS  /var/folders/9k/zk1mgrrd7wg4__6zvxvr9w8m0000gn/T//ccjjMUN9.s 			page 26


 733 0094 BEEECC7A 		vcvt.s32.f32	s14, s14, #8
 734              	.LBE368:
 735              	.LBE395:
 736              	.LBB396:
 737              	.LBB380:
 738              		.loc 7 45 74 view .LVU173
 739 0098 17EE905A 		vmov	r5, s15	@ int
 740              	.LBE380:
 741              	.LBE396:
 742              	.LBB397:
 743              	.LBB369:
 744 009c 17EE103A 		vmov	r3, s14	@ int
 745              	.LVL17:
 746              		.loc 7 45 74 view .LVU174
 747 00a0 04EB8303 		add	r3, r4, r3, lsl #2
 748              	.LBE369:
 749              	.LBE397:
 750              	.LBB398:
 751              	.LBB381:
 752 00a4 04EB8504 		add	r4, r4, r5, lsl #2
 753              	.LBE381:
 754              	.LBE398:
 755              	.LBB399:
 756              	.LBB370:
 757 00a8 93ED007A 		vldr.32	s14, [r3]
 758              	.LBE370:
 759              	.LBE399:
 760              	.LBB400:
 761              	.LBB382:
 762 00ac D4ED004A 		vldr.32	s9, [r4]
 763              	.LBE382:
 764              	.LBE400:
 765              	.LBB401:
 766              	.LBB371:
  44:mi/stmlib/dsp/units.h ****       lut_pitch_ratio_low[static_cast<int32_t>(pitch_fractional * 256.0f)];
 767              		.loc 7 44 45 view .LVU175
 768 00b0 15EE904A 		vmov	r4, s11	@ int
 769 00b4 4E4B     		ldr	r3, .L68+36
 770 00b6 03EB8404 		add	r4, r3, r4, lsl #2
 771              		.loc 7 45 74 view .LVU176
 772 00ba D4ED005A 		vldr.32	s11, [r4]
 773              	.LBE371:
 774              	.LBE401:
 775              	.LBB402:
 776              	.LBB383:
  44:mi/stmlib/dsp/units.h ****       lut_pitch_ratio_low[static_cast<int32_t>(pitch_fractional * 256.0f)];
 777              		.loc 7 44 45 view .LVU177
 778 00be 16EE904A 		vmov	r4, s13	@ int
 779 00c2 03EB8403 		add	r3, r3, r4, lsl #2
 780              	.LBE383:
 781              	.LBE402:
 782              	.LBB403:
 783              	.LBB372:
 784              		.loc 7 45 74 view .LVU178
 785 00c6 27EE257A 		vmul.f32	s14, s14, s11
 786              	.LBE372:
 787              	.LBE403:
ARM GAS  /var/folders/9k/zk1mgrrd7wg4__6zvxvr9w8m0000gn/T//ccjjMUN9.s 			page 27


 788              	.LBB404:
 789              	.LBB384:
 790 00ca D3ED007A 		vldr.32	s15, [r3]
 791              	.LBE384:
 792              	.LBE404:
  80:mi/plaits/dsp/drums/analog_snare_drum.h ****     const float noise_envelope_decay = 1.0f - 0.0017f * \
 793              		.loc 3 80 72 view .LVU179
 794 00ce 27EE055A 		vmul.f32	s10, s14, s10
 795              	.LVL18:
  81:mi/plaits/dsp/drums/analog_snare_drum.h ****         stmlib::SemitonesToRatio(-decay * (50.0f + snappy * 10.0f));
 796              		.loc 3 81 5 is_stmt 1 view .LVU180
 797              	.LBB405:
 798              	.LBI374:
  40:mi/stmlib/dsp/units.h ****   float pitch = semitones + 128.0f;
 799              		.loc 7 40 14 view .LVU181
 800              	.LBB385:
  41:mi/stmlib/dsp/units.h ****   MAKE_INTEGRAL_FRACTIONAL(pitch)
 801              		.loc 7 41 3 view .LVU182
  42:mi/stmlib/dsp/units.h **** 
 802              		.loc 7 42 3 view .LVU183
  42:mi/stmlib/dsp/units.h **** 
 803              		.loc 7 42 3 view .LVU184
  44:mi/stmlib/dsp/units.h ****       lut_pitch_ratio_low[static_cast<int32_t>(pitch_fractional * 256.0f)];
 804              		.loc 7 44 3 view .LVU185
  44:mi/stmlib/dsp/units.h ****       lut_pitch_ratio_low[static_cast<int32_t>(pitch_fractional * 256.0f)];
 805              		.loc 7 44 3 is_stmt 0 view .LVU186
 806              	.LBE385:
 807              	.LBE405:
  82:mi/plaits/dsp/drums/analog_snare_drum.h ****     const float exciter_leak = snappy * (2.0f - snappy) * 0.1f;
 808              		.loc 3 82 67 view .LVU187
 809 00d2 67EEE47A 		vnmul.f32	s15, s15, s9
 810 00d6 E7EEA38A 		vfma.f32	s17, s15, s7
 811              	.LVL19:
  83:mi/plaits/dsp/drums/analog_snare_drum.h ****     
 812              		.loc 3 83 5 is_stmt 1 view .LVU188
  85:mi/plaits/dsp/drums/analog_snare_drum.h ****     CONSTRAIN(snappy, 0.0f, 1.0f);
 813              		.loc 3 85 5 view .LVU189
 814              		.loc 3 86 5 view .LVU190
 815 00da 00F17182 		bmi	.L43
 816              		.loc 3 86 5 discriminator 2 view .LVU191
 817 00de B4EE468A 		vcmp.f32	s16, s12
 818 00e2 F1EE10FA 		vmrs	APSR_nzcv, FPSCR
 819 00e6 36FE088A 		vselgt.f32	s16, s12, s16
 820              	.LVL20:
 821              	.L11:
 822              		.loc 3 86 34 discriminator 6 view .LVU192
  87:mi/plaits/dsp/drums/analog_snare_drum.h ****     
  88:mi/plaits/dsp/drums/analog_snare_drum.h ****     if (trigger) {
 823              		.loc 3 88 5 discriminator 6 view .LVU193
 824 00ea 62B1     		cbz	r2, .L13
  89:mi/plaits/dsp/drums/analog_snare_drum.h ****       pulse_remaining_samples_ = kTriggerPulseDuration;
 825              		.loc 3 89 7 view .LVU194
  90:mi/plaits/dsp/drums/analog_snare_drum.h ****       pulse_height_ = 3.0f + 7.0f * accent;
 826              		.loc 3 90 28 is_stmt 0 view .LVU195
 827 00ec B1EE0C7A 		vmov.f32	s14, #7.0e+0
  91:mi/plaits/dsp/drums/analog_snare_drum.h ****       noise_envelope_ = 2.0f;
 828              		.loc 3 91 23 view .LVU196
ARM GAS  /var/folders/9k/zk1mgrrd7wg4__6zvxvr9w8m0000gn/T//ccjjMUN9.s 			page 28


 829 00f0 4FF08043 		mov	r3, #1073741824
  90:mi/plaits/dsp/drums/analog_snare_drum.h ****       pulse_height_ = 3.0f + 7.0f * accent;
 830              		.loc 3 90 28 view .LVU197
 831 00f4 F0EE087A 		vmov.f32	s15, #3.0e+0
  89:mi/plaits/dsp/drums/analog_snare_drum.h ****       pulse_remaining_samples_ = kTriggerPulseDuration;
 832              		.loc 3 89 32 view .LVU198
 833 00f8 3022     		movs	r2, #48
 834              	.LVL21:
 835              		.loc 3 91 23 view .LVU199
 836 00fa 0361     		str	r3, [r0, #16]	@ float
  89:mi/plaits/dsp/drums/analog_snare_drum.h ****       pulse_remaining_samples_ = kTriggerPulseDuration;
 837              		.loc 3 89 32 view .LVU200
 838 00fc 0260     		str	r2, [r0]
  90:mi/plaits/dsp/drums/analog_snare_drum.h ****       pulse_height_ = 3.0f + 7.0f * accent;
 839              		.loc 3 90 7 is_stmt 1 view .LVU201
  90:mi/plaits/dsp/drums/analog_snare_drum.h ****       pulse_height_ = 3.0f + 7.0f * accent;
 840              		.loc 3 90 28 is_stmt 0 view .LVU202
 841 00fe E0EE077A 		vfma.f32	s15, s0, s14
  90:mi/plaits/dsp/drums/analog_snare_drum.h ****       pulse_height_ = 3.0f + 7.0f * accent;
 842              		.loc 3 90 21 view .LVU203
 843 0102 C0ED027A 		vstr.32	s15, [r0, #8]
 844              		.loc 3 91 7 is_stmt 1 view .LVU204
 845              	.L13:
  86:mi/plaits/dsp/drums/analog_snare_drum.h ****     
 846              		.loc 3 86 5 is_stmt 0 view .LVU205
 847 0106 F7EE007A 		vmov.f32	s15, #1.0e+0
 848 010a 3A4D     		ldr	r5, .L68+40
 849 010c 0346     		mov	r3, r0
 850 010e 0022     		movs	r2, #0
 851 0110 6C46     		mov	r4, sp
 852              	.LVL22:
 853              	.L17:
 854              	.LBB406:
  92:mi/plaits/dsp/drums/analog_snare_drum.h ****     }
  93:mi/plaits/dsp/drums/analog_snare_drum.h ****     
  94:mi/plaits/dsp/drums/analog_snare_drum.h ****     static const float kModeFrequencies[kNumModes] = {
  95:mi/plaits/dsp/drums/analog_snare_drum.h ****         1.00f,
  96:mi/plaits/dsp/drums/analog_snare_drum.h ****         2.00f,
  97:mi/plaits/dsp/drums/analog_snare_drum.h ****         3.18f,
  98:mi/plaits/dsp/drums/analog_snare_drum.h ****         4.16f,
  99:mi/plaits/dsp/drums/analog_snare_drum.h ****         5.62f};
 100:mi/plaits/dsp/drums/analog_snare_drum.h ****     
 101:mi/plaits/dsp/drums/analog_snare_drum.h ****     float f[kNumModes];
 102:mi/plaits/dsp/drums/analog_snare_drum.h ****     float gain[kNumModes];
 103:mi/plaits/dsp/drums/analog_snare_drum.h ****     
 104:mi/plaits/dsp/drums/analog_snare_drum.h ****     for (int i = 0; i < kNumModes; ++i) {
 105:mi/plaits/dsp/drums/analog_snare_drum.h ****       f[i] = std::min(f0 * kModeFrequencies[i], 0.499f);
 855              		.loc 3 105 7 is_stmt 1 view .LVU206
 856              		.loc 3 105 26 is_stmt 0 view .LVU207
 857 0112 60EEA77A 		vmul.f32	s15, s1, s15
 858              	.LVL23:
 859              	.LBB407:
 860              	.LBI407:
 861              		.file 8 "/Library/DaisyToolchain/0.2.0/arm/arm-none-eabi/include/c++/10.3.1/bits/stl_algobase.h"
   1:/Library/DaisyToolchain/0.2.0/arm/arm-none-eabi/include/c++/10.3.1/bits/stl_algobase.h **** // Core algorithmic facilities -*- C++ -*-
   2:/Library/DaisyToolchain/0.2.0/arm/arm-none-eabi/include/c++/10.3.1/bits/stl_algobase.h **** 
   3:/Library/DaisyToolchain/0.2.0/arm/arm-none-eabi/include/c++/10.3.1/bits/stl_algobase.h **** // Copyright (C) 2001-2020 Free Software Foundation, Inc.
ARM GAS  /var/folders/9k/zk1mgrrd7wg4__6zvxvr9w8m0000gn/T//ccjjMUN9.s 			page 29


   4:/Library/DaisyToolchain/0.2.0/arm/arm-none-eabi/include/c++/10.3.1/bits/stl_algobase.h **** //
   5:/Library/DaisyToolchain/0.2.0/arm/arm-none-eabi/include/c++/10.3.1/bits/stl_algobase.h **** // This file is part of the GNU ISO C++ Library.  This library is free
   6:/Library/DaisyToolchain/0.2.0/arm/arm-none-eabi/include/c++/10.3.1/bits/stl_algobase.h **** // software; you can redistribute it and/or modify it under the
   7:/Library/DaisyToolchain/0.2.0/arm/arm-none-eabi/include/c++/10.3.1/bits/stl_algobase.h **** // terms of the GNU General Public License as published by the
   8:/Library/DaisyToolchain/0.2.0/arm/arm-none-eabi/include/c++/10.3.1/bits/stl_algobase.h **** // Free Software Foundation; either version 3, or (at your option)
   9:/Library/DaisyToolchain/0.2.0/arm/arm-none-eabi/include/c++/10.3.1/bits/stl_algobase.h **** // any later version.
  10:/Library/DaisyToolchain/0.2.0/arm/arm-none-eabi/include/c++/10.3.1/bits/stl_algobase.h **** 
  11:/Library/DaisyToolchain/0.2.0/arm/arm-none-eabi/include/c++/10.3.1/bits/stl_algobase.h **** // This library is distributed in the hope that it will be useful,
  12:/Library/DaisyToolchain/0.2.0/arm/arm-none-eabi/include/c++/10.3.1/bits/stl_algobase.h **** // but WITHOUT ANY WARRANTY; without even the implied warranty of
  13:/Library/DaisyToolchain/0.2.0/arm/arm-none-eabi/include/c++/10.3.1/bits/stl_algobase.h **** // MERCHANTABILITY or FITNESS FOR A PARTICULAR PURPOSE.  See the
  14:/Library/DaisyToolchain/0.2.0/arm/arm-none-eabi/include/c++/10.3.1/bits/stl_algobase.h **** // GNU General Public License for more details.
  15:/Library/DaisyToolchain/0.2.0/arm/arm-none-eabi/include/c++/10.3.1/bits/stl_algobase.h **** 
  16:/Library/DaisyToolchain/0.2.0/arm/arm-none-eabi/include/c++/10.3.1/bits/stl_algobase.h **** // Under Section 7 of GPL version 3, you are granted additional
  17:/Library/DaisyToolchain/0.2.0/arm/arm-none-eabi/include/c++/10.3.1/bits/stl_algobase.h **** // permissions described in the GCC Runtime Library Exception, version
  18:/Library/DaisyToolchain/0.2.0/arm/arm-none-eabi/include/c++/10.3.1/bits/stl_algobase.h **** // 3.1, as published by the Free Software Foundation.
  19:/Library/DaisyToolchain/0.2.0/arm/arm-none-eabi/include/c++/10.3.1/bits/stl_algobase.h **** 
  20:/Library/DaisyToolchain/0.2.0/arm/arm-none-eabi/include/c++/10.3.1/bits/stl_algobase.h **** // You should have received a copy of the GNU General Public License and
  21:/Library/DaisyToolchain/0.2.0/arm/arm-none-eabi/include/c++/10.3.1/bits/stl_algobase.h **** // a copy of the GCC Runtime Library Exception along with this program;
  22:/Library/DaisyToolchain/0.2.0/arm/arm-none-eabi/include/c++/10.3.1/bits/stl_algobase.h **** // see the files COPYING3 and COPYING.RUNTIME respectively.  If not, see
  23:/Library/DaisyToolchain/0.2.0/arm/arm-none-eabi/include/c++/10.3.1/bits/stl_algobase.h **** // <http://www.gnu.org/licenses/>.
  24:/Library/DaisyToolchain/0.2.0/arm/arm-none-eabi/include/c++/10.3.1/bits/stl_algobase.h **** 
  25:/Library/DaisyToolchain/0.2.0/arm/arm-none-eabi/include/c++/10.3.1/bits/stl_algobase.h **** /*
  26:/Library/DaisyToolchain/0.2.0/arm/arm-none-eabi/include/c++/10.3.1/bits/stl_algobase.h ****  *
  27:/Library/DaisyToolchain/0.2.0/arm/arm-none-eabi/include/c++/10.3.1/bits/stl_algobase.h ****  * Copyright (c) 1994
  28:/Library/DaisyToolchain/0.2.0/arm/arm-none-eabi/include/c++/10.3.1/bits/stl_algobase.h ****  * Hewlett-Packard Company
  29:/Library/DaisyToolchain/0.2.0/arm/arm-none-eabi/include/c++/10.3.1/bits/stl_algobase.h ****  *
  30:/Library/DaisyToolchain/0.2.0/arm/arm-none-eabi/include/c++/10.3.1/bits/stl_algobase.h ****  * Permission to use, copy, modify, distribute and sell this software
  31:/Library/DaisyToolchain/0.2.0/arm/arm-none-eabi/include/c++/10.3.1/bits/stl_algobase.h ****  * and its documentation for any purpose is hereby granted without fee,
  32:/Library/DaisyToolchain/0.2.0/arm/arm-none-eabi/include/c++/10.3.1/bits/stl_algobase.h ****  * provided that the above copyright notice appear in all copies and
  33:/Library/DaisyToolchain/0.2.0/arm/arm-none-eabi/include/c++/10.3.1/bits/stl_algobase.h ****  * that both that copyright notice and this permission notice appear
  34:/Library/DaisyToolchain/0.2.0/arm/arm-none-eabi/include/c++/10.3.1/bits/stl_algobase.h ****  * in supporting documentation.  Hewlett-Packard Company makes no
  35:/Library/DaisyToolchain/0.2.0/arm/arm-none-eabi/include/c++/10.3.1/bits/stl_algobase.h ****  * representations about the suitability of this software for any
  36:/Library/DaisyToolchain/0.2.0/arm/arm-none-eabi/include/c++/10.3.1/bits/stl_algobase.h ****  * purpose.  It is provided "as is" without express or implied warranty.
  37:/Library/DaisyToolchain/0.2.0/arm/arm-none-eabi/include/c++/10.3.1/bits/stl_algobase.h ****  *
  38:/Library/DaisyToolchain/0.2.0/arm/arm-none-eabi/include/c++/10.3.1/bits/stl_algobase.h ****  *
  39:/Library/DaisyToolchain/0.2.0/arm/arm-none-eabi/include/c++/10.3.1/bits/stl_algobase.h ****  * Copyright (c) 1996-1998
  40:/Library/DaisyToolchain/0.2.0/arm/arm-none-eabi/include/c++/10.3.1/bits/stl_algobase.h ****  * Silicon Graphics Computer Systems, Inc.
  41:/Library/DaisyToolchain/0.2.0/arm/arm-none-eabi/include/c++/10.3.1/bits/stl_algobase.h ****  *
  42:/Library/DaisyToolchain/0.2.0/arm/arm-none-eabi/include/c++/10.3.1/bits/stl_algobase.h ****  * Permission to use, copy, modify, distribute and sell this software
  43:/Library/DaisyToolchain/0.2.0/arm/arm-none-eabi/include/c++/10.3.1/bits/stl_algobase.h ****  * and its documentation for any purpose is hereby granted without fee,
  44:/Library/DaisyToolchain/0.2.0/arm/arm-none-eabi/include/c++/10.3.1/bits/stl_algobase.h ****  * provided that the above copyright notice appear in all copies and
  45:/Library/DaisyToolchain/0.2.0/arm/arm-none-eabi/include/c++/10.3.1/bits/stl_algobase.h ****  * that both that copyright notice and this permission notice appear
  46:/Library/DaisyToolchain/0.2.0/arm/arm-none-eabi/include/c++/10.3.1/bits/stl_algobase.h ****  * in supporting documentation.  Silicon Graphics makes no
  47:/Library/DaisyToolchain/0.2.0/arm/arm-none-eabi/include/c++/10.3.1/bits/stl_algobase.h ****  * representations about the suitability of this software for any
  48:/Library/DaisyToolchain/0.2.0/arm/arm-none-eabi/include/c++/10.3.1/bits/stl_algobase.h ****  * purpose.  It is provided "as is" without express or implied warranty.
  49:/Library/DaisyToolchain/0.2.0/arm/arm-none-eabi/include/c++/10.3.1/bits/stl_algobase.h ****  */
  50:/Library/DaisyToolchain/0.2.0/arm/arm-none-eabi/include/c++/10.3.1/bits/stl_algobase.h **** 
  51:/Library/DaisyToolchain/0.2.0/arm/arm-none-eabi/include/c++/10.3.1/bits/stl_algobase.h **** /** @file bits/stl_algobase.h
  52:/Library/DaisyToolchain/0.2.0/arm/arm-none-eabi/include/c++/10.3.1/bits/stl_algobase.h ****  *  This is an internal header file, included by other library headers.
  53:/Library/DaisyToolchain/0.2.0/arm/arm-none-eabi/include/c++/10.3.1/bits/stl_algobase.h ****  *  Do not attempt to use it directly. @headername{algorithm}
  54:/Library/DaisyToolchain/0.2.0/arm/arm-none-eabi/include/c++/10.3.1/bits/stl_algobase.h ****  */
  55:/Library/DaisyToolchain/0.2.0/arm/arm-none-eabi/include/c++/10.3.1/bits/stl_algobase.h **** 
  56:/Library/DaisyToolchain/0.2.0/arm/arm-none-eabi/include/c++/10.3.1/bits/stl_algobase.h **** #ifndef _STL_ALGOBASE_H
  57:/Library/DaisyToolchain/0.2.0/arm/arm-none-eabi/include/c++/10.3.1/bits/stl_algobase.h **** #define _STL_ALGOBASE_H 1
  58:/Library/DaisyToolchain/0.2.0/arm/arm-none-eabi/include/c++/10.3.1/bits/stl_algobase.h **** 
  59:/Library/DaisyToolchain/0.2.0/arm/arm-none-eabi/include/c++/10.3.1/bits/stl_algobase.h **** #include <bits/c++config.h>
  60:/Library/DaisyToolchain/0.2.0/arm/arm-none-eabi/include/c++/10.3.1/bits/stl_algobase.h **** #include <bits/functexcept.h>
ARM GAS  /var/folders/9k/zk1mgrrd7wg4__6zvxvr9w8m0000gn/T//ccjjMUN9.s 			page 30


  61:/Library/DaisyToolchain/0.2.0/arm/arm-none-eabi/include/c++/10.3.1/bits/stl_algobase.h **** #include <bits/cpp_type_traits.h>
  62:/Library/DaisyToolchain/0.2.0/arm/arm-none-eabi/include/c++/10.3.1/bits/stl_algobase.h **** #include <ext/type_traits.h>
  63:/Library/DaisyToolchain/0.2.0/arm/arm-none-eabi/include/c++/10.3.1/bits/stl_algobase.h **** #include <ext/numeric_traits.h>
  64:/Library/DaisyToolchain/0.2.0/arm/arm-none-eabi/include/c++/10.3.1/bits/stl_algobase.h **** #include <bits/stl_pair.h>
  65:/Library/DaisyToolchain/0.2.0/arm/arm-none-eabi/include/c++/10.3.1/bits/stl_algobase.h **** #include <bits/stl_iterator_base_types.h>
  66:/Library/DaisyToolchain/0.2.0/arm/arm-none-eabi/include/c++/10.3.1/bits/stl_algobase.h **** #include <bits/stl_iterator_base_funcs.h>
  67:/Library/DaisyToolchain/0.2.0/arm/arm-none-eabi/include/c++/10.3.1/bits/stl_algobase.h **** #include <bits/stl_iterator.h>
  68:/Library/DaisyToolchain/0.2.0/arm/arm-none-eabi/include/c++/10.3.1/bits/stl_algobase.h **** #include <bits/concept_check.h>
  69:/Library/DaisyToolchain/0.2.0/arm/arm-none-eabi/include/c++/10.3.1/bits/stl_algobase.h **** #include <debug/debug.h>
  70:/Library/DaisyToolchain/0.2.0/arm/arm-none-eabi/include/c++/10.3.1/bits/stl_algobase.h **** #include <bits/move.h> // For std::swap
  71:/Library/DaisyToolchain/0.2.0/arm/arm-none-eabi/include/c++/10.3.1/bits/stl_algobase.h **** #include <bits/predefined_ops.h>
  72:/Library/DaisyToolchain/0.2.0/arm/arm-none-eabi/include/c++/10.3.1/bits/stl_algobase.h **** #if __cplusplus >= 201103L
  73:/Library/DaisyToolchain/0.2.0/arm/arm-none-eabi/include/c++/10.3.1/bits/stl_algobase.h **** # include <type_traits>
  74:/Library/DaisyToolchain/0.2.0/arm/arm-none-eabi/include/c++/10.3.1/bits/stl_algobase.h **** #endif
  75:/Library/DaisyToolchain/0.2.0/arm/arm-none-eabi/include/c++/10.3.1/bits/stl_algobase.h **** #if __cplusplus > 201703L
  76:/Library/DaisyToolchain/0.2.0/arm/arm-none-eabi/include/c++/10.3.1/bits/stl_algobase.h **** # include <compare>
  77:/Library/DaisyToolchain/0.2.0/arm/arm-none-eabi/include/c++/10.3.1/bits/stl_algobase.h **** #endif
  78:/Library/DaisyToolchain/0.2.0/arm/arm-none-eabi/include/c++/10.3.1/bits/stl_algobase.h **** 
  79:/Library/DaisyToolchain/0.2.0/arm/arm-none-eabi/include/c++/10.3.1/bits/stl_algobase.h **** namespace std _GLIBCXX_VISIBILITY(default)
  80:/Library/DaisyToolchain/0.2.0/arm/arm-none-eabi/include/c++/10.3.1/bits/stl_algobase.h **** {
  81:/Library/DaisyToolchain/0.2.0/arm/arm-none-eabi/include/c++/10.3.1/bits/stl_algobase.h **** _GLIBCXX_BEGIN_NAMESPACE_VERSION
  82:/Library/DaisyToolchain/0.2.0/arm/arm-none-eabi/include/c++/10.3.1/bits/stl_algobase.h **** 
  83:/Library/DaisyToolchain/0.2.0/arm/arm-none-eabi/include/c++/10.3.1/bits/stl_algobase.h ****   /*
  84:/Library/DaisyToolchain/0.2.0/arm/arm-none-eabi/include/c++/10.3.1/bits/stl_algobase.h ****    * A constexpr wrapper for __builtin_memcmp.
  85:/Library/DaisyToolchain/0.2.0/arm/arm-none-eabi/include/c++/10.3.1/bits/stl_algobase.h ****    * @param __num The number of elements of type _Tp (not bytes).
  86:/Library/DaisyToolchain/0.2.0/arm/arm-none-eabi/include/c++/10.3.1/bits/stl_algobase.h ****    */
  87:/Library/DaisyToolchain/0.2.0/arm/arm-none-eabi/include/c++/10.3.1/bits/stl_algobase.h ****   template<typename _Tp, typename _Up>
  88:/Library/DaisyToolchain/0.2.0/arm/arm-none-eabi/include/c++/10.3.1/bits/stl_algobase.h ****     _GLIBCXX14_CONSTEXPR
  89:/Library/DaisyToolchain/0.2.0/arm/arm-none-eabi/include/c++/10.3.1/bits/stl_algobase.h ****     inline int
  90:/Library/DaisyToolchain/0.2.0/arm/arm-none-eabi/include/c++/10.3.1/bits/stl_algobase.h ****     __memcmp(const _Tp* __first1, const _Up* __first2, size_t __num)
  91:/Library/DaisyToolchain/0.2.0/arm/arm-none-eabi/include/c++/10.3.1/bits/stl_algobase.h ****     {
  92:/Library/DaisyToolchain/0.2.0/arm/arm-none-eabi/include/c++/10.3.1/bits/stl_algobase.h **** #if __cplusplus >= 201103L
  93:/Library/DaisyToolchain/0.2.0/arm/arm-none-eabi/include/c++/10.3.1/bits/stl_algobase.h ****       static_assert(sizeof(_Tp) == sizeof(_Up), "can be compared with memcmp");
  94:/Library/DaisyToolchain/0.2.0/arm/arm-none-eabi/include/c++/10.3.1/bits/stl_algobase.h **** #endif
  95:/Library/DaisyToolchain/0.2.0/arm/arm-none-eabi/include/c++/10.3.1/bits/stl_algobase.h **** #ifdef __cpp_lib_is_constant_evaluated
  96:/Library/DaisyToolchain/0.2.0/arm/arm-none-eabi/include/c++/10.3.1/bits/stl_algobase.h ****       if (std::is_constant_evaluated())
  97:/Library/DaisyToolchain/0.2.0/arm/arm-none-eabi/include/c++/10.3.1/bits/stl_algobase.h **** 	{
  98:/Library/DaisyToolchain/0.2.0/arm/arm-none-eabi/include/c++/10.3.1/bits/stl_algobase.h **** 	  for(; __num > 0; ++__first1, ++__first2, --__num)
  99:/Library/DaisyToolchain/0.2.0/arm/arm-none-eabi/include/c++/10.3.1/bits/stl_algobase.h **** 	    if (*__first1 != *__first2)
 100:/Library/DaisyToolchain/0.2.0/arm/arm-none-eabi/include/c++/10.3.1/bits/stl_algobase.h **** 	      return *__first1 < *__first2 ? -1 : 1;
 101:/Library/DaisyToolchain/0.2.0/arm/arm-none-eabi/include/c++/10.3.1/bits/stl_algobase.h **** 	  return 0;
 102:/Library/DaisyToolchain/0.2.0/arm/arm-none-eabi/include/c++/10.3.1/bits/stl_algobase.h **** 	}
 103:/Library/DaisyToolchain/0.2.0/arm/arm-none-eabi/include/c++/10.3.1/bits/stl_algobase.h ****       else
 104:/Library/DaisyToolchain/0.2.0/arm/arm-none-eabi/include/c++/10.3.1/bits/stl_algobase.h **** #endif
 105:/Library/DaisyToolchain/0.2.0/arm/arm-none-eabi/include/c++/10.3.1/bits/stl_algobase.h **** 	return __builtin_memcmp(__first1, __first2, sizeof(_Tp) * __num);
 106:/Library/DaisyToolchain/0.2.0/arm/arm-none-eabi/include/c++/10.3.1/bits/stl_algobase.h ****     }
 107:/Library/DaisyToolchain/0.2.0/arm/arm-none-eabi/include/c++/10.3.1/bits/stl_algobase.h **** 
 108:/Library/DaisyToolchain/0.2.0/arm/arm-none-eabi/include/c++/10.3.1/bits/stl_algobase.h **** #if __cplusplus < 201103L
 109:/Library/DaisyToolchain/0.2.0/arm/arm-none-eabi/include/c++/10.3.1/bits/stl_algobase.h ****   // See http://gcc.gnu.org/ml/libstdc++/2004-08/msg00167.html: in a
 110:/Library/DaisyToolchain/0.2.0/arm/arm-none-eabi/include/c++/10.3.1/bits/stl_algobase.h ****   // nutshell, we are partially implementing the resolution of DR 187,
 111:/Library/DaisyToolchain/0.2.0/arm/arm-none-eabi/include/c++/10.3.1/bits/stl_algobase.h ****   // when it's safe, i.e., the value_types are equal.
 112:/Library/DaisyToolchain/0.2.0/arm/arm-none-eabi/include/c++/10.3.1/bits/stl_algobase.h ****   template<bool _BoolType>
 113:/Library/DaisyToolchain/0.2.0/arm/arm-none-eabi/include/c++/10.3.1/bits/stl_algobase.h ****     struct __iter_swap
 114:/Library/DaisyToolchain/0.2.0/arm/arm-none-eabi/include/c++/10.3.1/bits/stl_algobase.h ****     {
 115:/Library/DaisyToolchain/0.2.0/arm/arm-none-eabi/include/c++/10.3.1/bits/stl_algobase.h ****       template<typename _ForwardIterator1, typename _ForwardIterator2>
 116:/Library/DaisyToolchain/0.2.0/arm/arm-none-eabi/include/c++/10.3.1/bits/stl_algobase.h **** 	static void
 117:/Library/DaisyToolchain/0.2.0/arm/arm-none-eabi/include/c++/10.3.1/bits/stl_algobase.h **** 	iter_swap(_ForwardIterator1 __a, _ForwardIterator2 __b)
ARM GAS  /var/folders/9k/zk1mgrrd7wg4__6zvxvr9w8m0000gn/T//ccjjMUN9.s 			page 31


 118:/Library/DaisyToolchain/0.2.0/arm/arm-none-eabi/include/c++/10.3.1/bits/stl_algobase.h **** 	{
 119:/Library/DaisyToolchain/0.2.0/arm/arm-none-eabi/include/c++/10.3.1/bits/stl_algobase.h **** 	  typedef typename iterator_traits<_ForwardIterator1>::value_type
 120:/Library/DaisyToolchain/0.2.0/arm/arm-none-eabi/include/c++/10.3.1/bits/stl_algobase.h **** 	    _ValueType1;
 121:/Library/DaisyToolchain/0.2.0/arm/arm-none-eabi/include/c++/10.3.1/bits/stl_algobase.h **** 	  _ValueType1 __tmp = *__a;
 122:/Library/DaisyToolchain/0.2.0/arm/arm-none-eabi/include/c++/10.3.1/bits/stl_algobase.h **** 	  *__a = *__b;
 123:/Library/DaisyToolchain/0.2.0/arm/arm-none-eabi/include/c++/10.3.1/bits/stl_algobase.h **** 	  *__b = __tmp;
 124:/Library/DaisyToolchain/0.2.0/arm/arm-none-eabi/include/c++/10.3.1/bits/stl_algobase.h **** 	}
 125:/Library/DaisyToolchain/0.2.0/arm/arm-none-eabi/include/c++/10.3.1/bits/stl_algobase.h ****     };
 126:/Library/DaisyToolchain/0.2.0/arm/arm-none-eabi/include/c++/10.3.1/bits/stl_algobase.h **** 
 127:/Library/DaisyToolchain/0.2.0/arm/arm-none-eabi/include/c++/10.3.1/bits/stl_algobase.h ****   template<>
 128:/Library/DaisyToolchain/0.2.0/arm/arm-none-eabi/include/c++/10.3.1/bits/stl_algobase.h ****     struct __iter_swap<true>
 129:/Library/DaisyToolchain/0.2.0/arm/arm-none-eabi/include/c++/10.3.1/bits/stl_algobase.h ****     {
 130:/Library/DaisyToolchain/0.2.0/arm/arm-none-eabi/include/c++/10.3.1/bits/stl_algobase.h ****       template<typename _ForwardIterator1, typename _ForwardIterator2>
 131:/Library/DaisyToolchain/0.2.0/arm/arm-none-eabi/include/c++/10.3.1/bits/stl_algobase.h **** 	static void
 132:/Library/DaisyToolchain/0.2.0/arm/arm-none-eabi/include/c++/10.3.1/bits/stl_algobase.h **** 	iter_swap(_ForwardIterator1 __a, _ForwardIterator2 __b)
 133:/Library/DaisyToolchain/0.2.0/arm/arm-none-eabi/include/c++/10.3.1/bits/stl_algobase.h **** 	{
 134:/Library/DaisyToolchain/0.2.0/arm/arm-none-eabi/include/c++/10.3.1/bits/stl_algobase.h **** 	  swap(*__a, *__b);
 135:/Library/DaisyToolchain/0.2.0/arm/arm-none-eabi/include/c++/10.3.1/bits/stl_algobase.h **** 	}
 136:/Library/DaisyToolchain/0.2.0/arm/arm-none-eabi/include/c++/10.3.1/bits/stl_algobase.h ****     };
 137:/Library/DaisyToolchain/0.2.0/arm/arm-none-eabi/include/c++/10.3.1/bits/stl_algobase.h **** #endif // C++03
 138:/Library/DaisyToolchain/0.2.0/arm/arm-none-eabi/include/c++/10.3.1/bits/stl_algobase.h **** 
 139:/Library/DaisyToolchain/0.2.0/arm/arm-none-eabi/include/c++/10.3.1/bits/stl_algobase.h ****   /**
 140:/Library/DaisyToolchain/0.2.0/arm/arm-none-eabi/include/c++/10.3.1/bits/stl_algobase.h ****    *  @brief Swaps the contents of two iterators.
 141:/Library/DaisyToolchain/0.2.0/arm/arm-none-eabi/include/c++/10.3.1/bits/stl_algobase.h ****    *  @ingroup mutating_algorithms
 142:/Library/DaisyToolchain/0.2.0/arm/arm-none-eabi/include/c++/10.3.1/bits/stl_algobase.h ****    *  @param  __a  An iterator.
 143:/Library/DaisyToolchain/0.2.0/arm/arm-none-eabi/include/c++/10.3.1/bits/stl_algobase.h ****    *  @param  __b  Another iterator.
 144:/Library/DaisyToolchain/0.2.0/arm/arm-none-eabi/include/c++/10.3.1/bits/stl_algobase.h ****    *  @return   Nothing.
 145:/Library/DaisyToolchain/0.2.0/arm/arm-none-eabi/include/c++/10.3.1/bits/stl_algobase.h ****    *
 146:/Library/DaisyToolchain/0.2.0/arm/arm-none-eabi/include/c++/10.3.1/bits/stl_algobase.h ****    *  This function swaps the values pointed to by two iterators, not the
 147:/Library/DaisyToolchain/0.2.0/arm/arm-none-eabi/include/c++/10.3.1/bits/stl_algobase.h ****    *  iterators themselves.
 148:/Library/DaisyToolchain/0.2.0/arm/arm-none-eabi/include/c++/10.3.1/bits/stl_algobase.h ****   */
 149:/Library/DaisyToolchain/0.2.0/arm/arm-none-eabi/include/c++/10.3.1/bits/stl_algobase.h ****   template<typename _ForwardIterator1, typename _ForwardIterator2>
 150:/Library/DaisyToolchain/0.2.0/arm/arm-none-eabi/include/c++/10.3.1/bits/stl_algobase.h ****     _GLIBCXX20_CONSTEXPR
 151:/Library/DaisyToolchain/0.2.0/arm/arm-none-eabi/include/c++/10.3.1/bits/stl_algobase.h ****     inline void
 152:/Library/DaisyToolchain/0.2.0/arm/arm-none-eabi/include/c++/10.3.1/bits/stl_algobase.h ****     iter_swap(_ForwardIterator1 __a, _ForwardIterator2 __b)
 153:/Library/DaisyToolchain/0.2.0/arm/arm-none-eabi/include/c++/10.3.1/bits/stl_algobase.h ****     {
 154:/Library/DaisyToolchain/0.2.0/arm/arm-none-eabi/include/c++/10.3.1/bits/stl_algobase.h ****       // concept requirements
 155:/Library/DaisyToolchain/0.2.0/arm/arm-none-eabi/include/c++/10.3.1/bits/stl_algobase.h ****       __glibcxx_function_requires(_Mutable_ForwardIteratorConcept<
 156:/Library/DaisyToolchain/0.2.0/arm/arm-none-eabi/include/c++/10.3.1/bits/stl_algobase.h **** 				  _ForwardIterator1>)
 157:/Library/DaisyToolchain/0.2.0/arm/arm-none-eabi/include/c++/10.3.1/bits/stl_algobase.h ****       __glibcxx_function_requires(_Mutable_ForwardIteratorConcept<
 158:/Library/DaisyToolchain/0.2.0/arm/arm-none-eabi/include/c++/10.3.1/bits/stl_algobase.h **** 				  _ForwardIterator2>)
 159:/Library/DaisyToolchain/0.2.0/arm/arm-none-eabi/include/c++/10.3.1/bits/stl_algobase.h **** 
 160:/Library/DaisyToolchain/0.2.0/arm/arm-none-eabi/include/c++/10.3.1/bits/stl_algobase.h **** #if __cplusplus < 201103L
 161:/Library/DaisyToolchain/0.2.0/arm/arm-none-eabi/include/c++/10.3.1/bits/stl_algobase.h ****       typedef typename iterator_traits<_ForwardIterator1>::value_type
 162:/Library/DaisyToolchain/0.2.0/arm/arm-none-eabi/include/c++/10.3.1/bits/stl_algobase.h **** 	_ValueType1;
 163:/Library/DaisyToolchain/0.2.0/arm/arm-none-eabi/include/c++/10.3.1/bits/stl_algobase.h ****       typedef typename iterator_traits<_ForwardIterator2>::value_type
 164:/Library/DaisyToolchain/0.2.0/arm/arm-none-eabi/include/c++/10.3.1/bits/stl_algobase.h **** 	_ValueType2;
 165:/Library/DaisyToolchain/0.2.0/arm/arm-none-eabi/include/c++/10.3.1/bits/stl_algobase.h **** 
 166:/Library/DaisyToolchain/0.2.0/arm/arm-none-eabi/include/c++/10.3.1/bits/stl_algobase.h ****       __glibcxx_function_requires(_ConvertibleConcept<_ValueType1,
 167:/Library/DaisyToolchain/0.2.0/arm/arm-none-eabi/include/c++/10.3.1/bits/stl_algobase.h **** 				  _ValueType2>)
 168:/Library/DaisyToolchain/0.2.0/arm/arm-none-eabi/include/c++/10.3.1/bits/stl_algobase.h ****       __glibcxx_function_requires(_ConvertibleConcept<_ValueType2,
 169:/Library/DaisyToolchain/0.2.0/arm/arm-none-eabi/include/c++/10.3.1/bits/stl_algobase.h **** 				  _ValueType1>)
 170:/Library/DaisyToolchain/0.2.0/arm/arm-none-eabi/include/c++/10.3.1/bits/stl_algobase.h **** 
 171:/Library/DaisyToolchain/0.2.0/arm/arm-none-eabi/include/c++/10.3.1/bits/stl_algobase.h ****       typedef typename iterator_traits<_ForwardIterator1>::reference
 172:/Library/DaisyToolchain/0.2.0/arm/arm-none-eabi/include/c++/10.3.1/bits/stl_algobase.h **** 	_ReferenceType1;
 173:/Library/DaisyToolchain/0.2.0/arm/arm-none-eabi/include/c++/10.3.1/bits/stl_algobase.h ****       typedef typename iterator_traits<_ForwardIterator2>::reference
 174:/Library/DaisyToolchain/0.2.0/arm/arm-none-eabi/include/c++/10.3.1/bits/stl_algobase.h **** 	_ReferenceType2;
ARM GAS  /var/folders/9k/zk1mgrrd7wg4__6zvxvr9w8m0000gn/T//ccjjMUN9.s 			page 32


 175:/Library/DaisyToolchain/0.2.0/arm/arm-none-eabi/include/c++/10.3.1/bits/stl_algobase.h ****       std::__iter_swap<__are_same<_ValueType1, _ValueType2>::__value
 176:/Library/DaisyToolchain/0.2.0/arm/arm-none-eabi/include/c++/10.3.1/bits/stl_algobase.h **** 	&& __are_same<_ValueType1&, _ReferenceType1>::__value
 177:/Library/DaisyToolchain/0.2.0/arm/arm-none-eabi/include/c++/10.3.1/bits/stl_algobase.h **** 	&& __are_same<_ValueType2&, _ReferenceType2>::__value>::
 178:/Library/DaisyToolchain/0.2.0/arm/arm-none-eabi/include/c++/10.3.1/bits/stl_algobase.h **** 	iter_swap(__a, __b);
 179:/Library/DaisyToolchain/0.2.0/arm/arm-none-eabi/include/c++/10.3.1/bits/stl_algobase.h **** #else
 180:/Library/DaisyToolchain/0.2.0/arm/arm-none-eabi/include/c++/10.3.1/bits/stl_algobase.h ****       // _GLIBCXX_RESOLVE_LIB_DEFECTS
 181:/Library/DaisyToolchain/0.2.0/arm/arm-none-eabi/include/c++/10.3.1/bits/stl_algobase.h ****       // 187. iter_swap underspecified
 182:/Library/DaisyToolchain/0.2.0/arm/arm-none-eabi/include/c++/10.3.1/bits/stl_algobase.h ****       swap(*__a, *__b);
 183:/Library/DaisyToolchain/0.2.0/arm/arm-none-eabi/include/c++/10.3.1/bits/stl_algobase.h **** #endif
 184:/Library/DaisyToolchain/0.2.0/arm/arm-none-eabi/include/c++/10.3.1/bits/stl_algobase.h ****     }
 185:/Library/DaisyToolchain/0.2.0/arm/arm-none-eabi/include/c++/10.3.1/bits/stl_algobase.h **** 
 186:/Library/DaisyToolchain/0.2.0/arm/arm-none-eabi/include/c++/10.3.1/bits/stl_algobase.h ****   /**
 187:/Library/DaisyToolchain/0.2.0/arm/arm-none-eabi/include/c++/10.3.1/bits/stl_algobase.h ****    *  @brief Swap the elements of two sequences.
 188:/Library/DaisyToolchain/0.2.0/arm/arm-none-eabi/include/c++/10.3.1/bits/stl_algobase.h ****    *  @ingroup mutating_algorithms
 189:/Library/DaisyToolchain/0.2.0/arm/arm-none-eabi/include/c++/10.3.1/bits/stl_algobase.h ****    *  @param  __first1  A forward iterator.
 190:/Library/DaisyToolchain/0.2.0/arm/arm-none-eabi/include/c++/10.3.1/bits/stl_algobase.h ****    *  @param  __last1   A forward iterator.
 191:/Library/DaisyToolchain/0.2.0/arm/arm-none-eabi/include/c++/10.3.1/bits/stl_algobase.h ****    *  @param  __first2  A forward iterator.
 192:/Library/DaisyToolchain/0.2.0/arm/arm-none-eabi/include/c++/10.3.1/bits/stl_algobase.h ****    *  @return   An iterator equal to @p first2+(last1-first1).
 193:/Library/DaisyToolchain/0.2.0/arm/arm-none-eabi/include/c++/10.3.1/bits/stl_algobase.h ****    *
 194:/Library/DaisyToolchain/0.2.0/arm/arm-none-eabi/include/c++/10.3.1/bits/stl_algobase.h ****    *  Swaps each element in the range @p [first1,last1) with the
 195:/Library/DaisyToolchain/0.2.0/arm/arm-none-eabi/include/c++/10.3.1/bits/stl_algobase.h ****    *  corresponding element in the range @p [first2,(last1-first1)).
 196:/Library/DaisyToolchain/0.2.0/arm/arm-none-eabi/include/c++/10.3.1/bits/stl_algobase.h ****    *  The ranges must not overlap.
 197:/Library/DaisyToolchain/0.2.0/arm/arm-none-eabi/include/c++/10.3.1/bits/stl_algobase.h ****   */
 198:/Library/DaisyToolchain/0.2.0/arm/arm-none-eabi/include/c++/10.3.1/bits/stl_algobase.h ****   template<typename _ForwardIterator1, typename _ForwardIterator2>
 199:/Library/DaisyToolchain/0.2.0/arm/arm-none-eabi/include/c++/10.3.1/bits/stl_algobase.h ****     _GLIBCXX20_CONSTEXPR
 200:/Library/DaisyToolchain/0.2.0/arm/arm-none-eabi/include/c++/10.3.1/bits/stl_algobase.h ****     _ForwardIterator2
 201:/Library/DaisyToolchain/0.2.0/arm/arm-none-eabi/include/c++/10.3.1/bits/stl_algobase.h ****     swap_ranges(_ForwardIterator1 __first1, _ForwardIterator1 __last1,
 202:/Library/DaisyToolchain/0.2.0/arm/arm-none-eabi/include/c++/10.3.1/bits/stl_algobase.h **** 		_ForwardIterator2 __first2)
 203:/Library/DaisyToolchain/0.2.0/arm/arm-none-eabi/include/c++/10.3.1/bits/stl_algobase.h ****     {
 204:/Library/DaisyToolchain/0.2.0/arm/arm-none-eabi/include/c++/10.3.1/bits/stl_algobase.h ****       // concept requirements
 205:/Library/DaisyToolchain/0.2.0/arm/arm-none-eabi/include/c++/10.3.1/bits/stl_algobase.h ****       __glibcxx_function_requires(_Mutable_ForwardIteratorConcept<
 206:/Library/DaisyToolchain/0.2.0/arm/arm-none-eabi/include/c++/10.3.1/bits/stl_algobase.h **** 				  _ForwardIterator1>)
 207:/Library/DaisyToolchain/0.2.0/arm/arm-none-eabi/include/c++/10.3.1/bits/stl_algobase.h ****       __glibcxx_function_requires(_Mutable_ForwardIteratorConcept<
 208:/Library/DaisyToolchain/0.2.0/arm/arm-none-eabi/include/c++/10.3.1/bits/stl_algobase.h **** 				  _ForwardIterator2>)
 209:/Library/DaisyToolchain/0.2.0/arm/arm-none-eabi/include/c++/10.3.1/bits/stl_algobase.h ****       __glibcxx_requires_valid_range(__first1, __last1);
 210:/Library/DaisyToolchain/0.2.0/arm/arm-none-eabi/include/c++/10.3.1/bits/stl_algobase.h **** 
 211:/Library/DaisyToolchain/0.2.0/arm/arm-none-eabi/include/c++/10.3.1/bits/stl_algobase.h ****       for (; __first1 != __last1; ++__first1, (void)++__first2)
 212:/Library/DaisyToolchain/0.2.0/arm/arm-none-eabi/include/c++/10.3.1/bits/stl_algobase.h **** 	std::iter_swap(__first1, __first2);
 213:/Library/DaisyToolchain/0.2.0/arm/arm-none-eabi/include/c++/10.3.1/bits/stl_algobase.h ****       return __first2;
 214:/Library/DaisyToolchain/0.2.0/arm/arm-none-eabi/include/c++/10.3.1/bits/stl_algobase.h ****     }
 215:/Library/DaisyToolchain/0.2.0/arm/arm-none-eabi/include/c++/10.3.1/bits/stl_algobase.h **** 
 216:/Library/DaisyToolchain/0.2.0/arm/arm-none-eabi/include/c++/10.3.1/bits/stl_algobase.h ****   /**
 217:/Library/DaisyToolchain/0.2.0/arm/arm-none-eabi/include/c++/10.3.1/bits/stl_algobase.h ****    *  @brief This does what you think it does.
 218:/Library/DaisyToolchain/0.2.0/arm/arm-none-eabi/include/c++/10.3.1/bits/stl_algobase.h ****    *  @ingroup sorting_algorithms
 219:/Library/DaisyToolchain/0.2.0/arm/arm-none-eabi/include/c++/10.3.1/bits/stl_algobase.h ****    *  @param  __a  A thing of arbitrary type.
 220:/Library/DaisyToolchain/0.2.0/arm/arm-none-eabi/include/c++/10.3.1/bits/stl_algobase.h ****    *  @param  __b  Another thing of arbitrary type.
 221:/Library/DaisyToolchain/0.2.0/arm/arm-none-eabi/include/c++/10.3.1/bits/stl_algobase.h ****    *  @return   The lesser of the parameters.
 222:/Library/DaisyToolchain/0.2.0/arm/arm-none-eabi/include/c++/10.3.1/bits/stl_algobase.h ****    *
 223:/Library/DaisyToolchain/0.2.0/arm/arm-none-eabi/include/c++/10.3.1/bits/stl_algobase.h ****    *  This is the simple classic generic implementation.  It will work on
 224:/Library/DaisyToolchain/0.2.0/arm/arm-none-eabi/include/c++/10.3.1/bits/stl_algobase.h ****    *  temporary expressions, since they are only evaluated once, unlike a
 225:/Library/DaisyToolchain/0.2.0/arm/arm-none-eabi/include/c++/10.3.1/bits/stl_algobase.h ****    *  preprocessor macro.
 226:/Library/DaisyToolchain/0.2.0/arm/arm-none-eabi/include/c++/10.3.1/bits/stl_algobase.h ****   */
 227:/Library/DaisyToolchain/0.2.0/arm/arm-none-eabi/include/c++/10.3.1/bits/stl_algobase.h ****   template<typename _Tp>
 228:/Library/DaisyToolchain/0.2.0/arm/arm-none-eabi/include/c++/10.3.1/bits/stl_algobase.h ****     _GLIBCXX14_CONSTEXPR
 229:/Library/DaisyToolchain/0.2.0/arm/arm-none-eabi/include/c++/10.3.1/bits/stl_algobase.h ****     inline const _Tp&
 230:/Library/DaisyToolchain/0.2.0/arm/arm-none-eabi/include/c++/10.3.1/bits/stl_algobase.h ****     min(const _Tp& __a, const _Tp& __b)
 862              		.loc 8 230 5 is_stmt 1 view .LVU208
ARM GAS  /var/folders/9k/zk1mgrrd7wg4__6zvxvr9w8m0000gn/T//ccjjMUN9.s 			page 33


 863              	.LBB408:
 231:/Library/DaisyToolchain/0.2.0/arm/arm-none-eabi/include/c++/10.3.1/bits/stl_algobase.h ****     {
 232:/Library/DaisyToolchain/0.2.0/arm/arm-none-eabi/include/c++/10.3.1/bits/stl_algobase.h ****       // concept requirements
 233:/Library/DaisyToolchain/0.2.0/arm/arm-none-eabi/include/c++/10.3.1/bits/stl_algobase.h ****       __glibcxx_function_requires(_LessThanComparableConcept<_Tp>)
 234:/Library/DaisyToolchain/0.2.0/arm/arm-none-eabi/include/c++/10.3.1/bits/stl_algobase.h ****       //return __b < __a ? __b : __a;
 235:/Library/DaisyToolchain/0.2.0/arm/arm-none-eabi/include/c++/10.3.1/bits/stl_algobase.h ****       if (__b < __a)
 864              		.loc 8 235 7 is_stmt 0 view .LVU209
 865 0116 9FED3C6A 		vldr.32	s12, .L68+60
 866              	.LBE408:
 867              	.LBE407:
 868              	.LBB412:
 869              	.LBB413:
 870              	.LBB414:
 871              	.LBB415:
 123:mi/stmlib/dsp/filter.h ****     } else if (approximation == FREQUENCY_ACCURATE) {
 872              		.loc 4 123 36 view .LVU210
 873 011a DFED3C5A 		vldr.32	s11, .L68+64
 874 011e DFED3C6A 		vldr.32	s13, .L68+68
 875              	.LBE415:
 876              	.LBE414:
 877              	.LBE413:
 878              	.LBE412:
 879              	.LBB428:
 880              	.LBB409:
 881              		.loc 8 235 7 view .LVU211
 882 0122 F4EEC67A 		vcmpe.f32	s15, s12
 883              	.LBE409:
 884              	.LBE428:
 885              	.LBB429:
 886              	.LBB422:
 887              	.LBB418:
 888              	.LBB416:
 123:mi/stmlib/dsp/filter.h ****     } else if (approximation == FREQUENCY_ACCURATE) {
 889              		.loc 4 123 26 view .LVU212
 890 0126 9FED3B7A 		vldr.32	s14, .L68+72
 891              	.LBE416:
 892              	.LBE418:
 893              	.LBE422:
 894              	.LBE429:
 895              	.LBB430:
 896              	.LBB410:
 897              		.loc 8 235 7 view .LVU213
 898 012a F1EE10FA 		vmrs	APSR_nzcv, FPSCR
 899 012e 46DC     		bgt	.L44
 900              	.LBE410:
 901              	.LBE430:
 902              	.LBB431:
 903              	.LBB423:
 904              	.LBB419:
 905              	.LBB417:
 122:mi/stmlib/dsp/filter.h ****       return f * (M_PI_F + f2 * (a + b * f2));
 906              		.loc 4 122 13 view .LVU214
 907 0130 27EEA76A 		vmul.f32	s12, s15, s15
 123:mi/stmlib/dsp/filter.h ****     } else if (approximation == FREQUENCY_ACCURATE) {
 908              		.loc 4 123 36 view .LVU215
 909 0134 E6EE256A 		vfma.f32	s13, s12, s11
 123:mi/stmlib/dsp/filter.h ****     } else if (approximation == FREQUENCY_ACCURATE) {
ARM GAS  /var/folders/9k/zk1mgrrd7wg4__6zvxvr9w8m0000gn/T//ccjjMUN9.s 			page 34


 910              		.loc 4 123 26 view .LVU216
 911 0138 A6EE267A 		vfma.f32	s14, s12, s13
 123:mi/stmlib/dsp/filter.h ****     } else if (approximation == FREQUENCY_ACCURATE) {
 912              		.loc 4 123 45 view .LVU217
 913 013c 27EE877A 		vmul.f32	s14, s15, s14
 914              	.LBE417:
 915              	.LBE419:
 916              		.loc 4 226 38 view .LVU218
 917 0140 67EE075A 		vmul.f32	s11, s14, s14
 918              	.L14:
 919              	.LVL24:
 920              		.loc 4 226 38 view .LVU219
 921              	.LBE423:
 922              	.LBE431:
 106:mi/plaits/dsp/drums/analog_snare_drum.h ****       resonator_[i].set_f_q<stmlib::FREQUENCY_FAST>(
 107:mi/plaits/dsp/drums/analog_snare_drum.h ****           f[i],
 108:mi/plaits/dsp/drums/analog_snare_drum.h ****           1.0f + f[i] * (i == 0 ? q : q * 0.25f));
 923              		.loc 3 108 33 view .LVU220
 924 0144 B5EE006A 		vmov.f32	s12, #2.5e-1
 105:mi/plaits/dsp/drums/analog_snare_drum.h ****       resonator_[i].set_f_q<stmlib::FREQUENCY_FAST>(
 925              		.loc 3 105 12 view .LVU221
 926 0148 E4EC017A 		vstmia.32	r4!, {s15}
 106:mi/plaits/dsp/drums/analog_snare_drum.h ****       resonator_[i].set_f_q<stmlib::FREQUENCY_FAST>(
 927              		.loc 3 106 7 is_stmt 1 view .LVU222
 106:mi/plaits/dsp/drums/analog_snare_drum.h ****       resonator_[i].set_f_q<stmlib::FREQUENCY_FAST>(
 928              		.loc 3 106 52 is_stmt 0 view .LVU223
 929 014c F7EE006A 		vmov.f32	s13, #1.0e+0
 930              	.LVL25:
 931              		.loc 3 108 33 view .LVU224
 932 0150 E2B1     		cbz	r2, .L15
 933              		.loc 3 108 33 discriminator 1 view .LVU225
 934 0152 25EE066A 		vmul.f32	s12, s10, s12
 935              	.LBB432:
 936              	.LBB424:
 224:mi/stmlib/dsp/filter.h ****     r_ = 1.0f / resonance;
 937              		.loc 4 224 8 discriminator 1 view .LVU226
 938 0156 83ED067A 		vstr.32	s14, [r3, #24]
 939              	.LBE424:
 940              	.LBE432:
 106:mi/plaits/dsp/drums/analog_snare_drum.h ****       resonator_[i].set_f_q<stmlib::FREQUENCY_FAST>(
 941              		.loc 3 106 52 discriminator 1 view .LVU227
 942 015a F0EE664A 		vmov.f32	s9, s13
 104:mi/plaits/dsp/drums/analog_snare_drum.h ****       f[i] = std::min(f0 * kModeFrequencies[i], 0.499f);
 943              		.loc 3 104 5 discriminator 1 view .LVU228
 944 015e 0132     		adds	r2, r2, #1
 104:mi/plaits/dsp/drums/analog_snare_drum.h ****       f[i] = std::min(f0 * kModeFrequencies[i], 0.499f);
 945              		.loc 3 104 23 discriminator 1 view .LVU229
 946 0160 1433     		adds	r3, r3, #20
 947 0162 052A     		cmp	r2, #5
 106:mi/plaits/dsp/drums/analog_snare_drum.h ****           f[i],
 948              		.loc 3 106 52 discriminator 1 view .LVU230
 949 0164 E7EE864A 		vfma.f32	s9, s15, s12
 950              	.LVL26:
 951              	.LBB433:
 952              	.LBI412:
 223:mi/stmlib/dsp/filter.h ****     g_ = OnePole::tan<approximation>(f);
 953              		.loc 4 223 15 is_stmt 1 discriminator 1 view .LVU231
ARM GAS  /var/folders/9k/zk1mgrrd7wg4__6zvxvr9w8m0000gn/T//ccjjMUN9.s 			page 35


 954              	.LBB425:
 955              	.LBB420:
 956              	.LBI414:
 107:mi/stmlib/dsp/filter.h ****     if (approximation == FREQUENCY_EXACT) {
 957              		.loc 4 107 23 discriminator 1 view .LVU232
 107:mi/stmlib/dsp/filter.h ****     if (approximation == FREQUENCY_EXACT) {
 958              		.loc 4 107 23 is_stmt 0 discriminator 1 view .LVU233
 959              	.LBE420:
 960              		.loc 4 226 23 discriminator 1 view .LVU234
 961 0168 F0EE667A 		vmov.f32	s15, s13
 225:mi/stmlib/dsp/filter.h ****     h_ = 1.0f / (1.0f + r_ * g_ + g_ * g_);
 962              		.loc 4 225 15 discriminator 1 view .LVU235
 963 016c 86EEA46A 		vdiv.f32	s12, s13, s9
 964              		.loc 4 226 23 discriminator 1 view .LVU236
 965 0170 E6EE077A 		vfma.f32	s15, s12, s14
 225:mi/stmlib/dsp/filter.h ****     h_ = 1.0f / (1.0f + r_ * g_ + g_ * g_);
 966              		.loc 4 225 8 discriminator 1 view .LVU237
 967 0174 83ED026A 		vstr.32	s12, [r3, #8]
 968              		.loc 4 226 33 discriminator 1 view .LVU238
 969 0178 77EEA57A 		vadd.f32	s15, s15, s11
 970              		.loc 4 226 15 discriminator 1 view .LVU239
 971 017c 86EEA77A 		vdiv.f32	s14, s13, s15
 972              		.loc 4 226 8 discriminator 1 view .LVU240
 973 0180 83ED037A 		vstr.32	s14, [r3, #12]
 974              	.LVL27:
 975              		.loc 4 226 8 discriminator 1 view .LVU241
 976              	.LBE425:
 977              	.LBE433:
 104:mi/plaits/dsp/drums/analog_snare_drum.h ****       f[i] = std::min(f0 * kModeFrequencies[i], 0.499f);
 978              		.loc 3 104 5 is_stmt 1 discriminator 1 view .LVU242
 104:mi/plaits/dsp/drums/analog_snare_drum.h ****       f[i] = std::min(f0 * kModeFrequencies[i], 0.499f);
 979              		.loc 3 104 23 discriminator 1 view .LVU243
 980 0184 48D0     		beq	.L16
 981              	.L42:
 105:mi/plaits/dsp/drums/analog_snare_drum.h ****       resonator_[i].set_f_q<stmlib::FREQUENCY_FAST>(
 982              		.loc 3 105 46 is_stmt 0 view .LVU244
 983 0186 F5EC017A 		vldmia.32	r5!, {s15}
 984 018a C2E7     		b	.L17
 985              	.LVL28:
 986              	.L15:
 106:mi/plaits/dsp/drums/analog_snare_drum.h ****           f[i],
 987              		.loc 3 106 52 view .LVU245
 988 018c F7EE006A 		vmov.f32	s13, #1.0e+0
 989              	.LBB434:
 990              	.LBB426:
 224:mi/stmlib/dsp/filter.h ****     r_ = 1.0f / resonance;
 991              		.loc 4 224 8 view .LVU246
 992 0190 83ED067A 		vstr.32	s14, [r3, #24]
 993              	.LBE426:
 994              	.LBE434:
 104:mi/plaits/dsp/drums/analog_snare_drum.h ****       f[i] = std::min(f0 * kModeFrequencies[i], 0.499f);
 995              		.loc 3 104 23 view .LVU247
 996 0194 1433     		adds	r3, r3, #20
 104:mi/plaits/dsp/drums/analog_snare_drum.h ****       f[i] = std::min(f0 * kModeFrequencies[i], 0.499f);
 997              		.loc 3 104 5 view .LVU248
 998 0196 0122     		movs	r2, #1
 106:mi/plaits/dsp/drums/analog_snare_drum.h ****           f[i],
ARM GAS  /var/folders/9k/zk1mgrrd7wg4__6zvxvr9w8m0000gn/T//ccjjMUN9.s 			page 36


 999              		.loc 3 106 52 view .LVU249
 1000 0198 F0EE664A 		vmov.f32	s9, s13
 1001 019c E7EE854A 		vfma.f32	s9, s15, s10
 1002              	.LVL29:
 1003              	.LBB435:
 223:mi/stmlib/dsp/filter.h ****     g_ = OnePole::tan<approximation>(f);
 1004              		.loc 4 223 15 is_stmt 1 view .LVU250
 1005              	.LBB427:
 1006              	.LBB421:
 107:mi/stmlib/dsp/filter.h ****     if (approximation == FREQUENCY_EXACT) {
 1007              		.loc 4 107 23 view .LVU251
 107:mi/stmlib/dsp/filter.h ****     if (approximation == FREQUENCY_EXACT) {
 1008              		.loc 4 107 23 is_stmt 0 view .LVU252
 1009              	.LBE421:
 1010              		.loc 4 226 23 view .LVU253
 1011 01a0 F0EE667A 		vmov.f32	s15, s13
 225:mi/stmlib/dsp/filter.h ****     h_ = 1.0f / (1.0f + r_ * g_ + g_ * g_);
 1012              		.loc 4 225 15 view .LVU254
 1013 01a4 86EEA46A 		vdiv.f32	s12, s13, s9
 1014              		.loc 4 226 23 view .LVU255
 1015 01a8 E6EE077A 		vfma.f32	s15, s12, s14
 225:mi/stmlib/dsp/filter.h ****     h_ = 1.0f / (1.0f + r_ * g_ + g_ * g_);
 1016              		.loc 4 225 8 view .LVU256
 1017 01ac 83ED026A 		vstr.32	s12, [r3, #8]
 1018              		.loc 4 226 33 view .LVU257
 1019 01b0 77EEA57A 		vadd.f32	s15, s15, s11
 1020              		.loc 4 226 15 view .LVU258
 1021 01b4 86EEA77A 		vdiv.f32	s14, s13, s15
 1022              		.loc 4 226 8 view .LVU259
 1023 01b8 83ED037A 		vstr.32	s14, [r3, #12]
 1024              	.LVL30:
 1025              		.loc 4 226 8 view .LVU260
 1026              	.LBE427:
 1027              	.LBE435:
 104:mi/plaits/dsp/drums/analog_snare_drum.h ****       f[i] = std::min(f0 * kModeFrequencies[i], 0.499f);
 1028              		.loc 3 104 5 is_stmt 1 view .LVU261
 104:mi/plaits/dsp/drums/analog_snare_drum.h ****       f[i] = std::min(f0 * kModeFrequencies[i], 0.499f);
 1029              		.loc 3 104 23 view .LVU262
 1030 01bc E3E7     		b	.L42
 1031              	.LVL31:
 1032              	.L44:
 1033              	.LBB436:
 1034              	.LBB411:
 236:/Library/DaisyToolchain/0.2.0/arm/arm-none-eabi/include/c++/10.3.1/bits/stl_algobase.h **** 	return __b;
 1035              		.loc 8 236 9 is_stmt 0 view .LVU263
 1036 01be F0EE467A 		vmov.f32	s15, s12
 1037 01c2 9FED0D7A 		vldr.32	s14, .L68+44
 1038 01c6 DFED0D5A 		vldr.32	s11, .L68+48
 1039 01ca BBE7     		b	.L14
 1040              	.L69:
 1041              		.align	2
 1042              	.L68:
 1043 01cc 00004842 		.word	1112014848
 1044 01d0 00000043 		.word	1124073472
 1045 01d4 0000A842 		.word	1118306304
 1046 01d8 CDCC8C3F 		.word	1066192077
 1047 01dc CDCCCC3D 		.word	1036831949
ARM GAS  /var/folders/9k/zk1mgrrd7wg4__6zvxvr9w8m0000gn/T//ccjjMUN9.s 			page 37


 1048 01e0 89D2DE3A 		.word	987681417
 1049 01e4 00000000 		.word	_ZN6stmlib19lut_pitch_ratio_lowE
 1050 01e8 CDCC4CBD 		.word	-1119040307
 1051 01ec 0000FA44 		.word	1157234688
 1052 01f0 00000000 		.word	_ZN6stmlib20lut_pitch_ratio_highE
 1053 01f4 04000000 		.word	_ZZN6plaits15AnalogSnareDrum6RenderEbbfffffPfjE16kModeFrequencies+4
 1054 01f8 38969140 		.word	1083283000
 1055 01fc 0797A541 		.word	1101371143
 1056 0200 B0AA2A3F 		.word	1059760816
 1057 0204 9A99193E 		.word	1041865114
 1058 0208 EE7CFF3E 		.word	1056931054
 1059 020c 49265F42 		.word	1113531977
 1060 0210 8FBA2141 		.word	1092729487
 1061 0214 DB0F4940 		.word	1078530011
 1062              	.LVL32:
 1063              	.L16:
 1064              		.loc 8 236 9 view .LVU264
 1065              	.LBE411:
 1066              	.LBE436:
 1067              	.LBE406:
 109:mi/plaits/dsp/drums/analog_snare_drum.h ****     }
 110:mi/plaits/dsp/drums/analog_snare_drum.h ****     
 111:mi/plaits/dsp/drums/analog_snare_drum.h ****     if (tone < 0.666667f) {
 1068              		.loc 3 111 5 is_stmt 1 view .LVU265
 1069              	.LBB437:
 1070 0218 5FED077A 		vldr.32	s15, .L68+52
 1071 021c B4EEE71A 		vcmpe.f32	s2, s15
 1072 0220 F1EE10FA 		vmrs	APSR_nzcv, FPSCR
 1073 0224 40F15981 		bpl	.L61
 112:mi/plaits/dsp/drums/analog_snare_drum.h ****       // 808-style (2 modes)
 113:mi/plaits/dsp/drums/analog_snare_drum.h ****       tone *= 1.5f;
 1074              		.loc 3 113 7 view .LVU266
 1075              		.loc 3 113 12 is_stmt 0 view .LVU267
 1076 0228 F7EE087A 		vmov.f32	s15, #1.5e+0
 114:mi/plaits/dsp/drums/analog_snare_drum.h ****       gain[0] = 1.5f + (1.0f - tone) * (1.0f - tone) * 4.5f;
 115:mi/plaits/dsp/drums/analog_snare_drum.h ****       gain[1] = 2.0f * tone + 0.15f;
 1077              		.loc 3 115 29 view .LVU268
 1078 022c 1FED0B7A 		vldr.32	s14, .L68+56
 114:mi/plaits/dsp/drums/analog_snare_drum.h ****       gain[0] = 1.5f + (1.0f - tone) * (1.0f - tone) * 4.5f;
 1079              		.loc 3 114 22 view .LVU269
 1080 0230 B1EE026A 		vmov.f32	s12, #4.5e+0
 1081              	.LBB438:
 1082              	.LBB439:
 1083              	.LBB440:
 1084              	.LBB441:
 237:/Library/DaisyToolchain/0.2.0/arm/arm-none-eabi/include/c++/10.3.1/bits/stl_algobase.h ****       return __a;
 238:/Library/DaisyToolchain/0.2.0/arm/arm-none-eabi/include/c++/10.3.1/bits/stl_algobase.h ****     }
 239:/Library/DaisyToolchain/0.2.0/arm/arm-none-eabi/include/c++/10.3.1/bits/stl_algobase.h **** 
 240:/Library/DaisyToolchain/0.2.0/arm/arm-none-eabi/include/c++/10.3.1/bits/stl_algobase.h ****   /**
 241:/Library/DaisyToolchain/0.2.0/arm/arm-none-eabi/include/c++/10.3.1/bits/stl_algobase.h ****    *  @brief This does what you think it does.
 242:/Library/DaisyToolchain/0.2.0/arm/arm-none-eabi/include/c++/10.3.1/bits/stl_algobase.h ****    *  @ingroup sorting_algorithms
 243:/Library/DaisyToolchain/0.2.0/arm/arm-none-eabi/include/c++/10.3.1/bits/stl_algobase.h ****    *  @param  __a  A thing of arbitrary type.
 244:/Library/DaisyToolchain/0.2.0/arm/arm-none-eabi/include/c++/10.3.1/bits/stl_algobase.h ****    *  @param  __b  Another thing of arbitrary type.
 245:/Library/DaisyToolchain/0.2.0/arm/arm-none-eabi/include/c++/10.3.1/bits/stl_algobase.h ****    *  @return   The greater of the parameters.
 246:/Library/DaisyToolchain/0.2.0/arm/arm-none-eabi/include/c++/10.3.1/bits/stl_algobase.h ****    *
 247:/Library/DaisyToolchain/0.2.0/arm/arm-none-eabi/include/c++/10.3.1/bits/stl_algobase.h ****    *  This is the simple classic generic implementation.  It will work on
 248:/Library/DaisyToolchain/0.2.0/arm/arm-none-eabi/include/c++/10.3.1/bits/stl_algobase.h ****    *  temporary expressions, since they are only evaluated once, unlike a
ARM GAS  /var/folders/9k/zk1mgrrd7wg4__6zvxvr9w8m0000gn/T//ccjjMUN9.s 			page 38


 249:/Library/DaisyToolchain/0.2.0/arm/arm-none-eabi/include/c++/10.3.1/bits/stl_algobase.h ****    *  preprocessor macro.
 250:/Library/DaisyToolchain/0.2.0/arm/arm-none-eabi/include/c++/10.3.1/bits/stl_algobase.h ****   */
 251:/Library/DaisyToolchain/0.2.0/arm/arm-none-eabi/include/c++/10.3.1/bits/stl_algobase.h ****   template<typename _Tp>
 252:/Library/DaisyToolchain/0.2.0/arm/arm-none-eabi/include/c++/10.3.1/bits/stl_algobase.h ****     _GLIBCXX14_CONSTEXPR
 253:/Library/DaisyToolchain/0.2.0/arm/arm-none-eabi/include/c++/10.3.1/bits/stl_algobase.h ****     inline const _Tp&
 254:/Library/DaisyToolchain/0.2.0/arm/arm-none-eabi/include/c++/10.3.1/bits/stl_algobase.h ****     max(const _Tp& __a, const _Tp& __b)
 255:/Library/DaisyToolchain/0.2.0/arm/arm-none-eabi/include/c++/10.3.1/bits/stl_algobase.h ****     {
 256:/Library/DaisyToolchain/0.2.0/arm/arm-none-eabi/include/c++/10.3.1/bits/stl_algobase.h ****       // concept requirements
 257:/Library/DaisyToolchain/0.2.0/arm/arm-none-eabi/include/c++/10.3.1/bits/stl_algobase.h ****       __glibcxx_function_requires(_LessThanComparableConcept<_Tp>)
 258:/Library/DaisyToolchain/0.2.0/arm/arm-none-eabi/include/c++/10.3.1/bits/stl_algobase.h ****       //return  __a < __b ? __b : __a;
 259:/Library/DaisyToolchain/0.2.0/arm/arm-none-eabi/include/c++/10.3.1/bits/stl_algobase.h ****       if (__a < __b)
 260:/Library/DaisyToolchain/0.2.0/arm/arm-none-eabi/include/c++/10.3.1/bits/stl_algobase.h **** 	return __b;
 261:/Library/DaisyToolchain/0.2.0/arm/arm-none-eabi/include/c++/10.3.1/bits/stl_algobase.h ****       return __a;
 262:/Library/DaisyToolchain/0.2.0/arm/arm-none-eabi/include/c++/10.3.1/bits/stl_algobase.h ****     }
 263:/Library/DaisyToolchain/0.2.0/arm/arm-none-eabi/include/c++/10.3.1/bits/stl_algobase.h **** 
 264:/Library/DaisyToolchain/0.2.0/arm/arm-none-eabi/include/c++/10.3.1/bits/stl_algobase.h ****   /**
 265:/Library/DaisyToolchain/0.2.0/arm/arm-none-eabi/include/c++/10.3.1/bits/stl_algobase.h ****    *  @brief This does what you think it does.
 266:/Library/DaisyToolchain/0.2.0/arm/arm-none-eabi/include/c++/10.3.1/bits/stl_algobase.h ****    *  @ingroup sorting_algorithms
 267:/Library/DaisyToolchain/0.2.0/arm/arm-none-eabi/include/c++/10.3.1/bits/stl_algobase.h ****    *  @param  __a  A thing of arbitrary type.
 268:/Library/DaisyToolchain/0.2.0/arm/arm-none-eabi/include/c++/10.3.1/bits/stl_algobase.h ****    *  @param  __b  Another thing of arbitrary type.
 269:/Library/DaisyToolchain/0.2.0/arm/arm-none-eabi/include/c++/10.3.1/bits/stl_algobase.h ****    *  @param  __comp  A @link comparison_functors comparison functor@endlink.
 270:/Library/DaisyToolchain/0.2.0/arm/arm-none-eabi/include/c++/10.3.1/bits/stl_algobase.h ****    *  @return   The lesser of the parameters.
 271:/Library/DaisyToolchain/0.2.0/arm/arm-none-eabi/include/c++/10.3.1/bits/stl_algobase.h ****    *
 272:/Library/DaisyToolchain/0.2.0/arm/arm-none-eabi/include/c++/10.3.1/bits/stl_algobase.h ****    *  This will work on temporary expressions, since they are only evaluated
 273:/Library/DaisyToolchain/0.2.0/arm/arm-none-eabi/include/c++/10.3.1/bits/stl_algobase.h ****    *  once, unlike a preprocessor macro.
 274:/Library/DaisyToolchain/0.2.0/arm/arm-none-eabi/include/c++/10.3.1/bits/stl_algobase.h ****   */
 275:/Library/DaisyToolchain/0.2.0/arm/arm-none-eabi/include/c++/10.3.1/bits/stl_algobase.h ****   template<typename _Tp, typename _Compare>
 276:/Library/DaisyToolchain/0.2.0/arm/arm-none-eabi/include/c++/10.3.1/bits/stl_algobase.h ****     _GLIBCXX14_CONSTEXPR
 277:/Library/DaisyToolchain/0.2.0/arm/arm-none-eabi/include/c++/10.3.1/bits/stl_algobase.h ****     inline const _Tp&
 278:/Library/DaisyToolchain/0.2.0/arm/arm-none-eabi/include/c++/10.3.1/bits/stl_algobase.h ****     min(const _Tp& __a, const _Tp& __b, _Compare __comp)
 279:/Library/DaisyToolchain/0.2.0/arm/arm-none-eabi/include/c++/10.3.1/bits/stl_algobase.h ****     {
 280:/Library/DaisyToolchain/0.2.0/arm/arm-none-eabi/include/c++/10.3.1/bits/stl_algobase.h ****       //return __comp(__b, __a) ? __b : __a;
 281:/Library/DaisyToolchain/0.2.0/arm/arm-none-eabi/include/c++/10.3.1/bits/stl_algobase.h ****       if (__comp(__b, __a))
 282:/Library/DaisyToolchain/0.2.0/arm/arm-none-eabi/include/c++/10.3.1/bits/stl_algobase.h **** 	return __b;
 283:/Library/DaisyToolchain/0.2.0/arm/arm-none-eabi/include/c++/10.3.1/bits/stl_algobase.h ****       return __a;
 284:/Library/DaisyToolchain/0.2.0/arm/arm-none-eabi/include/c++/10.3.1/bits/stl_algobase.h ****     }
 285:/Library/DaisyToolchain/0.2.0/arm/arm-none-eabi/include/c++/10.3.1/bits/stl_algobase.h **** 
 286:/Library/DaisyToolchain/0.2.0/arm/arm-none-eabi/include/c++/10.3.1/bits/stl_algobase.h ****   /**
 287:/Library/DaisyToolchain/0.2.0/arm/arm-none-eabi/include/c++/10.3.1/bits/stl_algobase.h ****    *  @brief This does what you think it does.
 288:/Library/DaisyToolchain/0.2.0/arm/arm-none-eabi/include/c++/10.3.1/bits/stl_algobase.h ****    *  @ingroup sorting_algorithms
 289:/Library/DaisyToolchain/0.2.0/arm/arm-none-eabi/include/c++/10.3.1/bits/stl_algobase.h ****    *  @param  __a  A thing of arbitrary type.
 290:/Library/DaisyToolchain/0.2.0/arm/arm-none-eabi/include/c++/10.3.1/bits/stl_algobase.h ****    *  @param  __b  Another thing of arbitrary type.
 291:/Library/DaisyToolchain/0.2.0/arm/arm-none-eabi/include/c++/10.3.1/bits/stl_algobase.h ****    *  @param  __comp  A @link comparison_functors comparison functor@endlink.
 292:/Library/DaisyToolchain/0.2.0/arm/arm-none-eabi/include/c++/10.3.1/bits/stl_algobase.h ****    *  @return   The greater of the parameters.
 293:/Library/DaisyToolchain/0.2.0/arm/arm-none-eabi/include/c++/10.3.1/bits/stl_algobase.h ****    *
 294:/Library/DaisyToolchain/0.2.0/arm/arm-none-eabi/include/c++/10.3.1/bits/stl_algobase.h ****    *  This will work on temporary expressions, since they are only evaluated
 295:/Library/DaisyToolchain/0.2.0/arm/arm-none-eabi/include/c++/10.3.1/bits/stl_algobase.h ****    *  once, unlike a preprocessor macro.
 296:/Library/DaisyToolchain/0.2.0/arm/arm-none-eabi/include/c++/10.3.1/bits/stl_algobase.h ****   */
 297:/Library/DaisyToolchain/0.2.0/arm/arm-none-eabi/include/c++/10.3.1/bits/stl_algobase.h ****   template<typename _Tp, typename _Compare>
 298:/Library/DaisyToolchain/0.2.0/arm/arm-none-eabi/include/c++/10.3.1/bits/stl_algobase.h ****     _GLIBCXX14_CONSTEXPR
 299:/Library/DaisyToolchain/0.2.0/arm/arm-none-eabi/include/c++/10.3.1/bits/stl_algobase.h ****     inline const _Tp&
 300:/Library/DaisyToolchain/0.2.0/arm/arm-none-eabi/include/c++/10.3.1/bits/stl_algobase.h ****     max(const _Tp& __a, const _Tp& __b, _Compare __comp)
 301:/Library/DaisyToolchain/0.2.0/arm/arm-none-eabi/include/c++/10.3.1/bits/stl_algobase.h ****     {
 302:/Library/DaisyToolchain/0.2.0/arm/arm-none-eabi/include/c++/10.3.1/bits/stl_algobase.h ****       //return __comp(__a, __b) ? __b : __a;
 303:/Library/DaisyToolchain/0.2.0/arm/arm-none-eabi/include/c++/10.3.1/bits/stl_algobase.h ****       if (__comp(__a, __b))
 304:/Library/DaisyToolchain/0.2.0/arm/arm-none-eabi/include/c++/10.3.1/bits/stl_algobase.h **** 	return __b;
 305:/Library/DaisyToolchain/0.2.0/arm/arm-none-eabi/include/c++/10.3.1/bits/stl_algobase.h ****       return __a;
ARM GAS  /var/folders/9k/zk1mgrrd7wg4__6zvxvr9w8m0000gn/T//ccjjMUN9.s 			page 39


 306:/Library/DaisyToolchain/0.2.0/arm/arm-none-eabi/include/c++/10.3.1/bits/stl_algobase.h ****     }
 307:/Library/DaisyToolchain/0.2.0/arm/arm-none-eabi/include/c++/10.3.1/bits/stl_algobase.h **** 
 308:/Library/DaisyToolchain/0.2.0/arm/arm-none-eabi/include/c++/10.3.1/bits/stl_algobase.h ****   // Fallback implementation of the function in bits/stl_iterator.h used to
 309:/Library/DaisyToolchain/0.2.0/arm/arm-none-eabi/include/c++/10.3.1/bits/stl_algobase.h ****   // remove the __normal_iterator wrapper. See copy, fill, ...
 310:/Library/DaisyToolchain/0.2.0/arm/arm-none-eabi/include/c++/10.3.1/bits/stl_algobase.h ****   template<typename _Iterator>
 311:/Library/DaisyToolchain/0.2.0/arm/arm-none-eabi/include/c++/10.3.1/bits/stl_algobase.h ****     _GLIBCXX20_CONSTEXPR
 312:/Library/DaisyToolchain/0.2.0/arm/arm-none-eabi/include/c++/10.3.1/bits/stl_algobase.h ****     inline _Iterator
 313:/Library/DaisyToolchain/0.2.0/arm/arm-none-eabi/include/c++/10.3.1/bits/stl_algobase.h ****     __niter_base(_Iterator __it)
 314:/Library/DaisyToolchain/0.2.0/arm/arm-none-eabi/include/c++/10.3.1/bits/stl_algobase.h ****     _GLIBCXX_NOEXCEPT_IF(std::is_nothrow_copy_constructible<_Iterator>::value)
 315:/Library/DaisyToolchain/0.2.0/arm/arm-none-eabi/include/c++/10.3.1/bits/stl_algobase.h ****     { return __it; }
 316:/Library/DaisyToolchain/0.2.0/arm/arm-none-eabi/include/c++/10.3.1/bits/stl_algobase.h **** 
 317:/Library/DaisyToolchain/0.2.0/arm/arm-none-eabi/include/c++/10.3.1/bits/stl_algobase.h ****   // Reverse the __niter_base transformation to get a
 318:/Library/DaisyToolchain/0.2.0/arm/arm-none-eabi/include/c++/10.3.1/bits/stl_algobase.h ****   // __normal_iterator back again (this assumes that __normal_iterator
 319:/Library/DaisyToolchain/0.2.0/arm/arm-none-eabi/include/c++/10.3.1/bits/stl_algobase.h ****   // is only used to wrap random access iterators, like pointers).
 320:/Library/DaisyToolchain/0.2.0/arm/arm-none-eabi/include/c++/10.3.1/bits/stl_algobase.h ****   template<typename _From, typename _To>
 321:/Library/DaisyToolchain/0.2.0/arm/arm-none-eabi/include/c++/10.3.1/bits/stl_algobase.h ****     _GLIBCXX20_CONSTEXPR
 322:/Library/DaisyToolchain/0.2.0/arm/arm-none-eabi/include/c++/10.3.1/bits/stl_algobase.h ****     inline _From
 323:/Library/DaisyToolchain/0.2.0/arm/arm-none-eabi/include/c++/10.3.1/bits/stl_algobase.h ****     __niter_wrap(_From __from, _To __res)
 324:/Library/DaisyToolchain/0.2.0/arm/arm-none-eabi/include/c++/10.3.1/bits/stl_algobase.h ****     { return __from + (__res - std::__niter_base(__from)); }
 325:/Library/DaisyToolchain/0.2.0/arm/arm-none-eabi/include/c++/10.3.1/bits/stl_algobase.h **** 
 326:/Library/DaisyToolchain/0.2.0/arm/arm-none-eabi/include/c++/10.3.1/bits/stl_algobase.h ****   // No need to wrap, iterator already has the right type.
 327:/Library/DaisyToolchain/0.2.0/arm/arm-none-eabi/include/c++/10.3.1/bits/stl_algobase.h ****   template<typename _Iterator>
 328:/Library/DaisyToolchain/0.2.0/arm/arm-none-eabi/include/c++/10.3.1/bits/stl_algobase.h ****     _GLIBCXX20_CONSTEXPR
 329:/Library/DaisyToolchain/0.2.0/arm/arm-none-eabi/include/c++/10.3.1/bits/stl_algobase.h ****     inline _Iterator
 330:/Library/DaisyToolchain/0.2.0/arm/arm-none-eabi/include/c++/10.3.1/bits/stl_algobase.h ****     __niter_wrap(const _Iterator&, _Iterator __res)
 331:/Library/DaisyToolchain/0.2.0/arm/arm-none-eabi/include/c++/10.3.1/bits/stl_algobase.h ****     { return __res; }
 332:/Library/DaisyToolchain/0.2.0/arm/arm-none-eabi/include/c++/10.3.1/bits/stl_algobase.h **** 
 333:/Library/DaisyToolchain/0.2.0/arm/arm-none-eabi/include/c++/10.3.1/bits/stl_algobase.h ****   // All of these auxiliary structs serve two purposes.  (1) Replace
 334:/Library/DaisyToolchain/0.2.0/arm/arm-none-eabi/include/c++/10.3.1/bits/stl_algobase.h ****   // calls to copy with memmove whenever possible.  (Memmove, not memcpy,
 335:/Library/DaisyToolchain/0.2.0/arm/arm-none-eabi/include/c++/10.3.1/bits/stl_algobase.h ****   // because the input and output ranges are permitted to overlap.)
 336:/Library/DaisyToolchain/0.2.0/arm/arm-none-eabi/include/c++/10.3.1/bits/stl_algobase.h ****   // (2) If we're using random access iterators, then write the loop as
 337:/Library/DaisyToolchain/0.2.0/arm/arm-none-eabi/include/c++/10.3.1/bits/stl_algobase.h ****   // a for loop with an explicit count.
 338:/Library/DaisyToolchain/0.2.0/arm/arm-none-eabi/include/c++/10.3.1/bits/stl_algobase.h **** 
 339:/Library/DaisyToolchain/0.2.0/arm/arm-none-eabi/include/c++/10.3.1/bits/stl_algobase.h ****   template<bool _IsMove, bool _IsSimple, typename _Category>
 340:/Library/DaisyToolchain/0.2.0/arm/arm-none-eabi/include/c++/10.3.1/bits/stl_algobase.h ****     struct __copy_move
 341:/Library/DaisyToolchain/0.2.0/arm/arm-none-eabi/include/c++/10.3.1/bits/stl_algobase.h ****     {
 342:/Library/DaisyToolchain/0.2.0/arm/arm-none-eabi/include/c++/10.3.1/bits/stl_algobase.h ****       template<typename _II, typename _OI>
 343:/Library/DaisyToolchain/0.2.0/arm/arm-none-eabi/include/c++/10.3.1/bits/stl_algobase.h **** 	_GLIBCXX20_CONSTEXPR
 344:/Library/DaisyToolchain/0.2.0/arm/arm-none-eabi/include/c++/10.3.1/bits/stl_algobase.h **** 	static _OI
 345:/Library/DaisyToolchain/0.2.0/arm/arm-none-eabi/include/c++/10.3.1/bits/stl_algobase.h **** 	__copy_m(_II __first, _II __last, _OI __result)
 346:/Library/DaisyToolchain/0.2.0/arm/arm-none-eabi/include/c++/10.3.1/bits/stl_algobase.h **** 	{
 347:/Library/DaisyToolchain/0.2.0/arm/arm-none-eabi/include/c++/10.3.1/bits/stl_algobase.h **** 	  for (; __first != __last; ++__result, (void)++__first)
 348:/Library/DaisyToolchain/0.2.0/arm/arm-none-eabi/include/c++/10.3.1/bits/stl_algobase.h **** 	    *__result = *__first;
 349:/Library/DaisyToolchain/0.2.0/arm/arm-none-eabi/include/c++/10.3.1/bits/stl_algobase.h **** 	  return __result;
 350:/Library/DaisyToolchain/0.2.0/arm/arm-none-eabi/include/c++/10.3.1/bits/stl_algobase.h **** 	}
 351:/Library/DaisyToolchain/0.2.0/arm/arm-none-eabi/include/c++/10.3.1/bits/stl_algobase.h ****     };
 352:/Library/DaisyToolchain/0.2.0/arm/arm-none-eabi/include/c++/10.3.1/bits/stl_algobase.h **** 
 353:/Library/DaisyToolchain/0.2.0/arm/arm-none-eabi/include/c++/10.3.1/bits/stl_algobase.h **** #if __cplusplus >= 201103L
 354:/Library/DaisyToolchain/0.2.0/arm/arm-none-eabi/include/c++/10.3.1/bits/stl_algobase.h ****   template<typename _Category>
 355:/Library/DaisyToolchain/0.2.0/arm/arm-none-eabi/include/c++/10.3.1/bits/stl_algobase.h ****     struct __copy_move<true, false, _Category>
 356:/Library/DaisyToolchain/0.2.0/arm/arm-none-eabi/include/c++/10.3.1/bits/stl_algobase.h ****     {
 357:/Library/DaisyToolchain/0.2.0/arm/arm-none-eabi/include/c++/10.3.1/bits/stl_algobase.h ****       template<typename _II, typename _OI>
 358:/Library/DaisyToolchain/0.2.0/arm/arm-none-eabi/include/c++/10.3.1/bits/stl_algobase.h **** 	_GLIBCXX20_CONSTEXPR
 359:/Library/DaisyToolchain/0.2.0/arm/arm-none-eabi/include/c++/10.3.1/bits/stl_algobase.h **** 	static _OI
 360:/Library/DaisyToolchain/0.2.0/arm/arm-none-eabi/include/c++/10.3.1/bits/stl_algobase.h **** 	__copy_m(_II __first, _II __last, _OI __result)
 361:/Library/DaisyToolchain/0.2.0/arm/arm-none-eabi/include/c++/10.3.1/bits/stl_algobase.h **** 	{
 362:/Library/DaisyToolchain/0.2.0/arm/arm-none-eabi/include/c++/10.3.1/bits/stl_algobase.h **** 	  for (; __first != __last; ++__result, (void)++__first)
ARM GAS  /var/folders/9k/zk1mgrrd7wg4__6zvxvr9w8m0000gn/T//ccjjMUN9.s 			page 40


 363:/Library/DaisyToolchain/0.2.0/arm/arm-none-eabi/include/c++/10.3.1/bits/stl_algobase.h **** 	    *__result = std::move(*__first);
 364:/Library/DaisyToolchain/0.2.0/arm/arm-none-eabi/include/c++/10.3.1/bits/stl_algobase.h **** 	  return __result;
 365:/Library/DaisyToolchain/0.2.0/arm/arm-none-eabi/include/c++/10.3.1/bits/stl_algobase.h **** 	}
 366:/Library/DaisyToolchain/0.2.0/arm/arm-none-eabi/include/c++/10.3.1/bits/stl_algobase.h ****     };
 367:/Library/DaisyToolchain/0.2.0/arm/arm-none-eabi/include/c++/10.3.1/bits/stl_algobase.h **** #endif
 368:/Library/DaisyToolchain/0.2.0/arm/arm-none-eabi/include/c++/10.3.1/bits/stl_algobase.h **** 
 369:/Library/DaisyToolchain/0.2.0/arm/arm-none-eabi/include/c++/10.3.1/bits/stl_algobase.h ****   template<>
 370:/Library/DaisyToolchain/0.2.0/arm/arm-none-eabi/include/c++/10.3.1/bits/stl_algobase.h ****     struct __copy_move<false, false, random_access_iterator_tag>
 371:/Library/DaisyToolchain/0.2.0/arm/arm-none-eabi/include/c++/10.3.1/bits/stl_algobase.h ****     {
 372:/Library/DaisyToolchain/0.2.0/arm/arm-none-eabi/include/c++/10.3.1/bits/stl_algobase.h ****       template<typename _II, typename _OI>
 373:/Library/DaisyToolchain/0.2.0/arm/arm-none-eabi/include/c++/10.3.1/bits/stl_algobase.h **** 	_GLIBCXX20_CONSTEXPR
 374:/Library/DaisyToolchain/0.2.0/arm/arm-none-eabi/include/c++/10.3.1/bits/stl_algobase.h **** 	static _OI
 375:/Library/DaisyToolchain/0.2.0/arm/arm-none-eabi/include/c++/10.3.1/bits/stl_algobase.h **** 	__copy_m(_II __first, _II __last, _OI __result)
 376:/Library/DaisyToolchain/0.2.0/arm/arm-none-eabi/include/c++/10.3.1/bits/stl_algobase.h **** 	{
 377:/Library/DaisyToolchain/0.2.0/arm/arm-none-eabi/include/c++/10.3.1/bits/stl_algobase.h **** 	  typedef typename iterator_traits<_II>::difference_type _Distance;
 378:/Library/DaisyToolchain/0.2.0/arm/arm-none-eabi/include/c++/10.3.1/bits/stl_algobase.h **** 	  for(_Distance __n = __last - __first; __n > 0; --__n)
 379:/Library/DaisyToolchain/0.2.0/arm/arm-none-eabi/include/c++/10.3.1/bits/stl_algobase.h **** 	    {
 380:/Library/DaisyToolchain/0.2.0/arm/arm-none-eabi/include/c++/10.3.1/bits/stl_algobase.h **** 	      *__result = *__first;
 381:/Library/DaisyToolchain/0.2.0/arm/arm-none-eabi/include/c++/10.3.1/bits/stl_algobase.h **** 	      ++__first;
 382:/Library/DaisyToolchain/0.2.0/arm/arm-none-eabi/include/c++/10.3.1/bits/stl_algobase.h **** 	      ++__result;
 383:/Library/DaisyToolchain/0.2.0/arm/arm-none-eabi/include/c++/10.3.1/bits/stl_algobase.h **** 	    }
 384:/Library/DaisyToolchain/0.2.0/arm/arm-none-eabi/include/c++/10.3.1/bits/stl_algobase.h **** 	  return __result;
 385:/Library/DaisyToolchain/0.2.0/arm/arm-none-eabi/include/c++/10.3.1/bits/stl_algobase.h **** 	}
 386:/Library/DaisyToolchain/0.2.0/arm/arm-none-eabi/include/c++/10.3.1/bits/stl_algobase.h ****     };
 387:/Library/DaisyToolchain/0.2.0/arm/arm-none-eabi/include/c++/10.3.1/bits/stl_algobase.h **** 
 388:/Library/DaisyToolchain/0.2.0/arm/arm-none-eabi/include/c++/10.3.1/bits/stl_algobase.h **** #if __cplusplus >= 201103L
 389:/Library/DaisyToolchain/0.2.0/arm/arm-none-eabi/include/c++/10.3.1/bits/stl_algobase.h ****   template<>
 390:/Library/DaisyToolchain/0.2.0/arm/arm-none-eabi/include/c++/10.3.1/bits/stl_algobase.h ****     struct __copy_move<true, false, random_access_iterator_tag>
 391:/Library/DaisyToolchain/0.2.0/arm/arm-none-eabi/include/c++/10.3.1/bits/stl_algobase.h ****     {
 392:/Library/DaisyToolchain/0.2.0/arm/arm-none-eabi/include/c++/10.3.1/bits/stl_algobase.h ****       template<typename _II, typename _OI>
 393:/Library/DaisyToolchain/0.2.0/arm/arm-none-eabi/include/c++/10.3.1/bits/stl_algobase.h **** 	_GLIBCXX20_CONSTEXPR
 394:/Library/DaisyToolchain/0.2.0/arm/arm-none-eabi/include/c++/10.3.1/bits/stl_algobase.h **** 	static _OI
 395:/Library/DaisyToolchain/0.2.0/arm/arm-none-eabi/include/c++/10.3.1/bits/stl_algobase.h **** 	__copy_m(_II __first, _II __last, _OI __result)
 396:/Library/DaisyToolchain/0.2.0/arm/arm-none-eabi/include/c++/10.3.1/bits/stl_algobase.h **** 	{
 397:/Library/DaisyToolchain/0.2.0/arm/arm-none-eabi/include/c++/10.3.1/bits/stl_algobase.h **** 	  typedef typename iterator_traits<_II>::difference_type _Distance;
 398:/Library/DaisyToolchain/0.2.0/arm/arm-none-eabi/include/c++/10.3.1/bits/stl_algobase.h **** 	  for(_Distance __n = __last - __first; __n > 0; --__n)
 399:/Library/DaisyToolchain/0.2.0/arm/arm-none-eabi/include/c++/10.3.1/bits/stl_algobase.h **** 	    {
 400:/Library/DaisyToolchain/0.2.0/arm/arm-none-eabi/include/c++/10.3.1/bits/stl_algobase.h **** 	      *__result = std::move(*__first);
 401:/Library/DaisyToolchain/0.2.0/arm/arm-none-eabi/include/c++/10.3.1/bits/stl_algobase.h **** 	      ++__first;
 402:/Library/DaisyToolchain/0.2.0/arm/arm-none-eabi/include/c++/10.3.1/bits/stl_algobase.h **** 	      ++__result;
 403:/Library/DaisyToolchain/0.2.0/arm/arm-none-eabi/include/c++/10.3.1/bits/stl_algobase.h **** 	    }
 404:/Library/DaisyToolchain/0.2.0/arm/arm-none-eabi/include/c++/10.3.1/bits/stl_algobase.h **** 	  return __result;
 405:/Library/DaisyToolchain/0.2.0/arm/arm-none-eabi/include/c++/10.3.1/bits/stl_algobase.h **** 	}
 406:/Library/DaisyToolchain/0.2.0/arm/arm-none-eabi/include/c++/10.3.1/bits/stl_algobase.h ****     };
 407:/Library/DaisyToolchain/0.2.0/arm/arm-none-eabi/include/c++/10.3.1/bits/stl_algobase.h **** #endif
 408:/Library/DaisyToolchain/0.2.0/arm/arm-none-eabi/include/c++/10.3.1/bits/stl_algobase.h **** 
 409:/Library/DaisyToolchain/0.2.0/arm/arm-none-eabi/include/c++/10.3.1/bits/stl_algobase.h ****   template<bool _IsMove>
 410:/Library/DaisyToolchain/0.2.0/arm/arm-none-eabi/include/c++/10.3.1/bits/stl_algobase.h ****     struct __copy_move<_IsMove, true, random_access_iterator_tag>
 411:/Library/DaisyToolchain/0.2.0/arm/arm-none-eabi/include/c++/10.3.1/bits/stl_algobase.h ****     {
 412:/Library/DaisyToolchain/0.2.0/arm/arm-none-eabi/include/c++/10.3.1/bits/stl_algobase.h ****       template<typename _Tp>
 413:/Library/DaisyToolchain/0.2.0/arm/arm-none-eabi/include/c++/10.3.1/bits/stl_algobase.h **** 	_GLIBCXX20_CONSTEXPR
 414:/Library/DaisyToolchain/0.2.0/arm/arm-none-eabi/include/c++/10.3.1/bits/stl_algobase.h **** 	static _Tp*
 415:/Library/DaisyToolchain/0.2.0/arm/arm-none-eabi/include/c++/10.3.1/bits/stl_algobase.h **** 	__copy_m(const _Tp* __first, const _Tp* __last, _Tp* __result)
 416:/Library/DaisyToolchain/0.2.0/arm/arm-none-eabi/include/c++/10.3.1/bits/stl_algobase.h **** 	{
 417:/Library/DaisyToolchain/0.2.0/arm/arm-none-eabi/include/c++/10.3.1/bits/stl_algobase.h **** #if __cplusplus >= 201103L
 418:/Library/DaisyToolchain/0.2.0/arm/arm-none-eabi/include/c++/10.3.1/bits/stl_algobase.h **** 	  using __assignable = conditional<_IsMove,
 419:/Library/DaisyToolchain/0.2.0/arm/arm-none-eabi/include/c++/10.3.1/bits/stl_algobase.h **** 					   is_move_assignable<_Tp>,
ARM GAS  /var/folders/9k/zk1mgrrd7wg4__6zvxvr9w8m0000gn/T//ccjjMUN9.s 			page 41


 420:/Library/DaisyToolchain/0.2.0/arm/arm-none-eabi/include/c++/10.3.1/bits/stl_algobase.h **** 					   is_copy_assignable<_Tp>>;
 421:/Library/DaisyToolchain/0.2.0/arm/arm-none-eabi/include/c++/10.3.1/bits/stl_algobase.h **** 	  // trivial types can have deleted assignment
 422:/Library/DaisyToolchain/0.2.0/arm/arm-none-eabi/include/c++/10.3.1/bits/stl_algobase.h **** 	  static_assert( __assignable::type::value, "type is not assignable" );
 423:/Library/DaisyToolchain/0.2.0/arm/arm-none-eabi/include/c++/10.3.1/bits/stl_algobase.h **** #endif
 424:/Library/DaisyToolchain/0.2.0/arm/arm-none-eabi/include/c++/10.3.1/bits/stl_algobase.h **** 	  const ptrdiff_t _Num = __last - __first;
 425:/Library/DaisyToolchain/0.2.0/arm/arm-none-eabi/include/c++/10.3.1/bits/stl_algobase.h **** 	  if (_Num)
 426:/Library/DaisyToolchain/0.2.0/arm/arm-none-eabi/include/c++/10.3.1/bits/stl_algobase.h **** 	    __builtin_memmove(__result, __first, sizeof(_Tp) * _Num);
 427:/Library/DaisyToolchain/0.2.0/arm/arm-none-eabi/include/c++/10.3.1/bits/stl_algobase.h **** 	  return __result + _Num;
 428:/Library/DaisyToolchain/0.2.0/arm/arm-none-eabi/include/c++/10.3.1/bits/stl_algobase.h **** 	}
 429:/Library/DaisyToolchain/0.2.0/arm/arm-none-eabi/include/c++/10.3.1/bits/stl_algobase.h ****     };
 430:/Library/DaisyToolchain/0.2.0/arm/arm-none-eabi/include/c++/10.3.1/bits/stl_algobase.h **** 
 431:/Library/DaisyToolchain/0.2.0/arm/arm-none-eabi/include/c++/10.3.1/bits/stl_algobase.h ****   // Helpers for streambuf iterators (either istream or ostream).
 432:/Library/DaisyToolchain/0.2.0/arm/arm-none-eabi/include/c++/10.3.1/bits/stl_algobase.h ****   // NB: avoid including <iosfwd>, relatively large.
 433:/Library/DaisyToolchain/0.2.0/arm/arm-none-eabi/include/c++/10.3.1/bits/stl_algobase.h ****   template<typename _CharT>
 434:/Library/DaisyToolchain/0.2.0/arm/arm-none-eabi/include/c++/10.3.1/bits/stl_algobase.h ****     struct char_traits;
 435:/Library/DaisyToolchain/0.2.0/arm/arm-none-eabi/include/c++/10.3.1/bits/stl_algobase.h **** 
 436:/Library/DaisyToolchain/0.2.0/arm/arm-none-eabi/include/c++/10.3.1/bits/stl_algobase.h ****   template<typename _CharT, typename _Traits>
 437:/Library/DaisyToolchain/0.2.0/arm/arm-none-eabi/include/c++/10.3.1/bits/stl_algobase.h ****     class istreambuf_iterator;
 438:/Library/DaisyToolchain/0.2.0/arm/arm-none-eabi/include/c++/10.3.1/bits/stl_algobase.h **** 
 439:/Library/DaisyToolchain/0.2.0/arm/arm-none-eabi/include/c++/10.3.1/bits/stl_algobase.h ****   template<typename _CharT, typename _Traits>
 440:/Library/DaisyToolchain/0.2.0/arm/arm-none-eabi/include/c++/10.3.1/bits/stl_algobase.h ****     class ostreambuf_iterator;
 441:/Library/DaisyToolchain/0.2.0/arm/arm-none-eabi/include/c++/10.3.1/bits/stl_algobase.h **** 
 442:/Library/DaisyToolchain/0.2.0/arm/arm-none-eabi/include/c++/10.3.1/bits/stl_algobase.h ****   template<bool _IsMove, typename _CharT>
 443:/Library/DaisyToolchain/0.2.0/arm/arm-none-eabi/include/c++/10.3.1/bits/stl_algobase.h ****     typename __gnu_cxx::__enable_if<__is_char<_CharT>::__value,
 444:/Library/DaisyToolchain/0.2.0/arm/arm-none-eabi/include/c++/10.3.1/bits/stl_algobase.h **** 	     ostreambuf_iterator<_CharT, char_traits<_CharT> > >::__type
 445:/Library/DaisyToolchain/0.2.0/arm/arm-none-eabi/include/c++/10.3.1/bits/stl_algobase.h ****     __copy_move_a2(_CharT*, _CharT*,
 446:/Library/DaisyToolchain/0.2.0/arm/arm-none-eabi/include/c++/10.3.1/bits/stl_algobase.h **** 		   ostreambuf_iterator<_CharT, char_traits<_CharT> >);
 447:/Library/DaisyToolchain/0.2.0/arm/arm-none-eabi/include/c++/10.3.1/bits/stl_algobase.h **** 
 448:/Library/DaisyToolchain/0.2.0/arm/arm-none-eabi/include/c++/10.3.1/bits/stl_algobase.h ****   template<bool _IsMove, typename _CharT>
 449:/Library/DaisyToolchain/0.2.0/arm/arm-none-eabi/include/c++/10.3.1/bits/stl_algobase.h ****     typename __gnu_cxx::__enable_if<__is_char<_CharT>::__value,
 450:/Library/DaisyToolchain/0.2.0/arm/arm-none-eabi/include/c++/10.3.1/bits/stl_algobase.h **** 	     ostreambuf_iterator<_CharT, char_traits<_CharT> > >::__type
 451:/Library/DaisyToolchain/0.2.0/arm/arm-none-eabi/include/c++/10.3.1/bits/stl_algobase.h ****     __copy_move_a2(const _CharT*, const _CharT*,
 452:/Library/DaisyToolchain/0.2.0/arm/arm-none-eabi/include/c++/10.3.1/bits/stl_algobase.h **** 		   ostreambuf_iterator<_CharT, char_traits<_CharT> >);
 453:/Library/DaisyToolchain/0.2.0/arm/arm-none-eabi/include/c++/10.3.1/bits/stl_algobase.h **** 
 454:/Library/DaisyToolchain/0.2.0/arm/arm-none-eabi/include/c++/10.3.1/bits/stl_algobase.h ****   template<bool _IsMove, typename _CharT>
 455:/Library/DaisyToolchain/0.2.0/arm/arm-none-eabi/include/c++/10.3.1/bits/stl_algobase.h ****     typename __gnu_cxx::__enable_if<__is_char<_CharT>::__value,
 456:/Library/DaisyToolchain/0.2.0/arm/arm-none-eabi/include/c++/10.3.1/bits/stl_algobase.h **** 				    _CharT*>::__type
 457:/Library/DaisyToolchain/0.2.0/arm/arm-none-eabi/include/c++/10.3.1/bits/stl_algobase.h ****     __copy_move_a2(istreambuf_iterator<_CharT, char_traits<_CharT> >,
 458:/Library/DaisyToolchain/0.2.0/arm/arm-none-eabi/include/c++/10.3.1/bits/stl_algobase.h **** 		   istreambuf_iterator<_CharT, char_traits<_CharT> >, _CharT*);
 459:/Library/DaisyToolchain/0.2.0/arm/arm-none-eabi/include/c++/10.3.1/bits/stl_algobase.h **** 
 460:/Library/DaisyToolchain/0.2.0/arm/arm-none-eabi/include/c++/10.3.1/bits/stl_algobase.h ****   template<bool _IsMove, typename _II, typename _OI>
 461:/Library/DaisyToolchain/0.2.0/arm/arm-none-eabi/include/c++/10.3.1/bits/stl_algobase.h ****     _GLIBCXX20_CONSTEXPR
 462:/Library/DaisyToolchain/0.2.0/arm/arm-none-eabi/include/c++/10.3.1/bits/stl_algobase.h ****     inline _OI
 463:/Library/DaisyToolchain/0.2.0/arm/arm-none-eabi/include/c++/10.3.1/bits/stl_algobase.h ****     __copy_move_a2(_II __first, _II __last, _OI __result)
 464:/Library/DaisyToolchain/0.2.0/arm/arm-none-eabi/include/c++/10.3.1/bits/stl_algobase.h ****     {
 465:/Library/DaisyToolchain/0.2.0/arm/arm-none-eabi/include/c++/10.3.1/bits/stl_algobase.h ****       typedef typename iterator_traits<_II>::iterator_category _Category;
 466:/Library/DaisyToolchain/0.2.0/arm/arm-none-eabi/include/c++/10.3.1/bits/stl_algobase.h **** #ifdef __cpp_lib_is_constant_evaluated
 467:/Library/DaisyToolchain/0.2.0/arm/arm-none-eabi/include/c++/10.3.1/bits/stl_algobase.h ****       if (std::is_constant_evaluated())
 468:/Library/DaisyToolchain/0.2.0/arm/arm-none-eabi/include/c++/10.3.1/bits/stl_algobase.h **** 	return std::__copy_move<_IsMove, false, _Category>::
 469:/Library/DaisyToolchain/0.2.0/arm/arm-none-eabi/include/c++/10.3.1/bits/stl_algobase.h **** 	  __copy_m(__first, __last, __result);
 470:/Library/DaisyToolchain/0.2.0/arm/arm-none-eabi/include/c++/10.3.1/bits/stl_algobase.h **** #endif
 471:/Library/DaisyToolchain/0.2.0/arm/arm-none-eabi/include/c++/10.3.1/bits/stl_algobase.h ****       return std::__copy_move<_IsMove, __memcpyable<_OI, _II>::__value,
 472:/Library/DaisyToolchain/0.2.0/arm/arm-none-eabi/include/c++/10.3.1/bits/stl_algobase.h **** 			      _Category>::__copy_m(__first, __last, __result);
 473:/Library/DaisyToolchain/0.2.0/arm/arm-none-eabi/include/c++/10.3.1/bits/stl_algobase.h ****     }
 474:/Library/DaisyToolchain/0.2.0/arm/arm-none-eabi/include/c++/10.3.1/bits/stl_algobase.h **** 
 475:/Library/DaisyToolchain/0.2.0/arm/arm-none-eabi/include/c++/10.3.1/bits/stl_algobase.h **** _GLIBCXX_BEGIN_NAMESPACE_CONTAINER
 476:/Library/DaisyToolchain/0.2.0/arm/arm-none-eabi/include/c++/10.3.1/bits/stl_algobase.h **** 
ARM GAS  /var/folders/9k/zk1mgrrd7wg4__6zvxvr9w8m0000gn/T//ccjjMUN9.s 			page 42


 477:/Library/DaisyToolchain/0.2.0/arm/arm-none-eabi/include/c++/10.3.1/bits/stl_algobase.h ****   template<typename _Tp, typename _Ref, typename _Ptr>
 478:/Library/DaisyToolchain/0.2.0/arm/arm-none-eabi/include/c++/10.3.1/bits/stl_algobase.h ****     struct _Deque_iterator;
 479:/Library/DaisyToolchain/0.2.0/arm/arm-none-eabi/include/c++/10.3.1/bits/stl_algobase.h **** 
 480:/Library/DaisyToolchain/0.2.0/arm/arm-none-eabi/include/c++/10.3.1/bits/stl_algobase.h **** _GLIBCXX_END_NAMESPACE_CONTAINER
 481:/Library/DaisyToolchain/0.2.0/arm/arm-none-eabi/include/c++/10.3.1/bits/stl_algobase.h **** 
 482:/Library/DaisyToolchain/0.2.0/arm/arm-none-eabi/include/c++/10.3.1/bits/stl_algobase.h ****   template<bool _IsMove,
 483:/Library/DaisyToolchain/0.2.0/arm/arm-none-eabi/include/c++/10.3.1/bits/stl_algobase.h **** 	   typename _Tp, typename _Ref, typename _Ptr, typename _OI>
 484:/Library/DaisyToolchain/0.2.0/arm/arm-none-eabi/include/c++/10.3.1/bits/stl_algobase.h ****     _OI
 485:/Library/DaisyToolchain/0.2.0/arm/arm-none-eabi/include/c++/10.3.1/bits/stl_algobase.h ****     __copy_move_a1(_GLIBCXX_STD_C::_Deque_iterator<_Tp, _Ref, _Ptr>,
 486:/Library/DaisyToolchain/0.2.0/arm/arm-none-eabi/include/c++/10.3.1/bits/stl_algobase.h **** 		   _GLIBCXX_STD_C::_Deque_iterator<_Tp, _Ref, _Ptr>,
 487:/Library/DaisyToolchain/0.2.0/arm/arm-none-eabi/include/c++/10.3.1/bits/stl_algobase.h **** 		   _OI);
 488:/Library/DaisyToolchain/0.2.0/arm/arm-none-eabi/include/c++/10.3.1/bits/stl_algobase.h **** 
 489:/Library/DaisyToolchain/0.2.0/arm/arm-none-eabi/include/c++/10.3.1/bits/stl_algobase.h ****   template<bool _IsMove,
 490:/Library/DaisyToolchain/0.2.0/arm/arm-none-eabi/include/c++/10.3.1/bits/stl_algobase.h **** 	   typename _ITp, typename _IRef, typename _IPtr, typename _OTp>
 491:/Library/DaisyToolchain/0.2.0/arm/arm-none-eabi/include/c++/10.3.1/bits/stl_algobase.h ****     _GLIBCXX_STD_C::_Deque_iterator<_OTp, _OTp&, _OTp*>
 492:/Library/DaisyToolchain/0.2.0/arm/arm-none-eabi/include/c++/10.3.1/bits/stl_algobase.h ****     __copy_move_a1(_GLIBCXX_STD_C::_Deque_iterator<_ITp, _IRef, _IPtr>,
 493:/Library/DaisyToolchain/0.2.0/arm/arm-none-eabi/include/c++/10.3.1/bits/stl_algobase.h **** 		   _GLIBCXX_STD_C::_Deque_iterator<_ITp, _IRef, _IPtr>,
 494:/Library/DaisyToolchain/0.2.0/arm/arm-none-eabi/include/c++/10.3.1/bits/stl_algobase.h **** 		   _GLIBCXX_STD_C::_Deque_iterator<_OTp, _OTp&, _OTp*>);
 495:/Library/DaisyToolchain/0.2.0/arm/arm-none-eabi/include/c++/10.3.1/bits/stl_algobase.h **** 
 496:/Library/DaisyToolchain/0.2.0/arm/arm-none-eabi/include/c++/10.3.1/bits/stl_algobase.h ****   template<bool _IsMove, typename _II, typename _Tp>
 497:/Library/DaisyToolchain/0.2.0/arm/arm-none-eabi/include/c++/10.3.1/bits/stl_algobase.h ****     typename __gnu_cxx::__enable_if<
 498:/Library/DaisyToolchain/0.2.0/arm/arm-none-eabi/include/c++/10.3.1/bits/stl_algobase.h ****       __is_random_access_iter<_II>::__value,
 499:/Library/DaisyToolchain/0.2.0/arm/arm-none-eabi/include/c++/10.3.1/bits/stl_algobase.h ****       _GLIBCXX_STD_C::_Deque_iterator<_Tp, _Tp&, _Tp*> >::__type
 500:/Library/DaisyToolchain/0.2.0/arm/arm-none-eabi/include/c++/10.3.1/bits/stl_algobase.h ****     __copy_move_a1(_II, _II, _GLIBCXX_STD_C::_Deque_iterator<_Tp, _Tp&, _Tp*>);
 501:/Library/DaisyToolchain/0.2.0/arm/arm-none-eabi/include/c++/10.3.1/bits/stl_algobase.h **** 
 502:/Library/DaisyToolchain/0.2.0/arm/arm-none-eabi/include/c++/10.3.1/bits/stl_algobase.h ****   template<bool _IsMove, typename _II, typename _OI>
 503:/Library/DaisyToolchain/0.2.0/arm/arm-none-eabi/include/c++/10.3.1/bits/stl_algobase.h ****     _GLIBCXX20_CONSTEXPR
 504:/Library/DaisyToolchain/0.2.0/arm/arm-none-eabi/include/c++/10.3.1/bits/stl_algobase.h ****     inline _OI
 505:/Library/DaisyToolchain/0.2.0/arm/arm-none-eabi/include/c++/10.3.1/bits/stl_algobase.h ****     __copy_move_a1(_II __first, _II __last, _OI __result)
 506:/Library/DaisyToolchain/0.2.0/arm/arm-none-eabi/include/c++/10.3.1/bits/stl_algobase.h ****     { return std::__copy_move_a2<_IsMove>(__first, __last, __result); }
 507:/Library/DaisyToolchain/0.2.0/arm/arm-none-eabi/include/c++/10.3.1/bits/stl_algobase.h **** 
 508:/Library/DaisyToolchain/0.2.0/arm/arm-none-eabi/include/c++/10.3.1/bits/stl_algobase.h ****   template<bool _IsMove, typename _II, typename _OI>
 509:/Library/DaisyToolchain/0.2.0/arm/arm-none-eabi/include/c++/10.3.1/bits/stl_algobase.h ****     _GLIBCXX20_CONSTEXPR
 510:/Library/DaisyToolchain/0.2.0/arm/arm-none-eabi/include/c++/10.3.1/bits/stl_algobase.h ****     inline _OI
 511:/Library/DaisyToolchain/0.2.0/arm/arm-none-eabi/include/c++/10.3.1/bits/stl_algobase.h ****     __copy_move_a(_II __first, _II __last, _OI __result)
 512:/Library/DaisyToolchain/0.2.0/arm/arm-none-eabi/include/c++/10.3.1/bits/stl_algobase.h ****     {
 513:/Library/DaisyToolchain/0.2.0/arm/arm-none-eabi/include/c++/10.3.1/bits/stl_algobase.h ****       return std::__niter_wrap(__result,
 514:/Library/DaisyToolchain/0.2.0/arm/arm-none-eabi/include/c++/10.3.1/bits/stl_algobase.h **** 		std::__copy_move_a1<_IsMove>(std::__niter_base(__first),
 515:/Library/DaisyToolchain/0.2.0/arm/arm-none-eabi/include/c++/10.3.1/bits/stl_algobase.h **** 					     std::__niter_base(__last),
 516:/Library/DaisyToolchain/0.2.0/arm/arm-none-eabi/include/c++/10.3.1/bits/stl_algobase.h **** 					     std::__niter_base(__result)));
 517:/Library/DaisyToolchain/0.2.0/arm/arm-none-eabi/include/c++/10.3.1/bits/stl_algobase.h ****     }
 518:/Library/DaisyToolchain/0.2.0/arm/arm-none-eabi/include/c++/10.3.1/bits/stl_algobase.h **** 
 519:/Library/DaisyToolchain/0.2.0/arm/arm-none-eabi/include/c++/10.3.1/bits/stl_algobase.h ****   template<bool _IsMove,
 520:/Library/DaisyToolchain/0.2.0/arm/arm-none-eabi/include/c++/10.3.1/bits/stl_algobase.h **** 	   typename _Ite, typename _Seq, typename _Cat, typename _OI>
 521:/Library/DaisyToolchain/0.2.0/arm/arm-none-eabi/include/c++/10.3.1/bits/stl_algobase.h ****     _OI
 522:/Library/DaisyToolchain/0.2.0/arm/arm-none-eabi/include/c++/10.3.1/bits/stl_algobase.h ****     __copy_move_a(const ::__gnu_debug::_Safe_iterator<_Ite, _Seq, _Cat>&,
 523:/Library/DaisyToolchain/0.2.0/arm/arm-none-eabi/include/c++/10.3.1/bits/stl_algobase.h **** 		  const ::__gnu_debug::_Safe_iterator<_Ite, _Seq, _Cat>&,
 524:/Library/DaisyToolchain/0.2.0/arm/arm-none-eabi/include/c++/10.3.1/bits/stl_algobase.h **** 		  _OI);
 525:/Library/DaisyToolchain/0.2.0/arm/arm-none-eabi/include/c++/10.3.1/bits/stl_algobase.h **** 
 526:/Library/DaisyToolchain/0.2.0/arm/arm-none-eabi/include/c++/10.3.1/bits/stl_algobase.h ****   template<bool _IsMove,
 527:/Library/DaisyToolchain/0.2.0/arm/arm-none-eabi/include/c++/10.3.1/bits/stl_algobase.h **** 	   typename _II, typename _Ite, typename _Seq, typename _Cat>
 528:/Library/DaisyToolchain/0.2.0/arm/arm-none-eabi/include/c++/10.3.1/bits/stl_algobase.h ****     __gnu_debug::_Safe_iterator<_Ite, _Seq, _Cat>
 529:/Library/DaisyToolchain/0.2.0/arm/arm-none-eabi/include/c++/10.3.1/bits/stl_algobase.h ****     __copy_move_a(_II, _II,
 530:/Library/DaisyToolchain/0.2.0/arm/arm-none-eabi/include/c++/10.3.1/bits/stl_algobase.h **** 		  const ::__gnu_debug::_Safe_iterator<_Ite, _Seq, _Cat>&);
 531:/Library/DaisyToolchain/0.2.0/arm/arm-none-eabi/include/c++/10.3.1/bits/stl_algobase.h **** 
 532:/Library/DaisyToolchain/0.2.0/arm/arm-none-eabi/include/c++/10.3.1/bits/stl_algobase.h ****   template<bool _IsMove,
 533:/Library/DaisyToolchain/0.2.0/arm/arm-none-eabi/include/c++/10.3.1/bits/stl_algobase.h **** 	   typename _IIte, typename _ISeq, typename _ICat,
ARM GAS  /var/folders/9k/zk1mgrrd7wg4__6zvxvr9w8m0000gn/T//ccjjMUN9.s 			page 43


 534:/Library/DaisyToolchain/0.2.0/arm/arm-none-eabi/include/c++/10.3.1/bits/stl_algobase.h **** 	   typename _OIte, typename _OSeq, typename _OCat>
 535:/Library/DaisyToolchain/0.2.0/arm/arm-none-eabi/include/c++/10.3.1/bits/stl_algobase.h ****     ::__gnu_debug::_Safe_iterator<_OIte, _OSeq, _OCat>
 536:/Library/DaisyToolchain/0.2.0/arm/arm-none-eabi/include/c++/10.3.1/bits/stl_algobase.h ****     __copy_move_a(const ::__gnu_debug::_Safe_iterator<_IIte, _ISeq, _ICat>&,
 537:/Library/DaisyToolchain/0.2.0/arm/arm-none-eabi/include/c++/10.3.1/bits/stl_algobase.h **** 		  const ::__gnu_debug::_Safe_iterator<_IIte, _ISeq, _ICat>&,
 538:/Library/DaisyToolchain/0.2.0/arm/arm-none-eabi/include/c++/10.3.1/bits/stl_algobase.h **** 		  const ::__gnu_debug::_Safe_iterator<_OIte, _OSeq, _OCat>&);
 539:/Library/DaisyToolchain/0.2.0/arm/arm-none-eabi/include/c++/10.3.1/bits/stl_algobase.h **** 
 540:/Library/DaisyToolchain/0.2.0/arm/arm-none-eabi/include/c++/10.3.1/bits/stl_algobase.h ****   /**
 541:/Library/DaisyToolchain/0.2.0/arm/arm-none-eabi/include/c++/10.3.1/bits/stl_algobase.h ****    *  @brief Copies the range [first,last) into result.
 542:/Library/DaisyToolchain/0.2.0/arm/arm-none-eabi/include/c++/10.3.1/bits/stl_algobase.h ****    *  @ingroup mutating_algorithms
 543:/Library/DaisyToolchain/0.2.0/arm/arm-none-eabi/include/c++/10.3.1/bits/stl_algobase.h ****    *  @param  __first  An input iterator.
 544:/Library/DaisyToolchain/0.2.0/arm/arm-none-eabi/include/c++/10.3.1/bits/stl_algobase.h ****    *  @param  __last   An input iterator.
 545:/Library/DaisyToolchain/0.2.0/arm/arm-none-eabi/include/c++/10.3.1/bits/stl_algobase.h ****    *  @param  __result An output iterator.
 546:/Library/DaisyToolchain/0.2.0/arm/arm-none-eabi/include/c++/10.3.1/bits/stl_algobase.h ****    *  @return   result + (last - first)
 547:/Library/DaisyToolchain/0.2.0/arm/arm-none-eabi/include/c++/10.3.1/bits/stl_algobase.h ****    *
 548:/Library/DaisyToolchain/0.2.0/arm/arm-none-eabi/include/c++/10.3.1/bits/stl_algobase.h ****    *  This inline function will boil down to a call to @c memmove whenever
 549:/Library/DaisyToolchain/0.2.0/arm/arm-none-eabi/include/c++/10.3.1/bits/stl_algobase.h ****    *  possible.  Failing that, if random access iterators are passed, then the
 550:/Library/DaisyToolchain/0.2.0/arm/arm-none-eabi/include/c++/10.3.1/bits/stl_algobase.h ****    *  loop count will be known (and therefore a candidate for compiler
 551:/Library/DaisyToolchain/0.2.0/arm/arm-none-eabi/include/c++/10.3.1/bits/stl_algobase.h ****    *  optimizations such as unrolling).  Result may not be contained within
 552:/Library/DaisyToolchain/0.2.0/arm/arm-none-eabi/include/c++/10.3.1/bits/stl_algobase.h ****    *  [first,last); the copy_backward function should be used instead.
 553:/Library/DaisyToolchain/0.2.0/arm/arm-none-eabi/include/c++/10.3.1/bits/stl_algobase.h ****    *
 554:/Library/DaisyToolchain/0.2.0/arm/arm-none-eabi/include/c++/10.3.1/bits/stl_algobase.h ****    *  Note that the end of the output range is permitted to be contained
 555:/Library/DaisyToolchain/0.2.0/arm/arm-none-eabi/include/c++/10.3.1/bits/stl_algobase.h ****    *  within [first,last).
 556:/Library/DaisyToolchain/0.2.0/arm/arm-none-eabi/include/c++/10.3.1/bits/stl_algobase.h ****   */
 557:/Library/DaisyToolchain/0.2.0/arm/arm-none-eabi/include/c++/10.3.1/bits/stl_algobase.h ****   template<typename _II, typename _OI>
 558:/Library/DaisyToolchain/0.2.0/arm/arm-none-eabi/include/c++/10.3.1/bits/stl_algobase.h ****     _GLIBCXX20_CONSTEXPR
 559:/Library/DaisyToolchain/0.2.0/arm/arm-none-eabi/include/c++/10.3.1/bits/stl_algobase.h ****     inline _OI
 560:/Library/DaisyToolchain/0.2.0/arm/arm-none-eabi/include/c++/10.3.1/bits/stl_algobase.h ****     copy(_II __first, _II __last, _OI __result)
 561:/Library/DaisyToolchain/0.2.0/arm/arm-none-eabi/include/c++/10.3.1/bits/stl_algobase.h ****     {
 562:/Library/DaisyToolchain/0.2.0/arm/arm-none-eabi/include/c++/10.3.1/bits/stl_algobase.h ****       // concept requirements
 563:/Library/DaisyToolchain/0.2.0/arm/arm-none-eabi/include/c++/10.3.1/bits/stl_algobase.h ****       __glibcxx_function_requires(_InputIteratorConcept<_II>)
 564:/Library/DaisyToolchain/0.2.0/arm/arm-none-eabi/include/c++/10.3.1/bits/stl_algobase.h ****       __glibcxx_function_requires(_OutputIteratorConcept<_OI,
 565:/Library/DaisyToolchain/0.2.0/arm/arm-none-eabi/include/c++/10.3.1/bits/stl_algobase.h **** 	    typename iterator_traits<_II>::value_type>)
 566:/Library/DaisyToolchain/0.2.0/arm/arm-none-eabi/include/c++/10.3.1/bits/stl_algobase.h ****       __glibcxx_requires_can_increment_range(__first, __last, __result);
 567:/Library/DaisyToolchain/0.2.0/arm/arm-none-eabi/include/c++/10.3.1/bits/stl_algobase.h **** 
 568:/Library/DaisyToolchain/0.2.0/arm/arm-none-eabi/include/c++/10.3.1/bits/stl_algobase.h ****       return std::__copy_move_a<__is_move_iterator<_II>::__value>
 569:/Library/DaisyToolchain/0.2.0/arm/arm-none-eabi/include/c++/10.3.1/bits/stl_algobase.h **** 	     (std::__miter_base(__first), std::__miter_base(__last), __result);
 570:/Library/DaisyToolchain/0.2.0/arm/arm-none-eabi/include/c++/10.3.1/bits/stl_algobase.h ****     }
 571:/Library/DaisyToolchain/0.2.0/arm/arm-none-eabi/include/c++/10.3.1/bits/stl_algobase.h **** 
 572:/Library/DaisyToolchain/0.2.0/arm/arm-none-eabi/include/c++/10.3.1/bits/stl_algobase.h **** #if __cplusplus >= 201103L
 573:/Library/DaisyToolchain/0.2.0/arm/arm-none-eabi/include/c++/10.3.1/bits/stl_algobase.h ****   /**
 574:/Library/DaisyToolchain/0.2.0/arm/arm-none-eabi/include/c++/10.3.1/bits/stl_algobase.h ****    *  @brief Moves the range [first,last) into result.
 575:/Library/DaisyToolchain/0.2.0/arm/arm-none-eabi/include/c++/10.3.1/bits/stl_algobase.h ****    *  @ingroup mutating_algorithms
 576:/Library/DaisyToolchain/0.2.0/arm/arm-none-eabi/include/c++/10.3.1/bits/stl_algobase.h ****    *  @param  __first  An input iterator.
 577:/Library/DaisyToolchain/0.2.0/arm/arm-none-eabi/include/c++/10.3.1/bits/stl_algobase.h ****    *  @param  __last   An input iterator.
 578:/Library/DaisyToolchain/0.2.0/arm/arm-none-eabi/include/c++/10.3.1/bits/stl_algobase.h ****    *  @param  __result An output iterator.
 579:/Library/DaisyToolchain/0.2.0/arm/arm-none-eabi/include/c++/10.3.1/bits/stl_algobase.h ****    *  @return   result + (last - first)
 580:/Library/DaisyToolchain/0.2.0/arm/arm-none-eabi/include/c++/10.3.1/bits/stl_algobase.h ****    *
 581:/Library/DaisyToolchain/0.2.0/arm/arm-none-eabi/include/c++/10.3.1/bits/stl_algobase.h ****    *  This inline function will boil down to a call to @c memmove whenever
 582:/Library/DaisyToolchain/0.2.0/arm/arm-none-eabi/include/c++/10.3.1/bits/stl_algobase.h ****    *  possible.  Failing that, if random access iterators are passed, then the
 583:/Library/DaisyToolchain/0.2.0/arm/arm-none-eabi/include/c++/10.3.1/bits/stl_algobase.h ****    *  loop count will be known (and therefore a candidate for compiler
 584:/Library/DaisyToolchain/0.2.0/arm/arm-none-eabi/include/c++/10.3.1/bits/stl_algobase.h ****    *  optimizations such as unrolling).  Result may not be contained within
 585:/Library/DaisyToolchain/0.2.0/arm/arm-none-eabi/include/c++/10.3.1/bits/stl_algobase.h ****    *  [first,last); the move_backward function should be used instead.
 586:/Library/DaisyToolchain/0.2.0/arm/arm-none-eabi/include/c++/10.3.1/bits/stl_algobase.h ****    *
 587:/Library/DaisyToolchain/0.2.0/arm/arm-none-eabi/include/c++/10.3.1/bits/stl_algobase.h ****    *  Note that the end of the output range is permitted to be contained
 588:/Library/DaisyToolchain/0.2.0/arm/arm-none-eabi/include/c++/10.3.1/bits/stl_algobase.h ****    *  within [first,last).
 589:/Library/DaisyToolchain/0.2.0/arm/arm-none-eabi/include/c++/10.3.1/bits/stl_algobase.h ****   */
 590:/Library/DaisyToolchain/0.2.0/arm/arm-none-eabi/include/c++/10.3.1/bits/stl_algobase.h ****   template<typename _II, typename _OI>
ARM GAS  /var/folders/9k/zk1mgrrd7wg4__6zvxvr9w8m0000gn/T//ccjjMUN9.s 			page 44


 591:/Library/DaisyToolchain/0.2.0/arm/arm-none-eabi/include/c++/10.3.1/bits/stl_algobase.h ****     _GLIBCXX20_CONSTEXPR
 592:/Library/DaisyToolchain/0.2.0/arm/arm-none-eabi/include/c++/10.3.1/bits/stl_algobase.h ****     inline _OI
 593:/Library/DaisyToolchain/0.2.0/arm/arm-none-eabi/include/c++/10.3.1/bits/stl_algobase.h ****     move(_II __first, _II __last, _OI __result)
 594:/Library/DaisyToolchain/0.2.0/arm/arm-none-eabi/include/c++/10.3.1/bits/stl_algobase.h ****     {
 595:/Library/DaisyToolchain/0.2.0/arm/arm-none-eabi/include/c++/10.3.1/bits/stl_algobase.h ****       // concept requirements
 596:/Library/DaisyToolchain/0.2.0/arm/arm-none-eabi/include/c++/10.3.1/bits/stl_algobase.h ****       __glibcxx_function_requires(_InputIteratorConcept<_II>)
 597:/Library/DaisyToolchain/0.2.0/arm/arm-none-eabi/include/c++/10.3.1/bits/stl_algobase.h ****       __glibcxx_function_requires(_OutputIteratorConcept<_OI,
 598:/Library/DaisyToolchain/0.2.0/arm/arm-none-eabi/include/c++/10.3.1/bits/stl_algobase.h **** 	    typename iterator_traits<_II>::value_type>)
 599:/Library/DaisyToolchain/0.2.0/arm/arm-none-eabi/include/c++/10.3.1/bits/stl_algobase.h ****       __glibcxx_requires_can_increment_range(__first, __last, __result);
 600:/Library/DaisyToolchain/0.2.0/arm/arm-none-eabi/include/c++/10.3.1/bits/stl_algobase.h **** 
 601:/Library/DaisyToolchain/0.2.0/arm/arm-none-eabi/include/c++/10.3.1/bits/stl_algobase.h ****       return std::__copy_move_a<true>(std::__miter_base(__first),
 602:/Library/DaisyToolchain/0.2.0/arm/arm-none-eabi/include/c++/10.3.1/bits/stl_algobase.h **** 				      std::__miter_base(__last), __result);
 603:/Library/DaisyToolchain/0.2.0/arm/arm-none-eabi/include/c++/10.3.1/bits/stl_algobase.h ****     }
 604:/Library/DaisyToolchain/0.2.0/arm/arm-none-eabi/include/c++/10.3.1/bits/stl_algobase.h **** 
 605:/Library/DaisyToolchain/0.2.0/arm/arm-none-eabi/include/c++/10.3.1/bits/stl_algobase.h **** #define _GLIBCXX_MOVE3(_Tp, _Up, _Vp) std::move(_Tp, _Up, _Vp)
 606:/Library/DaisyToolchain/0.2.0/arm/arm-none-eabi/include/c++/10.3.1/bits/stl_algobase.h **** #else
 607:/Library/DaisyToolchain/0.2.0/arm/arm-none-eabi/include/c++/10.3.1/bits/stl_algobase.h **** #define _GLIBCXX_MOVE3(_Tp, _Up, _Vp) std::copy(_Tp, _Up, _Vp)
 608:/Library/DaisyToolchain/0.2.0/arm/arm-none-eabi/include/c++/10.3.1/bits/stl_algobase.h **** #endif
 609:/Library/DaisyToolchain/0.2.0/arm/arm-none-eabi/include/c++/10.3.1/bits/stl_algobase.h **** 
 610:/Library/DaisyToolchain/0.2.0/arm/arm-none-eabi/include/c++/10.3.1/bits/stl_algobase.h ****   template<bool _IsMove, bool _IsSimple, typename _Category>
 611:/Library/DaisyToolchain/0.2.0/arm/arm-none-eabi/include/c++/10.3.1/bits/stl_algobase.h ****     struct __copy_move_backward
 612:/Library/DaisyToolchain/0.2.0/arm/arm-none-eabi/include/c++/10.3.1/bits/stl_algobase.h ****     {
 613:/Library/DaisyToolchain/0.2.0/arm/arm-none-eabi/include/c++/10.3.1/bits/stl_algobase.h ****       template<typename _BI1, typename _BI2>
 614:/Library/DaisyToolchain/0.2.0/arm/arm-none-eabi/include/c++/10.3.1/bits/stl_algobase.h **** 	_GLIBCXX20_CONSTEXPR
 615:/Library/DaisyToolchain/0.2.0/arm/arm-none-eabi/include/c++/10.3.1/bits/stl_algobase.h **** 	static _BI2
 616:/Library/DaisyToolchain/0.2.0/arm/arm-none-eabi/include/c++/10.3.1/bits/stl_algobase.h **** 	__copy_move_b(_BI1 __first, _BI1 __last, _BI2 __result)
 617:/Library/DaisyToolchain/0.2.0/arm/arm-none-eabi/include/c++/10.3.1/bits/stl_algobase.h **** 	{
 618:/Library/DaisyToolchain/0.2.0/arm/arm-none-eabi/include/c++/10.3.1/bits/stl_algobase.h **** 	  while (__first != __last)
 619:/Library/DaisyToolchain/0.2.0/arm/arm-none-eabi/include/c++/10.3.1/bits/stl_algobase.h **** 	    *--__result = *--__last;
 620:/Library/DaisyToolchain/0.2.0/arm/arm-none-eabi/include/c++/10.3.1/bits/stl_algobase.h **** 	  return __result;
 621:/Library/DaisyToolchain/0.2.0/arm/arm-none-eabi/include/c++/10.3.1/bits/stl_algobase.h **** 	}
 622:/Library/DaisyToolchain/0.2.0/arm/arm-none-eabi/include/c++/10.3.1/bits/stl_algobase.h ****     };
 623:/Library/DaisyToolchain/0.2.0/arm/arm-none-eabi/include/c++/10.3.1/bits/stl_algobase.h **** 
 624:/Library/DaisyToolchain/0.2.0/arm/arm-none-eabi/include/c++/10.3.1/bits/stl_algobase.h **** #if __cplusplus >= 201103L
 625:/Library/DaisyToolchain/0.2.0/arm/arm-none-eabi/include/c++/10.3.1/bits/stl_algobase.h ****   template<typename _Category>
 626:/Library/DaisyToolchain/0.2.0/arm/arm-none-eabi/include/c++/10.3.1/bits/stl_algobase.h ****     struct __copy_move_backward<true, false, _Category>
 627:/Library/DaisyToolchain/0.2.0/arm/arm-none-eabi/include/c++/10.3.1/bits/stl_algobase.h ****     {
 628:/Library/DaisyToolchain/0.2.0/arm/arm-none-eabi/include/c++/10.3.1/bits/stl_algobase.h ****       template<typename _BI1, typename _BI2>
 629:/Library/DaisyToolchain/0.2.0/arm/arm-none-eabi/include/c++/10.3.1/bits/stl_algobase.h **** 	_GLIBCXX20_CONSTEXPR
 630:/Library/DaisyToolchain/0.2.0/arm/arm-none-eabi/include/c++/10.3.1/bits/stl_algobase.h **** 	static _BI2
 631:/Library/DaisyToolchain/0.2.0/arm/arm-none-eabi/include/c++/10.3.1/bits/stl_algobase.h **** 	__copy_move_b(_BI1 __first, _BI1 __last, _BI2 __result)
 632:/Library/DaisyToolchain/0.2.0/arm/arm-none-eabi/include/c++/10.3.1/bits/stl_algobase.h **** 	{
 633:/Library/DaisyToolchain/0.2.0/arm/arm-none-eabi/include/c++/10.3.1/bits/stl_algobase.h **** 	  while (__first != __last)
 634:/Library/DaisyToolchain/0.2.0/arm/arm-none-eabi/include/c++/10.3.1/bits/stl_algobase.h **** 	    *--__result = std::move(*--__last);
 635:/Library/DaisyToolchain/0.2.0/arm/arm-none-eabi/include/c++/10.3.1/bits/stl_algobase.h **** 	  return __result;
 636:/Library/DaisyToolchain/0.2.0/arm/arm-none-eabi/include/c++/10.3.1/bits/stl_algobase.h **** 	}
 637:/Library/DaisyToolchain/0.2.0/arm/arm-none-eabi/include/c++/10.3.1/bits/stl_algobase.h ****     };
 638:/Library/DaisyToolchain/0.2.0/arm/arm-none-eabi/include/c++/10.3.1/bits/stl_algobase.h **** #endif
 639:/Library/DaisyToolchain/0.2.0/arm/arm-none-eabi/include/c++/10.3.1/bits/stl_algobase.h **** 
 640:/Library/DaisyToolchain/0.2.0/arm/arm-none-eabi/include/c++/10.3.1/bits/stl_algobase.h ****   template<>
 641:/Library/DaisyToolchain/0.2.0/arm/arm-none-eabi/include/c++/10.3.1/bits/stl_algobase.h ****     struct __copy_move_backward<false, false, random_access_iterator_tag>
 642:/Library/DaisyToolchain/0.2.0/arm/arm-none-eabi/include/c++/10.3.1/bits/stl_algobase.h ****     {
 643:/Library/DaisyToolchain/0.2.0/arm/arm-none-eabi/include/c++/10.3.1/bits/stl_algobase.h ****       template<typename _BI1, typename _BI2>
 644:/Library/DaisyToolchain/0.2.0/arm/arm-none-eabi/include/c++/10.3.1/bits/stl_algobase.h **** 	_GLIBCXX20_CONSTEXPR
 645:/Library/DaisyToolchain/0.2.0/arm/arm-none-eabi/include/c++/10.3.1/bits/stl_algobase.h **** 	static _BI2
 646:/Library/DaisyToolchain/0.2.0/arm/arm-none-eabi/include/c++/10.3.1/bits/stl_algobase.h **** 	__copy_move_b(_BI1 __first, _BI1 __last, _BI2 __result)
 647:/Library/DaisyToolchain/0.2.0/arm/arm-none-eabi/include/c++/10.3.1/bits/stl_algobase.h **** 	{
ARM GAS  /var/folders/9k/zk1mgrrd7wg4__6zvxvr9w8m0000gn/T//ccjjMUN9.s 			page 45


 648:/Library/DaisyToolchain/0.2.0/arm/arm-none-eabi/include/c++/10.3.1/bits/stl_algobase.h **** 	  typename iterator_traits<_BI1>::difference_type
 649:/Library/DaisyToolchain/0.2.0/arm/arm-none-eabi/include/c++/10.3.1/bits/stl_algobase.h **** 	    __n = __last - __first;
 650:/Library/DaisyToolchain/0.2.0/arm/arm-none-eabi/include/c++/10.3.1/bits/stl_algobase.h **** 	  for (; __n > 0; --__n)
 651:/Library/DaisyToolchain/0.2.0/arm/arm-none-eabi/include/c++/10.3.1/bits/stl_algobase.h **** 	    *--__result = *--__last;
 652:/Library/DaisyToolchain/0.2.0/arm/arm-none-eabi/include/c++/10.3.1/bits/stl_algobase.h **** 	  return __result;
 653:/Library/DaisyToolchain/0.2.0/arm/arm-none-eabi/include/c++/10.3.1/bits/stl_algobase.h **** 	}
 654:/Library/DaisyToolchain/0.2.0/arm/arm-none-eabi/include/c++/10.3.1/bits/stl_algobase.h ****     };
 655:/Library/DaisyToolchain/0.2.0/arm/arm-none-eabi/include/c++/10.3.1/bits/stl_algobase.h **** 
 656:/Library/DaisyToolchain/0.2.0/arm/arm-none-eabi/include/c++/10.3.1/bits/stl_algobase.h **** #if __cplusplus >= 201103L
 657:/Library/DaisyToolchain/0.2.0/arm/arm-none-eabi/include/c++/10.3.1/bits/stl_algobase.h ****   template<>
 658:/Library/DaisyToolchain/0.2.0/arm/arm-none-eabi/include/c++/10.3.1/bits/stl_algobase.h ****     struct __copy_move_backward<true, false, random_access_iterator_tag>
 659:/Library/DaisyToolchain/0.2.0/arm/arm-none-eabi/include/c++/10.3.1/bits/stl_algobase.h ****     {
 660:/Library/DaisyToolchain/0.2.0/arm/arm-none-eabi/include/c++/10.3.1/bits/stl_algobase.h ****       template<typename _BI1, typename _BI2>
 661:/Library/DaisyToolchain/0.2.0/arm/arm-none-eabi/include/c++/10.3.1/bits/stl_algobase.h **** 	_GLIBCXX20_CONSTEXPR
 662:/Library/DaisyToolchain/0.2.0/arm/arm-none-eabi/include/c++/10.3.1/bits/stl_algobase.h **** 	static _BI2
 663:/Library/DaisyToolchain/0.2.0/arm/arm-none-eabi/include/c++/10.3.1/bits/stl_algobase.h **** 	__copy_move_b(_BI1 __first, _BI1 __last, _BI2 __result)
 664:/Library/DaisyToolchain/0.2.0/arm/arm-none-eabi/include/c++/10.3.1/bits/stl_algobase.h **** 	{
 665:/Library/DaisyToolchain/0.2.0/arm/arm-none-eabi/include/c++/10.3.1/bits/stl_algobase.h **** 	  typename iterator_traits<_BI1>::difference_type
 666:/Library/DaisyToolchain/0.2.0/arm/arm-none-eabi/include/c++/10.3.1/bits/stl_algobase.h **** 	    __n = __last - __first;
 667:/Library/DaisyToolchain/0.2.0/arm/arm-none-eabi/include/c++/10.3.1/bits/stl_algobase.h **** 	  for (; __n > 0; --__n)
 668:/Library/DaisyToolchain/0.2.0/arm/arm-none-eabi/include/c++/10.3.1/bits/stl_algobase.h **** 	    *--__result = std::move(*--__last);
 669:/Library/DaisyToolchain/0.2.0/arm/arm-none-eabi/include/c++/10.3.1/bits/stl_algobase.h **** 	  return __result;
 670:/Library/DaisyToolchain/0.2.0/arm/arm-none-eabi/include/c++/10.3.1/bits/stl_algobase.h **** 	}
 671:/Library/DaisyToolchain/0.2.0/arm/arm-none-eabi/include/c++/10.3.1/bits/stl_algobase.h ****     };
 672:/Library/DaisyToolchain/0.2.0/arm/arm-none-eabi/include/c++/10.3.1/bits/stl_algobase.h **** #endif
 673:/Library/DaisyToolchain/0.2.0/arm/arm-none-eabi/include/c++/10.3.1/bits/stl_algobase.h **** 
 674:/Library/DaisyToolchain/0.2.0/arm/arm-none-eabi/include/c++/10.3.1/bits/stl_algobase.h ****   template<bool _IsMove>
 675:/Library/DaisyToolchain/0.2.0/arm/arm-none-eabi/include/c++/10.3.1/bits/stl_algobase.h ****     struct __copy_move_backward<_IsMove, true, random_access_iterator_tag>
 676:/Library/DaisyToolchain/0.2.0/arm/arm-none-eabi/include/c++/10.3.1/bits/stl_algobase.h ****     {
 677:/Library/DaisyToolchain/0.2.0/arm/arm-none-eabi/include/c++/10.3.1/bits/stl_algobase.h ****       template<typename _Tp>
 678:/Library/DaisyToolchain/0.2.0/arm/arm-none-eabi/include/c++/10.3.1/bits/stl_algobase.h **** 	_GLIBCXX20_CONSTEXPR
 679:/Library/DaisyToolchain/0.2.0/arm/arm-none-eabi/include/c++/10.3.1/bits/stl_algobase.h **** 	static _Tp*
 680:/Library/DaisyToolchain/0.2.0/arm/arm-none-eabi/include/c++/10.3.1/bits/stl_algobase.h **** 	__copy_move_b(const _Tp* __first, const _Tp* __last, _Tp* __result)
 681:/Library/DaisyToolchain/0.2.0/arm/arm-none-eabi/include/c++/10.3.1/bits/stl_algobase.h **** 	{
 682:/Library/DaisyToolchain/0.2.0/arm/arm-none-eabi/include/c++/10.3.1/bits/stl_algobase.h **** #if __cplusplus >= 201103L
 683:/Library/DaisyToolchain/0.2.0/arm/arm-none-eabi/include/c++/10.3.1/bits/stl_algobase.h **** 	  using __assignable = conditional<_IsMove,
 684:/Library/DaisyToolchain/0.2.0/arm/arm-none-eabi/include/c++/10.3.1/bits/stl_algobase.h **** 					   is_move_assignable<_Tp>,
 685:/Library/DaisyToolchain/0.2.0/arm/arm-none-eabi/include/c++/10.3.1/bits/stl_algobase.h **** 					   is_copy_assignable<_Tp>>;
 686:/Library/DaisyToolchain/0.2.0/arm/arm-none-eabi/include/c++/10.3.1/bits/stl_algobase.h **** 	  // trivial types can have deleted assignment
 687:/Library/DaisyToolchain/0.2.0/arm/arm-none-eabi/include/c++/10.3.1/bits/stl_algobase.h **** 	  static_assert( __assignable::type::value, "type is not assignable" );
 688:/Library/DaisyToolchain/0.2.0/arm/arm-none-eabi/include/c++/10.3.1/bits/stl_algobase.h **** #endif
 689:/Library/DaisyToolchain/0.2.0/arm/arm-none-eabi/include/c++/10.3.1/bits/stl_algobase.h **** 	  const ptrdiff_t _Num = __last - __first;
 690:/Library/DaisyToolchain/0.2.0/arm/arm-none-eabi/include/c++/10.3.1/bits/stl_algobase.h **** 	  if (_Num)
 691:/Library/DaisyToolchain/0.2.0/arm/arm-none-eabi/include/c++/10.3.1/bits/stl_algobase.h **** 	    __builtin_memmove(__result - _Num, __first, sizeof(_Tp) * _Num);
 692:/Library/DaisyToolchain/0.2.0/arm/arm-none-eabi/include/c++/10.3.1/bits/stl_algobase.h **** 	  return __result - _Num;
 693:/Library/DaisyToolchain/0.2.0/arm/arm-none-eabi/include/c++/10.3.1/bits/stl_algobase.h **** 	}
 694:/Library/DaisyToolchain/0.2.0/arm/arm-none-eabi/include/c++/10.3.1/bits/stl_algobase.h ****     };
 695:/Library/DaisyToolchain/0.2.0/arm/arm-none-eabi/include/c++/10.3.1/bits/stl_algobase.h **** 
 696:/Library/DaisyToolchain/0.2.0/arm/arm-none-eabi/include/c++/10.3.1/bits/stl_algobase.h ****   template<bool _IsMove, typename _BI1, typename _BI2>
 697:/Library/DaisyToolchain/0.2.0/arm/arm-none-eabi/include/c++/10.3.1/bits/stl_algobase.h ****     _GLIBCXX20_CONSTEXPR
 698:/Library/DaisyToolchain/0.2.0/arm/arm-none-eabi/include/c++/10.3.1/bits/stl_algobase.h ****     inline _BI2
 699:/Library/DaisyToolchain/0.2.0/arm/arm-none-eabi/include/c++/10.3.1/bits/stl_algobase.h ****     __copy_move_backward_a2(_BI1 __first, _BI1 __last, _BI2 __result)
 700:/Library/DaisyToolchain/0.2.0/arm/arm-none-eabi/include/c++/10.3.1/bits/stl_algobase.h ****     {
 701:/Library/DaisyToolchain/0.2.0/arm/arm-none-eabi/include/c++/10.3.1/bits/stl_algobase.h ****       typedef typename iterator_traits<_BI1>::iterator_category _Category;
 702:/Library/DaisyToolchain/0.2.0/arm/arm-none-eabi/include/c++/10.3.1/bits/stl_algobase.h **** #ifdef __cpp_lib_is_constant_evaluated
 703:/Library/DaisyToolchain/0.2.0/arm/arm-none-eabi/include/c++/10.3.1/bits/stl_algobase.h ****       if (std::is_constant_evaluated())
 704:/Library/DaisyToolchain/0.2.0/arm/arm-none-eabi/include/c++/10.3.1/bits/stl_algobase.h **** 	return std::__copy_move_backward<_IsMove, false, _Category>::
ARM GAS  /var/folders/9k/zk1mgrrd7wg4__6zvxvr9w8m0000gn/T//ccjjMUN9.s 			page 46


 705:/Library/DaisyToolchain/0.2.0/arm/arm-none-eabi/include/c++/10.3.1/bits/stl_algobase.h **** 	  __copy_move_b(__first, __last, __result);
 706:/Library/DaisyToolchain/0.2.0/arm/arm-none-eabi/include/c++/10.3.1/bits/stl_algobase.h **** #endif
 707:/Library/DaisyToolchain/0.2.0/arm/arm-none-eabi/include/c++/10.3.1/bits/stl_algobase.h ****       return std::__copy_move_backward<_IsMove,
 708:/Library/DaisyToolchain/0.2.0/arm/arm-none-eabi/include/c++/10.3.1/bits/stl_algobase.h **** 				       __memcpyable<_BI2, _BI1>::__value,
 709:/Library/DaisyToolchain/0.2.0/arm/arm-none-eabi/include/c++/10.3.1/bits/stl_algobase.h **** 				       _Category>::__copy_move_b(__first,
 710:/Library/DaisyToolchain/0.2.0/arm/arm-none-eabi/include/c++/10.3.1/bits/stl_algobase.h **** 								 __last,
 711:/Library/DaisyToolchain/0.2.0/arm/arm-none-eabi/include/c++/10.3.1/bits/stl_algobase.h **** 								 __result);
 712:/Library/DaisyToolchain/0.2.0/arm/arm-none-eabi/include/c++/10.3.1/bits/stl_algobase.h ****     }
 713:/Library/DaisyToolchain/0.2.0/arm/arm-none-eabi/include/c++/10.3.1/bits/stl_algobase.h **** 
 714:/Library/DaisyToolchain/0.2.0/arm/arm-none-eabi/include/c++/10.3.1/bits/stl_algobase.h ****   template<bool _IsMove, typename _BI1, typename _BI2>
 715:/Library/DaisyToolchain/0.2.0/arm/arm-none-eabi/include/c++/10.3.1/bits/stl_algobase.h ****     _GLIBCXX20_CONSTEXPR
 716:/Library/DaisyToolchain/0.2.0/arm/arm-none-eabi/include/c++/10.3.1/bits/stl_algobase.h ****     inline _BI2
 717:/Library/DaisyToolchain/0.2.0/arm/arm-none-eabi/include/c++/10.3.1/bits/stl_algobase.h ****     __copy_move_backward_a1(_BI1 __first, _BI1 __last, _BI2 __result)
 718:/Library/DaisyToolchain/0.2.0/arm/arm-none-eabi/include/c++/10.3.1/bits/stl_algobase.h ****     { return std::__copy_move_backward_a2<_IsMove>(__first, __last, __result); }
 719:/Library/DaisyToolchain/0.2.0/arm/arm-none-eabi/include/c++/10.3.1/bits/stl_algobase.h **** 
 720:/Library/DaisyToolchain/0.2.0/arm/arm-none-eabi/include/c++/10.3.1/bits/stl_algobase.h ****   template<bool _IsMove,
 721:/Library/DaisyToolchain/0.2.0/arm/arm-none-eabi/include/c++/10.3.1/bits/stl_algobase.h **** 	   typename _Tp, typename _Ref, typename _Ptr, typename _OI>
 722:/Library/DaisyToolchain/0.2.0/arm/arm-none-eabi/include/c++/10.3.1/bits/stl_algobase.h ****     _OI
 723:/Library/DaisyToolchain/0.2.0/arm/arm-none-eabi/include/c++/10.3.1/bits/stl_algobase.h ****     __copy_move_backward_a1(_GLIBCXX_STD_C::_Deque_iterator<_Tp, _Ref, _Ptr>,
 724:/Library/DaisyToolchain/0.2.0/arm/arm-none-eabi/include/c++/10.3.1/bits/stl_algobase.h **** 			    _GLIBCXX_STD_C::_Deque_iterator<_Tp, _Ref, _Ptr>,
 725:/Library/DaisyToolchain/0.2.0/arm/arm-none-eabi/include/c++/10.3.1/bits/stl_algobase.h **** 			    _OI);
 726:/Library/DaisyToolchain/0.2.0/arm/arm-none-eabi/include/c++/10.3.1/bits/stl_algobase.h **** 
 727:/Library/DaisyToolchain/0.2.0/arm/arm-none-eabi/include/c++/10.3.1/bits/stl_algobase.h ****   template<bool _IsMove,
 728:/Library/DaisyToolchain/0.2.0/arm/arm-none-eabi/include/c++/10.3.1/bits/stl_algobase.h **** 	   typename _ITp, typename _IRef, typename _IPtr, typename _OTp>
 729:/Library/DaisyToolchain/0.2.0/arm/arm-none-eabi/include/c++/10.3.1/bits/stl_algobase.h ****     _GLIBCXX_STD_C::_Deque_iterator<_OTp, _OTp&, _OTp*>
 730:/Library/DaisyToolchain/0.2.0/arm/arm-none-eabi/include/c++/10.3.1/bits/stl_algobase.h ****     __copy_move_backward_a1(
 731:/Library/DaisyToolchain/0.2.0/arm/arm-none-eabi/include/c++/10.3.1/bits/stl_algobase.h **** 			_GLIBCXX_STD_C::_Deque_iterator<_ITp, _IRef, _IPtr>,
 732:/Library/DaisyToolchain/0.2.0/arm/arm-none-eabi/include/c++/10.3.1/bits/stl_algobase.h **** 			_GLIBCXX_STD_C::_Deque_iterator<_ITp, _IRef, _IPtr>,
 733:/Library/DaisyToolchain/0.2.0/arm/arm-none-eabi/include/c++/10.3.1/bits/stl_algobase.h **** 			_GLIBCXX_STD_C::_Deque_iterator<_OTp, _OTp&, _OTp*>);
 734:/Library/DaisyToolchain/0.2.0/arm/arm-none-eabi/include/c++/10.3.1/bits/stl_algobase.h **** 
 735:/Library/DaisyToolchain/0.2.0/arm/arm-none-eabi/include/c++/10.3.1/bits/stl_algobase.h ****   template<bool _IsMove, typename _II, typename _Tp>
 736:/Library/DaisyToolchain/0.2.0/arm/arm-none-eabi/include/c++/10.3.1/bits/stl_algobase.h ****     typename __gnu_cxx::__enable_if<
 737:/Library/DaisyToolchain/0.2.0/arm/arm-none-eabi/include/c++/10.3.1/bits/stl_algobase.h ****       __is_random_access_iter<_II>::__value,
 738:/Library/DaisyToolchain/0.2.0/arm/arm-none-eabi/include/c++/10.3.1/bits/stl_algobase.h ****       _GLIBCXX_STD_C::_Deque_iterator<_Tp, _Tp&, _Tp*> >::__type
 739:/Library/DaisyToolchain/0.2.0/arm/arm-none-eabi/include/c++/10.3.1/bits/stl_algobase.h ****     __copy_move_backward_a1(_II, _II,
 740:/Library/DaisyToolchain/0.2.0/arm/arm-none-eabi/include/c++/10.3.1/bits/stl_algobase.h **** 			    _GLIBCXX_STD_C::_Deque_iterator<_Tp, _Tp&, _Tp*>);
 741:/Library/DaisyToolchain/0.2.0/arm/arm-none-eabi/include/c++/10.3.1/bits/stl_algobase.h **** 
 742:/Library/DaisyToolchain/0.2.0/arm/arm-none-eabi/include/c++/10.3.1/bits/stl_algobase.h ****   template<bool _IsMove, typename _II, typename _OI>
 743:/Library/DaisyToolchain/0.2.0/arm/arm-none-eabi/include/c++/10.3.1/bits/stl_algobase.h ****     _GLIBCXX20_CONSTEXPR
 744:/Library/DaisyToolchain/0.2.0/arm/arm-none-eabi/include/c++/10.3.1/bits/stl_algobase.h ****     inline _OI
 745:/Library/DaisyToolchain/0.2.0/arm/arm-none-eabi/include/c++/10.3.1/bits/stl_algobase.h ****     __copy_move_backward_a(_II __first, _II __last, _OI __result)
 746:/Library/DaisyToolchain/0.2.0/arm/arm-none-eabi/include/c++/10.3.1/bits/stl_algobase.h ****     {
 747:/Library/DaisyToolchain/0.2.0/arm/arm-none-eabi/include/c++/10.3.1/bits/stl_algobase.h ****       return std::__niter_wrap(__result,
 748:/Library/DaisyToolchain/0.2.0/arm/arm-none-eabi/include/c++/10.3.1/bits/stl_algobase.h **** 		std::__copy_move_backward_a1<_IsMove>
 749:/Library/DaisyToolchain/0.2.0/arm/arm-none-eabi/include/c++/10.3.1/bits/stl_algobase.h **** 		  (std::__niter_base(__first), std::__niter_base(__last),
 750:/Library/DaisyToolchain/0.2.0/arm/arm-none-eabi/include/c++/10.3.1/bits/stl_algobase.h **** 		   std::__niter_base(__result)));
 751:/Library/DaisyToolchain/0.2.0/arm/arm-none-eabi/include/c++/10.3.1/bits/stl_algobase.h ****     }
 752:/Library/DaisyToolchain/0.2.0/arm/arm-none-eabi/include/c++/10.3.1/bits/stl_algobase.h **** 
 753:/Library/DaisyToolchain/0.2.0/arm/arm-none-eabi/include/c++/10.3.1/bits/stl_algobase.h ****   template<bool _IsMove,
 754:/Library/DaisyToolchain/0.2.0/arm/arm-none-eabi/include/c++/10.3.1/bits/stl_algobase.h **** 	   typename _Ite, typename _Seq, typename _Cat, typename _OI>
 755:/Library/DaisyToolchain/0.2.0/arm/arm-none-eabi/include/c++/10.3.1/bits/stl_algobase.h ****     _OI
 756:/Library/DaisyToolchain/0.2.0/arm/arm-none-eabi/include/c++/10.3.1/bits/stl_algobase.h ****     __copy_move_backward_a(
 757:/Library/DaisyToolchain/0.2.0/arm/arm-none-eabi/include/c++/10.3.1/bits/stl_algobase.h **** 		const ::__gnu_debug::_Safe_iterator<_Ite, _Seq, _Cat>&,
 758:/Library/DaisyToolchain/0.2.0/arm/arm-none-eabi/include/c++/10.3.1/bits/stl_algobase.h **** 		const ::__gnu_debug::_Safe_iterator<_Ite, _Seq, _Cat>&,
 759:/Library/DaisyToolchain/0.2.0/arm/arm-none-eabi/include/c++/10.3.1/bits/stl_algobase.h **** 		_OI);
 760:/Library/DaisyToolchain/0.2.0/arm/arm-none-eabi/include/c++/10.3.1/bits/stl_algobase.h **** 
 761:/Library/DaisyToolchain/0.2.0/arm/arm-none-eabi/include/c++/10.3.1/bits/stl_algobase.h ****   template<bool _IsMove,
ARM GAS  /var/folders/9k/zk1mgrrd7wg4__6zvxvr9w8m0000gn/T//ccjjMUN9.s 			page 47


 762:/Library/DaisyToolchain/0.2.0/arm/arm-none-eabi/include/c++/10.3.1/bits/stl_algobase.h **** 	   typename _II, typename _Ite, typename _Seq, typename _Cat>
 763:/Library/DaisyToolchain/0.2.0/arm/arm-none-eabi/include/c++/10.3.1/bits/stl_algobase.h ****     __gnu_debug::_Safe_iterator<_Ite, _Seq, _Cat>
 764:/Library/DaisyToolchain/0.2.0/arm/arm-none-eabi/include/c++/10.3.1/bits/stl_algobase.h ****     __copy_move_backward_a(_II, _II,
 765:/Library/DaisyToolchain/0.2.0/arm/arm-none-eabi/include/c++/10.3.1/bits/stl_algobase.h **** 		const ::__gnu_debug::_Safe_iterator<_Ite, _Seq, _Cat>&);
 766:/Library/DaisyToolchain/0.2.0/arm/arm-none-eabi/include/c++/10.3.1/bits/stl_algobase.h **** 
 767:/Library/DaisyToolchain/0.2.0/arm/arm-none-eabi/include/c++/10.3.1/bits/stl_algobase.h ****   template<bool _IsMove,
 768:/Library/DaisyToolchain/0.2.0/arm/arm-none-eabi/include/c++/10.3.1/bits/stl_algobase.h **** 	   typename _IIte, typename _ISeq, typename _ICat,
 769:/Library/DaisyToolchain/0.2.0/arm/arm-none-eabi/include/c++/10.3.1/bits/stl_algobase.h **** 	   typename _OIte, typename _OSeq, typename _OCat>
 770:/Library/DaisyToolchain/0.2.0/arm/arm-none-eabi/include/c++/10.3.1/bits/stl_algobase.h ****     ::__gnu_debug::_Safe_iterator<_OIte, _OSeq, _OCat>
 771:/Library/DaisyToolchain/0.2.0/arm/arm-none-eabi/include/c++/10.3.1/bits/stl_algobase.h ****     __copy_move_backward_a(
 772:/Library/DaisyToolchain/0.2.0/arm/arm-none-eabi/include/c++/10.3.1/bits/stl_algobase.h **** 		const ::__gnu_debug::_Safe_iterator<_IIte, _ISeq, _ICat>&,
 773:/Library/DaisyToolchain/0.2.0/arm/arm-none-eabi/include/c++/10.3.1/bits/stl_algobase.h **** 		const ::__gnu_debug::_Safe_iterator<_IIte, _ISeq, _ICat>&,
 774:/Library/DaisyToolchain/0.2.0/arm/arm-none-eabi/include/c++/10.3.1/bits/stl_algobase.h **** 		const ::__gnu_debug::_Safe_iterator<_OIte, _OSeq, _OCat>&);
 775:/Library/DaisyToolchain/0.2.0/arm/arm-none-eabi/include/c++/10.3.1/bits/stl_algobase.h **** 
 776:/Library/DaisyToolchain/0.2.0/arm/arm-none-eabi/include/c++/10.3.1/bits/stl_algobase.h ****   /**
 777:/Library/DaisyToolchain/0.2.0/arm/arm-none-eabi/include/c++/10.3.1/bits/stl_algobase.h ****    *  @brief Copies the range [first,last) into result.
 778:/Library/DaisyToolchain/0.2.0/arm/arm-none-eabi/include/c++/10.3.1/bits/stl_algobase.h ****    *  @ingroup mutating_algorithms
 779:/Library/DaisyToolchain/0.2.0/arm/arm-none-eabi/include/c++/10.3.1/bits/stl_algobase.h ****    *  @param  __first  A bidirectional iterator.
 780:/Library/DaisyToolchain/0.2.0/arm/arm-none-eabi/include/c++/10.3.1/bits/stl_algobase.h ****    *  @param  __last   A bidirectional iterator.
 781:/Library/DaisyToolchain/0.2.0/arm/arm-none-eabi/include/c++/10.3.1/bits/stl_algobase.h ****    *  @param  __result A bidirectional iterator.
 782:/Library/DaisyToolchain/0.2.0/arm/arm-none-eabi/include/c++/10.3.1/bits/stl_algobase.h ****    *  @return   result - (last - first)
 783:/Library/DaisyToolchain/0.2.0/arm/arm-none-eabi/include/c++/10.3.1/bits/stl_algobase.h ****    *
 784:/Library/DaisyToolchain/0.2.0/arm/arm-none-eabi/include/c++/10.3.1/bits/stl_algobase.h ****    *  The function has the same effect as copy, but starts at the end of the
 785:/Library/DaisyToolchain/0.2.0/arm/arm-none-eabi/include/c++/10.3.1/bits/stl_algobase.h ****    *  range and works its way to the start, returning the start of the result.
 786:/Library/DaisyToolchain/0.2.0/arm/arm-none-eabi/include/c++/10.3.1/bits/stl_algobase.h ****    *  This inline function will boil down to a call to @c memmove whenever
 787:/Library/DaisyToolchain/0.2.0/arm/arm-none-eabi/include/c++/10.3.1/bits/stl_algobase.h ****    *  possible.  Failing that, if random access iterators are passed, then the
 788:/Library/DaisyToolchain/0.2.0/arm/arm-none-eabi/include/c++/10.3.1/bits/stl_algobase.h ****    *  loop count will be known (and therefore a candidate for compiler
 789:/Library/DaisyToolchain/0.2.0/arm/arm-none-eabi/include/c++/10.3.1/bits/stl_algobase.h ****    *  optimizations such as unrolling).
 790:/Library/DaisyToolchain/0.2.0/arm/arm-none-eabi/include/c++/10.3.1/bits/stl_algobase.h ****    *
 791:/Library/DaisyToolchain/0.2.0/arm/arm-none-eabi/include/c++/10.3.1/bits/stl_algobase.h ****    *  Result may not be in the range (first,last].  Use copy instead.  Note
 792:/Library/DaisyToolchain/0.2.0/arm/arm-none-eabi/include/c++/10.3.1/bits/stl_algobase.h ****    *  that the start of the output range may overlap [first,last).
 793:/Library/DaisyToolchain/0.2.0/arm/arm-none-eabi/include/c++/10.3.1/bits/stl_algobase.h ****   */
 794:/Library/DaisyToolchain/0.2.0/arm/arm-none-eabi/include/c++/10.3.1/bits/stl_algobase.h ****   template<typename _BI1, typename _BI2>
 795:/Library/DaisyToolchain/0.2.0/arm/arm-none-eabi/include/c++/10.3.1/bits/stl_algobase.h ****     _GLIBCXX20_CONSTEXPR
 796:/Library/DaisyToolchain/0.2.0/arm/arm-none-eabi/include/c++/10.3.1/bits/stl_algobase.h ****     inline _BI2
 797:/Library/DaisyToolchain/0.2.0/arm/arm-none-eabi/include/c++/10.3.1/bits/stl_algobase.h ****     copy_backward(_BI1 __first, _BI1 __last, _BI2 __result)
 798:/Library/DaisyToolchain/0.2.0/arm/arm-none-eabi/include/c++/10.3.1/bits/stl_algobase.h ****     {
 799:/Library/DaisyToolchain/0.2.0/arm/arm-none-eabi/include/c++/10.3.1/bits/stl_algobase.h ****       // concept requirements
 800:/Library/DaisyToolchain/0.2.0/arm/arm-none-eabi/include/c++/10.3.1/bits/stl_algobase.h ****       __glibcxx_function_requires(_BidirectionalIteratorConcept<_BI1>)
 801:/Library/DaisyToolchain/0.2.0/arm/arm-none-eabi/include/c++/10.3.1/bits/stl_algobase.h ****       __glibcxx_function_requires(_Mutable_BidirectionalIteratorConcept<_BI2>)
 802:/Library/DaisyToolchain/0.2.0/arm/arm-none-eabi/include/c++/10.3.1/bits/stl_algobase.h ****       __glibcxx_function_requires(_ConvertibleConcept<
 803:/Library/DaisyToolchain/0.2.0/arm/arm-none-eabi/include/c++/10.3.1/bits/stl_algobase.h **** 	    typename iterator_traits<_BI1>::value_type,
 804:/Library/DaisyToolchain/0.2.0/arm/arm-none-eabi/include/c++/10.3.1/bits/stl_algobase.h **** 	    typename iterator_traits<_BI2>::value_type>)
 805:/Library/DaisyToolchain/0.2.0/arm/arm-none-eabi/include/c++/10.3.1/bits/stl_algobase.h ****       __glibcxx_requires_can_decrement_range(__first, __last, __result);
 806:/Library/DaisyToolchain/0.2.0/arm/arm-none-eabi/include/c++/10.3.1/bits/stl_algobase.h **** 
 807:/Library/DaisyToolchain/0.2.0/arm/arm-none-eabi/include/c++/10.3.1/bits/stl_algobase.h ****       return std::__copy_move_backward_a<__is_move_iterator<_BI1>::__value>
 808:/Library/DaisyToolchain/0.2.0/arm/arm-none-eabi/include/c++/10.3.1/bits/stl_algobase.h **** 	     (std::__miter_base(__first), std::__miter_base(__last), __result);
 809:/Library/DaisyToolchain/0.2.0/arm/arm-none-eabi/include/c++/10.3.1/bits/stl_algobase.h ****     }
 810:/Library/DaisyToolchain/0.2.0/arm/arm-none-eabi/include/c++/10.3.1/bits/stl_algobase.h **** 
 811:/Library/DaisyToolchain/0.2.0/arm/arm-none-eabi/include/c++/10.3.1/bits/stl_algobase.h **** #if __cplusplus >= 201103L
 812:/Library/DaisyToolchain/0.2.0/arm/arm-none-eabi/include/c++/10.3.1/bits/stl_algobase.h ****   /**
 813:/Library/DaisyToolchain/0.2.0/arm/arm-none-eabi/include/c++/10.3.1/bits/stl_algobase.h ****    *  @brief Moves the range [first,last) into result.
 814:/Library/DaisyToolchain/0.2.0/arm/arm-none-eabi/include/c++/10.3.1/bits/stl_algobase.h ****    *  @ingroup mutating_algorithms
 815:/Library/DaisyToolchain/0.2.0/arm/arm-none-eabi/include/c++/10.3.1/bits/stl_algobase.h ****    *  @param  __first  A bidirectional iterator.
 816:/Library/DaisyToolchain/0.2.0/arm/arm-none-eabi/include/c++/10.3.1/bits/stl_algobase.h ****    *  @param  __last   A bidirectional iterator.
 817:/Library/DaisyToolchain/0.2.0/arm/arm-none-eabi/include/c++/10.3.1/bits/stl_algobase.h ****    *  @param  __result A bidirectional iterator.
 818:/Library/DaisyToolchain/0.2.0/arm/arm-none-eabi/include/c++/10.3.1/bits/stl_algobase.h ****    *  @return   result - (last - first)
ARM GAS  /var/folders/9k/zk1mgrrd7wg4__6zvxvr9w8m0000gn/T//ccjjMUN9.s 			page 48


 819:/Library/DaisyToolchain/0.2.0/arm/arm-none-eabi/include/c++/10.3.1/bits/stl_algobase.h ****    *
 820:/Library/DaisyToolchain/0.2.0/arm/arm-none-eabi/include/c++/10.3.1/bits/stl_algobase.h ****    *  The function has the same effect as move, but starts at the end of the
 821:/Library/DaisyToolchain/0.2.0/arm/arm-none-eabi/include/c++/10.3.1/bits/stl_algobase.h ****    *  range and works its way to the start, returning the start of the result.
 822:/Library/DaisyToolchain/0.2.0/arm/arm-none-eabi/include/c++/10.3.1/bits/stl_algobase.h ****    *  This inline function will boil down to a call to @c memmove whenever
 823:/Library/DaisyToolchain/0.2.0/arm/arm-none-eabi/include/c++/10.3.1/bits/stl_algobase.h ****    *  possible.  Failing that, if random access iterators are passed, then the
 824:/Library/DaisyToolchain/0.2.0/arm/arm-none-eabi/include/c++/10.3.1/bits/stl_algobase.h ****    *  loop count will be known (and therefore a candidate for compiler
 825:/Library/DaisyToolchain/0.2.0/arm/arm-none-eabi/include/c++/10.3.1/bits/stl_algobase.h ****    *  optimizations such as unrolling).
 826:/Library/DaisyToolchain/0.2.0/arm/arm-none-eabi/include/c++/10.3.1/bits/stl_algobase.h ****    *
 827:/Library/DaisyToolchain/0.2.0/arm/arm-none-eabi/include/c++/10.3.1/bits/stl_algobase.h ****    *  Result may not be in the range (first,last].  Use move instead.  Note
 828:/Library/DaisyToolchain/0.2.0/arm/arm-none-eabi/include/c++/10.3.1/bits/stl_algobase.h ****    *  that the start of the output range may overlap [first,last).
 829:/Library/DaisyToolchain/0.2.0/arm/arm-none-eabi/include/c++/10.3.1/bits/stl_algobase.h ****   */
 830:/Library/DaisyToolchain/0.2.0/arm/arm-none-eabi/include/c++/10.3.1/bits/stl_algobase.h ****   template<typename _BI1, typename _BI2>
 831:/Library/DaisyToolchain/0.2.0/arm/arm-none-eabi/include/c++/10.3.1/bits/stl_algobase.h ****     _GLIBCXX20_CONSTEXPR
 832:/Library/DaisyToolchain/0.2.0/arm/arm-none-eabi/include/c++/10.3.1/bits/stl_algobase.h ****     inline _BI2
 833:/Library/DaisyToolchain/0.2.0/arm/arm-none-eabi/include/c++/10.3.1/bits/stl_algobase.h ****     move_backward(_BI1 __first, _BI1 __last, _BI2 __result)
 834:/Library/DaisyToolchain/0.2.0/arm/arm-none-eabi/include/c++/10.3.1/bits/stl_algobase.h ****     {
 835:/Library/DaisyToolchain/0.2.0/arm/arm-none-eabi/include/c++/10.3.1/bits/stl_algobase.h ****       // concept requirements
 836:/Library/DaisyToolchain/0.2.0/arm/arm-none-eabi/include/c++/10.3.1/bits/stl_algobase.h ****       __glibcxx_function_requires(_BidirectionalIteratorConcept<_BI1>)
 837:/Library/DaisyToolchain/0.2.0/arm/arm-none-eabi/include/c++/10.3.1/bits/stl_algobase.h ****       __glibcxx_function_requires(_Mutable_BidirectionalIteratorConcept<_BI2>)
 838:/Library/DaisyToolchain/0.2.0/arm/arm-none-eabi/include/c++/10.3.1/bits/stl_algobase.h ****       __glibcxx_function_requires(_ConvertibleConcept<
 839:/Library/DaisyToolchain/0.2.0/arm/arm-none-eabi/include/c++/10.3.1/bits/stl_algobase.h **** 	    typename iterator_traits<_BI1>::value_type,
 840:/Library/DaisyToolchain/0.2.0/arm/arm-none-eabi/include/c++/10.3.1/bits/stl_algobase.h **** 	    typename iterator_traits<_BI2>::value_type>)
 841:/Library/DaisyToolchain/0.2.0/arm/arm-none-eabi/include/c++/10.3.1/bits/stl_algobase.h ****       __glibcxx_requires_can_decrement_range(__first, __last, __result);
 842:/Library/DaisyToolchain/0.2.0/arm/arm-none-eabi/include/c++/10.3.1/bits/stl_algobase.h **** 
 843:/Library/DaisyToolchain/0.2.0/arm/arm-none-eabi/include/c++/10.3.1/bits/stl_algobase.h ****       return std::__copy_move_backward_a<true>(std::__miter_base(__first),
 844:/Library/DaisyToolchain/0.2.0/arm/arm-none-eabi/include/c++/10.3.1/bits/stl_algobase.h **** 					       std::__miter_base(__last),
 845:/Library/DaisyToolchain/0.2.0/arm/arm-none-eabi/include/c++/10.3.1/bits/stl_algobase.h **** 					       __result);
 846:/Library/DaisyToolchain/0.2.0/arm/arm-none-eabi/include/c++/10.3.1/bits/stl_algobase.h ****     }
 847:/Library/DaisyToolchain/0.2.0/arm/arm-none-eabi/include/c++/10.3.1/bits/stl_algobase.h **** 
 848:/Library/DaisyToolchain/0.2.0/arm/arm-none-eabi/include/c++/10.3.1/bits/stl_algobase.h **** #define _GLIBCXX_MOVE_BACKWARD3(_Tp, _Up, _Vp) std::move_backward(_Tp, _Up, _Vp)
 849:/Library/DaisyToolchain/0.2.0/arm/arm-none-eabi/include/c++/10.3.1/bits/stl_algobase.h **** #else
 850:/Library/DaisyToolchain/0.2.0/arm/arm-none-eabi/include/c++/10.3.1/bits/stl_algobase.h **** #define _GLIBCXX_MOVE_BACKWARD3(_Tp, _Up, _Vp) std::copy_backward(_Tp, _Up, _Vp)
 851:/Library/DaisyToolchain/0.2.0/arm/arm-none-eabi/include/c++/10.3.1/bits/stl_algobase.h **** #endif
 852:/Library/DaisyToolchain/0.2.0/arm/arm-none-eabi/include/c++/10.3.1/bits/stl_algobase.h **** 
 853:/Library/DaisyToolchain/0.2.0/arm/arm-none-eabi/include/c++/10.3.1/bits/stl_algobase.h ****   template<typename _ForwardIterator, typename _Tp>
 854:/Library/DaisyToolchain/0.2.0/arm/arm-none-eabi/include/c++/10.3.1/bits/stl_algobase.h ****     _GLIBCXX20_CONSTEXPR
 855:/Library/DaisyToolchain/0.2.0/arm/arm-none-eabi/include/c++/10.3.1/bits/stl_algobase.h ****     inline typename
 856:/Library/DaisyToolchain/0.2.0/arm/arm-none-eabi/include/c++/10.3.1/bits/stl_algobase.h ****     __gnu_cxx::__enable_if<!__is_scalar<_Tp>::__value, void>::__type
 857:/Library/DaisyToolchain/0.2.0/arm/arm-none-eabi/include/c++/10.3.1/bits/stl_algobase.h ****     __fill_a1(_ForwardIterator __first, _ForwardIterator __last,
 858:/Library/DaisyToolchain/0.2.0/arm/arm-none-eabi/include/c++/10.3.1/bits/stl_algobase.h **** 	      const _Tp& __value)
 859:/Library/DaisyToolchain/0.2.0/arm/arm-none-eabi/include/c++/10.3.1/bits/stl_algobase.h ****     {
 860:/Library/DaisyToolchain/0.2.0/arm/arm-none-eabi/include/c++/10.3.1/bits/stl_algobase.h ****       for (; __first != __last; ++__first)
 861:/Library/DaisyToolchain/0.2.0/arm/arm-none-eabi/include/c++/10.3.1/bits/stl_algobase.h **** 	*__first = __value;
 862:/Library/DaisyToolchain/0.2.0/arm/arm-none-eabi/include/c++/10.3.1/bits/stl_algobase.h ****     }
 863:/Library/DaisyToolchain/0.2.0/arm/arm-none-eabi/include/c++/10.3.1/bits/stl_algobase.h **** 
 864:/Library/DaisyToolchain/0.2.0/arm/arm-none-eabi/include/c++/10.3.1/bits/stl_algobase.h ****   template<typename _ForwardIterator, typename _Tp>
 865:/Library/DaisyToolchain/0.2.0/arm/arm-none-eabi/include/c++/10.3.1/bits/stl_algobase.h ****     _GLIBCXX20_CONSTEXPR
 866:/Library/DaisyToolchain/0.2.0/arm/arm-none-eabi/include/c++/10.3.1/bits/stl_algobase.h ****     inline typename
 867:/Library/DaisyToolchain/0.2.0/arm/arm-none-eabi/include/c++/10.3.1/bits/stl_algobase.h ****     __gnu_cxx::__enable_if<__is_scalar<_Tp>::__value, void>::__type
 868:/Library/DaisyToolchain/0.2.0/arm/arm-none-eabi/include/c++/10.3.1/bits/stl_algobase.h ****     __fill_a1(_ForwardIterator __first, _ForwardIterator __last,
 869:/Library/DaisyToolchain/0.2.0/arm/arm-none-eabi/include/c++/10.3.1/bits/stl_algobase.h **** 	      const _Tp& __value)
 870:/Library/DaisyToolchain/0.2.0/arm/arm-none-eabi/include/c++/10.3.1/bits/stl_algobase.h ****     {
 871:/Library/DaisyToolchain/0.2.0/arm/arm-none-eabi/include/c++/10.3.1/bits/stl_algobase.h ****       const _Tp __tmp = __value;
 872:/Library/DaisyToolchain/0.2.0/arm/arm-none-eabi/include/c++/10.3.1/bits/stl_algobase.h ****       for (; __first != __last; ++__first)
 873:/Library/DaisyToolchain/0.2.0/arm/arm-none-eabi/include/c++/10.3.1/bits/stl_algobase.h **** 	*__first = __tmp;
 1085              		.loc 8 873 11 view .LVU270
 1086 0234 0023     		movs	r3, #0
ARM GAS  /var/folders/9k/zk1mgrrd7wg4__6zvxvr9w8m0000gn/T//ccjjMUN9.s 			page 49


 1087              	.LBE441:
 1088              	.LBE440:
 1089              	.LBE439:
 1090              	.LBE438:
 1091              		.loc 3 115 29 view .LVU271
 1092 0236 F0EE005A 		vmov.f32	s11, #2.0e+0
 113:mi/plaits/dsp/drums/analog_snare_drum.h ****       gain[0] = 1.5f + (1.0f - tone) * (1.0f - tone) * 4.5f;
 1093              		.loc 3 113 12 view .LVU272
 1094 023a 21EE271A 		vmul.f32	s2, s2, s15
 1095              	.LVL33:
 114:mi/plaits/dsp/drums/analog_snare_drum.h ****       gain[0] = 1.5f + (1.0f - tone) * (1.0f - tone) * 4.5f;
 1096              		.loc 3 114 7 is_stmt 1 view .LVU273
 1097              	.LBB448:
 1098              	.LBB446:
 1099              	.LBB444:
 1100              	.LBB442:
 1101              		.loc 8 873 11 is_stmt 0 view .LVU274
 1102 023e 0793     		str	r3, [sp, #28]	@ float
 1103 0240 0893     		str	r3, [sp, #32]	@ float
 1104 0242 0993     		str	r3, [sp, #36]	@ float
 1105              	.LBE442:
 1106              	.LBE444:
 1107              	.LBE446:
 1108              	.LBE448:
 114:mi/plaits/dsp/drums/analog_snare_drum.h ****       gain[0] = 1.5f + (1.0f - tone) * (1.0f - tone) * 4.5f;
 1109              		.loc 3 114 30 view .LVU275
 1110 0244 76EEC16A 		vsub.f32	s13, s13, s2
 1111              	.LVL34:
 1112              		.loc 3 115 29 view .LVU276
 1113 0248 A1EE257A 		vfma.f32	s14, s2, s11
 114:mi/plaits/dsp/drums/analog_snare_drum.h ****       gain[0] = 1.5f + (1.0f - tone) * (1.0f - tone) * 4.5f;
 1114              		.loc 3 114 38 view .LVU277
 1115 024c 66EEA66A 		vmul.f32	s13, s13, s13
 114:mi/plaits/dsp/drums/analog_snare_drum.h ****       gain[0] = 1.5f + (1.0f - tone) * (1.0f - tone) * 4.5f;
 1116              		.loc 3 114 22 view .LVU278
 1117 0250 E6EE867A 		vfma.f32	s15, s13, s12
 1118              		.loc 3 115 15 view .LVU279
 1119 0254 8DED067A 		vstr.32	s14, [sp, #24]
 114:mi/plaits/dsp/drums/analog_snare_drum.h ****       gain[0] = 1.5f + (1.0f - tone) * (1.0f - tone) * 4.5f;
 1120              		.loc 3 114 15 view .LVU280
 1121 0258 CDED057A 		vstr.32	s15, [sp, #20]
 1122              		.loc 3 115 7 is_stmt 1 view .LVU281
 116:mi/plaits/dsp/drums/analog_snare_drum.h ****       std::fill(&gain[2], &gain[kNumModes], 0.0f);
 1123              		.loc 3 116 7 view .LVU282
 1124              	.LVL35:
 1125              	.LBB449:
 1126              	.LBI438:
 874:/Library/DaisyToolchain/0.2.0/arm/arm-none-eabi/include/c++/10.3.1/bits/stl_algobase.h ****     }
 875:/Library/DaisyToolchain/0.2.0/arm/arm-none-eabi/include/c++/10.3.1/bits/stl_algobase.h **** 
 876:/Library/DaisyToolchain/0.2.0/arm/arm-none-eabi/include/c++/10.3.1/bits/stl_algobase.h ****   // Specialization: for char types we can use memset.
 877:/Library/DaisyToolchain/0.2.0/arm/arm-none-eabi/include/c++/10.3.1/bits/stl_algobase.h ****   template<typename _Tp>
 878:/Library/DaisyToolchain/0.2.0/arm/arm-none-eabi/include/c++/10.3.1/bits/stl_algobase.h ****     _GLIBCXX20_CONSTEXPR
 879:/Library/DaisyToolchain/0.2.0/arm/arm-none-eabi/include/c++/10.3.1/bits/stl_algobase.h ****     inline typename
 880:/Library/DaisyToolchain/0.2.0/arm/arm-none-eabi/include/c++/10.3.1/bits/stl_algobase.h ****     __gnu_cxx::__enable_if<__is_byte<_Tp>::__value, void>::__type
 881:/Library/DaisyToolchain/0.2.0/arm/arm-none-eabi/include/c++/10.3.1/bits/stl_algobase.h ****     __fill_a1(_Tp* __first, _Tp* __last, const _Tp& __c)
 882:/Library/DaisyToolchain/0.2.0/arm/arm-none-eabi/include/c++/10.3.1/bits/stl_algobase.h ****     {
 883:/Library/DaisyToolchain/0.2.0/arm/arm-none-eabi/include/c++/10.3.1/bits/stl_algobase.h ****       const _Tp __tmp = __c;
ARM GAS  /var/folders/9k/zk1mgrrd7wg4__6zvxvr9w8m0000gn/T//ccjjMUN9.s 			page 50


 884:/Library/DaisyToolchain/0.2.0/arm/arm-none-eabi/include/c++/10.3.1/bits/stl_algobase.h **** #if __cpp_lib_is_constant_evaluated
 885:/Library/DaisyToolchain/0.2.0/arm/arm-none-eabi/include/c++/10.3.1/bits/stl_algobase.h ****       if (std::is_constant_evaluated())
 886:/Library/DaisyToolchain/0.2.0/arm/arm-none-eabi/include/c++/10.3.1/bits/stl_algobase.h **** 	{
 887:/Library/DaisyToolchain/0.2.0/arm/arm-none-eabi/include/c++/10.3.1/bits/stl_algobase.h **** 	  for (; __first != __last; ++__first)
 888:/Library/DaisyToolchain/0.2.0/arm/arm-none-eabi/include/c++/10.3.1/bits/stl_algobase.h **** 	    *__first = __tmp;
 889:/Library/DaisyToolchain/0.2.0/arm/arm-none-eabi/include/c++/10.3.1/bits/stl_algobase.h **** 	  return;
 890:/Library/DaisyToolchain/0.2.0/arm/arm-none-eabi/include/c++/10.3.1/bits/stl_algobase.h **** 	}
 891:/Library/DaisyToolchain/0.2.0/arm/arm-none-eabi/include/c++/10.3.1/bits/stl_algobase.h **** #endif
 892:/Library/DaisyToolchain/0.2.0/arm/arm-none-eabi/include/c++/10.3.1/bits/stl_algobase.h ****       if (const size_t __len = __last - __first)
 893:/Library/DaisyToolchain/0.2.0/arm/arm-none-eabi/include/c++/10.3.1/bits/stl_algobase.h **** 	__builtin_memset(__first, static_cast<unsigned char>(__tmp), __len);
 894:/Library/DaisyToolchain/0.2.0/arm/arm-none-eabi/include/c++/10.3.1/bits/stl_algobase.h ****     }
 895:/Library/DaisyToolchain/0.2.0/arm/arm-none-eabi/include/c++/10.3.1/bits/stl_algobase.h **** 
 896:/Library/DaisyToolchain/0.2.0/arm/arm-none-eabi/include/c++/10.3.1/bits/stl_algobase.h ****   template<typename _Ite, typename _Cont, typename _Tp>
 897:/Library/DaisyToolchain/0.2.0/arm/arm-none-eabi/include/c++/10.3.1/bits/stl_algobase.h ****     _GLIBCXX20_CONSTEXPR
 898:/Library/DaisyToolchain/0.2.0/arm/arm-none-eabi/include/c++/10.3.1/bits/stl_algobase.h ****     inline void
 899:/Library/DaisyToolchain/0.2.0/arm/arm-none-eabi/include/c++/10.3.1/bits/stl_algobase.h ****     __fill_a1(::__gnu_cxx::__normal_iterator<_Ite, _Cont> __first,
 900:/Library/DaisyToolchain/0.2.0/arm/arm-none-eabi/include/c++/10.3.1/bits/stl_algobase.h **** 	      ::__gnu_cxx::__normal_iterator<_Ite, _Cont> __last,
 901:/Library/DaisyToolchain/0.2.0/arm/arm-none-eabi/include/c++/10.3.1/bits/stl_algobase.h **** 	      const _Tp& __value)
 902:/Library/DaisyToolchain/0.2.0/arm/arm-none-eabi/include/c++/10.3.1/bits/stl_algobase.h ****     { std::__fill_a1(__first.base(), __last.base(), __value); }
 903:/Library/DaisyToolchain/0.2.0/arm/arm-none-eabi/include/c++/10.3.1/bits/stl_algobase.h **** 
 904:/Library/DaisyToolchain/0.2.0/arm/arm-none-eabi/include/c++/10.3.1/bits/stl_algobase.h ****   template<typename _Tp, typename _VTp>
 905:/Library/DaisyToolchain/0.2.0/arm/arm-none-eabi/include/c++/10.3.1/bits/stl_algobase.h ****     void
 906:/Library/DaisyToolchain/0.2.0/arm/arm-none-eabi/include/c++/10.3.1/bits/stl_algobase.h ****     __fill_a1(const _GLIBCXX_STD_C::_Deque_iterator<_Tp, _Tp&, _Tp*>&,
 907:/Library/DaisyToolchain/0.2.0/arm/arm-none-eabi/include/c++/10.3.1/bits/stl_algobase.h **** 	      const _GLIBCXX_STD_C::_Deque_iterator<_Tp, _Tp&, _Tp*>&,
 908:/Library/DaisyToolchain/0.2.0/arm/arm-none-eabi/include/c++/10.3.1/bits/stl_algobase.h **** 	      const _VTp&);
 909:/Library/DaisyToolchain/0.2.0/arm/arm-none-eabi/include/c++/10.3.1/bits/stl_algobase.h **** 
 910:/Library/DaisyToolchain/0.2.0/arm/arm-none-eabi/include/c++/10.3.1/bits/stl_algobase.h ****   template<typename _FIte, typename _Tp>
 911:/Library/DaisyToolchain/0.2.0/arm/arm-none-eabi/include/c++/10.3.1/bits/stl_algobase.h ****     _GLIBCXX20_CONSTEXPR
 912:/Library/DaisyToolchain/0.2.0/arm/arm-none-eabi/include/c++/10.3.1/bits/stl_algobase.h ****     inline void
 913:/Library/DaisyToolchain/0.2.0/arm/arm-none-eabi/include/c++/10.3.1/bits/stl_algobase.h ****     __fill_a(_FIte __first, _FIte __last, const _Tp& __value)
 914:/Library/DaisyToolchain/0.2.0/arm/arm-none-eabi/include/c++/10.3.1/bits/stl_algobase.h ****     { std::__fill_a1(__first, __last, __value); }
 915:/Library/DaisyToolchain/0.2.0/arm/arm-none-eabi/include/c++/10.3.1/bits/stl_algobase.h **** 
 916:/Library/DaisyToolchain/0.2.0/arm/arm-none-eabi/include/c++/10.3.1/bits/stl_algobase.h ****   template<typename _Ite, typename _Seq, typename _Cat, typename _Tp>
 917:/Library/DaisyToolchain/0.2.0/arm/arm-none-eabi/include/c++/10.3.1/bits/stl_algobase.h ****     void
 918:/Library/DaisyToolchain/0.2.0/arm/arm-none-eabi/include/c++/10.3.1/bits/stl_algobase.h ****     __fill_a(const ::__gnu_debug::_Safe_iterator<_Ite, _Seq, _Cat>&,
 919:/Library/DaisyToolchain/0.2.0/arm/arm-none-eabi/include/c++/10.3.1/bits/stl_algobase.h **** 	     const ::__gnu_debug::_Safe_iterator<_Ite, _Seq, _Cat>&,
 920:/Library/DaisyToolchain/0.2.0/arm/arm-none-eabi/include/c++/10.3.1/bits/stl_algobase.h **** 	     const _Tp&);
 921:/Library/DaisyToolchain/0.2.0/arm/arm-none-eabi/include/c++/10.3.1/bits/stl_algobase.h **** 
 922:/Library/DaisyToolchain/0.2.0/arm/arm-none-eabi/include/c++/10.3.1/bits/stl_algobase.h ****   /**
 923:/Library/DaisyToolchain/0.2.0/arm/arm-none-eabi/include/c++/10.3.1/bits/stl_algobase.h ****    *  @brief Fills the range [first,last) with copies of value.
 924:/Library/DaisyToolchain/0.2.0/arm/arm-none-eabi/include/c++/10.3.1/bits/stl_algobase.h ****    *  @ingroup mutating_algorithms
 925:/Library/DaisyToolchain/0.2.0/arm/arm-none-eabi/include/c++/10.3.1/bits/stl_algobase.h ****    *  @param  __first  A forward iterator.
 926:/Library/DaisyToolchain/0.2.0/arm/arm-none-eabi/include/c++/10.3.1/bits/stl_algobase.h ****    *  @param  __last   A forward iterator.
 927:/Library/DaisyToolchain/0.2.0/arm/arm-none-eabi/include/c++/10.3.1/bits/stl_algobase.h ****    *  @param  __value  A reference-to-const of arbitrary type.
 928:/Library/DaisyToolchain/0.2.0/arm/arm-none-eabi/include/c++/10.3.1/bits/stl_algobase.h ****    *  @return   Nothing.
 929:/Library/DaisyToolchain/0.2.0/arm/arm-none-eabi/include/c++/10.3.1/bits/stl_algobase.h ****    *
 930:/Library/DaisyToolchain/0.2.0/arm/arm-none-eabi/include/c++/10.3.1/bits/stl_algobase.h ****    *  This function fills a range with copies of the same value.  For char
 931:/Library/DaisyToolchain/0.2.0/arm/arm-none-eabi/include/c++/10.3.1/bits/stl_algobase.h ****    *  types filling contiguous areas of memory, this becomes an inline call
 932:/Library/DaisyToolchain/0.2.0/arm/arm-none-eabi/include/c++/10.3.1/bits/stl_algobase.h ****    *  to @c memset or @c wmemset.
 933:/Library/DaisyToolchain/0.2.0/arm/arm-none-eabi/include/c++/10.3.1/bits/stl_algobase.h ****   */
 934:/Library/DaisyToolchain/0.2.0/arm/arm-none-eabi/include/c++/10.3.1/bits/stl_algobase.h ****   template<typename _ForwardIterator, typename _Tp>
 935:/Library/DaisyToolchain/0.2.0/arm/arm-none-eabi/include/c++/10.3.1/bits/stl_algobase.h ****     _GLIBCXX20_CONSTEXPR
 936:/Library/DaisyToolchain/0.2.0/arm/arm-none-eabi/include/c++/10.3.1/bits/stl_algobase.h ****     inline void
 937:/Library/DaisyToolchain/0.2.0/arm/arm-none-eabi/include/c++/10.3.1/bits/stl_algobase.h ****     fill(_ForwardIterator __first, _ForwardIterator __last, const _Tp& __value)
 1127              		.loc 8 937 5 view .LVU283
 1128              	.LBB447:
 1129              	.LBI439:
ARM GAS  /var/folders/9k/zk1mgrrd7wg4__6zvxvr9w8m0000gn/T//ccjjMUN9.s 			page 51


 913:/Library/DaisyToolchain/0.2.0/arm/arm-none-eabi/include/c++/10.3.1/bits/stl_algobase.h ****     { std::__fill_a1(__first, __last, __value); }
 1130              		.loc 8 913 5 view .LVU284
 1131              	.LBB445:
 1132              	.LBI440:
 868:/Library/DaisyToolchain/0.2.0/arm/arm-none-eabi/include/c++/10.3.1/bits/stl_algobase.h **** 	      const _Tp& __value)
 1133              		.loc 8 868 5 view .LVU285
 1134              	.LBB443:
 872:/Library/DaisyToolchain/0.2.0/arm/arm-none-eabi/include/c++/10.3.1/bits/stl_algobase.h **** 	*__first = __tmp;
 1135              		.loc 8 872 22 view .LVU286
 872:/Library/DaisyToolchain/0.2.0/arm/arm-none-eabi/include/c++/10.3.1/bits/stl_algobase.h **** 	*__first = __tmp;
 1136              		.loc 8 872 7 view .LVU287
 872:/Library/DaisyToolchain/0.2.0/arm/arm-none-eabi/include/c++/10.3.1/bits/stl_algobase.h **** 	*__first = __tmp;
 1137              		.loc 8 872 22 view .LVU288
 872:/Library/DaisyToolchain/0.2.0/arm/arm-none-eabi/include/c++/10.3.1/bits/stl_algobase.h **** 	*__first = __tmp;
 1138              		.loc 8 872 7 view .LVU289
 872:/Library/DaisyToolchain/0.2.0/arm/arm-none-eabi/include/c++/10.3.1/bits/stl_algobase.h **** 	*__first = __tmp;
 1139              		.loc 8 872 22 view .LVU290
 872:/Library/DaisyToolchain/0.2.0/arm/arm-none-eabi/include/c++/10.3.1/bits/stl_algobase.h **** 	*__first = __tmp;
 1140              		.loc 8 872 7 view .LVU291
 872:/Library/DaisyToolchain/0.2.0/arm/arm-none-eabi/include/c++/10.3.1/bits/stl_algobase.h **** 	*__first = __tmp;
 1141              		.loc 8 872 22 view .LVU292
 1142              	.L20:
 872:/Library/DaisyToolchain/0.2.0/arm/arm-none-eabi/include/c++/10.3.1/bits/stl_algobase.h **** 	*__first = __tmp;
 1143              		.loc 8 872 22 is_stmt 0 view .LVU293
 1144              	.LBE443:
 1145              	.LBE445:
 1146              	.LBE447:
 1147              	.LBE449:
 1148              	.LBE437:
 117:mi/plaits/dsp/drums/analog_snare_drum.h ****     } else {
 118:mi/plaits/dsp/drums/analog_snare_drum.h ****       // What the 808 could have been if there were extra modes!
 119:mi/plaits/dsp/drums/analog_snare_drum.h ****       tone = (tone - 0.666667f) * 3.0f;
 120:mi/plaits/dsp/drums/analog_snare_drum.h ****       gain[0] = 1.5f - tone * 0.5f;
 121:mi/plaits/dsp/drums/analog_snare_drum.h ****       gain[1] = 2.15f - tone * 0.7f;
 122:mi/plaits/dsp/drums/analog_snare_drum.h ****       for (int i = 2; i < kNumModes; ++i) {
 123:mi/plaits/dsp/drums/analog_snare_drum.h ****         gain[i] = tone;
 124:mi/plaits/dsp/drums/analog_snare_drum.h ****         tone *= tone;
 125:mi/plaits/dsp/drums/analog_snare_drum.h ****       }
 126:mi/plaits/dsp/drums/analog_snare_drum.h ****     }
 127:mi/plaits/dsp/drums/analog_snare_drum.h **** 
 128:mi/plaits/dsp/drums/analog_snare_drum.h ****     float f_noise = f0 * 16.0f;
 1149              		.loc 3 128 5 is_stmt 1 view .LVU294
 1150              		.loc 3 128 11 is_stmt 0 view .LVU295
 1151 025c B3EE004A 		vmov.f32	s8, #1.6e+1
 1152 0260 60EE840A 		vmul.f32	s1, s1, s8
 1153              	.LVL36:
 129:mi/plaits/dsp/drums/analog_snare_drum.h ****     CONSTRAIN(f_noise, 0.0f, 0.499f);
 1154              		.loc 3 129 5 is_stmt 1 view .LVU296
 1155 0264 F5EEC00A 		vcmpe.f32	s1, #0
 1156 0268 F1EE10FA 		vmrs	APSR_nzcv, FPSCR
 1157 026c 00F1A181 		bmi	.L45
 1158              		.loc 3 129 5 discriminator 2 view .LVU297
 1159 0270 5FED1B7A 		vldr.32	s15, .L68+60
 1160 0274 F4EEE70A 		vcmpe.f32	s1, s15
 1161 0278 F1EE10FA 		vmrs	APSR_nzcv, FPSCR
 1162 027c 00F34E81 		bgt	.L46
 130:mi/plaits/dsp/drums/analog_snare_drum.h ****     noise_filter_.set_f_q<stmlib::FREQUENCY_FAST>(
ARM GAS  /var/folders/9k/zk1mgrrd7wg4__6zvxvr9w8m0000gn/T//ccjjMUN9.s 			page 52


 1163              		.loc 3 130 50 is_stmt 0 view .LVU298
 1164 0280 F7EE007A 		vmov.f32	s15, #1.0e+0
 1165              	.LVL37:
 1166              	.LBB454:
 1167              	.LBB455:
 1168              	.LBB456:
 1169              	.LBB457:
 123:mi/stmlib/dsp/filter.h ****     } else if (approximation == FREQUENCY_ACCURATE) {
 1170              		.loc 4 123 36 view .LVU299
 1171 0284 5FED1F5A 		vldr.32	s11, .L68+64
 1172              	.LBE457:
 1173              	.LBE456:
 1174              	.LBE455:
 1175              	.LBE454:
 1176              		.loc 3 130 50 view .LVU300
 1177 0288 B7EE085A 		vmov.f32	s10, #1.5e+0
 1178              	.LBB472:
 1179              	.LBB467:
 1180              	.LBB462:
 1181              	.LBB458:
 123:mi/stmlib/dsp/filter.h ****     } else if (approximation == FREQUENCY_ACCURATE) {
 1182              		.loc 4 123 36 view .LVU301
 1183 028c 1FED207A 		vldr.32	s14, .L68+68
 122:mi/stmlib/dsp/filter.h ****       return f * (M_PI_F + f2 * (a + b * f2));
 1184              		.loc 4 122 13 view .LVU302
 1185 0290 60EEA06A 		vmul.f32	s13, s1, s1
 123:mi/stmlib/dsp/filter.h ****     } else if (approximation == FREQUENCY_ACCURATE) {
 1186              		.loc 4 123 26 view .LVU303
 1187 0294 1FED214A 		vldr.32	s8, .L68+72
 1188              	.LBE458:
 1189              	.LBE462:
 1190              	.LBE467:
 1191              	.LBE472:
 1192              		.loc 3 130 50 view .LVU304
 1193 0298 B0EE676A 		vmov.f32	s12, s15
 1194              	.LBB473:
 1195              	.LBB468:
 1196              	.LBB463:
 1197              	.LBB459:
 123:mi/stmlib/dsp/filter.h ****     } else if (approximation == FREQUENCY_ACCURATE) {
 1198              		.loc 4 123 36 view .LVU305
 1199 029c A6EEA57A 		vfma.f32	s14, s13, s11
 1200              	.LBE459:
 1201              	.LBE463:
 1202              	.LBE468:
 1203              	.LBE473:
 1204              		.loc 3 130 50 view .LVU306
 1205 02a0 A0EE856A 		vfma.f32	s12, s1, s10
 1206              	.LBB474:
 1207              	.LBB469:
 1208              	.LBB464:
 1209              	.LBB460:
 123:mi/stmlib/dsp/filter.h ****     } else if (approximation == FREQUENCY_ACCURATE) {
 1210              		.loc 4 123 26 view .LVU307
 1211 02a4 A6EE874A 		vfma.f32	s8, s13, s14
 1212              	.LBE460:
 1213              	.LBE464:
ARM GAS  /var/folders/9k/zk1mgrrd7wg4__6zvxvr9w8m0000gn/T//ccjjMUN9.s 			page 53


 225:mi/stmlib/dsp/filter.h ****     h_ = 1.0f / (1.0f + r_ * g_ + g_ * g_);
 1214              		.loc 4 225 15 view .LVU308
 1215 02a8 87EE865A 		vdiv.f32	s10, s15, s12
 1216              	.LBB465:
 1217              	.LBB461:
 123:mi/stmlib/dsp/filter.h ****     } else if (approximation == FREQUENCY_ACCURATE) {
 1218              		.loc 4 123 45 view .LVU309
 1219 02ac 20EE844A 		vmul.f32	s8, s1, s8
 1220              	.LBE461:
 1221              	.LBE465:
 1222              		.loc 4 226 23 view .LVU310
 1223 02b0 B0EE677A 		vmov.f32	s14, s15
 1224 02b4 A4EE057A 		vfma.f32	s14, s8, s10
 1225              		.loc 4 226 33 view .LVU311
 1226 02b8 A4EE047A 		vfma.f32	s14, s8, s8
 1227              		.loc 4 226 15 view .LVU312
 1228 02bc C7EE872A 		vdiv.f32	s5, s15, s14
 1229              	.LVL38:
 1230              	.L21:
 1231              		.loc 4 226 15 view .LVU313
 1232              	.LBE469:
 1233              	.LBE474:
 129:mi/plaits/dsp/drums/analog_snare_drum.h ****     noise_filter_.set_f_q<stmlib::FREQUENCY_FAST>(
 1234              		.loc 3 129 37 is_stmt 1 discriminator 6 view .LVU314
 1235              		.loc 3 130 5 discriminator 6 view .LVU315
 1236              	.LBB475:
 1237              	.LBI454:
 223:mi/stmlib/dsp/filter.h ****     g_ = OnePole::tan<approximation>(f);
 1238              		.loc 4 223 15 discriminator 6 view .LVU316
 1239              	.LBB470:
 1240              	.LBB466:
 1241              	.LBI456:
 107:mi/stmlib/dsp/filter.h ****     if (approximation == FREQUENCY_EXACT) {
 1242              		.loc 4 107 23 discriminator 6 view .LVU317
 107:mi/stmlib/dsp/filter.h ****     if (approximation == FREQUENCY_EXACT) {
 1243              		.loc 4 107 23 is_stmt 0 discriminator 6 view .LVU318
 1244              	.LBE466:
 1245              	.LBE470:
 1246              	.LBE475:
 1247              	.LBB476:
 1248              	.LBB477:
 1249              	.LBB478:
 1250              		.file 9 "mi/stmlib/dsp/parameter_interpolator.h"
   1:mi/stmlib/dsp/parameter_interpolator.h **** // Copyright 2015 Emilie Gillet.
   2:mi/stmlib/dsp/parameter_interpolator.h **** //
   3:mi/stmlib/dsp/parameter_interpolator.h **** // Author: Emilie Gillet (emilie.o.gillet@gmail.com)
   4:mi/stmlib/dsp/parameter_interpolator.h **** //
   5:mi/stmlib/dsp/parameter_interpolator.h **** // Permission is hereby granted, free of charge, to any person obtaining a copy
   6:mi/stmlib/dsp/parameter_interpolator.h **** // of this software and associated documentation files (the "Software"), to deal
   7:mi/stmlib/dsp/parameter_interpolator.h **** // in the Software without restriction, including without limitation the rights
   8:mi/stmlib/dsp/parameter_interpolator.h **** // to use, copy, modify, merge, publish, distribute, sublicense, and/or sell
   9:mi/stmlib/dsp/parameter_interpolator.h **** // copies of the Software, and to permit persons to whom the Software is
  10:mi/stmlib/dsp/parameter_interpolator.h **** // furnished to do so, subject to the following conditions:
  11:mi/stmlib/dsp/parameter_interpolator.h **** // 
  12:mi/stmlib/dsp/parameter_interpolator.h **** // The above copyright notice and this permission notice shall be included in
  13:mi/stmlib/dsp/parameter_interpolator.h **** // all copies or substantial portions of the Software.
  14:mi/stmlib/dsp/parameter_interpolator.h **** // 
ARM GAS  /var/folders/9k/zk1mgrrd7wg4__6zvxvr9w8m0000gn/T//ccjjMUN9.s 			page 54


  15:mi/stmlib/dsp/parameter_interpolator.h **** // THE SOFTWARE IS PROVIDED "AS IS", WITHOUT WARRANTY OF ANY KIND, EXPRESS OR
  16:mi/stmlib/dsp/parameter_interpolator.h **** // IMPLIED, INCLUDING BUT NOT LIMITED TO THE WARRANTIES OF MERCHANTABILITY,
  17:mi/stmlib/dsp/parameter_interpolator.h **** // FITNESS FOR A PARTICULAR PURPOSE AND NONINFRINGEMENT. IN NO EVENT SHALL THE
  18:mi/stmlib/dsp/parameter_interpolator.h **** // AUTHORS OR COPYRIGHT HOLDERS BE LIABLE FOR ANY CLAIM, DAMAGES OR OTHER
  19:mi/stmlib/dsp/parameter_interpolator.h **** // LIABILITY, WHETHER IN AN ACTION OF CONTRACT, TORT OR OTHERWISE, ARISING FROM,
  20:mi/stmlib/dsp/parameter_interpolator.h **** // OUT OF OR IN CONNECTION WITH THE SOFTWARE OR THE USE OR OTHER DEALINGS IN
  21:mi/stmlib/dsp/parameter_interpolator.h **** // THE SOFTWARE.
  22:mi/stmlib/dsp/parameter_interpolator.h **** // 
  23:mi/stmlib/dsp/parameter_interpolator.h **** // See http://creativecommons.org/licenses/MIT/ for more information.
  24:mi/stmlib/dsp/parameter_interpolator.h **** //
  25:mi/stmlib/dsp/parameter_interpolator.h **** // -----------------------------------------------------------------------------
  26:mi/stmlib/dsp/parameter_interpolator.h **** //
  27:mi/stmlib/dsp/parameter_interpolator.h **** // Linear interpolation of parameters in rendering loops.
  28:mi/stmlib/dsp/parameter_interpolator.h **** 
  29:mi/stmlib/dsp/parameter_interpolator.h **** #ifndef STMLIB_DSP_PARAMETER_INTERPOLATOR_H_
  30:mi/stmlib/dsp/parameter_interpolator.h **** #define STMLIB_DSP_PARAMETER_INTERPOLATOR_H_
  31:mi/stmlib/dsp/parameter_interpolator.h **** 
  32:mi/stmlib/dsp/parameter_interpolator.h **** #include "stmlib/stmlib.h"
  33:mi/stmlib/dsp/parameter_interpolator.h **** 
  34:mi/stmlib/dsp/parameter_interpolator.h **** namespace stmlib {
  35:mi/stmlib/dsp/parameter_interpolator.h **** 
  36:mi/stmlib/dsp/parameter_interpolator.h **** class ParameterInterpolator {
  37:mi/stmlib/dsp/parameter_interpolator.h ****  public:
  38:mi/stmlib/dsp/parameter_interpolator.h ****   ParameterInterpolator() { }
  39:mi/stmlib/dsp/parameter_interpolator.h ****   ParameterInterpolator(float* state, float new_value, size_t size) {
  40:mi/stmlib/dsp/parameter_interpolator.h ****     Init(state, new_value, size);
  41:mi/stmlib/dsp/parameter_interpolator.h ****   }
  42:mi/stmlib/dsp/parameter_interpolator.h **** 
  43:mi/stmlib/dsp/parameter_interpolator.h ****   ParameterInterpolator(float* state, float new_value, float step) {
  44:mi/stmlib/dsp/parameter_interpolator.h ****     state_ = state;
  45:mi/stmlib/dsp/parameter_interpolator.h ****     value_ = *state;
  46:mi/stmlib/dsp/parameter_interpolator.h ****     increment_ = (new_value - *state) * step;
  47:mi/stmlib/dsp/parameter_interpolator.h ****   }
  48:mi/stmlib/dsp/parameter_interpolator.h **** 
  49:mi/stmlib/dsp/parameter_interpolator.h ****   ~ParameterInterpolator() {
  50:mi/stmlib/dsp/parameter_interpolator.h ****     *state_ = value_;
  51:mi/stmlib/dsp/parameter_interpolator.h ****   }
  52:mi/stmlib/dsp/parameter_interpolator.h ****   
  53:mi/stmlib/dsp/parameter_interpolator.h ****   inline void Init(float* state, float new_value, size_t size) {
  54:mi/stmlib/dsp/parameter_interpolator.h ****     state_ = state;
  55:mi/stmlib/dsp/parameter_interpolator.h ****     value_ = *state;
 1251              		.loc 9 55 14 discriminator 6 view .LVU319
 1252 02c0 D0ED053A 		vldr.32	s7, [r0, #20]
  56:mi/stmlib/dsp/parameter_interpolator.h ****     increment_ = (new_value - *state) / static_cast<float>(size);
 1253              		.loc 9 56 41 discriminator 6 view .LVU320
 1254 02c4 07EE906A 		vmov	s15, r6	@ int
 1255              	.LBE478:
 1256              	.LBE477:
 1257              	.LBE476:
 131:mi/plaits/dsp/drums/analog_snare_drum.h ****         f_noise, 1.0f + f_noise * 1.5f);
 132:mi/plaits/dsp/drums/analog_snare_drum.h ****         
 133:mi/plaits/dsp/drums/analog_snare_drum.h ****     
 134:mi/plaits/dsp/drums/analog_snare_drum.h ****     stmlib::ParameterInterpolator sustain_gain(
 135:mi/plaits/dsp/drums/analog_snare_drum.h ****         &sustain_gain_,
 136:mi/plaits/dsp/drums/analog_snare_drum.h ****         accent * decay,
 137:mi/plaits/dsp/drums/analog_snare_drum.h ****         size);
 138:mi/plaits/dsp/drums/analog_snare_drum.h ****     
ARM GAS  /var/folders/9k/zk1mgrrd7wg4__6zvxvr9w8m0000gn/T//ccjjMUN9.s 			page 55


 139:mi/plaits/dsp/drums/analog_snare_drum.h ****     while (size--) {
 1258              		.loc 3 139 16 discriminator 6 view .LVU321
 1259 02c8 06F1FF39 		add	r9, r6, #-1
 1260              	.LBB481:
 1261              	.LBB471:
 224:mi/stmlib/dsp/filter.h ****     r_ = 1.0f / resonance;
 1262              		.loc 4 224 8 discriminator 6 view .LVU322
 1263 02cc 80ED1F4A 		vstr.32	s8, [r0, #124]
 225:mi/stmlib/dsp/filter.h ****     h_ = 1.0f / (1.0f + r_ * g_ + g_ * g_);
 1264              		.loc 4 225 8 discriminator 6 view .LVU323
 1265 02d0 80ED205A 		vstr.32	s10, [r0, #128]
 1266              		.loc 4 226 8 discriminator 6 view .LVU324
 1267 02d4 C0ED212A 		vstr.32	s5, [r0, #132]
 1268              	.LVL39:
 1269              		.loc 4 226 8 discriminator 6 view .LVU325
 1270              	.LBE471:
 1271              	.LBE481:
 134:mi/plaits/dsp/drums/analog_snare_drum.h ****         &sustain_gain_,
 1272              		.loc 3 134 5 is_stmt 1 discriminator 6 view .LVU326
 1273              	.LBB482:
 1274              	.LBI476:
  39:mi/stmlib/dsp/parameter_interpolator.h ****     Init(state, new_value, size);
 1275              		.loc 9 39 3 discriminator 6 view .LVU327
 1276              	.LBE482:
  40:mi/stmlib/dsp/parameter_interpolator.h ****   }
 1277              		.loc 9 40 5 discriminator 6 view .LVU328
 1278              	.LBB483:
 1279              	.LBB480:
 1280              	.LBI477:
  53:mi/stmlib/dsp/parameter_interpolator.h ****     state_ = state;
 1281              		.loc 9 53 15 discriminator 6 view .LVU329
 1282              	.LBB479:
  54:mi/stmlib/dsp/parameter_interpolator.h ****     value_ = *state;
 1283              		.loc 9 54 5 discriminator 6 view .LVU330
  55:mi/stmlib/dsp/parameter_interpolator.h ****     increment_ = (new_value - *state) / static_cast<float>(size);
 1284              		.loc 9 55 5 discriminator 6 view .LVU331
 1285              		.loc 9 56 5 discriminator 6 view .LVU332
 1286              		.loc 9 56 29 is_stmt 0 discriminator 6 view .LVU333
 1287 02d8 B0EE637A 		vmov.f32	s14, s7
 1288              		.loc 9 56 41 discriminator 6 view .LVU334
 1289 02dc F8EE677A 		vcvt.f32.u32	s15, s15
 1290              	.LVL40:
 1291              		.loc 9 56 29 discriminator 6 view .LVU335
 1292 02e0 91EE807A 		vfnms.f32	s14, s3, s0
 1293              		.loc 9 56 39 discriminator 6 view .LVU336
 1294 02e4 C7EE271A 		vdiv.f32	s3, s14, s15
 1295              	.LVL41:
 1296              		.loc 9 56 39 discriminator 6 view .LVU337
 1297              	.LBE479:
 1298              	.LBE480:
 1299              	.LBE483:
 1300              		.loc 3 139 5 is_stmt 1 discriminator 6 view .LVU338
 1301              		.loc 3 139 16 discriminator 6 view .LVU339
 1302              		.loc 3 139 16 is_stmt 0 discriminator 6 view .LVU340
 1303 02e8 002E     		cmp	r6, #0
 1304 02ea 00F05B81 		beq	.L22
 1305              	.LBB484:
ARM GAS  /var/folders/9k/zk1mgrrd7wg4__6zvxvr9w8m0000gn/T//ccjjMUN9.s 			page 56


 140:mi/plaits/dsp/drums/analog_snare_drum.h ****       // Q45 / Q46
 141:mi/plaits/dsp/drums/analog_snare_drum.h ****       float pulse = 0.0f;
 1306              		.loc 3 141 7 is_stmt 1 view .LVU341
 1307              	.LVL42:
 142:mi/plaits/dsp/drums/analog_snare_drum.h ****       if (pulse_remaining_samples_) {
 1308              		.loc 3 142 7 view .LVU342
 1309 02ee DFF810B3 		ldr	fp, .L70+56
 1310              		.loc 3 142 11 is_stmt 0 view .LVU343
 1311 02f2 0268     		ldr	r2, [r0]
 1312 02f4 DBF80030 		ldr	r3, [fp]
 143:mi/plaits/dsp/drums/analog_snare_drum.h ****         --pulse_remaining_samples_;
 144:mi/plaits/dsp/drums/analog_snare_drum.h ****         pulse = pulse_remaining_samples_ ? pulse_height_ : pulse_height_ - 1.0f;
 145:mi/plaits/dsp/drums/analog_snare_drum.h ****         pulse_ = pulse;
 146:mi/plaits/dsp/drums/analog_snare_drum.h ****       } else {
 147:mi/plaits/dsp/drums/analog_snare_drum.h ****         pulse_ *= 1.0f - 1.0f / kPulseDecayTime;
 148:mi/plaits/dsp/drums/analog_snare_drum.h ****         pulse = pulse_;
 149:mi/plaits/dsp/drums/analog_snare_drum.h ****       }
 150:mi/plaits/dsp/drums/analog_snare_drum.h ****       
 151:mi/plaits/dsp/drums/analog_snare_drum.h ****       float sustain_gain_value = sustain_gain.Next();
 152:mi/plaits/dsp/drums/analog_snare_drum.h ****       
 153:mi/plaits/dsp/drums/analog_snare_drum.h ****       // R189 / C57 / R190 + C58 / C59 / R197 / R196 / IC14
 154:mi/plaits/dsp/drums/analog_snare_drum.h ****       ONE_POLE(pulse_lp_, pulse, 0.75f);
 155:mi/plaits/dsp/drums/analog_snare_drum.h ****       
 156:mi/plaits/dsp/drums/analog_snare_drum.h ****       float shell = 0.0f;
 157:mi/plaits/dsp/drums/analog_snare_drum.h ****       for (int i = 0; i < kNumModes; ++i) {
 158:mi/plaits/dsp/drums/analog_snare_drum.h ****         float excitation = i == 0
 159:mi/plaits/dsp/drums/analog_snare_drum.h ****             ? (pulse - pulse_lp_) + 0.006f * pulse
 160:mi/plaits/dsp/drums/analog_snare_drum.h ****             : 0.026f * pulse;
 161:mi/plaits/dsp/drums/analog_snare_drum.h ****         shell += gain[i] * (sustain
 162:mi/plaits/dsp/drums/analog_snare_drum.h ****             ? oscillator_[i].Next(f[i]) * sustain_gain_value * 0.25f
 163:mi/plaits/dsp/drums/analog_snare_drum.h ****             : resonator_[i].Process<stmlib::FILTER_MODE_BAND_PASS>(
 164:mi/plaits/dsp/drums/analog_snare_drum.h ****                   excitation) + excitation * exciter_leak);
 165:mi/plaits/dsp/drums/analog_snare_drum.h ****       }
 166:mi/plaits/dsp/drums/analog_snare_drum.h ****       shell = stmlib::SoftClip(shell);
 167:mi/plaits/dsp/drums/analog_snare_drum.h ****       
 168:mi/plaits/dsp/drums/analog_snare_drum.h ****       // C56 / R194 / Q48 / C54 / R188 / D54
 169:mi/plaits/dsp/drums/analog_snare_drum.h ****       float noise = 2.0f * stmlib::Random::GetFloat() - 1.0f;
 170:mi/plaits/dsp/drums/analog_snare_drum.h ****       if (noise < 0.0f) noise = 0.0f;
 171:mi/plaits/dsp/drums/analog_snare_drum.h ****       noise_envelope_ *= noise_envelope_decay;
 172:mi/plaits/dsp/drums/analog_snare_drum.h ****       noise *= (sustain ? sustain_gain_value : noise_envelope_) * snappy * 2.0f;
 173:mi/plaits/dsp/drums/analog_snare_drum.h **** 
 174:mi/plaits/dsp/drums/analog_snare_drum.h ****       // C66 / R201 / C67 / R202 / R203 / Q49
