ARM GAS  /var/folders/9k/zk1mgrrd7wg4__6zvxvr9w8m0000gn/T//ccVlS6UW.s 			page 1


   1              		.cpu cortex-m7
   2              		.arch armv7e-m
   3              		.fpu fpv5-d16
   4              		.eabi_attribute 28, 1
   5              		.eabi_attribute 20, 1
   6              		.eabi_attribute 21, 1
   7              		.eabi_attribute 23, 3
   8              		.eabi_attribute 24, 1
   9              		.eabi_attribute 25, 1
  10              		.eabi_attribute 26, 1
  11              		.eabi_attribute 30, 2
  12              		.eabi_attribute 34, 1
  13              		.eabi_attribute 18, 4
  14              		.file	"string_machine_engine.cpp"
  15              		.text
  16              	.Ltext0:
  17              		.cfi_sections	.debug_frame
  18              		.section	.text._ZN6plaits19StringMachineEngine12LoadUserDataEPKh,"axG",%progbits,_ZN6plaits19Strin
  19              		.align	1
  20              		.p2align 2,,3
  21              		.weak	_ZN6plaits19StringMachineEngine12LoadUserDataEPKh
  22              		.syntax unified
  23              		.thumb
  24              		.thumb_func
  26              	_ZN6plaits19StringMachineEngine12LoadUserDataEPKh:
  27              	.LVL0:
  28              	.LFB1705:
  29              		.file 1 "mi/plaits/dsp/engine2/string_machine_engine.h"
   1:mi/plaits/dsp/engine2/string_machine_engine.h **** // Copyright 2021 Emilie Gillet.
   2:mi/plaits/dsp/engine2/string_machine_engine.h **** //
   3:mi/plaits/dsp/engine2/string_machine_engine.h **** // Author: Emilie Gillet (emilie.o.gillet@gmail.com)
   4:mi/plaits/dsp/engine2/string_machine_engine.h **** //
   5:mi/plaits/dsp/engine2/string_machine_engine.h **** // Permission is hereby granted, free of charge, to any person obtaining a copy
   6:mi/plaits/dsp/engine2/string_machine_engine.h **** // of this software and associated documentation files (the "Software"), to deal
   7:mi/plaits/dsp/engine2/string_machine_engine.h **** // in the Software without restriction, including without limitation the rights
   8:mi/plaits/dsp/engine2/string_machine_engine.h **** // to use, copy, modify, merge, publish, distribute, sublicense, and/or sell
   9:mi/plaits/dsp/engine2/string_machine_engine.h **** // copies of the Software, and to permit persons to whom the Software is
  10:mi/plaits/dsp/engine2/string_machine_engine.h **** // furnished to do so, subject to the following conditions:
  11:mi/plaits/dsp/engine2/string_machine_engine.h **** // 
  12:mi/plaits/dsp/engine2/string_machine_engine.h **** // The above copyright notice and this permission notice shall be included in
  13:mi/plaits/dsp/engine2/string_machine_engine.h **** // all copies or substantial portions of the Software.
  14:mi/plaits/dsp/engine2/string_machine_engine.h **** // 
  15:mi/plaits/dsp/engine2/string_machine_engine.h **** // THE SOFTWARE IS PROVIDED "AS IS", WITHOUT WARRANTY OF ANY KIND, EXPRESS OR
  16:mi/plaits/dsp/engine2/string_machine_engine.h **** // IMPLIED, INCLUDING BUT NOT LIMITED TO THE WARRANTIES OF MERCHANTABILITY,
  17:mi/plaits/dsp/engine2/string_machine_engine.h **** // FITNESS FOR A PARTICULAR PURPOSE AND NONINFRINGEMENT. IN NO EVENT SHALL THE
  18:mi/plaits/dsp/engine2/string_machine_engine.h **** // AUTHORS OR COPYRIGHT HOLDERS BE LIABLE FOR ANY CLAIM, DAMAGES OR OTHER
  19:mi/plaits/dsp/engine2/string_machine_engine.h **** // LIABILITY, WHETHER IN AN ACTION OF CONTRACT, TORT OR OTHERWISE, ARISING FROM,
  20:mi/plaits/dsp/engine2/string_machine_engine.h **** // OUT OF OR IN CONNECTION WITH THE SOFTWARE OR THE USE OR OTHER DEALINGS IN
  21:mi/plaits/dsp/engine2/string_machine_engine.h **** // THE SOFTWARE.
  22:mi/plaits/dsp/engine2/string_machine_engine.h **** // 
  23:mi/plaits/dsp/engine2/string_machine_engine.h **** // See http://creativecommons.org/licenses/MIT/ for more information.
  24:mi/plaits/dsp/engine2/string_machine_engine.h **** //
  25:mi/plaits/dsp/engine2/string_machine_engine.h **** // -----------------------------------------------------------------------------
  26:mi/plaits/dsp/engine2/string_machine_engine.h **** //
  27:mi/plaits/dsp/engine2/string_machine_engine.h **** // String machine emulation with filter and chorus.
  28:mi/plaits/dsp/engine2/string_machine_engine.h **** 
  29:mi/plaits/dsp/engine2/string_machine_engine.h **** #ifndef PLAITS_DSP_ENGINE_STRING_MACHINE_ENGINE_H_
ARM GAS  /var/folders/9k/zk1mgrrd7wg4__6zvxvr9w8m0000gn/T//ccVlS6UW.s 			page 2


  30:mi/plaits/dsp/engine2/string_machine_engine.h **** #define PLAITS_DSP_ENGINE_STRING_MACHINE_ENGINE_H_
  31:mi/plaits/dsp/engine2/string_machine_engine.h **** 
  32:mi/plaits/dsp/engine2/string_machine_engine.h **** #include "plaits/dsp/chords/chord_bank.h"
  33:mi/plaits/dsp/engine2/string_machine_engine.h **** #include "plaits/dsp/engine/chord_engine.h"
  34:mi/plaits/dsp/engine2/string_machine_engine.h **** #include "stmlib/dsp/filter.h"
  35:mi/plaits/dsp/engine2/string_machine_engine.h **** #include "plaits/dsp/fx/ensemble.h"
  36:mi/plaits/dsp/engine2/string_machine_engine.h **** 
  37:mi/plaits/dsp/engine2/string_machine_engine.h **** namespace plaits {
  38:mi/plaits/dsp/engine2/string_machine_engine.h **** 
  39:mi/plaits/dsp/engine2/string_machine_engine.h **** class StringMachineEngine : public Engine {
  40:mi/plaits/dsp/engine2/string_machine_engine.h ****  public:
  41:mi/plaits/dsp/engine2/string_machine_engine.h ****   StringMachineEngine() { }
  42:mi/plaits/dsp/engine2/string_machine_engine.h ****   ~StringMachineEngine() { }
  43:mi/plaits/dsp/engine2/string_machine_engine.h ****   
  44:mi/plaits/dsp/engine2/string_machine_engine.h ****   virtual void Init(stmlib::BufferAllocator* allocator);
  45:mi/plaits/dsp/engine2/string_machine_engine.h ****   virtual void Reset();
  46:mi/plaits/dsp/engine2/string_machine_engine.h ****   virtual void LoadUserData(const uint8_t* user_data) { }
  30              		.loc 1 46 16 view -0
  31              		.cfi_startproc
  32              		@ args = 0, pretend = 0, frame = 0
  33              		@ frame_needed = 0, uses_anonymous_args = 0
  34              		@ link register save eliminated.
  35              		.loc 1 46 57 is_stmt 0 view .LVU1
  36 0000 7047     		bx	lr
  37              		.cfi_endproc
  38              	.LFE1705:
  40 0002 00BF     		.section	.text._ZN6plaits19StringMachineEngine4InitEPN6stmlib15BufferAllocatorE,"ax",%progbits
  41              		.align	1
  42              		.p2align 2,,3
  43              		.global	_ZN6plaits19StringMachineEngine4InitEPN6stmlib15BufferAllocatorE
  44              		.syntax unified
  45              		.thumb
  46              		.thumb_func
  48              	_ZN6plaits19StringMachineEngine4InitEPN6stmlib15BufferAllocatorE:
  49              	.LVL1:
  50              	.LFB1706:
  51              		.file 2 "mi/plaits/dsp/engine2/string_machine_engine.cpp"
   1:mi/plaits/dsp/engine2/string_machine_engine.cpp **** // Copyright 2021 Emilie Gillet.
   2:mi/plaits/dsp/engine2/string_machine_engine.cpp **** //
   3:mi/plaits/dsp/engine2/string_machine_engine.cpp **** // Author: Emilie Gillet (emilie.o.gillet@gmail.com)
   4:mi/plaits/dsp/engine2/string_machine_engine.cpp **** //
   5:mi/plaits/dsp/engine2/string_machine_engine.cpp **** // Permission is hereby granted, free of charge, to any person obtaining a copy
   6:mi/plaits/dsp/engine2/string_machine_engine.cpp **** // of this software and associated documentation files (the "Software"), to deal
   7:mi/plaits/dsp/engine2/string_machine_engine.cpp **** // in the Software without restriction, including without limitation the rights
   8:mi/plaits/dsp/engine2/string_machine_engine.cpp **** // to use, copy, modify, merge, publish, distribute, sublicense, and/or sell
   9:mi/plaits/dsp/engine2/string_machine_engine.cpp **** // copies of the Software, and to permit persons to whom the Software is
  10:mi/plaits/dsp/engine2/string_machine_engine.cpp **** // furnished to do so, subject to the following conditions:
  11:mi/plaits/dsp/engine2/string_machine_engine.cpp **** // 
  12:mi/plaits/dsp/engine2/string_machine_engine.cpp **** // The above copyright notice and this permission notice shall be included in
  13:mi/plaits/dsp/engine2/string_machine_engine.cpp **** // all copies or substantial portions of the Software.
  14:mi/plaits/dsp/engine2/string_machine_engine.cpp **** // 
  15:mi/plaits/dsp/engine2/string_machine_engine.cpp **** // THE SOFTWARE IS PROVIDED "AS IS", WITHOUT WARRANTY OF ANY KIND, EXPRESS OR
  16:mi/plaits/dsp/engine2/string_machine_engine.cpp **** // IMPLIED, INCLUDING BUT NOT LIMITED TO THE WARRANTIES OF MERCHANTABILITY,
  17:mi/plaits/dsp/engine2/string_machine_engine.cpp **** // FITNESS FOR A PARTICULAR PURPOSE AND NONINFRINGEMENT. IN NO EVENT SHALL THE
  18:mi/plaits/dsp/engine2/string_machine_engine.cpp **** // AUTHORS OR COPYRIGHT HOLDERS BE LIABLE FOR ANY CLAIM, DAMAGES OR OTHER
  19:mi/plaits/dsp/engine2/string_machine_engine.cpp **** // LIABILITY, WHETHER IN AN ACTION OF CONTRACT, TORT OR OTHERWISE, ARISING FROM,
  20:mi/plaits/dsp/engine2/string_machine_engine.cpp **** // OUT OF OR IN CONNECTION WITH THE SOFTWARE OR THE USE OR OTHER DEALINGS IN
ARM GAS  /var/folders/9k/zk1mgrrd7wg4__6zvxvr9w8m0000gn/T//ccVlS6UW.s 			page 3


  21:mi/plaits/dsp/engine2/string_machine_engine.cpp **** // THE SOFTWARE.
  22:mi/plaits/dsp/engine2/string_machine_engine.cpp **** // 
  23:mi/plaits/dsp/engine2/string_machine_engine.cpp **** // See http://creativecommons.org/licenses/MIT/ for more information.
  24:mi/plaits/dsp/engine2/string_machine_engine.cpp **** //
  25:mi/plaits/dsp/engine2/string_machine_engine.cpp **** // -----------------------------------------------------------------------------
  26:mi/plaits/dsp/engine2/string_machine_engine.cpp **** //
  27:mi/plaits/dsp/engine2/string_machine_engine.cpp **** // String machine emulation with filter and chorus.
  28:mi/plaits/dsp/engine2/string_machine_engine.cpp **** 
  29:mi/plaits/dsp/engine2/string_machine_engine.cpp **** #include "plaits/dsp/engine2/string_machine_engine.h"
  30:mi/plaits/dsp/engine2/string_machine_engine.cpp **** 
  31:mi/plaits/dsp/engine2/string_machine_engine.cpp **** #include <algorithm>
  32:mi/plaits/dsp/engine2/string_machine_engine.cpp **** 
  33:mi/plaits/dsp/engine2/string_machine_engine.cpp **** #include "plaits/resources.h"
  34:mi/plaits/dsp/engine2/string_machine_engine.cpp **** 
  35:mi/plaits/dsp/engine2/string_machine_engine.cpp **** namespace plaits {
  36:mi/plaits/dsp/engine2/string_machine_engine.cpp **** 
  37:mi/plaits/dsp/engine2/string_machine_engine.cpp **** using namespace std;
  38:mi/plaits/dsp/engine2/string_machine_engine.cpp **** using namespace stmlib;
  39:mi/plaits/dsp/engine2/string_machine_engine.cpp **** 
  40:mi/plaits/dsp/engine2/string_machine_engine.cpp **** void StringMachineEngine::Init(BufferAllocator* allocator) {
  52              		.loc 2 40 60 is_stmt 1 view -0
  53              		.cfi_startproc
  54              		@ args = 0, pretend = 0, frame = 0
  55              		@ frame_needed = 0, uses_anonymous_args = 0
  41:mi/plaits/dsp/engine2/string_machine_engine.cpp ****   for (int i = 0; i < kChordNumNotes; ++i) {
  56              		.loc 2 41 3 view .LVU3
  57              	.LBB272:
  58              		.loc 2 41 21 view .LVU4
  59              	.LBE272:
  40:mi/plaits/dsp/engine2/string_machine_engine.cpp ****   for (int i = 0; i < kChordNumNotes; ++i) {
  60              		.loc 2 40 60 is_stmt 0 view .LVU5
  61 0000 F8B5     		push	{r3, r4, r5, r6, r7, lr}
  62              		.cfi_def_cfa_offset 24
  63              		.cfi_offset 3, -24
  64              		.cfi_offset 4, -20
  65              		.cfi_offset 5, -16
  66              		.cfi_offset 6, -12
  67              		.cfi_offset 7, -8
  68              		.cfi_offset 14, -4
  40:mi/plaits/dsp/engine2/string_machine_engine.cpp ****   for (int i = 0; i < kChordNumNotes; ++i) {
  69              		.loc 2 40 60 view .LVU6
  70 0002 0F46     		mov	r7, r1
  71 0004 0546     		mov	r5, r0
  72 0006 0346     		mov	r3, r0
  73 0008 00F18001 		add	r1, r0, #128
  74              	.LVL2:
  75              	.L4:
  76              	.LBB279:
  42:mi/plaits/dsp/engine2/string_machine_engine.cpp ****     divide_down_voice_[i].Init();
  77              		.loc 2 42 5 is_stmt 1 discriminator 2 view .LVU7
  78              	.LBB273:
  79              	.LBI273:
  80              		.file 3 "mi/plaits/dsp/oscillator/string_synth_oscillator.h"
   1:mi/plaits/dsp/oscillator/string_synth_oscillator.h **** // Copyright 2016 Emilie Gillet.
   2:mi/plaits/dsp/oscillator/string_synth_oscillator.h **** //
   3:mi/plaits/dsp/oscillator/string_synth_oscillator.h **** // Author: Emilie Gillet (emilie.o.gillet@gmail.com)
   4:mi/plaits/dsp/oscillator/string_synth_oscillator.h **** //
ARM GAS  /var/folders/9k/zk1mgrrd7wg4__6zvxvr9w8m0000gn/T//ccVlS6UW.s 			page 4


   5:mi/plaits/dsp/oscillator/string_synth_oscillator.h **** // Permission is hereby granted, free of charge, to any person obtaining a copy
   6:mi/plaits/dsp/oscillator/string_synth_oscillator.h **** // of this software and associated documentation files (the "Software"), to deal
   7:mi/plaits/dsp/oscillator/string_synth_oscillator.h **** // in the Software without restriction, including without limitation the rights
   8:mi/plaits/dsp/oscillator/string_synth_oscillator.h **** // to use, copy, modify, merge, publish, distribute, sublicense, and/or sell
   9:mi/plaits/dsp/oscillator/string_synth_oscillator.h **** // copies of the Software, and to permit persons to whom the Software is
  10:mi/plaits/dsp/oscillator/string_synth_oscillator.h **** // furnished to do so, subject to the following conditions:
  11:mi/plaits/dsp/oscillator/string_synth_oscillator.h **** // 
  12:mi/plaits/dsp/oscillator/string_synth_oscillator.h **** // The above copyright notice and this permission notice shall be included in
  13:mi/plaits/dsp/oscillator/string_synth_oscillator.h **** // all copies or substantial portions of the Software.
  14:mi/plaits/dsp/oscillator/string_synth_oscillator.h **** // 
  15:mi/plaits/dsp/oscillator/string_synth_oscillator.h **** // THE SOFTWARE IS PROVIDED "AS IS", WITHOUT WARRANTY OF ANY KIND, EXPRESS OR
  16:mi/plaits/dsp/oscillator/string_synth_oscillator.h **** // IMPLIED, INCLUDING BUT NOT LIMITED TO THE WARRANTIES OF MERCHANTABILITY,
  17:mi/plaits/dsp/oscillator/string_synth_oscillator.h **** // FITNESS FOR A PARTICULAR PURPOSE AND NONINFRINGEMENT. IN NO EVENT SHALL THE
  18:mi/plaits/dsp/oscillator/string_synth_oscillator.h **** // AUTHORS OR COPYRIGHT HOLDERS BE LIABLE FOR ANY CLAIM, DAMAGES OR OTHER
  19:mi/plaits/dsp/oscillator/string_synth_oscillator.h **** // LIABILITY, WHETHER IN AN ACTION OF CONTRACT, TORT OR OTHERWISE, ARISING FROM,
  20:mi/plaits/dsp/oscillator/string_synth_oscillator.h **** // OUT OF OR IN CONNECTION WITH THE SOFTWARE OR THE USE OR OTHER DEALINGS IN
  21:mi/plaits/dsp/oscillator/string_synth_oscillator.h **** // THE SOFTWARE.
  22:mi/plaits/dsp/oscillator/string_synth_oscillator.h **** // 
  23:mi/plaits/dsp/oscillator/string_synth_oscillator.h **** // See http://creativecommons.org/licenses/MIT/ for more information.
  24:mi/plaits/dsp/oscillator/string_synth_oscillator.h **** //
  25:mi/plaits/dsp/oscillator/string_synth_oscillator.h **** // -----------------------------------------------------------------------------
  26:mi/plaits/dsp/oscillator/string_synth_oscillator.h **** //
  27:mi/plaits/dsp/oscillator/string_synth_oscillator.h **** // A mixture of 7 sawtooth and square waveforms in the style of divide-down
  28:mi/plaits/dsp/oscillator/string_synth_oscillator.h **** // organs:
  29:mi/plaits/dsp/oscillator/string_synth_oscillator.h **** //
  30:mi/plaits/dsp/oscillator/string_synth_oscillator.h **** // [0]     [1]        [2]     [3]        [4]     [5]        [6]
  31:mi/plaits/dsp/oscillator/string_synth_oscillator.h **** // Saw 8', Square 8', Saw 4', Square 4', Saw 2', Square 2', Saw 1'
  32:mi/plaits/dsp/oscillator/string_synth_oscillator.h **** //
  33:mi/plaits/dsp/oscillator/string_synth_oscillator.h **** // Internally, this renders 4 band-limited sawtooths, from 8' to 1' from a
  34:mi/plaits/dsp/oscillator/string_synth_oscillator.h **** // single phase counter. The square waveforms are obtained by algebraic
  35:mi/plaits/dsp/oscillator/string_synth_oscillator.h **** // manipulations on the sawtooths, using the identity:
  36:mi/plaits/dsp/oscillator/string_synth_oscillator.h **** // Square 16' = 2 Sawtooth 16' - Sawtooth 8'
  37:mi/plaits/dsp/oscillator/string_synth_oscillator.h **** 
  38:mi/plaits/dsp/oscillator/string_synth_oscillator.h **** #ifndef PLAITS_DSP_OSCILLATOR_STRING_SYNTH_OSCILLATOR_H_
  39:mi/plaits/dsp/oscillator/string_synth_oscillator.h **** #define PLAITS_DSP_OSCILLATOR_STRING_SYNTH_OSCILLATOR_H_
  40:mi/plaits/dsp/oscillator/string_synth_oscillator.h **** 
  41:mi/plaits/dsp/oscillator/string_synth_oscillator.h **** #include <algorithm>
  42:mi/plaits/dsp/oscillator/string_synth_oscillator.h **** 
  43:mi/plaits/dsp/oscillator/string_synth_oscillator.h **** #include "stmlib/dsp/dsp.h"
  44:mi/plaits/dsp/oscillator/string_synth_oscillator.h **** #include "stmlib/dsp/parameter_interpolator.h"
  45:mi/plaits/dsp/oscillator/string_synth_oscillator.h **** #include "stmlib/dsp/polyblep.h"
  46:mi/plaits/dsp/oscillator/string_synth_oscillator.h **** 
  47:mi/plaits/dsp/oscillator/string_synth_oscillator.h **** namespace plaits {
  48:mi/plaits/dsp/oscillator/string_synth_oscillator.h **** 
  49:mi/plaits/dsp/oscillator/string_synth_oscillator.h **** class StringSynthOscillator {
  50:mi/plaits/dsp/oscillator/string_synth_oscillator.h ****  public:
  51:mi/plaits/dsp/oscillator/string_synth_oscillator.h ****   StringSynthOscillator() { }
  52:mi/plaits/dsp/oscillator/string_synth_oscillator.h ****   ~StringSynthOscillator() { }
  53:mi/plaits/dsp/oscillator/string_synth_oscillator.h ****   
  54:mi/plaits/dsp/oscillator/string_synth_oscillator.h ****   inline void Init() {
  81              		.loc 3 54 15 discriminator 2 view .LVU8
  82              	.LBB274:
  55:mi/plaits/dsp/oscillator/string_synth_oscillator.h ****     phase_ = 0.0f;
  83              		.loc 3 55 5 discriminator 2 view .LVU9
  84              	.LBE274:
  85              	.LBE273:
  41:mi/plaits/dsp/engine2/string_machine_engine.cpp ****     divide_down_voice_[i].Init();
ARM GAS  /var/folders/9k/zk1mgrrd7wg4__6zvxvr9w8m0000gn/T//ccVlS6UW.s 			page 5


  86              		.loc 2 41 21 is_stmt 0 discriminator 2 view .LVU10
  87 000c 2033     		adds	r3, r3, #32
  88              	.LBB277:
  89              	.LBB275:
  90              		.loc 3 55 12 discriminator 2 view .LVU11
  91 000e 0024     		movs	r4, #0
  56:mi/plaits/dsp/oscillator/string_synth_oscillator.h ****     next_sample_ = 0.0f;
  57:mi/plaits/dsp/oscillator/string_synth_oscillator.h ****     segment_ = 0.0f;
  92              		.loc 3 57 14 discriminator 2 view .LVU12
  93 0010 0026     		movs	r6, #0
  58:mi/plaits/dsp/oscillator/string_synth_oscillator.h ****     
  59:mi/plaits/dsp/oscillator/string_synth_oscillator.h ****     frequency_ = 0.001f;
  94              		.loc 3 59 16 discriminator 2 view .LVU13
  95 0012 1B4A     		ldr	r2, .L9
  96              	.LBE275:
  97              	.LBE277:
  41:mi/plaits/dsp/engine2/string_machine_engine.cpp ****     divide_down_voice_[i].Init();
  98              		.loc 2 41 21 discriminator 2 view .LVU14
  99 0014 8B42     		cmp	r3, r1
 100              	.LBB278:
 101              	.LBB276:
  55:mi/plaits/dsp/oscillator/string_synth_oscillator.h ****     next_sample_ = 0.0f;
 102              		.loc 3 55 12 discriminator 2 view .LVU15
 103 0016 9C64     		str	r4, [r3, #72]	@ float
  56:mi/plaits/dsp/oscillator/string_synth_oscillator.h ****     segment_ = 0.0f;
 104              		.loc 3 56 5 is_stmt 1 discriminator 2 view .LVU16
  56:mi/plaits/dsp/oscillator/string_synth_oscillator.h ****     segment_ = 0.0f;
 105              		.loc 3 56 18 is_stmt 0 discriminator 2 view .LVU17
 106 0018 DC64     		str	r4, [r3, #76]	@ float
  57:mi/plaits/dsp/oscillator/string_synth_oscillator.h ****     
 107              		.loc 3 57 5 is_stmt 1 discriminator 2 view .LVU18
  57:mi/plaits/dsp/oscillator/string_synth_oscillator.h ****     
 108              		.loc 3 57 14 is_stmt 0 discriminator 2 view .LVU19
 109 001a 1E65     		str	r6, [r3, #80]
 110              		.loc 3 59 5 is_stmt 1 discriminator 2 view .LVU20
 111              		.loc 3 59 16 is_stmt 0 discriminator 2 view .LVU21
 112 001c 5A65     		str	r2, [r3, #84]	@ float
  60:mi/plaits/dsp/oscillator/string_synth_oscillator.h ****     saw_8_gain_ = 0.0f;
 113              		.loc 3 60 5 is_stmt 1 discriminator 2 view .LVU22
 114              		.loc 3 60 17 is_stmt 0 discriminator 2 view .LVU23
 115 001e 9C65     		str	r4, [r3, #88]	@ float
  61:mi/plaits/dsp/oscillator/string_synth_oscillator.h ****     saw_4_gain_ = 0.0f;
 116              		.loc 3 61 5 is_stmt 1 discriminator 2 view .LVU24
 117              		.loc 3 61 17 is_stmt 0 discriminator 2 view .LVU25
 118 0020 DC65     		str	r4, [r3, #92]	@ float
  62:mi/plaits/dsp/oscillator/string_synth_oscillator.h ****     saw_2_gain_ = 0.0f;
 119              		.loc 3 62 5 is_stmt 1 discriminator 2 view .LVU26
 120              		.loc 3 62 17 is_stmt 0 discriminator 2 view .LVU27
 121 0022 1C66     		str	r4, [r3, #96]	@ float
  63:mi/plaits/dsp/oscillator/string_synth_oscillator.h ****     saw_1_gain_ = 0.0f;
 122              		.loc 3 63 5 is_stmt 1 discriminator 2 view .LVU28
 123              		.loc 3 63 17 is_stmt 0 discriminator 2 view .LVU29
 124 0024 5C66     		str	r4, [r3, #100]	@ float
 125              		.loc 3 63 17 discriminator 2 view .LVU30
 126              	.LBE276:
 127              	.LBE278:
  41:mi/plaits/dsp/engine2/string_machine_engine.cpp ****     divide_down_voice_[i].Init();
ARM GAS  /var/folders/9k/zk1mgrrd7wg4__6zvxvr9w8m0000gn/T//ccVlS6UW.s 			page 6


 128              		.loc 2 41 3 is_stmt 1 discriminator 2 view .LVU31
  41:mi/plaits/dsp/engine2/string_machine_engine.cpp ****     divide_down_voice_[i].Init();
 129              		.loc 2 41 21 discriminator 2 view .LVU32
 130 0026 F1D1     		bne	.L4
 131              	.LBE279:
  43:mi/plaits/dsp/engine2/string_machine_engine.cpp ****   }
  44:mi/plaits/dsp/engine2/string_machine_engine.cpp ****   chords_.Init(allocator);
 132              		.loc 2 44 3 view .LVU33
 133              		.loc 2 44 15 is_stmt 0 view .LVU34
 134 0028 3946     		mov	r1, r7
 135 002a 05F11000 		add	r0, r5, #16
 136              	.LVL3:
 137              		.loc 2 44 15 view .LVU35
 138 002e FFF7FEFF 		bl	_ZN6plaits9ChordBank4InitEPN6stmlib15BufferAllocatorE
 139              	.LVL4:
  45:mi/plaits/dsp/engine2/string_machine_engine.cpp ****   morph_lp_ = 0.0f;
 140              		.loc 2 45 3 is_stmt 1 view .LVU36
 141              	.LBB280:
 142              	.LBB281:
 143              	.LBB282:
 144              		.file 4 "mi/stmlib/dsp/filter.h"
   1:mi/stmlib/dsp/filter.h **** // Copyright 2014 Emilie Gillet.
   2:mi/stmlib/dsp/filter.h **** //
   3:mi/stmlib/dsp/filter.h **** // Author: Emilie Gillet (emilie.o.gillet@gmail.com)
   4:mi/stmlib/dsp/filter.h **** //
   5:mi/stmlib/dsp/filter.h **** // Permission is hereby granted, free of charge, to any person obtaining a copy
   6:mi/stmlib/dsp/filter.h **** // of this software and associated documentation files (the "Software"), to deal
   7:mi/stmlib/dsp/filter.h **** // in the Software without restriction, including without limitation the rights
   8:mi/stmlib/dsp/filter.h **** // to use, copy, modify, merge, publish, distribute, sublicense, and/or sell
   9:mi/stmlib/dsp/filter.h **** // copies of the Software, and to permit persons to whom the Software is
  10:mi/stmlib/dsp/filter.h **** // furnished to do so, subject to the following conditions:
  11:mi/stmlib/dsp/filter.h **** // 
  12:mi/stmlib/dsp/filter.h **** // The above copyright notice and this permission notice shall be included in
  13:mi/stmlib/dsp/filter.h **** // all copies or substantial portions of the Software.
  14:mi/stmlib/dsp/filter.h **** // 
  15:mi/stmlib/dsp/filter.h **** // THE SOFTWARE IS PROVIDED "AS IS", WITHOUT WARRANTY OF ANY KIND, EXPRESS OR
  16:mi/stmlib/dsp/filter.h **** // IMPLIED, INCLUDING BUT NOT LIMITED TO THE WARRANTIES OF MERCHANTABILITY,
  17:mi/stmlib/dsp/filter.h **** // FITNESS FOR A PARTICULAR PURPOSE AND NONINFRINGEMENT. IN NO EVENT SHALL THE
  18:mi/stmlib/dsp/filter.h **** // AUTHORS OR COPYRIGHT HOLDERS BE LIABLE FOR ANY CLAIM, DAMAGES OR OTHER
  19:mi/stmlib/dsp/filter.h **** // LIABILITY, WHETHER IN AN ACTION OF CONTRACT, TORT OR OTHERWISE, ARISING FROM,
  20:mi/stmlib/dsp/filter.h **** // OUT OF OR IN CONNECTION WITH THE SOFTWARE OR THE USE OR OTHER DEALINGS IN
  21:mi/stmlib/dsp/filter.h **** // THE SOFTWARE.
  22:mi/stmlib/dsp/filter.h **** // 
  23:mi/stmlib/dsp/filter.h **** // See http://creativecommons.org/licenses/MIT/ for more information.
  24:mi/stmlib/dsp/filter.h **** //
  25:mi/stmlib/dsp/filter.h **** // -----------------------------------------------------------------------------
  26:mi/stmlib/dsp/filter.h **** //
  27:mi/stmlib/dsp/filter.h **** // Zero-delay-feedback filters (one pole and SVF).
  28:mi/stmlib/dsp/filter.h **** // Naive SVF.
  29:mi/stmlib/dsp/filter.h **** 
  30:mi/stmlib/dsp/filter.h **** #ifndef STMLIB_DSP_FILTER_H_
  31:mi/stmlib/dsp/filter.h **** #define STMLIB_DSP_FILTER_H_
  32:mi/stmlib/dsp/filter.h **** 
  33:mi/stmlib/dsp/filter.h **** #include "stmlib/stmlib.h"
  34:mi/stmlib/dsp/filter.h **** 
  35:mi/stmlib/dsp/filter.h **** #include <cmath>
  36:mi/stmlib/dsp/filter.h **** #include <algorithm>
ARM GAS  /var/folders/9k/zk1mgrrd7wg4__6zvxvr9w8m0000gn/T//ccVlS6UW.s 			page 7


  37:mi/stmlib/dsp/filter.h **** 
  38:mi/stmlib/dsp/filter.h **** namespace stmlib {
  39:mi/stmlib/dsp/filter.h **** 
  40:mi/stmlib/dsp/filter.h **** enum FilterMode {
  41:mi/stmlib/dsp/filter.h ****   FILTER_MODE_LOW_PASS,
  42:mi/stmlib/dsp/filter.h ****   FILTER_MODE_BAND_PASS,
  43:mi/stmlib/dsp/filter.h ****   FILTER_MODE_BAND_PASS_NORMALIZED,
  44:mi/stmlib/dsp/filter.h ****   FILTER_MODE_HIGH_PASS
  45:mi/stmlib/dsp/filter.h **** };
  46:mi/stmlib/dsp/filter.h **** 
  47:mi/stmlib/dsp/filter.h **** enum FrequencyApproximation {
  48:mi/stmlib/dsp/filter.h ****   FREQUENCY_EXACT,
  49:mi/stmlib/dsp/filter.h ****   FREQUENCY_ACCURATE,
  50:mi/stmlib/dsp/filter.h ****   FREQUENCY_FAST,
  51:mi/stmlib/dsp/filter.h ****   FREQUENCY_DIRTY
  52:mi/stmlib/dsp/filter.h **** };
  53:mi/stmlib/dsp/filter.h **** 
  54:mi/stmlib/dsp/filter.h **** #define M_PI_F float(M_PI)
  55:mi/stmlib/dsp/filter.h **** #define M_PI_POW_2 M_PI * M_PI
  56:mi/stmlib/dsp/filter.h **** #define M_PI_POW_3 M_PI_POW_2 * M_PI
  57:mi/stmlib/dsp/filter.h **** #define M_PI_POW_5 M_PI_POW_3 * M_PI_POW_2
  58:mi/stmlib/dsp/filter.h **** #define M_PI_POW_7 M_PI_POW_5 * M_PI_POW_2
  59:mi/stmlib/dsp/filter.h **** #define M_PI_POW_9 M_PI_POW_7 * M_PI_POW_2
  60:mi/stmlib/dsp/filter.h **** #define M_PI_POW_11 M_PI_POW_9 * M_PI_POW_2
  61:mi/stmlib/dsp/filter.h **** 
  62:mi/stmlib/dsp/filter.h **** class DCBlocker {
  63:mi/stmlib/dsp/filter.h ****  public:
  64:mi/stmlib/dsp/filter.h ****   DCBlocker() { }
  65:mi/stmlib/dsp/filter.h ****   ~DCBlocker() { }
  66:mi/stmlib/dsp/filter.h ****   
  67:mi/stmlib/dsp/filter.h ****   void Init(float pole) {
  68:mi/stmlib/dsp/filter.h ****     x_ = 0.0f;
  69:mi/stmlib/dsp/filter.h ****     y_ = 0.0f;
  70:mi/stmlib/dsp/filter.h ****     pole_ = pole;
  71:mi/stmlib/dsp/filter.h ****   }
  72:mi/stmlib/dsp/filter.h ****   
  73:mi/stmlib/dsp/filter.h ****   inline void Process(float* in_out, size_t size) {
  74:mi/stmlib/dsp/filter.h ****     float x = x_;
  75:mi/stmlib/dsp/filter.h ****     float y = y_;
  76:mi/stmlib/dsp/filter.h ****     const float pole = pole_;
  77:mi/stmlib/dsp/filter.h ****     while (size--) {
  78:mi/stmlib/dsp/filter.h ****       float old_x = x;
  79:mi/stmlib/dsp/filter.h ****       x = *in_out;
  80:mi/stmlib/dsp/filter.h ****       *in_out++ = y = y * pole + x - old_x;
  81:mi/stmlib/dsp/filter.h ****     }
  82:mi/stmlib/dsp/filter.h ****     x_ = x;
  83:mi/stmlib/dsp/filter.h ****     y_ = y;
  84:mi/stmlib/dsp/filter.h ****   }
  85:mi/stmlib/dsp/filter.h ****   
  86:mi/stmlib/dsp/filter.h ****  private:
  87:mi/stmlib/dsp/filter.h ****   float pole_;
  88:mi/stmlib/dsp/filter.h ****   float x_;
  89:mi/stmlib/dsp/filter.h ****   float y_;
  90:mi/stmlib/dsp/filter.h **** };
  91:mi/stmlib/dsp/filter.h **** 
  92:mi/stmlib/dsp/filter.h **** class OnePole {
  93:mi/stmlib/dsp/filter.h ****  public:
ARM GAS  /var/folders/9k/zk1mgrrd7wg4__6zvxvr9w8m0000gn/T//ccVlS6UW.s 			page 8


  94:mi/stmlib/dsp/filter.h ****   OnePole() { }
  95:mi/stmlib/dsp/filter.h ****   ~OnePole() { }
  96:mi/stmlib/dsp/filter.h ****   
  97:mi/stmlib/dsp/filter.h ****   void Init() {
  98:mi/stmlib/dsp/filter.h ****     set_f<FREQUENCY_DIRTY>(0.01f);
  99:mi/stmlib/dsp/filter.h ****     Reset();
 100:mi/stmlib/dsp/filter.h ****   }
 101:mi/stmlib/dsp/filter.h ****   
 102:mi/stmlib/dsp/filter.h ****   void Reset() {
 103:mi/stmlib/dsp/filter.h ****     state_ = 0.0f;
 104:mi/stmlib/dsp/filter.h ****   }
 105:mi/stmlib/dsp/filter.h ****   
 106:mi/stmlib/dsp/filter.h ****   template<FrequencyApproximation approximation>
 107:mi/stmlib/dsp/filter.h ****   static inline float tan(float f) {
 108:mi/stmlib/dsp/filter.h ****     if (approximation == FREQUENCY_EXACT) {
 109:mi/stmlib/dsp/filter.h ****       // Clip coefficient to about 100.
 110:mi/stmlib/dsp/filter.h ****       f = f < 0.497f ? f : 0.497f;
 111:mi/stmlib/dsp/filter.h ****       return tanf(M_PI_F * f);
 112:mi/stmlib/dsp/filter.h ****     } else if (approximation == FREQUENCY_DIRTY) {
 113:mi/stmlib/dsp/filter.h ****       // Optimized for frequencies below 8kHz.
 114:mi/stmlib/dsp/filter.h ****       const float a = 3.736e-01f * M_PI_POW_3;
 115:mi/stmlib/dsp/filter.h ****       return f * (M_PI_F + a * f * f);
 116:mi/stmlib/dsp/filter.h ****     } else if (approximation == FREQUENCY_FAST) {
 117:mi/stmlib/dsp/filter.h ****       // The usual tangent approximation uses 3.1755e-01 and 2.033e-01, but
 118:mi/stmlib/dsp/filter.h ****       // the coefficients used here are optimized to minimize error for the
 119:mi/stmlib/dsp/filter.h ****       // 16Hz to 16kHz range, with a sample rate of 48kHz.
 120:mi/stmlib/dsp/filter.h ****       const float a = 3.260e-01f * M_PI_POW_3;
 121:mi/stmlib/dsp/filter.h ****       const float b = 1.823e-01f * M_PI_POW_5;
 122:mi/stmlib/dsp/filter.h ****       float f2 = f * f;
 123:mi/stmlib/dsp/filter.h ****       return f * (M_PI_F + f2 * (a + b * f2));
 124:mi/stmlib/dsp/filter.h ****     } else if (approximation == FREQUENCY_ACCURATE) {
 125:mi/stmlib/dsp/filter.h ****       // These coefficients don't need to be tweaked for the audio range.
 126:mi/stmlib/dsp/filter.h ****       const float a = 3.333314036e-01f * M_PI_POW_3;
 127:mi/stmlib/dsp/filter.h ****       const float b = 1.333923995e-01f * M_PI_POW_5;
 128:mi/stmlib/dsp/filter.h ****       const float c = 5.33740603e-02f * M_PI_POW_7;
 129:mi/stmlib/dsp/filter.h ****       const float d = 2.900525e-03f * M_PI_POW_9;
 130:mi/stmlib/dsp/filter.h ****       const float e = 9.5168091e-03f * M_PI_POW_11;
 131:mi/stmlib/dsp/filter.h ****       float f2 = f * f;
 132:mi/stmlib/dsp/filter.h ****       return f * (M_PI_F + f2 * (a + f2 * (b + f2 * (c + f2 * (d + f2 * e)))));
 133:mi/stmlib/dsp/filter.h ****     }
 134:mi/stmlib/dsp/filter.h ****   }
 135:mi/stmlib/dsp/filter.h ****   
 136:mi/stmlib/dsp/filter.h ****   // Set frequency and resonance from true units. Various approximations
 137:mi/stmlib/dsp/filter.h ****   // are available to avoid the cost of tanf.
 138:mi/stmlib/dsp/filter.h ****   template<FrequencyApproximation approximation>
 139:mi/stmlib/dsp/filter.h ****   inline void set_f(float f) {
 140:mi/stmlib/dsp/filter.h ****     g_ = tan<approximation>(f);
 141:mi/stmlib/dsp/filter.h ****     gi_ = 1.0f / (1.0f + g_);
 142:mi/stmlib/dsp/filter.h ****   }
 143:mi/stmlib/dsp/filter.h ****   
 144:mi/stmlib/dsp/filter.h ****   template<FilterMode mode>
 145:mi/stmlib/dsp/filter.h ****   inline float Process(float in) {
 146:mi/stmlib/dsp/filter.h ****     float lp;
 147:mi/stmlib/dsp/filter.h ****     lp = (g_ * in + state_) * gi_;
 148:mi/stmlib/dsp/filter.h ****     state_ = g_ * (in - lp) + lp;
 149:mi/stmlib/dsp/filter.h **** 
 150:mi/stmlib/dsp/filter.h ****     if (mode == FILTER_MODE_LOW_PASS) {
ARM GAS  /var/folders/9k/zk1mgrrd7wg4__6zvxvr9w8m0000gn/T//ccVlS6UW.s 			page 9


 151:mi/stmlib/dsp/filter.h ****       return lp;
 152:mi/stmlib/dsp/filter.h ****     } else if (mode == FILTER_MODE_HIGH_PASS) {
 153:mi/stmlib/dsp/filter.h ****       return in - lp;
 154:mi/stmlib/dsp/filter.h ****     } else {
 155:mi/stmlib/dsp/filter.h ****       return 0.0f;
 156:mi/stmlib/dsp/filter.h ****     }
 157:mi/stmlib/dsp/filter.h ****   }
 158:mi/stmlib/dsp/filter.h ****   
 159:mi/stmlib/dsp/filter.h ****   template<FilterMode mode>
 160:mi/stmlib/dsp/filter.h ****   inline void Process(float* in_out, size_t size) {
 161:mi/stmlib/dsp/filter.h ****     while (size--) {
 162:mi/stmlib/dsp/filter.h ****       *in_out = Process<mode>(*in_out);
 163:mi/stmlib/dsp/filter.h ****       ++in_out;
 164:mi/stmlib/dsp/filter.h ****     }
 165:mi/stmlib/dsp/filter.h ****   }
 166:mi/stmlib/dsp/filter.h ****   
 167:mi/stmlib/dsp/filter.h ****  private:
 168:mi/stmlib/dsp/filter.h ****   float g_;
 169:mi/stmlib/dsp/filter.h ****   float gi_;
 170:mi/stmlib/dsp/filter.h ****   float state_;
 171:mi/stmlib/dsp/filter.h ****   
 172:mi/stmlib/dsp/filter.h ****   DISALLOW_COPY_AND_ASSIGN(OnePole);
 173:mi/stmlib/dsp/filter.h **** };
 174:mi/stmlib/dsp/filter.h **** 
 175:mi/stmlib/dsp/filter.h **** 
 176:mi/stmlib/dsp/filter.h **** 
 177:mi/stmlib/dsp/filter.h **** class Svf {
 178:mi/stmlib/dsp/filter.h ****  public:
 179:mi/stmlib/dsp/filter.h ****   Svf() { }
 180:mi/stmlib/dsp/filter.h ****   ~Svf() { }
 181:mi/stmlib/dsp/filter.h ****   
 182:mi/stmlib/dsp/filter.h ****   void Init() {
 183:mi/stmlib/dsp/filter.h ****     set_f_q<FREQUENCY_DIRTY>(0.01f, 100.0f);
 184:mi/stmlib/dsp/filter.h ****     Reset();
 185:mi/stmlib/dsp/filter.h ****   }
 186:mi/stmlib/dsp/filter.h ****   
 187:mi/stmlib/dsp/filter.h ****   void Reset() {
 188:mi/stmlib/dsp/filter.h ****     state_1_ = state_2_ = 0.0f;
 189:mi/stmlib/dsp/filter.h ****   }
 190:mi/stmlib/dsp/filter.h ****   
 191:mi/stmlib/dsp/filter.h ****   // Copy settings from another filter.
 192:mi/stmlib/dsp/filter.h ****   inline void set(const Svf& f) {
 193:mi/stmlib/dsp/filter.h ****     g_ = f.g();
 194:mi/stmlib/dsp/filter.h ****     r_ = f.r();
 195:mi/stmlib/dsp/filter.h ****     h_ = f.h();
 196:mi/stmlib/dsp/filter.h ****   }
 197:mi/stmlib/dsp/filter.h **** 
 198:mi/stmlib/dsp/filter.h ****   // Set all parameters from LUT.
 199:mi/stmlib/dsp/filter.h ****   inline void set_g_r_h(float g, float r, float h) {
 200:mi/stmlib/dsp/filter.h ****     g_ = g;
 201:mi/stmlib/dsp/filter.h ****     r_ = r;
 202:mi/stmlib/dsp/filter.h ****     h_ = h;
 203:mi/stmlib/dsp/filter.h ****   }
 204:mi/stmlib/dsp/filter.h ****   
 205:mi/stmlib/dsp/filter.h ****   // Set frequency and resonance coefficients from LUT, adjust remaining
 206:mi/stmlib/dsp/filter.h ****   // parameter.
 207:mi/stmlib/dsp/filter.h ****   inline void set_g_r(float g, float r) {
ARM GAS  /var/folders/9k/zk1mgrrd7wg4__6zvxvr9w8m0000gn/T//ccVlS6UW.s 			page 10


 208:mi/stmlib/dsp/filter.h ****     g_ = g;
 209:mi/stmlib/dsp/filter.h ****     r_ = r;
 210:mi/stmlib/dsp/filter.h ****     h_ = 1.0f / (1.0f + r_ * g_ + g_ * g_);
 211:mi/stmlib/dsp/filter.h ****   }
 212:mi/stmlib/dsp/filter.h **** 
 213:mi/stmlib/dsp/filter.h ****   // Set frequency from LUT, resonance in true units, adjust the rest.
 214:mi/stmlib/dsp/filter.h ****   inline void set_g_q(float g, float resonance) {
 215:mi/stmlib/dsp/filter.h ****     g_ = g;
 216:mi/stmlib/dsp/filter.h ****     r_ = 1.0f / resonance;
 217:mi/stmlib/dsp/filter.h ****     h_ = 1.0f / (1.0f + r_ * g_ + g_ * g_);
 218:mi/stmlib/dsp/filter.h ****   }
 219:mi/stmlib/dsp/filter.h **** 
 220:mi/stmlib/dsp/filter.h ****   // Set frequency and resonance from true units. Various approximations
 221:mi/stmlib/dsp/filter.h ****   // are available to avoid the cost of tanf.
 222:mi/stmlib/dsp/filter.h ****   template<FrequencyApproximation approximation>
 223:mi/stmlib/dsp/filter.h ****   inline void set_f_q(float f, float resonance) {
 224:mi/stmlib/dsp/filter.h ****     g_ = OnePole::tan<approximation>(f);
 225:mi/stmlib/dsp/filter.h ****     r_ = 1.0f / resonance;
 226:mi/stmlib/dsp/filter.h ****     h_ = 1.0f / (1.0f + r_ * g_ + g_ * g_);
 227:mi/stmlib/dsp/filter.h ****   }
 228:mi/stmlib/dsp/filter.h ****   
 229:mi/stmlib/dsp/filter.h ****   template<FilterMode mode>
 230:mi/stmlib/dsp/filter.h ****   inline float Process(float in) {
 231:mi/stmlib/dsp/filter.h ****     float hp, bp, lp;
 232:mi/stmlib/dsp/filter.h ****     hp = (in - r_ * state_1_ - g_ * state_1_ - state_2_) * h_;
 233:mi/stmlib/dsp/filter.h ****     bp = g_ * hp + state_1_;
 234:mi/stmlib/dsp/filter.h ****     state_1_ = g_ * hp + bp;
 235:mi/stmlib/dsp/filter.h ****     lp = g_ * bp + state_2_;
 236:mi/stmlib/dsp/filter.h ****     state_2_ = g_ * bp + lp;
 237:mi/stmlib/dsp/filter.h ****     
 238:mi/stmlib/dsp/filter.h ****     if (mode == FILTER_MODE_LOW_PASS) {
 239:mi/stmlib/dsp/filter.h ****       return lp;
 240:mi/stmlib/dsp/filter.h ****     } else if (mode == FILTER_MODE_BAND_PASS) {
 241:mi/stmlib/dsp/filter.h ****       return bp;
 242:mi/stmlib/dsp/filter.h ****     } else if (mode == FILTER_MODE_BAND_PASS_NORMALIZED) {
 243:mi/stmlib/dsp/filter.h ****       return bp * r_;
 244:mi/stmlib/dsp/filter.h ****     } else if (mode == FILTER_MODE_HIGH_PASS) {
 245:mi/stmlib/dsp/filter.h ****       return hp;
 246:mi/stmlib/dsp/filter.h ****     }
 247:mi/stmlib/dsp/filter.h ****   }
 248:mi/stmlib/dsp/filter.h ****   
 249:mi/stmlib/dsp/filter.h ****   template<FilterMode mode_1, FilterMode mode_2>
 250:mi/stmlib/dsp/filter.h ****   inline void Process(float in, float* out_1, float* out_2) {
 251:mi/stmlib/dsp/filter.h ****     float hp, bp, lp;
 252:mi/stmlib/dsp/filter.h ****     hp = (in - r_ * state_1_ - g_ * state_1_ - state_2_) * h_;
 253:mi/stmlib/dsp/filter.h ****     bp = g_ * hp + state_1_;
 254:mi/stmlib/dsp/filter.h ****     state_1_ = g_ * hp + bp;
 255:mi/stmlib/dsp/filter.h ****     lp = g_ * bp + state_2_;
 256:mi/stmlib/dsp/filter.h ****     state_2_ = g_ * bp + lp;
 257:mi/stmlib/dsp/filter.h ****     
 258:mi/stmlib/dsp/filter.h ****     if (mode_1 == FILTER_MODE_LOW_PASS) {
 259:mi/stmlib/dsp/filter.h ****       *out_1 = lp;
 260:mi/stmlib/dsp/filter.h ****     } else if (mode_1 == FILTER_MODE_BAND_PASS) {
 261:mi/stmlib/dsp/filter.h ****       *out_1 = bp;
 262:mi/stmlib/dsp/filter.h ****     } else if (mode_1 == FILTER_MODE_BAND_PASS_NORMALIZED) {
 263:mi/stmlib/dsp/filter.h ****       *out_1 = bp * r_;
 264:mi/stmlib/dsp/filter.h ****     } else if (mode_1 == FILTER_MODE_HIGH_PASS) {
ARM GAS  /var/folders/9k/zk1mgrrd7wg4__6zvxvr9w8m0000gn/T//ccVlS6UW.s 			page 11


 265:mi/stmlib/dsp/filter.h ****       *out_1 = hp;
 266:mi/stmlib/dsp/filter.h ****     }
 267:mi/stmlib/dsp/filter.h **** 
 268:mi/stmlib/dsp/filter.h ****     if (mode_2 == FILTER_MODE_LOW_PASS) {
 269:mi/stmlib/dsp/filter.h ****       *out_2 = lp;
 270:mi/stmlib/dsp/filter.h ****     } else if (mode_2 == FILTER_MODE_BAND_PASS) {
 271:mi/stmlib/dsp/filter.h ****       *out_2 = bp;
 272:mi/stmlib/dsp/filter.h ****     } else if (mode_2 == FILTER_MODE_BAND_PASS_NORMALIZED) {
 273:mi/stmlib/dsp/filter.h ****       *out_2 = bp * r_;
 274:mi/stmlib/dsp/filter.h ****     } else if (mode_2 == FILTER_MODE_HIGH_PASS) {
 275:mi/stmlib/dsp/filter.h ****       *out_2 = hp;
 276:mi/stmlib/dsp/filter.h ****     }
 277:mi/stmlib/dsp/filter.h ****   }
 278:mi/stmlib/dsp/filter.h ****   
 279:mi/stmlib/dsp/filter.h ****   template<FilterMode mode>
 280:mi/stmlib/dsp/filter.h ****   inline void Process(const float* in, float* out, size_t size) {
 281:mi/stmlib/dsp/filter.h ****     float hp, bp, lp;
 282:mi/stmlib/dsp/filter.h ****     float state_1 = state_1_;
 283:mi/stmlib/dsp/filter.h ****     float state_2 = state_2_;
 284:mi/stmlib/dsp/filter.h ****     
 285:mi/stmlib/dsp/filter.h ****     while (size--) {
 286:mi/stmlib/dsp/filter.h ****       hp = (*in - r_ * state_1 - g_ * state_1 - state_2) * h_;
 287:mi/stmlib/dsp/filter.h ****       bp = g_ * hp + state_1;
 288:mi/stmlib/dsp/filter.h ****       state_1 = g_ * hp + bp;
 289:mi/stmlib/dsp/filter.h ****       lp = g_ * bp + state_2;
 290:mi/stmlib/dsp/filter.h ****       state_2 = g_ * bp + lp;
 291:mi/stmlib/dsp/filter.h ****     
 292:mi/stmlib/dsp/filter.h ****       float value;
 293:mi/stmlib/dsp/filter.h ****       if (mode == FILTER_MODE_LOW_PASS) {
 294:mi/stmlib/dsp/filter.h ****         value = lp;
 295:mi/stmlib/dsp/filter.h ****       } else if (mode == FILTER_MODE_BAND_PASS) {
 296:mi/stmlib/dsp/filter.h ****         value = bp;
 297:mi/stmlib/dsp/filter.h ****       } else if (mode == FILTER_MODE_BAND_PASS_NORMALIZED) {
 298:mi/stmlib/dsp/filter.h ****         value = bp * r_;
 299:mi/stmlib/dsp/filter.h ****       } else if (mode == FILTER_MODE_HIGH_PASS) {
 300:mi/stmlib/dsp/filter.h ****         value = hp;
 301:mi/stmlib/dsp/filter.h ****       }
 302:mi/stmlib/dsp/filter.h ****       
 303:mi/stmlib/dsp/filter.h ****       *out = value;
 304:mi/stmlib/dsp/filter.h ****       ++out;
 305:mi/stmlib/dsp/filter.h ****       ++in;
 306:mi/stmlib/dsp/filter.h ****     }
 307:mi/stmlib/dsp/filter.h ****     state_1_ = state_1;
 308:mi/stmlib/dsp/filter.h ****     state_2_ = state_2;
 309:mi/stmlib/dsp/filter.h ****   }
 310:mi/stmlib/dsp/filter.h ****   
 311:mi/stmlib/dsp/filter.h ****   template<FilterMode mode>
 312:mi/stmlib/dsp/filter.h ****   inline void ProcessAdd(const float* in, float* out, size_t size, float gain) {
 313:mi/stmlib/dsp/filter.h ****     float hp, bp, lp;
 314:mi/stmlib/dsp/filter.h ****     float state_1 = state_1_;
 315:mi/stmlib/dsp/filter.h ****     float state_2 = state_2_;
 316:mi/stmlib/dsp/filter.h ****     
 317:mi/stmlib/dsp/filter.h ****     while (size--) {
 318:mi/stmlib/dsp/filter.h ****       hp = (*in - r_ * state_1 - g_ * state_1 - state_2) * h_;
 319:mi/stmlib/dsp/filter.h ****       bp = g_ * hp + state_1;
 320:mi/stmlib/dsp/filter.h ****       state_1 = g_ * hp + bp;
 321:mi/stmlib/dsp/filter.h ****       lp = g_ * bp + state_2;
ARM GAS  /var/folders/9k/zk1mgrrd7wg4__6zvxvr9w8m0000gn/T//ccVlS6UW.s 			page 12


 322:mi/stmlib/dsp/filter.h ****       state_2 = g_ * bp + lp;
 323:mi/stmlib/dsp/filter.h ****     
 324:mi/stmlib/dsp/filter.h ****       float value;
 325:mi/stmlib/dsp/filter.h ****       if (mode == FILTER_MODE_LOW_PASS) {
 326:mi/stmlib/dsp/filter.h ****         value = lp;
 327:mi/stmlib/dsp/filter.h ****       } else if (mode == FILTER_MODE_BAND_PASS) {
 328:mi/stmlib/dsp/filter.h ****         value = bp;
 329:mi/stmlib/dsp/filter.h ****       } else if (mode == FILTER_MODE_BAND_PASS_NORMALIZED) {
 330:mi/stmlib/dsp/filter.h ****         value = bp * r_;
 331:mi/stmlib/dsp/filter.h ****       } else if (mode == FILTER_MODE_HIGH_PASS) {
 332:mi/stmlib/dsp/filter.h ****         value = hp;
 333:mi/stmlib/dsp/filter.h ****       }
 334:mi/stmlib/dsp/filter.h ****       
 335:mi/stmlib/dsp/filter.h ****       *out += gain * value;
 336:mi/stmlib/dsp/filter.h ****       ++out;
 337:mi/stmlib/dsp/filter.h ****       ++in;
 338:mi/stmlib/dsp/filter.h ****     }
 339:mi/stmlib/dsp/filter.h ****     state_1_ = state_1;
 340:mi/stmlib/dsp/filter.h ****     state_2_ = state_2;
 341:mi/stmlib/dsp/filter.h ****   }
 342:mi/stmlib/dsp/filter.h ****   
 343:mi/stmlib/dsp/filter.h ****   template<FilterMode mode>
 344:mi/stmlib/dsp/filter.h ****   inline void Process(const float* in, float* out, size_t size, size_t stride) {
 345:mi/stmlib/dsp/filter.h ****     float hp, bp, lp;
 346:mi/stmlib/dsp/filter.h ****     float state_1 = state_1_;
 347:mi/stmlib/dsp/filter.h ****     float state_2 = state_2_;
 348:mi/stmlib/dsp/filter.h ****     
 349:mi/stmlib/dsp/filter.h ****     while (size--) {
 350:mi/stmlib/dsp/filter.h ****       hp = (*in - r_ * state_1 - g_ * state_1 - state_2) * h_;
 351:mi/stmlib/dsp/filter.h ****       bp = g_ * hp + state_1;
 352:mi/stmlib/dsp/filter.h ****       state_1 = g_ * hp + bp;
 353:mi/stmlib/dsp/filter.h ****       lp = g_ * bp + state_2;
 354:mi/stmlib/dsp/filter.h ****       state_2 = g_ * bp + lp;
 355:mi/stmlib/dsp/filter.h ****     
 356:mi/stmlib/dsp/filter.h ****       float value;
 357:mi/stmlib/dsp/filter.h ****       if (mode == FILTER_MODE_LOW_PASS) {
 358:mi/stmlib/dsp/filter.h ****         value = lp;
 359:mi/stmlib/dsp/filter.h ****       } else if (mode == FILTER_MODE_BAND_PASS) {
 360:mi/stmlib/dsp/filter.h ****         value = bp;
 361:mi/stmlib/dsp/filter.h ****       } else if (mode == FILTER_MODE_BAND_PASS_NORMALIZED) {
 362:mi/stmlib/dsp/filter.h ****         value = bp * r_;
 363:mi/stmlib/dsp/filter.h ****       } else if (mode == FILTER_MODE_HIGH_PASS) {
 364:mi/stmlib/dsp/filter.h ****         value = hp;
 365:mi/stmlib/dsp/filter.h ****       }
 366:mi/stmlib/dsp/filter.h ****       
 367:mi/stmlib/dsp/filter.h ****       *out = value;
 368:mi/stmlib/dsp/filter.h ****       out += stride;
 369:mi/stmlib/dsp/filter.h ****       in += stride;
 370:mi/stmlib/dsp/filter.h ****     }
 371:mi/stmlib/dsp/filter.h ****     state_1_ = state_1;
 372:mi/stmlib/dsp/filter.h ****     state_2_ = state_2;
 373:mi/stmlib/dsp/filter.h ****   }
 374:mi/stmlib/dsp/filter.h ****   
 375:mi/stmlib/dsp/filter.h ****   inline void ProcessMultimode(
 376:mi/stmlib/dsp/filter.h ****       const float* in,
 377:mi/stmlib/dsp/filter.h ****       float* out,
 378:mi/stmlib/dsp/filter.h ****       size_t size,
ARM GAS  /var/folders/9k/zk1mgrrd7wg4__6zvxvr9w8m0000gn/T//ccVlS6UW.s 			page 13


 379:mi/stmlib/dsp/filter.h ****       float mode) {
 380:mi/stmlib/dsp/filter.h ****     float hp, bp, lp;
 381:mi/stmlib/dsp/filter.h ****     float state_1 = state_1_;
 382:mi/stmlib/dsp/filter.h ****     float state_2 = state_2_;
 383:mi/stmlib/dsp/filter.h ****     float hp_gain = mode < 0.5f ? -mode * 2.0f : -2.0f + mode * 2.0f;
 384:mi/stmlib/dsp/filter.h ****     float lp_gain = mode < 0.5f ? 1.0f - mode * 2.0f : 0.0f;
 385:mi/stmlib/dsp/filter.h ****     float bp_gain = mode < 0.5f ? 0.0f : mode * 2.0f - 1.0f;
 386:mi/stmlib/dsp/filter.h ****     while (size--) {
 387:mi/stmlib/dsp/filter.h ****       hp = (*in - r_ * state_1 - g_ * state_1 - state_2) * h_;
 388:mi/stmlib/dsp/filter.h ****       bp = g_ * hp + state_1;
 389:mi/stmlib/dsp/filter.h ****       state_1 = g_ * hp + bp;
 390:mi/stmlib/dsp/filter.h ****       lp = g_ * bp + state_2;
 391:mi/stmlib/dsp/filter.h ****       state_2 = g_ * bp + lp;
 392:mi/stmlib/dsp/filter.h ****       *out = hp_gain * hp + bp_gain * bp + lp_gain * lp;
 393:mi/stmlib/dsp/filter.h ****       ++in;
 394:mi/stmlib/dsp/filter.h ****       ++out;
 395:mi/stmlib/dsp/filter.h ****     }
 396:mi/stmlib/dsp/filter.h ****     state_1_ = state_1;
 397:mi/stmlib/dsp/filter.h ****     state_2_ = state_2;
 398:mi/stmlib/dsp/filter.h ****   }
 399:mi/stmlib/dsp/filter.h ****   
 400:mi/stmlib/dsp/filter.h ****   inline void ProcessMultimodeLPtoHP(
 401:mi/stmlib/dsp/filter.h ****       const float* in,
 402:mi/stmlib/dsp/filter.h ****       float* out,
 403:mi/stmlib/dsp/filter.h ****       size_t size,
 404:mi/stmlib/dsp/filter.h ****       float mode) {
 405:mi/stmlib/dsp/filter.h ****     float hp, bp, lp;
 406:mi/stmlib/dsp/filter.h ****     float state_1 = state_1_;
 407:mi/stmlib/dsp/filter.h ****     float state_2 = state_2_;
 408:mi/stmlib/dsp/filter.h ****     float hp_gain = std::min(-mode * 2.0f + 1.0f, 0.0f);
 409:mi/stmlib/dsp/filter.h ****     float bp_gain = 1.0f - 2.0f * fabsf(mode - 0.5f);
 410:mi/stmlib/dsp/filter.h ****     float lp_gain = std::max(1.0f - mode * 2.0f, 0.0f);
 411:mi/stmlib/dsp/filter.h ****     while (size--) {
 412:mi/stmlib/dsp/filter.h ****       hp = (*in - r_ * state_1 - g_ * state_1 - state_2) * h_;
 413:mi/stmlib/dsp/filter.h ****       bp = g_ * hp + state_1;
 414:mi/stmlib/dsp/filter.h ****       state_1 = g_ * hp + bp;
 415:mi/stmlib/dsp/filter.h ****       lp = g_ * bp + state_2;
 416:mi/stmlib/dsp/filter.h ****       state_2 = g_ * bp + lp;
 417:mi/stmlib/dsp/filter.h ****       *out = hp_gain * hp + bp_gain * bp + lp_gain * lp;
 418:mi/stmlib/dsp/filter.h ****       ++in;
 419:mi/stmlib/dsp/filter.h ****       ++out;
 420:mi/stmlib/dsp/filter.h ****     }
 421:mi/stmlib/dsp/filter.h ****     state_1_ = state_1;
 422:mi/stmlib/dsp/filter.h ****     state_2_ = state_2;
 423:mi/stmlib/dsp/filter.h ****   }
 424:mi/stmlib/dsp/filter.h ****   
 425:mi/stmlib/dsp/filter.h ****   template<FilterMode mode>
 426:mi/stmlib/dsp/filter.h ****   inline void Process(
 427:mi/stmlib/dsp/filter.h ****       const float* in, float* out_1, float* out_2, size_t size,
 428:mi/stmlib/dsp/filter.h ****       float gain_1, float gain_2) {
 429:mi/stmlib/dsp/filter.h ****     float hp, bp, lp;
 430:mi/stmlib/dsp/filter.h ****     float state_1 = state_1_;
 431:mi/stmlib/dsp/filter.h ****     float state_2 = state_2_;
 432:mi/stmlib/dsp/filter.h ****     
 433:mi/stmlib/dsp/filter.h ****     while (size--) {
 434:mi/stmlib/dsp/filter.h ****       hp = (*in - r_ * state_1 - g_ * state_1 - state_2) * h_;
 435:mi/stmlib/dsp/filter.h ****       bp = g_ * hp + state_1;
ARM GAS  /var/folders/9k/zk1mgrrd7wg4__6zvxvr9w8m0000gn/T//ccVlS6UW.s 			page 14


 436:mi/stmlib/dsp/filter.h ****       state_1 = g_ * hp + bp;
 437:mi/stmlib/dsp/filter.h ****       lp = g_ * bp + state_2;
 438:mi/stmlib/dsp/filter.h ****       state_2 = g_ * bp + lp;
 439:mi/stmlib/dsp/filter.h ****     
 440:mi/stmlib/dsp/filter.h ****       float value;
 441:mi/stmlib/dsp/filter.h ****       if (mode == FILTER_MODE_LOW_PASS) {
 442:mi/stmlib/dsp/filter.h ****         value = lp;
 443:mi/stmlib/dsp/filter.h ****       } else if (mode == FILTER_MODE_BAND_PASS) {
 444:mi/stmlib/dsp/filter.h ****         value = bp;
 445:mi/stmlib/dsp/filter.h ****       } else if (mode == FILTER_MODE_BAND_PASS_NORMALIZED) {
 446:mi/stmlib/dsp/filter.h ****         value = bp * r_;
 447:mi/stmlib/dsp/filter.h ****       } else if (mode == FILTER_MODE_HIGH_PASS) {
 448:mi/stmlib/dsp/filter.h ****         value = hp;
 449:mi/stmlib/dsp/filter.h ****       }
 450:mi/stmlib/dsp/filter.h ****       
 451:mi/stmlib/dsp/filter.h ****       *out_1 += value * gain_1;
 452:mi/stmlib/dsp/filter.h ****       *out_2 += value * gain_2;
 453:mi/stmlib/dsp/filter.h ****       ++out_1;
 454:mi/stmlib/dsp/filter.h ****       ++out_2;
 455:mi/stmlib/dsp/filter.h ****       ++in;
 456:mi/stmlib/dsp/filter.h ****     }
 457:mi/stmlib/dsp/filter.h ****     state_1_ = state_1;
 458:mi/stmlib/dsp/filter.h ****     state_2_ = state_2;
 459:mi/stmlib/dsp/filter.h ****   }
 460:mi/stmlib/dsp/filter.h ****   
 461:mi/stmlib/dsp/filter.h ****   inline float g() const { return g_; }
 462:mi/stmlib/dsp/filter.h ****   inline float r() const { return r_; }
 463:mi/stmlib/dsp/filter.h ****   inline float h() const { return h_; }
 464:mi/stmlib/dsp/filter.h ****   
 465:mi/stmlib/dsp/filter.h ****  private:
 466:mi/stmlib/dsp/filter.h ****   float g_;
 467:mi/stmlib/dsp/filter.h ****   float r_;
 468:mi/stmlib/dsp/filter.h ****   float h_;
 469:mi/stmlib/dsp/filter.h **** 
 470:mi/stmlib/dsp/filter.h ****   float state_1_;
 471:mi/stmlib/dsp/filter.h ****   float state_2_;
 472:mi/stmlib/dsp/filter.h ****   
 473:mi/stmlib/dsp/filter.h ****   DISALLOW_COPY_AND_ASSIGN(Svf);
 474:mi/stmlib/dsp/filter.h **** };
 475:mi/stmlib/dsp/filter.h **** 
 476:mi/stmlib/dsp/filter.h **** 
 477:mi/stmlib/dsp/filter.h **** 
 478:mi/stmlib/dsp/filter.h **** // Naive Chamberlin SVF.
 479:mi/stmlib/dsp/filter.h **** class NaiveSvf {
 480:mi/stmlib/dsp/filter.h ****  public:
 481:mi/stmlib/dsp/filter.h ****   NaiveSvf() { }
 482:mi/stmlib/dsp/filter.h ****   ~NaiveSvf() { }
 483:mi/stmlib/dsp/filter.h ****   
 484:mi/stmlib/dsp/filter.h ****   void Init() {
 485:mi/stmlib/dsp/filter.h ****     set_f_q<FREQUENCY_DIRTY>(0.01f, 100.0f);
 486:mi/stmlib/dsp/filter.h ****     Reset();
 487:mi/stmlib/dsp/filter.h ****   }
 488:mi/stmlib/dsp/filter.h ****   
 489:mi/stmlib/dsp/filter.h ****   void Reset() {
 490:mi/stmlib/dsp/filter.h ****     lp_ = bp_ = 0.0f;
 491:mi/stmlib/dsp/filter.h ****   }
 492:mi/stmlib/dsp/filter.h ****   
ARM GAS  /var/folders/9k/zk1mgrrd7wg4__6zvxvr9w8m0000gn/T//ccVlS6UW.s 			page 15


 493:mi/stmlib/dsp/filter.h ****   // Set frequency and resonance from true units. Various approximations
 494:mi/stmlib/dsp/filter.h ****   // are available to avoid the cost of sinf.
 495:mi/stmlib/dsp/filter.h ****   template<FrequencyApproximation approximation>
 496:mi/stmlib/dsp/filter.h ****   inline void set_f_q(float f, float resonance) {
 497:mi/stmlib/dsp/filter.h ****     if (approximation == FREQUENCY_EXACT) {
 498:mi/stmlib/dsp/filter.h ****       f = f < 0.497f ? f : 0.497f;
 499:mi/stmlib/dsp/filter.h ****       f_ = 2.0f * sinf(M_PI_F * f);
 500:mi/stmlib/dsp/filter.h ****     } else {
 501:mi/stmlib/dsp/filter.h ****       f = f < 0.158f ? f : 0.158f;
 502:mi/stmlib/dsp/filter.h ****       f_ = 2.0f * M_PI_F * f;
 145              		.loc 4 502 10 is_stmt 0 view .LVU37
 146 0032 144B     		ldr	r3, .L9+4
 503:mi/stmlib/dsp/filter.h ****     }
 504:mi/stmlib/dsp/filter.h ****     damp_ = 1.0f / resonance;
 147              		.loc 4 504 11 view .LVU38
 148 0034 144A     		ldr	r2, .L9+8
 502:mi/stmlib/dsp/filter.h ****     }
 149              		.loc 4 502 10 view .LVU39
 150 0036 C5F8E830 		str	r3, [r5, #232]	@ float
 151              	.LBE282:
 152              	.LBE281:
 153              	.LBE280:
 154              	.LBB290:
 155              	.LBB291:
 156              	.LBB292:
 157 003a C5F8F830 		str	r3, [r5, #248]	@ float
 158              	.LBE292:
 159              	.LBE291:
 160              	.LBE290:
 161              	.LBB299:
 162              	.LBB300:
 163              	.LBB301:
 164              		.file 5 "mi/stmlib/utils/buffer_allocator.h"
   1:mi/stmlib/utils/buffer_allocator.h **** // Copyright 2014 Emilie Gillet.
   2:mi/stmlib/utils/buffer_allocator.h **** //
   3:mi/stmlib/utils/buffer_allocator.h **** // Author: Emilie Gillet (emilie.o.gillet@gmail.com)
   4:mi/stmlib/utils/buffer_allocator.h **** //
   5:mi/stmlib/utils/buffer_allocator.h **** // Permission is hereby granted, free of charge, to any person obtaining a copy
   6:mi/stmlib/utils/buffer_allocator.h **** // of this software and associated documentation files (the "Software"), to deal
   7:mi/stmlib/utils/buffer_allocator.h **** // in the Software without restriction, including without limitation the rights
   8:mi/stmlib/utils/buffer_allocator.h **** // to use, copy, modify, merge, publish, distribute, sublicense, and/or sell
   9:mi/stmlib/utils/buffer_allocator.h **** // copies of the Software, and to permit persons to whom the Software is
  10:mi/stmlib/utils/buffer_allocator.h **** // furnished to do so, subject to the following conditions:
  11:mi/stmlib/utils/buffer_allocator.h **** // 
  12:mi/stmlib/utils/buffer_allocator.h **** // The above copyright notice and this permission notice shall be included in
  13:mi/stmlib/utils/buffer_allocator.h **** // all copies or substantial portions of the Software.
  14:mi/stmlib/utils/buffer_allocator.h **** // 
  15:mi/stmlib/utils/buffer_allocator.h **** // THE SOFTWARE IS PROVIDED "AS IS", WITHOUT WARRANTY OF ANY KIND, EXPRESS OR
  16:mi/stmlib/utils/buffer_allocator.h **** // IMPLIED, INCLUDING BUT NOT LIMITED TO THE WARRANTIES OF MERCHANTABILITY,
  17:mi/stmlib/utils/buffer_allocator.h **** // FITNESS FOR A PARTICULAR PURPOSE AND NONINFRINGEMENT. IN NO EVENT SHALL THE
  18:mi/stmlib/utils/buffer_allocator.h **** // AUTHORS OR COPYRIGHT HOLDERS BE LIABLE FOR ANY CLAIM, DAMAGES OR OTHER
  19:mi/stmlib/utils/buffer_allocator.h **** // LIABILITY, WHETHER IN AN ACTION OF CONTRACT, TORT OR OTHERWISE, ARISING FROM,
  20:mi/stmlib/utils/buffer_allocator.h **** // OUT OF OR IN CONNECTION WITH THE SOFTWARE OR THE USE OR OTHER DEALINGS IN
  21:mi/stmlib/utils/buffer_allocator.h **** // THE SOFTWARE.
  22:mi/stmlib/utils/buffer_allocator.h **** // 
  23:mi/stmlib/utils/buffer_allocator.h **** // See http://creativecommons.org/licenses/MIT/ for more information.
  24:mi/stmlib/utils/buffer_allocator.h **** //
ARM GAS  /var/folders/9k/zk1mgrrd7wg4__6zvxvr9w8m0000gn/T//ccVlS6UW.s 			page 16


  25:mi/stmlib/utils/buffer_allocator.h **** // -----------------------------------------------------------------------------
  26:mi/stmlib/utils/buffer_allocator.h **** //
  27:mi/stmlib/utils/buffer_allocator.h **** // Stream buffer for serialization.
  28:mi/stmlib/utils/buffer_allocator.h **** 
  29:mi/stmlib/utils/buffer_allocator.h **** #ifndef STMLIB_UTILS_BUFFER_ALLOCATOR_H_
  30:mi/stmlib/utils/buffer_allocator.h **** #define STMLIB_UTILS_BUFFER_ALLOCATOR_H_
  31:mi/stmlib/utils/buffer_allocator.h **** 
  32:mi/stmlib/utils/buffer_allocator.h **** #include "stmlib/stmlib.h"
  33:mi/stmlib/utils/buffer_allocator.h **** 
  34:mi/stmlib/utils/buffer_allocator.h **** namespace stmlib {
  35:mi/stmlib/utils/buffer_allocator.h **** 
  36:mi/stmlib/utils/buffer_allocator.h **** class BufferAllocator {
  37:mi/stmlib/utils/buffer_allocator.h ****  public:
  38:mi/stmlib/utils/buffer_allocator.h ****   BufferAllocator() { }
  39:mi/stmlib/utils/buffer_allocator.h ****   ~BufferAllocator() { }
  40:mi/stmlib/utils/buffer_allocator.h ****   
  41:mi/stmlib/utils/buffer_allocator.h ****   BufferAllocator(void* buffer, size_t size) {
  42:mi/stmlib/utils/buffer_allocator.h ****     Init(buffer, size);
  43:mi/stmlib/utils/buffer_allocator.h ****   }
  44:mi/stmlib/utils/buffer_allocator.h ****   
  45:mi/stmlib/utils/buffer_allocator.h ****   inline void Init(void* buffer, size_t size) {
  46:mi/stmlib/utils/buffer_allocator.h ****     buffer_ = static_cast<uint8_t*>(buffer);
  47:mi/stmlib/utils/buffer_allocator.h ****     size_ = size;
  48:mi/stmlib/utils/buffer_allocator.h ****     Free();
  49:mi/stmlib/utils/buffer_allocator.h ****   }
  50:mi/stmlib/utils/buffer_allocator.h **** 
  51:mi/stmlib/utils/buffer_allocator.h ****   template<typename T>
  52:mi/stmlib/utils/buffer_allocator.h ****   inline T* Allocate() {
  53:mi/stmlib/utils/buffer_allocator.h ****     return Allocate<T>(1);
  54:mi/stmlib/utils/buffer_allocator.h ****   }
  55:mi/stmlib/utils/buffer_allocator.h ****   
  56:mi/stmlib/utils/buffer_allocator.h ****   template<typename T>
  57:mi/stmlib/utils/buffer_allocator.h ****   inline T* Allocate(size_t size) {
  58:mi/stmlib/utils/buffer_allocator.h ****     size_t size_bytes = sizeof(T) * size;
  59:mi/stmlib/utils/buffer_allocator.h ****     if (size_bytes <= free_) {
 165              		.loc 5 59 23 view .LVU40
 166 003e BB68     		ldr	r3, [r7, #8]
 167              	.LBE301:
 168              	.LBE300:
 169              	.LBE299:
 170              		.loc 2 45 13 view .LVU41
 171 0040 C5F80841 		str	r4, [r5, #264]	@ float
  46:mi/plaits/dsp/engine2/string_machine_engine.cpp ****   timbre_lp_ = 0.0f;
 172              		.loc 2 46 3 is_stmt 1 view .LVU42
 173              	.LBB307:
 174              	.LBB305:
 175              	.LBB303:
 176              		.loc 5 59 5 is_stmt 0 view .LVU43
 177 0044 B3F5805F 		cmp	r3, #4096
 178              	.LBE303:
 179              	.LBE305:
 180              	.LBE307:
 181              		.loc 2 46 14 view .LVU44
 182 0048 C5F80C41 		str	r4, [r5, #268]	@ float
  47:mi/plaits/dsp/engine2/string_machine_engine.cpp ****   svf_[0].Init();
 183              		.loc 2 47 3 is_stmt 1 view .LVU45
 184              	.LVL5:
ARM GAS  /var/folders/9k/zk1mgrrd7wg4__6zvxvr9w8m0000gn/T//ccVlS6UW.s 			page 17


 185              	.LBB308:
 186              	.LBI280:
 484:mi/stmlib/dsp/filter.h ****     set_f_q<FREQUENCY_DIRTY>(0.01f, 100.0f);
 187              		.loc 4 484 8 view .LVU46
 188              	.LBE308:
 485:mi/stmlib/dsp/filter.h ****     Reset();
 189              		.loc 4 485 5 view .LVU47
 190              	.LBB309:
 191              	.LBB284:
 192              	.LBI281:
 496:mi/stmlib/dsp/filter.h ****     if (approximation == FREQUENCY_EXACT) {
 193              		.loc 4 496 15 view .LVU48
 496:mi/stmlib/dsp/filter.h ****     if (approximation == FREQUENCY_EXACT) {
 194              		.loc 4 496 15 is_stmt 0 view .LVU49
 195              	.LBE284:
 196              	.LBB285:
 197              	.LBB286:
 490:mi/stmlib/dsp/filter.h ****   }
 198              		.loc 4 490 15 view .LVU50
 199 004c C5F8F440 		str	r4, [r5, #244]	@ float
 490:mi/stmlib/dsp/filter.h ****   }
 200              		.loc 4 490 9 view .LVU51
 201 0050 C5F8F040 		str	r4, [r5, #240]	@ float
 202              	.LBE286:
 203              	.LBE285:
 204              	.LBE309:
 205              	.LBB310:
 206              	.LBB294:
 207              	.LBB295:
 490:mi/stmlib/dsp/filter.h ****   }
 208              		.loc 4 490 15 view .LVU52
 209 0054 C5F80441 		str	r4, [r5, #260]	@ float
 490:mi/stmlib/dsp/filter.h ****   }
 210              		.loc 4 490 9 view .LVU53
 211 0058 C5F80041 		str	r4, [r5, #256]	@ float
 212              	.LBE295:
 213              	.LBE294:
 214              	.LBE310:
 215              	.LBB311:
 216              	.LBB288:
 217              	.LBB283:
 218              		.loc 4 504 11 view .LVU54
 219 005c C5F8EC20 		str	r2, [r5, #236]	@ float
 220              	.LVL6:
 221              		.loc 4 504 11 view .LVU55
 222              	.LBE283:
 223              	.LBE288:
 224              	.LBE311:
 486:mi/stmlib/dsp/filter.h ****   }
 225              		.loc 4 486 5 is_stmt 1 view .LVU56
 226              	.LBB312:
 227              	.LBB289:
 228              	.LBI285:
 489:mi/stmlib/dsp/filter.h ****     lp_ = bp_ = 0.0f;
 229              		.loc 4 489 8 view .LVU57
 230              	.LBB287:
 490:mi/stmlib/dsp/filter.h ****   }
ARM GAS  /var/folders/9k/zk1mgrrd7wg4__6zvxvr9w8m0000gn/T//ccVlS6UW.s 			page 18


 231              		.loc 4 490 5 view .LVU58
 490:mi/stmlib/dsp/filter.h ****   }
 232              		.loc 4 490 5 is_stmt 0 view .LVU59
 233              	.LBE287:
 234              	.LBE289:
 235              	.LBE312:
  48:mi/plaits/dsp/engine2/string_machine_engine.cpp ****   svf_[1].Init();
 236              		.loc 2 48 3 is_stmt 1 view .LVU60
 237              	.LBB313:
 238              	.LBI290:
 484:mi/stmlib/dsp/filter.h ****     set_f_q<FREQUENCY_DIRTY>(0.01f, 100.0f);
 239              		.loc 4 484 8 view .LVU61
 240              	.LBE313:
 485:mi/stmlib/dsp/filter.h ****     Reset();
 241              		.loc 4 485 5 view .LVU62
 242              	.LBB314:
 243              	.LBB297:
 244              	.LBI291:
 496:mi/stmlib/dsp/filter.h ****     if (approximation == FREQUENCY_EXACT) {
 245              		.loc 4 496 15 view .LVU63
 246              	.LBB293:
 247              		.loc 4 504 11 is_stmt 0 view .LVU64
 248 0060 C5F8FC20 		str	r2, [r5, #252]	@ float
 249              	.LVL7:
 250              		.loc 4 504 11 view .LVU65
 251              	.LBE293:
 252              	.LBE297:
 253              	.LBE314:
 486:mi/stmlib/dsp/filter.h ****   }
 254              		.loc 4 486 5 is_stmt 1 view .LVU66
 255              	.LBB315:
 256              	.LBB298:
 257              	.LBI294:
 489:mi/stmlib/dsp/filter.h ****     lp_ = bp_ = 0.0f;
 258              		.loc 4 489 8 view .LVU67
 259              	.LBB296:
 490:mi/stmlib/dsp/filter.h ****   }
 260              		.loc 4 490 5 view .LVU68
 490:mi/stmlib/dsp/filter.h ****   }
 261              		.loc 4 490 5 is_stmt 0 view .LVU69
 262              	.LBE296:
 263              	.LBE298:
 264              	.LBE315:
  49:mi/plaits/dsp/engine2/string_machine_engine.cpp ****   ensemble_.Init(allocator->Allocate<Ensemble::E::T>(1024));
 265              		.loc 2 49 3 is_stmt 1 view .LVU70
 266              	.LBB316:
 267              	.LBI299:
  57:mi/stmlib/utils/buffer_allocator.h ****     size_t size_bytes = sizeof(T) * size;
 268              		.loc 5 57 13 view .LVU71
 269              	.LBB306:
 270              	.LBB304:
 271              		.loc 5 59 5 is_stmt 0 view .LVU72
 272 0064 06D3     		bcc	.L5
 273              	.LBB302:
  60:mi/stmlib/utils/buffer_allocator.h ****       T* start = static_cast<T*>(static_cast<void*>(next_));
 274              		.loc 5 60 10 view .LVU73
 275 0066 3E68     		ldr	r6, [r7]
ARM GAS  /var/folders/9k/zk1mgrrd7wg4__6zvxvr9w8m0000gn/T//ccVlS6UW.s 			page 19


 276              	.LVL8:
  61:mi/stmlib/utils/buffer_allocator.h ****       next_ += size_bytes;
  62:mi/stmlib/utils/buffer_allocator.h ****       free_ -= size_bytes;
 277              		.loc 5 62 13 view .LVU74
 278 0068 A3F58053 		sub	r3, r3, #4096
  61:mi/stmlib/utils/buffer_allocator.h ****       next_ += size_bytes;
 279              		.loc 5 61 13 view .LVU75
 280 006c 06F58052 		add	r2, r6, #4096
 281              		.loc 5 62 13 view .LVU76
 282 0070 BB60     		str	r3, [r7, #8]
  61:mi/stmlib/utils/buffer_allocator.h ****       next_ += size_bytes;
 283              		.loc 5 61 13 view .LVU77
 284 0072 3A60     		str	r2, [r7]
 285              	.LVL9:
 286              	.L5:
  61:mi/stmlib/utils/buffer_allocator.h ****       next_ += size_bytes;
 287              		.loc 5 61 13 view .LVU78
 288              	.LBE302:
 289              	.LBE304:
 290              	.LBE306:
 291              	.LBE316:
 292              	.LBB317:
 293              	.LBI317:
 294              		.file 6 "mi/plaits/dsp/fx/ensemble.h"
   1:mi/plaits/dsp/fx/ensemble.h **** // Copyright 2014 Emilie Gillet.
   2:mi/plaits/dsp/fx/ensemble.h **** //
   3:mi/plaits/dsp/fx/ensemble.h **** // Author: Emilie Gillet (emilie.o.gillet@gmail.com)
   4:mi/plaits/dsp/fx/ensemble.h **** //
   5:mi/plaits/dsp/fx/ensemble.h **** // Permission is hereby granted, free of charge, to any person obtaining a copy
   6:mi/plaits/dsp/fx/ensemble.h **** // of this software and associated documentation files (the "Software"), to deal
   7:mi/plaits/dsp/fx/ensemble.h **** // in the Software without restriction, including without limitation the rights
   8:mi/plaits/dsp/fx/ensemble.h **** // to use, copy, modify, merge, publish, distribute, sublicense, and/or sell
   9:mi/plaits/dsp/fx/ensemble.h **** // copies of the Software, and to permit persons to whom the Software is
  10:mi/plaits/dsp/fx/ensemble.h **** // furnished to do so, subject to the following conditions:
  11:mi/plaits/dsp/fx/ensemble.h **** // 
  12:mi/plaits/dsp/fx/ensemble.h **** // The above copyright notice and this permission notice shall be included in
  13:mi/plaits/dsp/fx/ensemble.h **** // all copies or substantial portions of the Software.
  14:mi/plaits/dsp/fx/ensemble.h **** // 
  15:mi/plaits/dsp/fx/ensemble.h **** // THE SOFTWARE IS PROVIDED "AS IS", WITHOUT WARRANTY OF ANY KIND, EXPRESS OR
  16:mi/plaits/dsp/fx/ensemble.h **** // IMPLIED, INCLUDING BUT NOT LIMITED TO THE WARRANTIES OF MERCHANTABILITY,
  17:mi/plaits/dsp/fx/ensemble.h **** // FITNESS FOR A PARTICULAR PURPOSE AND NONINFRINGEMENT. IN NO EVENT SHALL THE
  18:mi/plaits/dsp/fx/ensemble.h **** // AUTHORS OR COPYRIGHT HOLDERS BE LIABLE FOR ANY CLAIM, DAMAGES OR OTHER
  19:mi/plaits/dsp/fx/ensemble.h **** // LIABILITY, WHETHER IN AN ACTION OF CONTRACT, TORT OR OTHERWISE, ARISING FROM,
  20:mi/plaits/dsp/fx/ensemble.h **** // OUT OF OR IN CONNECTION WITH THE SOFTWARE OR THE USE OR OTHER DEALINGS IN
  21:mi/plaits/dsp/fx/ensemble.h **** // THE SOFTWARE.
  22:mi/plaits/dsp/fx/ensemble.h **** // 
  23:mi/plaits/dsp/fx/ensemble.h **** // See http://creativecommons.org/licenses/MIT/ for more information.
  24:mi/plaits/dsp/fx/ensemble.h **** //
  25:mi/plaits/dsp/fx/ensemble.h **** // -----------------------------------------------------------------------------
  26:mi/plaits/dsp/fx/ensemble.h **** //
  27:mi/plaits/dsp/fx/ensemble.h **** // Ensemble FX.
  28:mi/plaits/dsp/fx/ensemble.h **** 
  29:mi/plaits/dsp/fx/ensemble.h **** #ifndef PLAITS_DSP_FX_ENSEMBLE_H_
  30:mi/plaits/dsp/fx/ensemble.h **** #define PLAITS_DSP_FX_ENSEMBLE_H_
  31:mi/plaits/dsp/fx/ensemble.h **** 
  32:mi/plaits/dsp/fx/ensemble.h **** #include "stmlib/stmlib.h"
  33:mi/plaits/dsp/fx/ensemble.h **** 
ARM GAS  /var/folders/9k/zk1mgrrd7wg4__6zvxvr9w8m0000gn/T//ccVlS6UW.s 			page 20


  34:mi/plaits/dsp/fx/ensemble.h **** #include "stmlib/dsp/dsp.h"
  35:mi/plaits/dsp/fx/ensemble.h **** 
  36:mi/plaits/dsp/fx/ensemble.h **** #include "plaits/dsp/oscillator/sine_oscillator.h"
  37:mi/plaits/dsp/fx/ensemble.h **** #include "plaits/dsp/fx/fx_engine.h"
  38:mi/plaits/dsp/fx/ensemble.h **** #include "plaits/resources.h"
  39:mi/plaits/dsp/fx/ensemble.h **** 
  40:mi/plaits/dsp/fx/ensemble.h **** namespace plaits {
  41:mi/plaits/dsp/fx/ensemble.h **** 
  42:mi/plaits/dsp/fx/ensemble.h **** class Ensemble {
  43:mi/plaits/dsp/fx/ensemble.h ****  public:
  44:mi/plaits/dsp/fx/ensemble.h ****   typedef FxEngine<1024, FORMAT_32_BIT> E;
  45:mi/plaits/dsp/fx/ensemble.h ****   
  46:mi/plaits/dsp/fx/ensemble.h ****   Ensemble() { }
  47:mi/plaits/dsp/fx/ensemble.h ****   ~Ensemble() { }
  48:mi/plaits/dsp/fx/ensemble.h ****   
  49:mi/plaits/dsp/fx/ensemble.h ****   void Init(E::T* buffer) {
 295              		.loc 6 49 8 is_stmt 1 view .LVU79
 296              	.LBB318:
  50:mi/plaits/dsp/fx/ensemble.h ****     engine_.Init(buffer);
 297              		.loc 6 50 5 view .LVU80
 298              	.LBB319:
 299              	.LBI319:
 300              		.file 7 "mi/plaits/dsp/fx/fx_engine.h"
   1:mi/plaits/dsp/fx/fx_engine.h **** // Copyright 2014 Emilie Gillet.
   2:mi/plaits/dsp/fx/fx_engine.h **** //
   3:mi/plaits/dsp/fx/fx_engine.h **** // Author: Emilie Gillet (emilie.o.gillet@gmail.com)
   4:mi/plaits/dsp/fx/fx_engine.h **** //
   5:mi/plaits/dsp/fx/fx_engine.h **** // Permission is hereby granted, free of charge, to any person obtaining a copy
   6:mi/plaits/dsp/fx/fx_engine.h **** // of this software and associated documentation files (the "Software"), to deal
   7:mi/plaits/dsp/fx/fx_engine.h **** // in the Software without restriction, including without limitation the rights
   8:mi/plaits/dsp/fx/fx_engine.h **** // to use, copy, modify, merge, publish, distribute, sublicense, and/or sell
   9:mi/plaits/dsp/fx/fx_engine.h **** // copies of the Software, and to permit persons to whom the Software is
  10:mi/plaits/dsp/fx/fx_engine.h **** // furnished to do so, subject to the following conditions:
  11:mi/plaits/dsp/fx/fx_engine.h **** // 
  12:mi/plaits/dsp/fx/fx_engine.h **** // The above copyright notice and this permission notice shall be included in
  13:mi/plaits/dsp/fx/fx_engine.h **** // all copies or substantial portions of the Software.
  14:mi/plaits/dsp/fx/fx_engine.h **** // 
  15:mi/plaits/dsp/fx/fx_engine.h **** // THE SOFTWARE IS PROVIDED "AS IS", WITHOUT WARRANTY OF ANY KIND, EXPRESS OR
  16:mi/plaits/dsp/fx/fx_engine.h **** // IMPLIED, INCLUDING BUT NOT LIMITED TO THE WARRANTIES OF MERCHANTABILITY,
  17:mi/plaits/dsp/fx/fx_engine.h **** // FITNESS FOR A PARTICULAR PURPOSE AND NONINFRINGEMENT. IN NO EVENT SHALL THE
  18:mi/plaits/dsp/fx/fx_engine.h **** // AUTHORS OR COPYRIGHT HOLDERS BE LIABLE FOR ANY CLAIM, DAMAGES OR OTHER
  19:mi/plaits/dsp/fx/fx_engine.h **** // LIABILITY, WHETHER IN AN ACTION OF CONTRACT, TORT OR OTHERWISE, ARISING FROM,
  20:mi/plaits/dsp/fx/fx_engine.h **** // OUT OF OR IN CONNECTION WITH THE SOFTWARE OR THE USE OR OTHER DEALINGS IN
  21:mi/plaits/dsp/fx/fx_engine.h **** // THE SOFTWARE.
  22:mi/plaits/dsp/fx/fx_engine.h **** // 
  23:mi/plaits/dsp/fx/fx_engine.h **** // See http://creativecommons.org/licenses/MIT/ for more information.
  24:mi/plaits/dsp/fx/fx_engine.h **** //
  25:mi/plaits/dsp/fx/fx_engine.h **** // -----------------------------------------------------------------------------
  26:mi/plaits/dsp/fx/fx_engine.h **** //
  27:mi/plaits/dsp/fx/fx_engine.h **** // Base class for building reverbs.
  28:mi/plaits/dsp/fx/fx_engine.h **** 
  29:mi/plaits/dsp/fx/fx_engine.h **** #ifndef PLAITS_DSP_FX_FX_ENGINE_H_
  30:mi/plaits/dsp/fx/fx_engine.h **** #define PLAITS_DSP_FX_FX_ENGINE_H_
  31:mi/plaits/dsp/fx/fx_engine.h **** 
  32:mi/plaits/dsp/fx/fx_engine.h **** #include <algorithm>
  33:mi/plaits/dsp/fx/fx_engine.h **** 
  34:mi/plaits/dsp/fx/fx_engine.h **** #include "stmlib/stmlib.h"
ARM GAS  /var/folders/9k/zk1mgrrd7wg4__6zvxvr9w8m0000gn/T//ccVlS6UW.s 			page 21


  35:mi/plaits/dsp/fx/fx_engine.h **** 
  36:mi/plaits/dsp/fx/fx_engine.h **** #include "stmlib/dsp/dsp.h"
  37:mi/plaits/dsp/fx/fx_engine.h **** #include "stmlib/dsp/cosine_oscillator.h"
  38:mi/plaits/dsp/fx/fx_engine.h **** 
  39:mi/plaits/dsp/fx/fx_engine.h **** namespace plaits {
  40:mi/plaits/dsp/fx/fx_engine.h **** 
  41:mi/plaits/dsp/fx/fx_engine.h **** #define TAIL , -1
  42:mi/plaits/dsp/fx/fx_engine.h **** 
  43:mi/plaits/dsp/fx/fx_engine.h **** enum Format {
  44:mi/plaits/dsp/fx/fx_engine.h ****   FORMAT_12_BIT,
  45:mi/plaits/dsp/fx/fx_engine.h ****   FORMAT_16_BIT,
  46:mi/plaits/dsp/fx/fx_engine.h ****   FORMAT_32_BIT
  47:mi/plaits/dsp/fx/fx_engine.h **** };
  48:mi/plaits/dsp/fx/fx_engine.h **** 
  49:mi/plaits/dsp/fx/fx_engine.h **** enum LFOIndex {
  50:mi/plaits/dsp/fx/fx_engine.h ****   LFO_1,
  51:mi/plaits/dsp/fx/fx_engine.h ****   LFO_2
  52:mi/plaits/dsp/fx/fx_engine.h **** };
  53:mi/plaits/dsp/fx/fx_engine.h **** 
  54:mi/plaits/dsp/fx/fx_engine.h **** template<Format format>
  55:mi/plaits/dsp/fx/fx_engine.h **** struct DataType { };
  56:mi/plaits/dsp/fx/fx_engine.h **** 
  57:mi/plaits/dsp/fx/fx_engine.h **** template<>
  58:mi/plaits/dsp/fx/fx_engine.h **** struct DataType<FORMAT_12_BIT> {
  59:mi/plaits/dsp/fx/fx_engine.h ****   typedef uint16_t T;
  60:mi/plaits/dsp/fx/fx_engine.h ****   
  61:mi/plaits/dsp/fx/fx_engine.h ****   static inline float Decompress(T value) {
  62:mi/plaits/dsp/fx/fx_engine.h ****     return static_cast<float>(static_cast<int16_t>(value)) / 4096.0f;
  63:mi/plaits/dsp/fx/fx_engine.h ****   }
  64:mi/plaits/dsp/fx/fx_engine.h ****   
  65:mi/plaits/dsp/fx/fx_engine.h ****   static inline T Compress(float value) {
  66:mi/plaits/dsp/fx/fx_engine.h ****     return static_cast<uint16_t>(
  67:mi/plaits/dsp/fx/fx_engine.h ****         stmlib::Clip16(static_cast<int32_t>(value * 4096.0f)));
  68:mi/plaits/dsp/fx/fx_engine.h ****   }
  69:mi/plaits/dsp/fx/fx_engine.h **** };
  70:mi/plaits/dsp/fx/fx_engine.h **** 
  71:mi/plaits/dsp/fx/fx_engine.h **** template<>
  72:mi/plaits/dsp/fx/fx_engine.h **** struct DataType<FORMAT_16_BIT> {
  73:mi/plaits/dsp/fx/fx_engine.h ****   typedef uint16_t T;
  74:mi/plaits/dsp/fx/fx_engine.h ****   
  75:mi/plaits/dsp/fx/fx_engine.h ****   static inline float Decompress(T value) {
  76:mi/plaits/dsp/fx/fx_engine.h ****     return static_cast<float>(static_cast<int16_t>(value)) / 32768.0f;
  77:mi/plaits/dsp/fx/fx_engine.h ****   }
  78:mi/plaits/dsp/fx/fx_engine.h ****   
  79:mi/plaits/dsp/fx/fx_engine.h ****   static inline T Compress(float value) {
  80:mi/plaits/dsp/fx/fx_engine.h ****     return static_cast<uint16_t>(
  81:mi/plaits/dsp/fx/fx_engine.h ****         stmlib::Clip16(static_cast<int32_t>(value * 32768.0f)));
  82:mi/plaits/dsp/fx/fx_engine.h ****   }
  83:mi/plaits/dsp/fx/fx_engine.h **** };
  84:mi/plaits/dsp/fx/fx_engine.h **** 
  85:mi/plaits/dsp/fx/fx_engine.h **** template<>
  86:mi/plaits/dsp/fx/fx_engine.h **** struct DataType<FORMAT_32_BIT> {
  87:mi/plaits/dsp/fx/fx_engine.h ****   typedef float T;
  88:mi/plaits/dsp/fx/fx_engine.h ****   
  89:mi/plaits/dsp/fx/fx_engine.h ****   static inline float Decompress(T value) {
  90:mi/plaits/dsp/fx/fx_engine.h ****     return value;;
  91:mi/plaits/dsp/fx/fx_engine.h ****   }
ARM GAS  /var/folders/9k/zk1mgrrd7wg4__6zvxvr9w8m0000gn/T//ccVlS6UW.s 			page 22


  92:mi/plaits/dsp/fx/fx_engine.h ****   
  93:mi/plaits/dsp/fx/fx_engine.h ****   static inline T Compress(float value) {
  94:mi/plaits/dsp/fx/fx_engine.h ****     return value;
  95:mi/plaits/dsp/fx/fx_engine.h ****   }
  96:mi/plaits/dsp/fx/fx_engine.h **** };
  97:mi/plaits/dsp/fx/fx_engine.h **** 
  98:mi/plaits/dsp/fx/fx_engine.h **** template<
  99:mi/plaits/dsp/fx/fx_engine.h ****     size_t size,
 100:mi/plaits/dsp/fx/fx_engine.h ****     Format format = FORMAT_12_BIT>
 101:mi/plaits/dsp/fx/fx_engine.h **** class FxEngine {
 102:mi/plaits/dsp/fx/fx_engine.h ****  public:
 103:mi/plaits/dsp/fx/fx_engine.h ****   typedef typename DataType<format>::T T;
 104:mi/plaits/dsp/fx/fx_engine.h ****   FxEngine() { }
 105:mi/plaits/dsp/fx/fx_engine.h ****   ~FxEngine() { }
 106:mi/plaits/dsp/fx/fx_engine.h **** 
 107:mi/plaits/dsp/fx/fx_engine.h ****   void Init(T* buffer) {
 301              		.loc 7 107 8 view .LVU81
 302              	.LBE319:
  51:mi/plaits/dsp/fx/ensemble.h ****     phase_1_ = 0;
 303              		.loc 6 51 14 is_stmt 0 view .LVU82
 304 0074 0023     		movs	r3, #0
 305              	.LBB321:
 306              	.LBB320:
 108:mi/plaits/dsp/fx/fx_engine.h ****     buffer_ = buffer;
 307              		.loc 7 108 13 view .LVU83
 308 0076 6E63     		str	r6, [r5, #52]
 309              	.LVL10:
 310              		.loc 7 108 13 view .LVU84
 311              	.LBE320:
 312              	.LBE321:
 313              		.loc 6 51 5 is_stmt 1 view .LVU85
  52:mi/plaits/dsp/fx/ensemble.h ****     phase_2_ = 0;
 314              		.loc 6 52 14 is_stmt 0 view .LVU86
 315 0078 C5E91833 		strd	r3, r3, [r5, #96]
 316              	.LVL11:
 317              		.loc 6 52 14 view .LVU87
 318              	.LBE318:
 319              	.LBE317:
  50:mi/plaits/dsp/engine2/string_machine_engine.cpp **** }
 320              		.loc 2 50 1 view .LVU88
 321 007c F8BD     		pop	{r3, r4, r5, r6, r7, pc}
 322              	.LVL12:
 323              	.L10:
 324              		.loc 2 50 1 view .LVU89
 325 007e 00BF     		.align	2
 326              	.L9:
 327 0080 6F12833A 		.word	981668463
 328 0084 FDAD803D 		.word	1031843325
 329 0088 0AD7233C 		.word	1008981770
 330              		.cfi_endproc
 331              	.LFE1706:
 333              		.section	.text._ZN6plaits19StringMachineEngine5ResetEv,"ax",%progbits
 334              		.align	1
 335              		.p2align 2,,3
 336              		.global	_ZN6plaits19StringMachineEngine5ResetEv
 337              		.syntax unified
 338              		.thumb
ARM GAS  /var/folders/9k/zk1mgrrd7wg4__6zvxvr9w8m0000gn/T//ccVlS6UW.s 			page 23


 339              		.thumb_func
 341              	_ZN6plaits19StringMachineEngine5ResetEv:
 342              	.LVL13:
 343              	.LFB1707:
  51:mi/plaits/dsp/engine2/string_machine_engine.cpp **** 
  52:mi/plaits/dsp/engine2/string_machine_engine.cpp **** void StringMachineEngine::Reset() {
 344              		.loc 2 52 35 is_stmt 1 view -0
 345              		.cfi_startproc
 346              		@ args = 0, pretend = 0, frame = 0
 347              		@ frame_needed = 0, uses_anonymous_args = 0
  53:mi/plaits/dsp/engine2/string_machine_engine.cpp ****   chords_.Reset();
 348              		.loc 2 53 3 view .LVU91
  52:mi/plaits/dsp/engine2/string_machine_engine.cpp ****   chords_.Reset();
 349              		.loc 2 52 35 is_stmt 0 view .LVU92
 350 0000 10B5     		push	{r4, lr}
 351              		.cfi_def_cfa_offset 8
 352              		.cfi_offset 4, -8
 353              		.cfi_offset 14, -4
  52:mi/plaits/dsp/engine2/string_machine_engine.cpp ****   chords_.Reset();
 354              		.loc 2 52 35 view .LVU93
 355 0002 0446     		mov	r4, r0
 356              		.loc 2 53 16 view .LVU94
 357 0004 1030     		adds	r0, r0, #16
 358              	.LVL14:
 359              		.loc 2 53 16 view .LVU95
 360 0006 FFF7FEFF 		bl	_ZN6plaits9ChordBank5ResetEv
 361              	.LVL15:
  54:mi/plaits/dsp/engine2/string_machine_engine.cpp ****   ensemble_.Reset();
 362              		.loc 2 54 3 is_stmt 1 view .LVU96
 363              	.LBB322:
 364              	.LBI322:
  53:mi/plaits/dsp/fx/ensemble.h ****   }
  54:mi/plaits/dsp/fx/ensemble.h ****   
  55:mi/plaits/dsp/fx/ensemble.h ****   void Reset() {
 365              		.loc 6 55 8 view .LVU97
 366              	.LBE322:
  56:mi/plaits/dsp/fx/ensemble.h ****     engine_.Clear();
 367              		.loc 6 56 5 view .LVU98
 368              	.LBB329:
 369              	.LBB323:
 370              	.LBI323:
 109:mi/plaits/dsp/fx/fx_engine.h ****   }
 110:mi/plaits/dsp/fx/fx_engine.h ****   
 111:mi/plaits/dsp/fx/fx_engine.h ****   void Clear() {
 371              		.loc 7 111 8 view .LVU99
 372              	.LBB324:
 373              	.LBB325:
 374              	.LBI325:
 375              		.file 8 "/Library/DaisyToolchain/0.2.0/arm/arm-none-eabi/include/c++/10.3.1/bits/stl_algobase.h"
   1:/Library/DaisyToolchain/0.2.0/arm/arm-none-eabi/include/c++/10.3.1/bits/stl_algobase.h **** // Core algorithmic facilities -*- C++ -*-
   2:/Library/DaisyToolchain/0.2.0/arm/arm-none-eabi/include/c++/10.3.1/bits/stl_algobase.h **** 
   3:/Library/DaisyToolchain/0.2.0/arm/arm-none-eabi/include/c++/10.3.1/bits/stl_algobase.h **** // Copyright (C) 2001-2020 Free Software Foundation, Inc.
   4:/Library/DaisyToolchain/0.2.0/arm/arm-none-eabi/include/c++/10.3.1/bits/stl_algobase.h **** //
   5:/Library/DaisyToolchain/0.2.0/arm/arm-none-eabi/include/c++/10.3.1/bits/stl_algobase.h **** // This file is part of the GNU ISO C++ Library.  This library is free
   6:/Library/DaisyToolchain/0.2.0/arm/arm-none-eabi/include/c++/10.3.1/bits/stl_algobase.h **** // software; you can redistribute it and/or modify it under the
   7:/Library/DaisyToolchain/0.2.0/arm/arm-none-eabi/include/c++/10.3.1/bits/stl_algobase.h **** // terms of the GNU General Public License as published by the
   8:/Library/DaisyToolchain/0.2.0/arm/arm-none-eabi/include/c++/10.3.1/bits/stl_algobase.h **** // Free Software Foundation; either version 3, or (at your option)
ARM GAS  /var/folders/9k/zk1mgrrd7wg4__6zvxvr9w8m0000gn/T//ccVlS6UW.s 			page 24


   9:/Library/DaisyToolchain/0.2.0/arm/arm-none-eabi/include/c++/10.3.1/bits/stl_algobase.h **** // any later version.
  10:/Library/DaisyToolchain/0.2.0/arm/arm-none-eabi/include/c++/10.3.1/bits/stl_algobase.h **** 
  11:/Library/DaisyToolchain/0.2.0/arm/arm-none-eabi/include/c++/10.3.1/bits/stl_algobase.h **** // This library is distributed in the hope that it will be useful,
  12:/Library/DaisyToolchain/0.2.0/arm/arm-none-eabi/include/c++/10.3.1/bits/stl_algobase.h **** // but WITHOUT ANY WARRANTY; without even the implied warranty of
  13:/Library/DaisyToolchain/0.2.0/arm/arm-none-eabi/include/c++/10.3.1/bits/stl_algobase.h **** // MERCHANTABILITY or FITNESS FOR A PARTICULAR PURPOSE.  See the
  14:/Library/DaisyToolchain/0.2.0/arm/arm-none-eabi/include/c++/10.3.1/bits/stl_algobase.h **** // GNU General Public License for more details.
  15:/Library/DaisyToolchain/0.2.0/arm/arm-none-eabi/include/c++/10.3.1/bits/stl_algobase.h **** 
  16:/Library/DaisyToolchain/0.2.0/arm/arm-none-eabi/include/c++/10.3.1/bits/stl_algobase.h **** // Under Section 7 of GPL version 3, you are granted additional
  17:/Library/DaisyToolchain/0.2.0/arm/arm-none-eabi/include/c++/10.3.1/bits/stl_algobase.h **** // permissions described in the GCC Runtime Library Exception, version
  18:/Library/DaisyToolchain/0.2.0/arm/arm-none-eabi/include/c++/10.3.1/bits/stl_algobase.h **** // 3.1, as published by the Free Software Foundation.
  19:/Library/DaisyToolchain/0.2.0/arm/arm-none-eabi/include/c++/10.3.1/bits/stl_algobase.h **** 
  20:/Library/DaisyToolchain/0.2.0/arm/arm-none-eabi/include/c++/10.3.1/bits/stl_algobase.h **** // You should have received a copy of the GNU General Public License and
  21:/Library/DaisyToolchain/0.2.0/arm/arm-none-eabi/include/c++/10.3.1/bits/stl_algobase.h **** // a copy of the GCC Runtime Library Exception along with this program;
  22:/Library/DaisyToolchain/0.2.0/arm/arm-none-eabi/include/c++/10.3.1/bits/stl_algobase.h **** // see the files COPYING3 and COPYING.RUNTIME respectively.  If not, see
  23:/Library/DaisyToolchain/0.2.0/arm/arm-none-eabi/include/c++/10.3.1/bits/stl_algobase.h **** // <http://www.gnu.org/licenses/>.
  24:/Library/DaisyToolchain/0.2.0/arm/arm-none-eabi/include/c++/10.3.1/bits/stl_algobase.h **** 
  25:/Library/DaisyToolchain/0.2.0/arm/arm-none-eabi/include/c++/10.3.1/bits/stl_algobase.h **** /*
  26:/Library/DaisyToolchain/0.2.0/arm/arm-none-eabi/include/c++/10.3.1/bits/stl_algobase.h ****  *
  27:/Library/DaisyToolchain/0.2.0/arm/arm-none-eabi/include/c++/10.3.1/bits/stl_algobase.h ****  * Copyright (c) 1994
  28:/Library/DaisyToolchain/0.2.0/arm/arm-none-eabi/include/c++/10.3.1/bits/stl_algobase.h ****  * Hewlett-Packard Company
  29:/Library/DaisyToolchain/0.2.0/arm/arm-none-eabi/include/c++/10.3.1/bits/stl_algobase.h ****  *
  30:/Library/DaisyToolchain/0.2.0/arm/arm-none-eabi/include/c++/10.3.1/bits/stl_algobase.h ****  * Permission to use, copy, modify, distribute and sell this software
  31:/Library/DaisyToolchain/0.2.0/arm/arm-none-eabi/include/c++/10.3.1/bits/stl_algobase.h ****  * and its documentation for any purpose is hereby granted without fee,
  32:/Library/DaisyToolchain/0.2.0/arm/arm-none-eabi/include/c++/10.3.1/bits/stl_algobase.h ****  * provided that the above copyright notice appear in all copies and
  33:/Library/DaisyToolchain/0.2.0/arm/arm-none-eabi/include/c++/10.3.1/bits/stl_algobase.h ****  * that both that copyright notice and this permission notice appear
  34:/Library/DaisyToolchain/0.2.0/arm/arm-none-eabi/include/c++/10.3.1/bits/stl_algobase.h ****  * in supporting documentation.  Hewlett-Packard Company makes no
  35:/Library/DaisyToolchain/0.2.0/arm/arm-none-eabi/include/c++/10.3.1/bits/stl_algobase.h ****  * representations about the suitability of this software for any
  36:/Library/DaisyToolchain/0.2.0/arm/arm-none-eabi/include/c++/10.3.1/bits/stl_algobase.h ****  * purpose.  It is provided "as is" without express or implied warranty.
  37:/Library/DaisyToolchain/0.2.0/arm/arm-none-eabi/include/c++/10.3.1/bits/stl_algobase.h ****  *
  38:/Library/DaisyToolchain/0.2.0/arm/arm-none-eabi/include/c++/10.3.1/bits/stl_algobase.h ****  *
  39:/Library/DaisyToolchain/0.2.0/arm/arm-none-eabi/include/c++/10.3.1/bits/stl_algobase.h ****  * Copyright (c) 1996-1998
  40:/Library/DaisyToolchain/0.2.0/arm/arm-none-eabi/include/c++/10.3.1/bits/stl_algobase.h ****  * Silicon Graphics Computer Systems, Inc.
  41:/Library/DaisyToolchain/0.2.0/arm/arm-none-eabi/include/c++/10.3.1/bits/stl_algobase.h ****  *
  42:/Library/DaisyToolchain/0.2.0/arm/arm-none-eabi/include/c++/10.3.1/bits/stl_algobase.h ****  * Permission to use, copy, modify, distribute and sell this software
  43:/Library/DaisyToolchain/0.2.0/arm/arm-none-eabi/include/c++/10.3.1/bits/stl_algobase.h ****  * and its documentation for any purpose is hereby granted without fee,
  44:/Library/DaisyToolchain/0.2.0/arm/arm-none-eabi/include/c++/10.3.1/bits/stl_algobase.h ****  * provided that the above copyright notice appear in all copies and
  45:/Library/DaisyToolchain/0.2.0/arm/arm-none-eabi/include/c++/10.3.1/bits/stl_algobase.h ****  * that both that copyright notice and this permission notice appear
  46:/Library/DaisyToolchain/0.2.0/arm/arm-none-eabi/include/c++/10.3.1/bits/stl_algobase.h ****  * in supporting documentation.  Silicon Graphics makes no
  47:/Library/DaisyToolchain/0.2.0/arm/arm-none-eabi/include/c++/10.3.1/bits/stl_algobase.h ****  * representations about the suitability of this software for any
  48:/Library/DaisyToolchain/0.2.0/arm/arm-none-eabi/include/c++/10.3.1/bits/stl_algobase.h ****  * purpose.  It is provided "as is" without express or implied warranty.
  49:/Library/DaisyToolchain/0.2.0/arm/arm-none-eabi/include/c++/10.3.1/bits/stl_algobase.h ****  */
  50:/Library/DaisyToolchain/0.2.0/arm/arm-none-eabi/include/c++/10.3.1/bits/stl_algobase.h **** 
  51:/Library/DaisyToolchain/0.2.0/arm/arm-none-eabi/include/c++/10.3.1/bits/stl_algobase.h **** /** @file bits/stl_algobase.h
  52:/Library/DaisyToolchain/0.2.0/arm/arm-none-eabi/include/c++/10.3.1/bits/stl_algobase.h ****  *  This is an internal header file, included by other library headers.
  53:/Library/DaisyToolchain/0.2.0/arm/arm-none-eabi/include/c++/10.3.1/bits/stl_algobase.h ****  *  Do not attempt to use it directly. @headername{algorithm}
  54:/Library/DaisyToolchain/0.2.0/arm/arm-none-eabi/include/c++/10.3.1/bits/stl_algobase.h ****  */
  55:/Library/DaisyToolchain/0.2.0/arm/arm-none-eabi/include/c++/10.3.1/bits/stl_algobase.h **** 
  56:/Library/DaisyToolchain/0.2.0/arm/arm-none-eabi/include/c++/10.3.1/bits/stl_algobase.h **** #ifndef _STL_ALGOBASE_H
  57:/Library/DaisyToolchain/0.2.0/arm/arm-none-eabi/include/c++/10.3.1/bits/stl_algobase.h **** #define _STL_ALGOBASE_H 1
  58:/Library/DaisyToolchain/0.2.0/arm/arm-none-eabi/include/c++/10.3.1/bits/stl_algobase.h **** 
  59:/Library/DaisyToolchain/0.2.0/arm/arm-none-eabi/include/c++/10.3.1/bits/stl_algobase.h **** #include <bits/c++config.h>
  60:/Library/DaisyToolchain/0.2.0/arm/arm-none-eabi/include/c++/10.3.1/bits/stl_algobase.h **** #include <bits/functexcept.h>
  61:/Library/DaisyToolchain/0.2.0/arm/arm-none-eabi/include/c++/10.3.1/bits/stl_algobase.h **** #include <bits/cpp_type_traits.h>
  62:/Library/DaisyToolchain/0.2.0/arm/arm-none-eabi/include/c++/10.3.1/bits/stl_algobase.h **** #include <ext/type_traits.h>
  63:/Library/DaisyToolchain/0.2.0/arm/arm-none-eabi/include/c++/10.3.1/bits/stl_algobase.h **** #include <ext/numeric_traits.h>
  64:/Library/DaisyToolchain/0.2.0/arm/arm-none-eabi/include/c++/10.3.1/bits/stl_algobase.h **** #include <bits/stl_pair.h>
  65:/Library/DaisyToolchain/0.2.0/arm/arm-none-eabi/include/c++/10.3.1/bits/stl_algobase.h **** #include <bits/stl_iterator_base_types.h>
ARM GAS  /var/folders/9k/zk1mgrrd7wg4__6zvxvr9w8m0000gn/T//ccVlS6UW.s 			page 25


  66:/Library/DaisyToolchain/0.2.0/arm/arm-none-eabi/include/c++/10.3.1/bits/stl_algobase.h **** #include <bits/stl_iterator_base_funcs.h>
  67:/Library/DaisyToolchain/0.2.0/arm/arm-none-eabi/include/c++/10.3.1/bits/stl_algobase.h **** #include <bits/stl_iterator.h>
  68:/Library/DaisyToolchain/0.2.0/arm/arm-none-eabi/include/c++/10.3.1/bits/stl_algobase.h **** #include <bits/concept_check.h>
  69:/Library/DaisyToolchain/0.2.0/arm/arm-none-eabi/include/c++/10.3.1/bits/stl_algobase.h **** #include <debug/debug.h>
  70:/Library/DaisyToolchain/0.2.0/arm/arm-none-eabi/include/c++/10.3.1/bits/stl_algobase.h **** #include <bits/move.h> // For std::swap
  71:/Library/DaisyToolchain/0.2.0/arm/arm-none-eabi/include/c++/10.3.1/bits/stl_algobase.h **** #include <bits/predefined_ops.h>
  72:/Library/DaisyToolchain/0.2.0/arm/arm-none-eabi/include/c++/10.3.1/bits/stl_algobase.h **** #if __cplusplus >= 201103L
  73:/Library/DaisyToolchain/0.2.0/arm/arm-none-eabi/include/c++/10.3.1/bits/stl_algobase.h **** # include <type_traits>
  74:/Library/DaisyToolchain/0.2.0/arm/arm-none-eabi/include/c++/10.3.1/bits/stl_algobase.h **** #endif
  75:/Library/DaisyToolchain/0.2.0/arm/arm-none-eabi/include/c++/10.3.1/bits/stl_algobase.h **** #if __cplusplus > 201703L
  76:/Library/DaisyToolchain/0.2.0/arm/arm-none-eabi/include/c++/10.3.1/bits/stl_algobase.h **** # include <compare>
  77:/Library/DaisyToolchain/0.2.0/arm/arm-none-eabi/include/c++/10.3.1/bits/stl_algobase.h **** #endif
  78:/Library/DaisyToolchain/0.2.0/arm/arm-none-eabi/include/c++/10.3.1/bits/stl_algobase.h **** 
  79:/Library/DaisyToolchain/0.2.0/arm/arm-none-eabi/include/c++/10.3.1/bits/stl_algobase.h **** namespace std _GLIBCXX_VISIBILITY(default)
  80:/Library/DaisyToolchain/0.2.0/arm/arm-none-eabi/include/c++/10.3.1/bits/stl_algobase.h **** {
  81:/Library/DaisyToolchain/0.2.0/arm/arm-none-eabi/include/c++/10.3.1/bits/stl_algobase.h **** _GLIBCXX_BEGIN_NAMESPACE_VERSION
  82:/Library/DaisyToolchain/0.2.0/arm/arm-none-eabi/include/c++/10.3.1/bits/stl_algobase.h **** 
  83:/Library/DaisyToolchain/0.2.0/arm/arm-none-eabi/include/c++/10.3.1/bits/stl_algobase.h ****   /*
  84:/Library/DaisyToolchain/0.2.0/arm/arm-none-eabi/include/c++/10.3.1/bits/stl_algobase.h ****    * A constexpr wrapper for __builtin_memcmp.
  85:/Library/DaisyToolchain/0.2.0/arm/arm-none-eabi/include/c++/10.3.1/bits/stl_algobase.h ****    * @param __num The number of elements of type _Tp (not bytes).
  86:/Library/DaisyToolchain/0.2.0/arm/arm-none-eabi/include/c++/10.3.1/bits/stl_algobase.h ****    */
  87:/Library/DaisyToolchain/0.2.0/arm/arm-none-eabi/include/c++/10.3.1/bits/stl_algobase.h ****   template<typename _Tp, typename _Up>
  88:/Library/DaisyToolchain/0.2.0/arm/arm-none-eabi/include/c++/10.3.1/bits/stl_algobase.h ****     _GLIBCXX14_CONSTEXPR
  89:/Library/DaisyToolchain/0.2.0/arm/arm-none-eabi/include/c++/10.3.1/bits/stl_algobase.h ****     inline int
  90:/Library/DaisyToolchain/0.2.0/arm/arm-none-eabi/include/c++/10.3.1/bits/stl_algobase.h ****     __memcmp(const _Tp* __first1, const _Up* __first2, size_t __num)
  91:/Library/DaisyToolchain/0.2.0/arm/arm-none-eabi/include/c++/10.3.1/bits/stl_algobase.h ****     {
  92:/Library/DaisyToolchain/0.2.0/arm/arm-none-eabi/include/c++/10.3.1/bits/stl_algobase.h **** #if __cplusplus >= 201103L
  93:/Library/DaisyToolchain/0.2.0/arm/arm-none-eabi/include/c++/10.3.1/bits/stl_algobase.h ****       static_assert(sizeof(_Tp) == sizeof(_Up), "can be compared with memcmp");
  94:/Library/DaisyToolchain/0.2.0/arm/arm-none-eabi/include/c++/10.3.1/bits/stl_algobase.h **** #endif
  95:/Library/DaisyToolchain/0.2.0/arm/arm-none-eabi/include/c++/10.3.1/bits/stl_algobase.h **** #ifdef __cpp_lib_is_constant_evaluated
  96:/Library/DaisyToolchain/0.2.0/arm/arm-none-eabi/include/c++/10.3.1/bits/stl_algobase.h ****       if (std::is_constant_evaluated())
  97:/Library/DaisyToolchain/0.2.0/arm/arm-none-eabi/include/c++/10.3.1/bits/stl_algobase.h **** 	{
  98:/Library/DaisyToolchain/0.2.0/arm/arm-none-eabi/include/c++/10.3.1/bits/stl_algobase.h **** 	  for(; __num > 0; ++__first1, ++__first2, --__num)
  99:/Library/DaisyToolchain/0.2.0/arm/arm-none-eabi/include/c++/10.3.1/bits/stl_algobase.h **** 	    if (*__first1 != *__first2)
 100:/Library/DaisyToolchain/0.2.0/arm/arm-none-eabi/include/c++/10.3.1/bits/stl_algobase.h **** 	      return *__first1 < *__first2 ? -1 : 1;
 101:/Library/DaisyToolchain/0.2.0/arm/arm-none-eabi/include/c++/10.3.1/bits/stl_algobase.h **** 	  return 0;
 102:/Library/DaisyToolchain/0.2.0/arm/arm-none-eabi/include/c++/10.3.1/bits/stl_algobase.h **** 	}
 103:/Library/DaisyToolchain/0.2.0/arm/arm-none-eabi/include/c++/10.3.1/bits/stl_algobase.h ****       else
 104:/Library/DaisyToolchain/0.2.0/arm/arm-none-eabi/include/c++/10.3.1/bits/stl_algobase.h **** #endif
 105:/Library/DaisyToolchain/0.2.0/arm/arm-none-eabi/include/c++/10.3.1/bits/stl_algobase.h **** 	return __builtin_memcmp(__first1, __first2, sizeof(_Tp) * __num);
 106:/Library/DaisyToolchain/0.2.0/arm/arm-none-eabi/include/c++/10.3.1/bits/stl_algobase.h ****     }
 107:/Library/DaisyToolchain/0.2.0/arm/arm-none-eabi/include/c++/10.3.1/bits/stl_algobase.h **** 
 108:/Library/DaisyToolchain/0.2.0/arm/arm-none-eabi/include/c++/10.3.1/bits/stl_algobase.h **** #if __cplusplus < 201103L
 109:/Library/DaisyToolchain/0.2.0/arm/arm-none-eabi/include/c++/10.3.1/bits/stl_algobase.h ****   // See http://gcc.gnu.org/ml/libstdc++/2004-08/msg00167.html: in a
 110:/Library/DaisyToolchain/0.2.0/arm/arm-none-eabi/include/c++/10.3.1/bits/stl_algobase.h ****   // nutshell, we are partially implementing the resolution of DR 187,
 111:/Library/DaisyToolchain/0.2.0/arm/arm-none-eabi/include/c++/10.3.1/bits/stl_algobase.h ****   // when it's safe, i.e., the value_types are equal.
 112:/Library/DaisyToolchain/0.2.0/arm/arm-none-eabi/include/c++/10.3.1/bits/stl_algobase.h ****   template<bool _BoolType>
 113:/Library/DaisyToolchain/0.2.0/arm/arm-none-eabi/include/c++/10.3.1/bits/stl_algobase.h ****     struct __iter_swap
 114:/Library/DaisyToolchain/0.2.0/arm/arm-none-eabi/include/c++/10.3.1/bits/stl_algobase.h ****     {
 115:/Library/DaisyToolchain/0.2.0/arm/arm-none-eabi/include/c++/10.3.1/bits/stl_algobase.h ****       template<typename _ForwardIterator1, typename _ForwardIterator2>
 116:/Library/DaisyToolchain/0.2.0/arm/arm-none-eabi/include/c++/10.3.1/bits/stl_algobase.h **** 	static void
 117:/Library/DaisyToolchain/0.2.0/arm/arm-none-eabi/include/c++/10.3.1/bits/stl_algobase.h **** 	iter_swap(_ForwardIterator1 __a, _ForwardIterator2 __b)
 118:/Library/DaisyToolchain/0.2.0/arm/arm-none-eabi/include/c++/10.3.1/bits/stl_algobase.h **** 	{
 119:/Library/DaisyToolchain/0.2.0/arm/arm-none-eabi/include/c++/10.3.1/bits/stl_algobase.h **** 	  typedef typename iterator_traits<_ForwardIterator1>::value_type
 120:/Library/DaisyToolchain/0.2.0/arm/arm-none-eabi/include/c++/10.3.1/bits/stl_algobase.h **** 	    _ValueType1;
 121:/Library/DaisyToolchain/0.2.0/arm/arm-none-eabi/include/c++/10.3.1/bits/stl_algobase.h **** 	  _ValueType1 __tmp = *__a;
 122:/Library/DaisyToolchain/0.2.0/arm/arm-none-eabi/include/c++/10.3.1/bits/stl_algobase.h **** 	  *__a = *__b;
ARM GAS  /var/folders/9k/zk1mgrrd7wg4__6zvxvr9w8m0000gn/T//ccVlS6UW.s 			page 26


 123:/Library/DaisyToolchain/0.2.0/arm/arm-none-eabi/include/c++/10.3.1/bits/stl_algobase.h **** 	  *__b = __tmp;
 124:/Library/DaisyToolchain/0.2.0/arm/arm-none-eabi/include/c++/10.3.1/bits/stl_algobase.h **** 	}
 125:/Library/DaisyToolchain/0.2.0/arm/arm-none-eabi/include/c++/10.3.1/bits/stl_algobase.h ****     };
 126:/Library/DaisyToolchain/0.2.0/arm/arm-none-eabi/include/c++/10.3.1/bits/stl_algobase.h **** 
 127:/Library/DaisyToolchain/0.2.0/arm/arm-none-eabi/include/c++/10.3.1/bits/stl_algobase.h ****   template<>
 128:/Library/DaisyToolchain/0.2.0/arm/arm-none-eabi/include/c++/10.3.1/bits/stl_algobase.h ****     struct __iter_swap<true>
 129:/Library/DaisyToolchain/0.2.0/arm/arm-none-eabi/include/c++/10.3.1/bits/stl_algobase.h ****     {
 130:/Library/DaisyToolchain/0.2.0/arm/arm-none-eabi/include/c++/10.3.1/bits/stl_algobase.h ****       template<typename _ForwardIterator1, typename _ForwardIterator2>
 131:/Library/DaisyToolchain/0.2.0/arm/arm-none-eabi/include/c++/10.3.1/bits/stl_algobase.h **** 	static void
 132:/Library/DaisyToolchain/0.2.0/arm/arm-none-eabi/include/c++/10.3.1/bits/stl_algobase.h **** 	iter_swap(_ForwardIterator1 __a, _ForwardIterator2 __b)
 133:/Library/DaisyToolchain/0.2.0/arm/arm-none-eabi/include/c++/10.3.1/bits/stl_algobase.h **** 	{
 134:/Library/DaisyToolchain/0.2.0/arm/arm-none-eabi/include/c++/10.3.1/bits/stl_algobase.h **** 	  swap(*__a, *__b);
 135:/Library/DaisyToolchain/0.2.0/arm/arm-none-eabi/include/c++/10.3.1/bits/stl_algobase.h **** 	}
 136:/Library/DaisyToolchain/0.2.0/arm/arm-none-eabi/include/c++/10.3.1/bits/stl_algobase.h ****     };
 137:/Library/DaisyToolchain/0.2.0/arm/arm-none-eabi/include/c++/10.3.1/bits/stl_algobase.h **** #endif // C++03
 138:/Library/DaisyToolchain/0.2.0/arm/arm-none-eabi/include/c++/10.3.1/bits/stl_algobase.h **** 
 139:/Library/DaisyToolchain/0.2.0/arm/arm-none-eabi/include/c++/10.3.1/bits/stl_algobase.h ****   /**
 140:/Library/DaisyToolchain/0.2.0/arm/arm-none-eabi/include/c++/10.3.1/bits/stl_algobase.h ****    *  @brief Swaps the contents of two iterators.
 141:/Library/DaisyToolchain/0.2.0/arm/arm-none-eabi/include/c++/10.3.1/bits/stl_algobase.h ****    *  @ingroup mutating_algorithms
 142:/Library/DaisyToolchain/0.2.0/arm/arm-none-eabi/include/c++/10.3.1/bits/stl_algobase.h ****    *  @param  __a  An iterator.
 143:/Library/DaisyToolchain/0.2.0/arm/arm-none-eabi/include/c++/10.3.1/bits/stl_algobase.h ****    *  @param  __b  Another iterator.
 144:/Library/DaisyToolchain/0.2.0/arm/arm-none-eabi/include/c++/10.3.1/bits/stl_algobase.h ****    *  @return   Nothing.
 145:/Library/DaisyToolchain/0.2.0/arm/arm-none-eabi/include/c++/10.3.1/bits/stl_algobase.h ****    *
 146:/Library/DaisyToolchain/0.2.0/arm/arm-none-eabi/include/c++/10.3.1/bits/stl_algobase.h ****    *  This function swaps the values pointed to by two iterators, not the
 147:/Library/DaisyToolchain/0.2.0/arm/arm-none-eabi/include/c++/10.3.1/bits/stl_algobase.h ****    *  iterators themselves.
 148:/Library/DaisyToolchain/0.2.0/arm/arm-none-eabi/include/c++/10.3.1/bits/stl_algobase.h ****   */
 149:/Library/DaisyToolchain/0.2.0/arm/arm-none-eabi/include/c++/10.3.1/bits/stl_algobase.h ****   template<typename _ForwardIterator1, typename _ForwardIterator2>
 150:/Library/DaisyToolchain/0.2.0/arm/arm-none-eabi/include/c++/10.3.1/bits/stl_algobase.h ****     _GLIBCXX20_CONSTEXPR
 151:/Library/DaisyToolchain/0.2.0/arm/arm-none-eabi/include/c++/10.3.1/bits/stl_algobase.h ****     inline void
 152:/Library/DaisyToolchain/0.2.0/arm/arm-none-eabi/include/c++/10.3.1/bits/stl_algobase.h ****     iter_swap(_ForwardIterator1 __a, _ForwardIterator2 __b)
 153:/Library/DaisyToolchain/0.2.0/arm/arm-none-eabi/include/c++/10.3.1/bits/stl_algobase.h ****     {
 154:/Library/DaisyToolchain/0.2.0/arm/arm-none-eabi/include/c++/10.3.1/bits/stl_algobase.h ****       // concept requirements
 155:/Library/DaisyToolchain/0.2.0/arm/arm-none-eabi/include/c++/10.3.1/bits/stl_algobase.h ****       __glibcxx_function_requires(_Mutable_ForwardIteratorConcept<
 156:/Library/DaisyToolchain/0.2.0/arm/arm-none-eabi/include/c++/10.3.1/bits/stl_algobase.h **** 				  _ForwardIterator1>)
 157:/Library/DaisyToolchain/0.2.0/arm/arm-none-eabi/include/c++/10.3.1/bits/stl_algobase.h ****       __glibcxx_function_requires(_Mutable_ForwardIteratorConcept<
 158:/Library/DaisyToolchain/0.2.0/arm/arm-none-eabi/include/c++/10.3.1/bits/stl_algobase.h **** 				  _ForwardIterator2>)
 159:/Library/DaisyToolchain/0.2.0/arm/arm-none-eabi/include/c++/10.3.1/bits/stl_algobase.h **** 
 160:/Library/DaisyToolchain/0.2.0/arm/arm-none-eabi/include/c++/10.3.1/bits/stl_algobase.h **** #if __cplusplus < 201103L
 161:/Library/DaisyToolchain/0.2.0/arm/arm-none-eabi/include/c++/10.3.1/bits/stl_algobase.h ****       typedef typename iterator_traits<_ForwardIterator1>::value_type
 162:/Library/DaisyToolchain/0.2.0/arm/arm-none-eabi/include/c++/10.3.1/bits/stl_algobase.h **** 	_ValueType1;
 163:/Library/DaisyToolchain/0.2.0/arm/arm-none-eabi/include/c++/10.3.1/bits/stl_algobase.h ****       typedef typename iterator_traits<_ForwardIterator2>::value_type
 164:/Library/DaisyToolchain/0.2.0/arm/arm-none-eabi/include/c++/10.3.1/bits/stl_algobase.h **** 	_ValueType2;
 165:/Library/DaisyToolchain/0.2.0/arm/arm-none-eabi/include/c++/10.3.1/bits/stl_algobase.h **** 
 166:/Library/DaisyToolchain/0.2.0/arm/arm-none-eabi/include/c++/10.3.1/bits/stl_algobase.h ****       __glibcxx_function_requires(_ConvertibleConcept<_ValueType1,
 167:/Library/DaisyToolchain/0.2.0/arm/arm-none-eabi/include/c++/10.3.1/bits/stl_algobase.h **** 				  _ValueType2>)
 168:/Library/DaisyToolchain/0.2.0/arm/arm-none-eabi/include/c++/10.3.1/bits/stl_algobase.h ****       __glibcxx_function_requires(_ConvertibleConcept<_ValueType2,
 169:/Library/DaisyToolchain/0.2.0/arm/arm-none-eabi/include/c++/10.3.1/bits/stl_algobase.h **** 				  _ValueType1>)
 170:/Library/DaisyToolchain/0.2.0/arm/arm-none-eabi/include/c++/10.3.1/bits/stl_algobase.h **** 
 171:/Library/DaisyToolchain/0.2.0/arm/arm-none-eabi/include/c++/10.3.1/bits/stl_algobase.h ****       typedef typename iterator_traits<_ForwardIterator1>::reference
 172:/Library/DaisyToolchain/0.2.0/arm/arm-none-eabi/include/c++/10.3.1/bits/stl_algobase.h **** 	_ReferenceType1;
 173:/Library/DaisyToolchain/0.2.0/arm/arm-none-eabi/include/c++/10.3.1/bits/stl_algobase.h ****       typedef typename iterator_traits<_ForwardIterator2>::reference
 174:/Library/DaisyToolchain/0.2.0/arm/arm-none-eabi/include/c++/10.3.1/bits/stl_algobase.h **** 	_ReferenceType2;
 175:/Library/DaisyToolchain/0.2.0/arm/arm-none-eabi/include/c++/10.3.1/bits/stl_algobase.h ****       std::__iter_swap<__are_same<_ValueType1, _ValueType2>::__value
 176:/Library/DaisyToolchain/0.2.0/arm/arm-none-eabi/include/c++/10.3.1/bits/stl_algobase.h **** 	&& __are_same<_ValueType1&, _ReferenceType1>::__value
 177:/Library/DaisyToolchain/0.2.0/arm/arm-none-eabi/include/c++/10.3.1/bits/stl_algobase.h **** 	&& __are_same<_ValueType2&, _ReferenceType2>::__value>::
 178:/Library/DaisyToolchain/0.2.0/arm/arm-none-eabi/include/c++/10.3.1/bits/stl_algobase.h **** 	iter_swap(__a, __b);
 179:/Library/DaisyToolchain/0.2.0/arm/arm-none-eabi/include/c++/10.3.1/bits/stl_algobase.h **** #else
ARM GAS  /var/folders/9k/zk1mgrrd7wg4__6zvxvr9w8m0000gn/T//ccVlS6UW.s 			page 27


 180:/Library/DaisyToolchain/0.2.0/arm/arm-none-eabi/include/c++/10.3.1/bits/stl_algobase.h ****       // _GLIBCXX_RESOLVE_LIB_DEFECTS
 181:/Library/DaisyToolchain/0.2.0/arm/arm-none-eabi/include/c++/10.3.1/bits/stl_algobase.h ****       // 187. iter_swap underspecified
 182:/Library/DaisyToolchain/0.2.0/arm/arm-none-eabi/include/c++/10.3.1/bits/stl_algobase.h ****       swap(*__a, *__b);
 183:/Library/DaisyToolchain/0.2.0/arm/arm-none-eabi/include/c++/10.3.1/bits/stl_algobase.h **** #endif
 184:/Library/DaisyToolchain/0.2.0/arm/arm-none-eabi/include/c++/10.3.1/bits/stl_algobase.h ****     }
 185:/Library/DaisyToolchain/0.2.0/arm/arm-none-eabi/include/c++/10.3.1/bits/stl_algobase.h **** 
 186:/Library/DaisyToolchain/0.2.0/arm/arm-none-eabi/include/c++/10.3.1/bits/stl_algobase.h ****   /**
 187:/Library/DaisyToolchain/0.2.0/arm/arm-none-eabi/include/c++/10.3.1/bits/stl_algobase.h ****    *  @brief Swap the elements of two sequences.
 188:/Library/DaisyToolchain/0.2.0/arm/arm-none-eabi/include/c++/10.3.1/bits/stl_algobase.h ****    *  @ingroup mutating_algorithms
 189:/Library/DaisyToolchain/0.2.0/arm/arm-none-eabi/include/c++/10.3.1/bits/stl_algobase.h ****    *  @param  __first1  A forward iterator.
 190:/Library/DaisyToolchain/0.2.0/arm/arm-none-eabi/include/c++/10.3.1/bits/stl_algobase.h ****    *  @param  __last1   A forward iterator.
 191:/Library/DaisyToolchain/0.2.0/arm/arm-none-eabi/include/c++/10.3.1/bits/stl_algobase.h ****    *  @param  __first2  A forward iterator.
 192:/Library/DaisyToolchain/0.2.0/arm/arm-none-eabi/include/c++/10.3.1/bits/stl_algobase.h ****    *  @return   An iterator equal to @p first2+(last1-first1).
 193:/Library/DaisyToolchain/0.2.0/arm/arm-none-eabi/include/c++/10.3.1/bits/stl_algobase.h ****    *
 194:/Library/DaisyToolchain/0.2.0/arm/arm-none-eabi/include/c++/10.3.1/bits/stl_algobase.h ****    *  Swaps each element in the range @p [first1,last1) with the
 195:/Library/DaisyToolchain/0.2.0/arm/arm-none-eabi/include/c++/10.3.1/bits/stl_algobase.h ****    *  corresponding element in the range @p [first2,(last1-first1)).
 196:/Library/DaisyToolchain/0.2.0/arm/arm-none-eabi/include/c++/10.3.1/bits/stl_algobase.h ****    *  The ranges must not overlap.
 197:/Library/DaisyToolchain/0.2.0/arm/arm-none-eabi/include/c++/10.3.1/bits/stl_algobase.h ****   */
 198:/Library/DaisyToolchain/0.2.0/arm/arm-none-eabi/include/c++/10.3.1/bits/stl_algobase.h ****   template<typename _ForwardIterator1, typename _ForwardIterator2>
 199:/Library/DaisyToolchain/0.2.0/arm/arm-none-eabi/include/c++/10.3.1/bits/stl_algobase.h ****     _GLIBCXX20_CONSTEXPR
 200:/Library/DaisyToolchain/0.2.0/arm/arm-none-eabi/include/c++/10.3.1/bits/stl_algobase.h ****     _ForwardIterator2
 201:/Library/DaisyToolchain/0.2.0/arm/arm-none-eabi/include/c++/10.3.1/bits/stl_algobase.h ****     swap_ranges(_ForwardIterator1 __first1, _ForwardIterator1 __last1,
 202:/Library/DaisyToolchain/0.2.0/arm/arm-none-eabi/include/c++/10.3.1/bits/stl_algobase.h **** 		_ForwardIterator2 __first2)
 203:/Library/DaisyToolchain/0.2.0/arm/arm-none-eabi/include/c++/10.3.1/bits/stl_algobase.h ****     {
 204:/Library/DaisyToolchain/0.2.0/arm/arm-none-eabi/include/c++/10.3.1/bits/stl_algobase.h ****       // concept requirements
 205:/Library/DaisyToolchain/0.2.0/arm/arm-none-eabi/include/c++/10.3.1/bits/stl_algobase.h ****       __glibcxx_function_requires(_Mutable_ForwardIteratorConcept<
 206:/Library/DaisyToolchain/0.2.0/arm/arm-none-eabi/include/c++/10.3.1/bits/stl_algobase.h **** 				  _ForwardIterator1>)
 207:/Library/DaisyToolchain/0.2.0/arm/arm-none-eabi/include/c++/10.3.1/bits/stl_algobase.h ****       __glibcxx_function_requires(_Mutable_ForwardIteratorConcept<
 208:/Library/DaisyToolchain/0.2.0/arm/arm-none-eabi/include/c++/10.3.1/bits/stl_algobase.h **** 				  _ForwardIterator2>)
 209:/Library/DaisyToolchain/0.2.0/arm/arm-none-eabi/include/c++/10.3.1/bits/stl_algobase.h ****       __glibcxx_requires_valid_range(__first1, __last1);
 210:/Library/DaisyToolchain/0.2.0/arm/arm-none-eabi/include/c++/10.3.1/bits/stl_algobase.h **** 
 211:/Library/DaisyToolchain/0.2.0/arm/arm-none-eabi/include/c++/10.3.1/bits/stl_algobase.h ****       for (; __first1 != __last1; ++__first1, (void)++__first2)
 212:/Library/DaisyToolchain/0.2.0/arm/arm-none-eabi/include/c++/10.3.1/bits/stl_algobase.h **** 	std::iter_swap(__first1, __first2);
 213:/Library/DaisyToolchain/0.2.0/arm/arm-none-eabi/include/c++/10.3.1/bits/stl_algobase.h ****       return __first2;
 214:/Library/DaisyToolchain/0.2.0/arm/arm-none-eabi/include/c++/10.3.1/bits/stl_algobase.h ****     }
 215:/Library/DaisyToolchain/0.2.0/arm/arm-none-eabi/include/c++/10.3.1/bits/stl_algobase.h **** 
 216:/Library/DaisyToolchain/0.2.0/arm/arm-none-eabi/include/c++/10.3.1/bits/stl_algobase.h ****   /**
 217:/Library/DaisyToolchain/0.2.0/arm/arm-none-eabi/include/c++/10.3.1/bits/stl_algobase.h ****    *  @brief This does what you think it does.
 218:/Library/DaisyToolchain/0.2.0/arm/arm-none-eabi/include/c++/10.3.1/bits/stl_algobase.h ****    *  @ingroup sorting_algorithms
 219:/Library/DaisyToolchain/0.2.0/arm/arm-none-eabi/include/c++/10.3.1/bits/stl_algobase.h ****    *  @param  __a  A thing of arbitrary type.
 220:/Library/DaisyToolchain/0.2.0/arm/arm-none-eabi/include/c++/10.3.1/bits/stl_algobase.h ****    *  @param  __b  Another thing of arbitrary type.
 221:/Library/DaisyToolchain/0.2.0/arm/arm-none-eabi/include/c++/10.3.1/bits/stl_algobase.h ****    *  @return   The lesser of the parameters.
 222:/Library/DaisyToolchain/0.2.0/arm/arm-none-eabi/include/c++/10.3.1/bits/stl_algobase.h ****    *
 223:/Library/DaisyToolchain/0.2.0/arm/arm-none-eabi/include/c++/10.3.1/bits/stl_algobase.h ****    *  This is the simple classic generic implementation.  It will work on
 224:/Library/DaisyToolchain/0.2.0/arm/arm-none-eabi/include/c++/10.3.1/bits/stl_algobase.h ****    *  temporary expressions, since they are only evaluated once, unlike a
 225:/Library/DaisyToolchain/0.2.0/arm/arm-none-eabi/include/c++/10.3.1/bits/stl_algobase.h ****    *  preprocessor macro.
 226:/Library/DaisyToolchain/0.2.0/arm/arm-none-eabi/include/c++/10.3.1/bits/stl_algobase.h ****   */
 227:/Library/DaisyToolchain/0.2.0/arm/arm-none-eabi/include/c++/10.3.1/bits/stl_algobase.h ****   template<typename _Tp>
 228:/Library/DaisyToolchain/0.2.0/arm/arm-none-eabi/include/c++/10.3.1/bits/stl_algobase.h ****     _GLIBCXX14_CONSTEXPR
 229:/Library/DaisyToolchain/0.2.0/arm/arm-none-eabi/include/c++/10.3.1/bits/stl_algobase.h ****     inline const _Tp&
 230:/Library/DaisyToolchain/0.2.0/arm/arm-none-eabi/include/c++/10.3.1/bits/stl_algobase.h ****     min(const _Tp& __a, const _Tp& __b)
 231:/Library/DaisyToolchain/0.2.0/arm/arm-none-eabi/include/c++/10.3.1/bits/stl_algobase.h ****     {
 232:/Library/DaisyToolchain/0.2.0/arm/arm-none-eabi/include/c++/10.3.1/bits/stl_algobase.h ****       // concept requirements
 233:/Library/DaisyToolchain/0.2.0/arm/arm-none-eabi/include/c++/10.3.1/bits/stl_algobase.h ****       __glibcxx_function_requires(_LessThanComparableConcept<_Tp>)
 234:/Library/DaisyToolchain/0.2.0/arm/arm-none-eabi/include/c++/10.3.1/bits/stl_algobase.h ****       //return __b < __a ? __b : __a;
 235:/Library/DaisyToolchain/0.2.0/arm/arm-none-eabi/include/c++/10.3.1/bits/stl_algobase.h ****       if (__b < __a)
 236:/Library/DaisyToolchain/0.2.0/arm/arm-none-eabi/include/c++/10.3.1/bits/stl_algobase.h **** 	return __b;
ARM GAS  /var/folders/9k/zk1mgrrd7wg4__6zvxvr9w8m0000gn/T//ccVlS6UW.s 			page 28


 237:/Library/DaisyToolchain/0.2.0/arm/arm-none-eabi/include/c++/10.3.1/bits/stl_algobase.h ****       return __a;
 238:/Library/DaisyToolchain/0.2.0/arm/arm-none-eabi/include/c++/10.3.1/bits/stl_algobase.h ****     }
 239:/Library/DaisyToolchain/0.2.0/arm/arm-none-eabi/include/c++/10.3.1/bits/stl_algobase.h **** 
 240:/Library/DaisyToolchain/0.2.0/arm/arm-none-eabi/include/c++/10.3.1/bits/stl_algobase.h ****   /**
 241:/Library/DaisyToolchain/0.2.0/arm/arm-none-eabi/include/c++/10.3.1/bits/stl_algobase.h ****    *  @brief This does what you think it does.
 242:/Library/DaisyToolchain/0.2.0/arm/arm-none-eabi/include/c++/10.3.1/bits/stl_algobase.h ****    *  @ingroup sorting_algorithms
 243:/Library/DaisyToolchain/0.2.0/arm/arm-none-eabi/include/c++/10.3.1/bits/stl_algobase.h ****    *  @param  __a  A thing of arbitrary type.
 244:/Library/DaisyToolchain/0.2.0/arm/arm-none-eabi/include/c++/10.3.1/bits/stl_algobase.h ****    *  @param  __b  Another thing of arbitrary type.
 245:/Library/DaisyToolchain/0.2.0/arm/arm-none-eabi/include/c++/10.3.1/bits/stl_algobase.h ****    *  @return   The greater of the parameters.
 246:/Library/DaisyToolchain/0.2.0/arm/arm-none-eabi/include/c++/10.3.1/bits/stl_algobase.h ****    *
 247:/Library/DaisyToolchain/0.2.0/arm/arm-none-eabi/include/c++/10.3.1/bits/stl_algobase.h ****    *  This is the simple classic generic implementation.  It will work on
 248:/Library/DaisyToolchain/0.2.0/arm/arm-none-eabi/include/c++/10.3.1/bits/stl_algobase.h ****    *  temporary expressions, since they are only evaluated once, unlike a
 249:/Library/DaisyToolchain/0.2.0/arm/arm-none-eabi/include/c++/10.3.1/bits/stl_algobase.h ****    *  preprocessor macro.
 250:/Library/DaisyToolchain/0.2.0/arm/arm-none-eabi/include/c++/10.3.1/bits/stl_algobase.h ****   */
 251:/Library/DaisyToolchain/0.2.0/arm/arm-none-eabi/include/c++/10.3.1/bits/stl_algobase.h ****   template<typename _Tp>
 252:/Library/DaisyToolchain/0.2.0/arm/arm-none-eabi/include/c++/10.3.1/bits/stl_algobase.h ****     _GLIBCXX14_CONSTEXPR
 253:/Library/DaisyToolchain/0.2.0/arm/arm-none-eabi/include/c++/10.3.1/bits/stl_algobase.h ****     inline const _Tp&
 254:/Library/DaisyToolchain/0.2.0/arm/arm-none-eabi/include/c++/10.3.1/bits/stl_algobase.h ****     max(const _Tp& __a, const _Tp& __b)
 255:/Library/DaisyToolchain/0.2.0/arm/arm-none-eabi/include/c++/10.3.1/bits/stl_algobase.h ****     {
 256:/Library/DaisyToolchain/0.2.0/arm/arm-none-eabi/include/c++/10.3.1/bits/stl_algobase.h ****       // concept requirements
 257:/Library/DaisyToolchain/0.2.0/arm/arm-none-eabi/include/c++/10.3.1/bits/stl_algobase.h ****       __glibcxx_function_requires(_LessThanComparableConcept<_Tp>)
 258:/Library/DaisyToolchain/0.2.0/arm/arm-none-eabi/include/c++/10.3.1/bits/stl_algobase.h ****       //return  __a < __b ? __b : __a;
 259:/Library/DaisyToolchain/0.2.0/arm/arm-none-eabi/include/c++/10.3.1/bits/stl_algobase.h ****       if (__a < __b)
 260:/Library/DaisyToolchain/0.2.0/arm/arm-none-eabi/include/c++/10.3.1/bits/stl_algobase.h **** 	return __b;
 261:/Library/DaisyToolchain/0.2.0/arm/arm-none-eabi/include/c++/10.3.1/bits/stl_algobase.h ****       return __a;
 262:/Library/DaisyToolchain/0.2.0/arm/arm-none-eabi/include/c++/10.3.1/bits/stl_algobase.h ****     }
 263:/Library/DaisyToolchain/0.2.0/arm/arm-none-eabi/include/c++/10.3.1/bits/stl_algobase.h **** 
 264:/Library/DaisyToolchain/0.2.0/arm/arm-none-eabi/include/c++/10.3.1/bits/stl_algobase.h ****   /**
 265:/Library/DaisyToolchain/0.2.0/arm/arm-none-eabi/include/c++/10.3.1/bits/stl_algobase.h ****    *  @brief This does what you think it does.
 266:/Library/DaisyToolchain/0.2.0/arm/arm-none-eabi/include/c++/10.3.1/bits/stl_algobase.h ****    *  @ingroup sorting_algorithms
 267:/Library/DaisyToolchain/0.2.0/arm/arm-none-eabi/include/c++/10.3.1/bits/stl_algobase.h ****    *  @param  __a  A thing of arbitrary type.
 268:/Library/DaisyToolchain/0.2.0/arm/arm-none-eabi/include/c++/10.3.1/bits/stl_algobase.h ****    *  @param  __b  Another thing of arbitrary type.
 269:/Library/DaisyToolchain/0.2.0/arm/arm-none-eabi/include/c++/10.3.1/bits/stl_algobase.h ****    *  @param  __comp  A @link comparison_functors comparison functor@endlink.
 270:/Library/DaisyToolchain/0.2.0/arm/arm-none-eabi/include/c++/10.3.1/bits/stl_algobase.h ****    *  @return   The lesser of the parameters.
 271:/Library/DaisyToolchain/0.2.0/arm/arm-none-eabi/include/c++/10.3.1/bits/stl_algobase.h ****    *
 272:/Library/DaisyToolchain/0.2.0/arm/arm-none-eabi/include/c++/10.3.1/bits/stl_algobase.h ****    *  This will work on temporary expressions, since they are only evaluated
 273:/Library/DaisyToolchain/0.2.0/arm/arm-none-eabi/include/c++/10.3.1/bits/stl_algobase.h ****    *  once, unlike a preprocessor macro.
 274:/Library/DaisyToolchain/0.2.0/arm/arm-none-eabi/include/c++/10.3.1/bits/stl_algobase.h ****   */
 275:/Library/DaisyToolchain/0.2.0/arm/arm-none-eabi/include/c++/10.3.1/bits/stl_algobase.h ****   template<typename _Tp, typename _Compare>
 276:/Library/DaisyToolchain/0.2.0/arm/arm-none-eabi/include/c++/10.3.1/bits/stl_algobase.h ****     _GLIBCXX14_CONSTEXPR
 277:/Library/DaisyToolchain/0.2.0/arm/arm-none-eabi/include/c++/10.3.1/bits/stl_algobase.h ****     inline const _Tp&
 278:/Library/DaisyToolchain/0.2.0/arm/arm-none-eabi/include/c++/10.3.1/bits/stl_algobase.h ****     min(const _Tp& __a, const _Tp& __b, _Compare __comp)
 279:/Library/DaisyToolchain/0.2.0/arm/arm-none-eabi/include/c++/10.3.1/bits/stl_algobase.h ****     {
 280:/Library/DaisyToolchain/0.2.0/arm/arm-none-eabi/include/c++/10.3.1/bits/stl_algobase.h ****       //return __comp(__b, __a) ? __b : __a;
 281:/Library/DaisyToolchain/0.2.0/arm/arm-none-eabi/include/c++/10.3.1/bits/stl_algobase.h ****       if (__comp(__b, __a))
 282:/Library/DaisyToolchain/0.2.0/arm/arm-none-eabi/include/c++/10.3.1/bits/stl_algobase.h **** 	return __b;
 283:/Library/DaisyToolchain/0.2.0/arm/arm-none-eabi/include/c++/10.3.1/bits/stl_algobase.h ****       return __a;
 284:/Library/DaisyToolchain/0.2.0/arm/arm-none-eabi/include/c++/10.3.1/bits/stl_algobase.h ****     }
 285:/Library/DaisyToolchain/0.2.0/arm/arm-none-eabi/include/c++/10.3.1/bits/stl_algobase.h **** 
 286:/Library/DaisyToolchain/0.2.0/arm/arm-none-eabi/include/c++/10.3.1/bits/stl_algobase.h ****   /**
 287:/Library/DaisyToolchain/0.2.0/arm/arm-none-eabi/include/c++/10.3.1/bits/stl_algobase.h ****    *  @brief This does what you think it does.
 288:/Library/DaisyToolchain/0.2.0/arm/arm-none-eabi/include/c++/10.3.1/bits/stl_algobase.h ****    *  @ingroup sorting_algorithms
 289:/Library/DaisyToolchain/0.2.0/arm/arm-none-eabi/include/c++/10.3.1/bits/stl_algobase.h ****    *  @param  __a  A thing of arbitrary type.
 290:/Library/DaisyToolchain/0.2.0/arm/arm-none-eabi/include/c++/10.3.1/bits/stl_algobase.h ****    *  @param  __b  Another thing of arbitrary type.
 291:/Library/DaisyToolchain/0.2.0/arm/arm-none-eabi/include/c++/10.3.1/bits/stl_algobase.h ****    *  @param  __comp  A @link comparison_functors comparison functor@endlink.
 292:/Library/DaisyToolchain/0.2.0/arm/arm-none-eabi/include/c++/10.3.1/bits/stl_algobase.h ****    *  @return   The greater of the parameters.
 293:/Library/DaisyToolchain/0.2.0/arm/arm-none-eabi/include/c++/10.3.1/bits/stl_algobase.h ****    *
ARM GAS  /var/folders/9k/zk1mgrrd7wg4__6zvxvr9w8m0000gn/T//ccVlS6UW.s 			page 29


 294:/Library/DaisyToolchain/0.2.0/arm/arm-none-eabi/include/c++/10.3.1/bits/stl_algobase.h ****    *  This will work on temporary expressions, since they are only evaluated
 295:/Library/DaisyToolchain/0.2.0/arm/arm-none-eabi/include/c++/10.3.1/bits/stl_algobase.h ****    *  once, unlike a preprocessor macro.
 296:/Library/DaisyToolchain/0.2.0/arm/arm-none-eabi/include/c++/10.3.1/bits/stl_algobase.h ****   */
 297:/Library/DaisyToolchain/0.2.0/arm/arm-none-eabi/include/c++/10.3.1/bits/stl_algobase.h ****   template<typename _Tp, typename _Compare>
 298:/Library/DaisyToolchain/0.2.0/arm/arm-none-eabi/include/c++/10.3.1/bits/stl_algobase.h ****     _GLIBCXX14_CONSTEXPR
 299:/Library/DaisyToolchain/0.2.0/arm/arm-none-eabi/include/c++/10.3.1/bits/stl_algobase.h ****     inline const _Tp&
 300:/Library/DaisyToolchain/0.2.0/arm/arm-none-eabi/include/c++/10.3.1/bits/stl_algobase.h ****     max(const _Tp& __a, const _Tp& __b, _Compare __comp)
 301:/Library/DaisyToolchain/0.2.0/arm/arm-none-eabi/include/c++/10.3.1/bits/stl_algobase.h ****     {
 302:/Library/DaisyToolchain/0.2.0/arm/arm-none-eabi/include/c++/10.3.1/bits/stl_algobase.h ****       //return __comp(__a, __b) ? __b : __a;
 303:/Library/DaisyToolchain/0.2.0/arm/arm-none-eabi/include/c++/10.3.1/bits/stl_algobase.h ****       if (__comp(__a, __b))
 304:/Library/DaisyToolchain/0.2.0/arm/arm-none-eabi/include/c++/10.3.1/bits/stl_algobase.h **** 	return __b;
 305:/Library/DaisyToolchain/0.2.0/arm/arm-none-eabi/include/c++/10.3.1/bits/stl_algobase.h ****       return __a;
 306:/Library/DaisyToolchain/0.2.0/arm/arm-none-eabi/include/c++/10.3.1/bits/stl_algobase.h ****     }
 307:/Library/DaisyToolchain/0.2.0/arm/arm-none-eabi/include/c++/10.3.1/bits/stl_algobase.h **** 
 308:/Library/DaisyToolchain/0.2.0/arm/arm-none-eabi/include/c++/10.3.1/bits/stl_algobase.h ****   // Fallback implementation of the function in bits/stl_iterator.h used to
 309:/Library/DaisyToolchain/0.2.0/arm/arm-none-eabi/include/c++/10.3.1/bits/stl_algobase.h ****   // remove the __normal_iterator wrapper. See copy, fill, ...
 310:/Library/DaisyToolchain/0.2.0/arm/arm-none-eabi/include/c++/10.3.1/bits/stl_algobase.h ****   template<typename _Iterator>
 311:/Library/DaisyToolchain/0.2.0/arm/arm-none-eabi/include/c++/10.3.1/bits/stl_algobase.h ****     _GLIBCXX20_CONSTEXPR
 312:/Library/DaisyToolchain/0.2.0/arm/arm-none-eabi/include/c++/10.3.1/bits/stl_algobase.h ****     inline _Iterator
 313:/Library/DaisyToolchain/0.2.0/arm/arm-none-eabi/include/c++/10.3.1/bits/stl_algobase.h ****     __niter_base(_Iterator __it)
 314:/Library/DaisyToolchain/0.2.0/arm/arm-none-eabi/include/c++/10.3.1/bits/stl_algobase.h ****     _GLIBCXX_NOEXCEPT_IF(std::is_nothrow_copy_constructible<_Iterator>::value)
 315:/Library/DaisyToolchain/0.2.0/arm/arm-none-eabi/include/c++/10.3.1/bits/stl_algobase.h ****     { return __it; }
 316:/Library/DaisyToolchain/0.2.0/arm/arm-none-eabi/include/c++/10.3.1/bits/stl_algobase.h **** 
 317:/Library/DaisyToolchain/0.2.0/arm/arm-none-eabi/include/c++/10.3.1/bits/stl_algobase.h ****   // Reverse the __niter_base transformation to get a
 318:/Library/DaisyToolchain/0.2.0/arm/arm-none-eabi/include/c++/10.3.1/bits/stl_algobase.h ****   // __normal_iterator back again (this assumes that __normal_iterator
 319:/Library/DaisyToolchain/0.2.0/arm/arm-none-eabi/include/c++/10.3.1/bits/stl_algobase.h ****   // is only used to wrap random access iterators, like pointers).
 320:/Library/DaisyToolchain/0.2.0/arm/arm-none-eabi/include/c++/10.3.1/bits/stl_algobase.h ****   template<typename _From, typename _To>
 321:/Library/DaisyToolchain/0.2.0/arm/arm-none-eabi/include/c++/10.3.1/bits/stl_algobase.h ****     _GLIBCXX20_CONSTEXPR
 322:/Library/DaisyToolchain/0.2.0/arm/arm-none-eabi/include/c++/10.3.1/bits/stl_algobase.h ****     inline _From
 323:/Library/DaisyToolchain/0.2.0/arm/arm-none-eabi/include/c++/10.3.1/bits/stl_algobase.h ****     __niter_wrap(_From __from, _To __res)
 324:/Library/DaisyToolchain/0.2.0/arm/arm-none-eabi/include/c++/10.3.1/bits/stl_algobase.h ****     { return __from + (__res - std::__niter_base(__from)); }
 325:/Library/DaisyToolchain/0.2.0/arm/arm-none-eabi/include/c++/10.3.1/bits/stl_algobase.h **** 
 326:/Library/DaisyToolchain/0.2.0/arm/arm-none-eabi/include/c++/10.3.1/bits/stl_algobase.h ****   // No need to wrap, iterator already has the right type.
 327:/Library/DaisyToolchain/0.2.0/arm/arm-none-eabi/include/c++/10.3.1/bits/stl_algobase.h ****   template<typename _Iterator>
 328:/Library/DaisyToolchain/0.2.0/arm/arm-none-eabi/include/c++/10.3.1/bits/stl_algobase.h ****     _GLIBCXX20_CONSTEXPR
 329:/Library/DaisyToolchain/0.2.0/arm/arm-none-eabi/include/c++/10.3.1/bits/stl_algobase.h ****     inline _Iterator
 330:/Library/DaisyToolchain/0.2.0/arm/arm-none-eabi/include/c++/10.3.1/bits/stl_algobase.h ****     __niter_wrap(const _Iterator&, _Iterator __res)
 331:/Library/DaisyToolchain/0.2.0/arm/arm-none-eabi/include/c++/10.3.1/bits/stl_algobase.h ****     { return __res; }
 332:/Library/DaisyToolchain/0.2.0/arm/arm-none-eabi/include/c++/10.3.1/bits/stl_algobase.h **** 
 333:/Library/DaisyToolchain/0.2.0/arm/arm-none-eabi/include/c++/10.3.1/bits/stl_algobase.h ****   // All of these auxiliary structs serve two purposes.  (1) Replace
 334:/Library/DaisyToolchain/0.2.0/arm/arm-none-eabi/include/c++/10.3.1/bits/stl_algobase.h ****   // calls to copy with memmove whenever possible.  (Memmove, not memcpy,
 335:/Library/DaisyToolchain/0.2.0/arm/arm-none-eabi/include/c++/10.3.1/bits/stl_algobase.h ****   // because the input and output ranges are permitted to overlap.)
 336:/Library/DaisyToolchain/0.2.0/arm/arm-none-eabi/include/c++/10.3.1/bits/stl_algobase.h ****   // (2) If we're using random access iterators, then write the loop as
 337:/Library/DaisyToolchain/0.2.0/arm/arm-none-eabi/include/c++/10.3.1/bits/stl_algobase.h ****   // a for loop with an explicit count.
 338:/Library/DaisyToolchain/0.2.0/arm/arm-none-eabi/include/c++/10.3.1/bits/stl_algobase.h **** 
 339:/Library/DaisyToolchain/0.2.0/arm/arm-none-eabi/include/c++/10.3.1/bits/stl_algobase.h ****   template<bool _IsMove, bool _IsSimple, typename _Category>
 340:/Library/DaisyToolchain/0.2.0/arm/arm-none-eabi/include/c++/10.3.1/bits/stl_algobase.h ****     struct __copy_move
 341:/Library/DaisyToolchain/0.2.0/arm/arm-none-eabi/include/c++/10.3.1/bits/stl_algobase.h ****     {
 342:/Library/DaisyToolchain/0.2.0/arm/arm-none-eabi/include/c++/10.3.1/bits/stl_algobase.h ****       template<typename _II, typename _OI>
 343:/Library/DaisyToolchain/0.2.0/arm/arm-none-eabi/include/c++/10.3.1/bits/stl_algobase.h **** 	_GLIBCXX20_CONSTEXPR
 344:/Library/DaisyToolchain/0.2.0/arm/arm-none-eabi/include/c++/10.3.1/bits/stl_algobase.h **** 	static _OI
 345:/Library/DaisyToolchain/0.2.0/arm/arm-none-eabi/include/c++/10.3.1/bits/stl_algobase.h **** 	__copy_m(_II __first, _II __last, _OI __result)
 346:/Library/DaisyToolchain/0.2.0/arm/arm-none-eabi/include/c++/10.3.1/bits/stl_algobase.h **** 	{
 347:/Library/DaisyToolchain/0.2.0/arm/arm-none-eabi/include/c++/10.3.1/bits/stl_algobase.h **** 	  for (; __first != __last; ++__result, (void)++__first)
 348:/Library/DaisyToolchain/0.2.0/arm/arm-none-eabi/include/c++/10.3.1/bits/stl_algobase.h **** 	    *__result = *__first;
 349:/Library/DaisyToolchain/0.2.0/arm/arm-none-eabi/include/c++/10.3.1/bits/stl_algobase.h **** 	  return __result;
 350:/Library/DaisyToolchain/0.2.0/arm/arm-none-eabi/include/c++/10.3.1/bits/stl_algobase.h **** 	}
ARM GAS  /var/folders/9k/zk1mgrrd7wg4__6zvxvr9w8m0000gn/T//ccVlS6UW.s 			page 30


 351:/Library/DaisyToolchain/0.2.0/arm/arm-none-eabi/include/c++/10.3.1/bits/stl_algobase.h ****     };
 352:/Library/DaisyToolchain/0.2.0/arm/arm-none-eabi/include/c++/10.3.1/bits/stl_algobase.h **** 
 353:/Library/DaisyToolchain/0.2.0/arm/arm-none-eabi/include/c++/10.3.1/bits/stl_algobase.h **** #if __cplusplus >= 201103L
 354:/Library/DaisyToolchain/0.2.0/arm/arm-none-eabi/include/c++/10.3.1/bits/stl_algobase.h ****   template<typename _Category>
 355:/Library/DaisyToolchain/0.2.0/arm/arm-none-eabi/include/c++/10.3.1/bits/stl_algobase.h ****     struct __copy_move<true, false, _Category>
 356:/Library/DaisyToolchain/0.2.0/arm/arm-none-eabi/include/c++/10.3.1/bits/stl_algobase.h ****     {
 357:/Library/DaisyToolchain/0.2.0/arm/arm-none-eabi/include/c++/10.3.1/bits/stl_algobase.h ****       template<typename _II, typename _OI>
 358:/Library/DaisyToolchain/0.2.0/arm/arm-none-eabi/include/c++/10.3.1/bits/stl_algobase.h **** 	_GLIBCXX20_CONSTEXPR
 359:/Library/DaisyToolchain/0.2.0/arm/arm-none-eabi/include/c++/10.3.1/bits/stl_algobase.h **** 	static _OI
 360:/Library/DaisyToolchain/0.2.0/arm/arm-none-eabi/include/c++/10.3.1/bits/stl_algobase.h **** 	__copy_m(_II __first, _II __last, _OI __result)
 361:/Library/DaisyToolchain/0.2.0/arm/arm-none-eabi/include/c++/10.3.1/bits/stl_algobase.h **** 	{
 362:/Library/DaisyToolchain/0.2.0/arm/arm-none-eabi/include/c++/10.3.1/bits/stl_algobase.h **** 	  for (; __first != __last; ++__result, (void)++__first)
 363:/Library/DaisyToolchain/0.2.0/arm/arm-none-eabi/include/c++/10.3.1/bits/stl_algobase.h **** 	    *__result = std::move(*__first);
 364:/Library/DaisyToolchain/0.2.0/arm/arm-none-eabi/include/c++/10.3.1/bits/stl_algobase.h **** 	  return __result;
 365:/Library/DaisyToolchain/0.2.0/arm/arm-none-eabi/include/c++/10.3.1/bits/stl_algobase.h **** 	}
 366:/Library/DaisyToolchain/0.2.0/arm/arm-none-eabi/include/c++/10.3.1/bits/stl_algobase.h ****     };
 367:/Library/DaisyToolchain/0.2.0/arm/arm-none-eabi/include/c++/10.3.1/bits/stl_algobase.h **** #endif
 368:/Library/DaisyToolchain/0.2.0/arm/arm-none-eabi/include/c++/10.3.1/bits/stl_algobase.h **** 
 369:/Library/DaisyToolchain/0.2.0/arm/arm-none-eabi/include/c++/10.3.1/bits/stl_algobase.h ****   template<>
 370:/Library/DaisyToolchain/0.2.0/arm/arm-none-eabi/include/c++/10.3.1/bits/stl_algobase.h ****     struct __copy_move<false, false, random_access_iterator_tag>
 371:/Library/DaisyToolchain/0.2.0/arm/arm-none-eabi/include/c++/10.3.1/bits/stl_algobase.h ****     {
 372:/Library/DaisyToolchain/0.2.0/arm/arm-none-eabi/include/c++/10.3.1/bits/stl_algobase.h ****       template<typename _II, typename _OI>
 373:/Library/DaisyToolchain/0.2.0/arm/arm-none-eabi/include/c++/10.3.1/bits/stl_algobase.h **** 	_GLIBCXX20_CONSTEXPR
 374:/Library/DaisyToolchain/0.2.0/arm/arm-none-eabi/include/c++/10.3.1/bits/stl_algobase.h **** 	static _OI
 375:/Library/DaisyToolchain/0.2.0/arm/arm-none-eabi/include/c++/10.3.1/bits/stl_algobase.h **** 	__copy_m(_II __first, _II __last, _OI __result)
 376:/Library/DaisyToolchain/0.2.0/arm/arm-none-eabi/include/c++/10.3.1/bits/stl_algobase.h **** 	{
 377:/Library/DaisyToolchain/0.2.0/arm/arm-none-eabi/include/c++/10.3.1/bits/stl_algobase.h **** 	  typedef typename iterator_traits<_II>::difference_type _Distance;
 378:/Library/DaisyToolchain/0.2.0/arm/arm-none-eabi/include/c++/10.3.1/bits/stl_algobase.h **** 	  for(_Distance __n = __last - __first; __n > 0; --__n)
 379:/Library/DaisyToolchain/0.2.0/arm/arm-none-eabi/include/c++/10.3.1/bits/stl_algobase.h **** 	    {
 380:/Library/DaisyToolchain/0.2.0/arm/arm-none-eabi/include/c++/10.3.1/bits/stl_algobase.h **** 	      *__result = *__first;
 381:/Library/DaisyToolchain/0.2.0/arm/arm-none-eabi/include/c++/10.3.1/bits/stl_algobase.h **** 	      ++__first;
 382:/Library/DaisyToolchain/0.2.0/arm/arm-none-eabi/include/c++/10.3.1/bits/stl_algobase.h **** 	      ++__result;
 383:/Library/DaisyToolchain/0.2.0/arm/arm-none-eabi/include/c++/10.3.1/bits/stl_algobase.h **** 	    }
 384:/Library/DaisyToolchain/0.2.0/arm/arm-none-eabi/include/c++/10.3.1/bits/stl_algobase.h **** 	  return __result;
 385:/Library/DaisyToolchain/0.2.0/arm/arm-none-eabi/include/c++/10.3.1/bits/stl_algobase.h **** 	}
 386:/Library/DaisyToolchain/0.2.0/arm/arm-none-eabi/include/c++/10.3.1/bits/stl_algobase.h ****     };
 387:/Library/DaisyToolchain/0.2.0/arm/arm-none-eabi/include/c++/10.3.1/bits/stl_algobase.h **** 
 388:/Library/DaisyToolchain/0.2.0/arm/arm-none-eabi/include/c++/10.3.1/bits/stl_algobase.h **** #if __cplusplus >= 201103L
 389:/Library/DaisyToolchain/0.2.0/arm/arm-none-eabi/include/c++/10.3.1/bits/stl_algobase.h ****   template<>
 390:/Library/DaisyToolchain/0.2.0/arm/arm-none-eabi/include/c++/10.3.1/bits/stl_algobase.h ****     struct __copy_move<true, false, random_access_iterator_tag>
 391:/Library/DaisyToolchain/0.2.0/arm/arm-none-eabi/include/c++/10.3.1/bits/stl_algobase.h ****     {
 392:/Library/DaisyToolchain/0.2.0/arm/arm-none-eabi/include/c++/10.3.1/bits/stl_algobase.h ****       template<typename _II, typename _OI>
 393:/Library/DaisyToolchain/0.2.0/arm/arm-none-eabi/include/c++/10.3.1/bits/stl_algobase.h **** 	_GLIBCXX20_CONSTEXPR
 394:/Library/DaisyToolchain/0.2.0/arm/arm-none-eabi/include/c++/10.3.1/bits/stl_algobase.h **** 	static _OI
 395:/Library/DaisyToolchain/0.2.0/arm/arm-none-eabi/include/c++/10.3.1/bits/stl_algobase.h **** 	__copy_m(_II __first, _II __last, _OI __result)
 396:/Library/DaisyToolchain/0.2.0/arm/arm-none-eabi/include/c++/10.3.1/bits/stl_algobase.h **** 	{
 397:/Library/DaisyToolchain/0.2.0/arm/arm-none-eabi/include/c++/10.3.1/bits/stl_algobase.h **** 	  typedef typename iterator_traits<_II>::difference_type _Distance;
 398:/Library/DaisyToolchain/0.2.0/arm/arm-none-eabi/include/c++/10.3.1/bits/stl_algobase.h **** 	  for(_Distance __n = __last - __first; __n > 0; --__n)
 399:/Library/DaisyToolchain/0.2.0/arm/arm-none-eabi/include/c++/10.3.1/bits/stl_algobase.h **** 	    {
 400:/Library/DaisyToolchain/0.2.0/arm/arm-none-eabi/include/c++/10.3.1/bits/stl_algobase.h **** 	      *__result = std::move(*__first);
 401:/Library/DaisyToolchain/0.2.0/arm/arm-none-eabi/include/c++/10.3.1/bits/stl_algobase.h **** 	      ++__first;
 402:/Library/DaisyToolchain/0.2.0/arm/arm-none-eabi/include/c++/10.3.1/bits/stl_algobase.h **** 	      ++__result;
 403:/Library/DaisyToolchain/0.2.0/arm/arm-none-eabi/include/c++/10.3.1/bits/stl_algobase.h **** 	    }
 404:/Library/DaisyToolchain/0.2.0/arm/arm-none-eabi/include/c++/10.3.1/bits/stl_algobase.h **** 	  return __result;
 405:/Library/DaisyToolchain/0.2.0/arm/arm-none-eabi/include/c++/10.3.1/bits/stl_algobase.h **** 	}
 406:/Library/DaisyToolchain/0.2.0/arm/arm-none-eabi/include/c++/10.3.1/bits/stl_algobase.h ****     };
 407:/Library/DaisyToolchain/0.2.0/arm/arm-none-eabi/include/c++/10.3.1/bits/stl_algobase.h **** #endif
ARM GAS  /var/folders/9k/zk1mgrrd7wg4__6zvxvr9w8m0000gn/T//ccVlS6UW.s 			page 31


 408:/Library/DaisyToolchain/0.2.0/arm/arm-none-eabi/include/c++/10.3.1/bits/stl_algobase.h **** 
 409:/Library/DaisyToolchain/0.2.0/arm/arm-none-eabi/include/c++/10.3.1/bits/stl_algobase.h ****   template<bool _IsMove>
 410:/Library/DaisyToolchain/0.2.0/arm/arm-none-eabi/include/c++/10.3.1/bits/stl_algobase.h ****     struct __copy_move<_IsMove, true, random_access_iterator_tag>
 411:/Library/DaisyToolchain/0.2.0/arm/arm-none-eabi/include/c++/10.3.1/bits/stl_algobase.h ****     {
 412:/Library/DaisyToolchain/0.2.0/arm/arm-none-eabi/include/c++/10.3.1/bits/stl_algobase.h ****       template<typename _Tp>
 413:/Library/DaisyToolchain/0.2.0/arm/arm-none-eabi/include/c++/10.3.1/bits/stl_algobase.h **** 	_GLIBCXX20_CONSTEXPR
 414:/Library/DaisyToolchain/0.2.0/arm/arm-none-eabi/include/c++/10.3.1/bits/stl_algobase.h **** 	static _Tp*
 415:/Library/DaisyToolchain/0.2.0/arm/arm-none-eabi/include/c++/10.3.1/bits/stl_algobase.h **** 	__copy_m(const _Tp* __first, const _Tp* __last, _Tp* __result)
 416:/Library/DaisyToolchain/0.2.0/arm/arm-none-eabi/include/c++/10.3.1/bits/stl_algobase.h **** 	{
 417:/Library/DaisyToolchain/0.2.0/arm/arm-none-eabi/include/c++/10.3.1/bits/stl_algobase.h **** #if __cplusplus >= 201103L
 418:/Library/DaisyToolchain/0.2.0/arm/arm-none-eabi/include/c++/10.3.1/bits/stl_algobase.h **** 	  using __assignable = conditional<_IsMove,
 419:/Library/DaisyToolchain/0.2.0/arm/arm-none-eabi/include/c++/10.3.1/bits/stl_algobase.h **** 					   is_move_assignable<_Tp>,
 420:/Library/DaisyToolchain/0.2.0/arm/arm-none-eabi/include/c++/10.3.1/bits/stl_algobase.h **** 					   is_copy_assignable<_Tp>>;
 421:/Library/DaisyToolchain/0.2.0/arm/arm-none-eabi/include/c++/10.3.1/bits/stl_algobase.h **** 	  // trivial types can have deleted assignment
 422:/Library/DaisyToolchain/0.2.0/arm/arm-none-eabi/include/c++/10.3.1/bits/stl_algobase.h **** 	  static_assert( __assignable::type::value, "type is not assignable" );
 423:/Library/DaisyToolchain/0.2.0/arm/arm-none-eabi/include/c++/10.3.1/bits/stl_algobase.h **** #endif
 424:/Library/DaisyToolchain/0.2.0/arm/arm-none-eabi/include/c++/10.3.1/bits/stl_algobase.h **** 	  const ptrdiff_t _Num = __last - __first;
 425:/Library/DaisyToolchain/0.2.0/arm/arm-none-eabi/include/c++/10.3.1/bits/stl_algobase.h **** 	  if (_Num)
 426:/Library/DaisyToolchain/0.2.0/arm/arm-none-eabi/include/c++/10.3.1/bits/stl_algobase.h **** 	    __builtin_memmove(__result, __first, sizeof(_Tp) * _Num);
 427:/Library/DaisyToolchain/0.2.0/arm/arm-none-eabi/include/c++/10.3.1/bits/stl_algobase.h **** 	  return __result + _Num;
 428:/Library/DaisyToolchain/0.2.0/arm/arm-none-eabi/include/c++/10.3.1/bits/stl_algobase.h **** 	}
 429:/Library/DaisyToolchain/0.2.0/arm/arm-none-eabi/include/c++/10.3.1/bits/stl_algobase.h ****     };
 430:/Library/DaisyToolchain/0.2.0/arm/arm-none-eabi/include/c++/10.3.1/bits/stl_algobase.h **** 
 431:/Library/DaisyToolchain/0.2.0/arm/arm-none-eabi/include/c++/10.3.1/bits/stl_algobase.h ****   // Helpers for streambuf iterators (either istream or ostream).
 432:/Library/DaisyToolchain/0.2.0/arm/arm-none-eabi/include/c++/10.3.1/bits/stl_algobase.h ****   // NB: avoid including <iosfwd>, relatively large.
 433:/Library/DaisyToolchain/0.2.0/arm/arm-none-eabi/include/c++/10.3.1/bits/stl_algobase.h ****   template<typename _CharT>
 434:/Library/DaisyToolchain/0.2.0/arm/arm-none-eabi/include/c++/10.3.1/bits/stl_algobase.h ****     struct char_traits;
 435:/Library/DaisyToolchain/0.2.0/arm/arm-none-eabi/include/c++/10.3.1/bits/stl_algobase.h **** 
 436:/Library/DaisyToolchain/0.2.0/arm/arm-none-eabi/include/c++/10.3.1/bits/stl_algobase.h ****   template<typename _CharT, typename _Traits>
 437:/Library/DaisyToolchain/0.2.0/arm/arm-none-eabi/include/c++/10.3.1/bits/stl_algobase.h ****     class istreambuf_iterator;
 438:/Library/DaisyToolchain/0.2.0/arm/arm-none-eabi/include/c++/10.3.1/bits/stl_algobase.h **** 
 439:/Library/DaisyToolchain/0.2.0/arm/arm-none-eabi/include/c++/10.3.1/bits/stl_algobase.h ****   template<typename _CharT, typename _Traits>
 440:/Library/DaisyToolchain/0.2.0/arm/arm-none-eabi/include/c++/10.3.1/bits/stl_algobase.h ****     class ostreambuf_iterator;
 441:/Library/DaisyToolchain/0.2.0/arm/arm-none-eabi/include/c++/10.3.1/bits/stl_algobase.h **** 
 442:/Library/DaisyToolchain/0.2.0/arm/arm-none-eabi/include/c++/10.3.1/bits/stl_algobase.h ****   template<bool _IsMove, typename _CharT>
 443:/Library/DaisyToolchain/0.2.0/arm/arm-none-eabi/include/c++/10.3.1/bits/stl_algobase.h ****     typename __gnu_cxx::__enable_if<__is_char<_CharT>::__value,
 444:/Library/DaisyToolchain/0.2.0/arm/arm-none-eabi/include/c++/10.3.1/bits/stl_algobase.h **** 	     ostreambuf_iterator<_CharT, char_traits<_CharT> > >::__type
 445:/Library/DaisyToolchain/0.2.0/arm/arm-none-eabi/include/c++/10.3.1/bits/stl_algobase.h ****     __copy_move_a2(_CharT*, _CharT*,
 446:/Library/DaisyToolchain/0.2.0/arm/arm-none-eabi/include/c++/10.3.1/bits/stl_algobase.h **** 		   ostreambuf_iterator<_CharT, char_traits<_CharT> >);
 447:/Library/DaisyToolchain/0.2.0/arm/arm-none-eabi/include/c++/10.3.1/bits/stl_algobase.h **** 
 448:/Library/DaisyToolchain/0.2.0/arm/arm-none-eabi/include/c++/10.3.1/bits/stl_algobase.h ****   template<bool _IsMove, typename _CharT>
 449:/Library/DaisyToolchain/0.2.0/arm/arm-none-eabi/include/c++/10.3.1/bits/stl_algobase.h ****     typename __gnu_cxx::__enable_if<__is_char<_CharT>::__value,
 450:/Library/DaisyToolchain/0.2.0/arm/arm-none-eabi/include/c++/10.3.1/bits/stl_algobase.h **** 	     ostreambuf_iterator<_CharT, char_traits<_CharT> > >::__type
 451:/Library/DaisyToolchain/0.2.0/arm/arm-none-eabi/include/c++/10.3.1/bits/stl_algobase.h ****     __copy_move_a2(const _CharT*, const _CharT*,
 452:/Library/DaisyToolchain/0.2.0/arm/arm-none-eabi/include/c++/10.3.1/bits/stl_algobase.h **** 		   ostreambuf_iterator<_CharT, char_traits<_CharT> >);
 453:/Library/DaisyToolchain/0.2.0/arm/arm-none-eabi/include/c++/10.3.1/bits/stl_algobase.h **** 
 454:/Library/DaisyToolchain/0.2.0/arm/arm-none-eabi/include/c++/10.3.1/bits/stl_algobase.h ****   template<bool _IsMove, typename _CharT>
 455:/Library/DaisyToolchain/0.2.0/arm/arm-none-eabi/include/c++/10.3.1/bits/stl_algobase.h ****     typename __gnu_cxx::__enable_if<__is_char<_CharT>::__value,
 456:/Library/DaisyToolchain/0.2.0/arm/arm-none-eabi/include/c++/10.3.1/bits/stl_algobase.h **** 				    _CharT*>::__type
 457:/Library/DaisyToolchain/0.2.0/arm/arm-none-eabi/include/c++/10.3.1/bits/stl_algobase.h ****     __copy_move_a2(istreambuf_iterator<_CharT, char_traits<_CharT> >,
 458:/Library/DaisyToolchain/0.2.0/arm/arm-none-eabi/include/c++/10.3.1/bits/stl_algobase.h **** 		   istreambuf_iterator<_CharT, char_traits<_CharT> >, _CharT*);
 459:/Library/DaisyToolchain/0.2.0/arm/arm-none-eabi/include/c++/10.3.1/bits/stl_algobase.h **** 
 460:/Library/DaisyToolchain/0.2.0/arm/arm-none-eabi/include/c++/10.3.1/bits/stl_algobase.h ****   template<bool _IsMove, typename _II, typename _OI>
 461:/Library/DaisyToolchain/0.2.0/arm/arm-none-eabi/include/c++/10.3.1/bits/stl_algobase.h ****     _GLIBCXX20_CONSTEXPR
 462:/Library/DaisyToolchain/0.2.0/arm/arm-none-eabi/include/c++/10.3.1/bits/stl_algobase.h ****     inline _OI
 463:/Library/DaisyToolchain/0.2.0/arm/arm-none-eabi/include/c++/10.3.1/bits/stl_algobase.h ****     __copy_move_a2(_II __first, _II __last, _OI __result)
 464:/Library/DaisyToolchain/0.2.0/arm/arm-none-eabi/include/c++/10.3.1/bits/stl_algobase.h ****     {
ARM GAS  /var/folders/9k/zk1mgrrd7wg4__6zvxvr9w8m0000gn/T//ccVlS6UW.s 			page 32


 465:/Library/DaisyToolchain/0.2.0/arm/arm-none-eabi/include/c++/10.3.1/bits/stl_algobase.h ****       typedef typename iterator_traits<_II>::iterator_category _Category;
 466:/Library/DaisyToolchain/0.2.0/arm/arm-none-eabi/include/c++/10.3.1/bits/stl_algobase.h **** #ifdef __cpp_lib_is_constant_evaluated
 467:/Library/DaisyToolchain/0.2.0/arm/arm-none-eabi/include/c++/10.3.1/bits/stl_algobase.h ****       if (std::is_constant_evaluated())
 468:/Library/DaisyToolchain/0.2.0/arm/arm-none-eabi/include/c++/10.3.1/bits/stl_algobase.h **** 	return std::__copy_move<_IsMove, false, _Category>::
 469:/Library/DaisyToolchain/0.2.0/arm/arm-none-eabi/include/c++/10.3.1/bits/stl_algobase.h **** 	  __copy_m(__first, __last, __result);
 470:/Library/DaisyToolchain/0.2.0/arm/arm-none-eabi/include/c++/10.3.1/bits/stl_algobase.h **** #endif
 471:/Library/DaisyToolchain/0.2.0/arm/arm-none-eabi/include/c++/10.3.1/bits/stl_algobase.h ****       return std::__copy_move<_IsMove, __memcpyable<_OI, _II>::__value,
 472:/Library/DaisyToolchain/0.2.0/arm/arm-none-eabi/include/c++/10.3.1/bits/stl_algobase.h **** 			      _Category>::__copy_m(__first, __last, __result);
 473:/Library/DaisyToolchain/0.2.0/arm/arm-none-eabi/include/c++/10.3.1/bits/stl_algobase.h ****     }
 474:/Library/DaisyToolchain/0.2.0/arm/arm-none-eabi/include/c++/10.3.1/bits/stl_algobase.h **** 
 475:/Library/DaisyToolchain/0.2.0/arm/arm-none-eabi/include/c++/10.3.1/bits/stl_algobase.h **** _GLIBCXX_BEGIN_NAMESPACE_CONTAINER
 476:/Library/DaisyToolchain/0.2.0/arm/arm-none-eabi/include/c++/10.3.1/bits/stl_algobase.h **** 
 477:/Library/DaisyToolchain/0.2.0/arm/arm-none-eabi/include/c++/10.3.1/bits/stl_algobase.h ****   template<typename _Tp, typename _Ref, typename _Ptr>
 478:/Library/DaisyToolchain/0.2.0/arm/arm-none-eabi/include/c++/10.3.1/bits/stl_algobase.h ****     struct _Deque_iterator;
 479:/Library/DaisyToolchain/0.2.0/arm/arm-none-eabi/include/c++/10.3.1/bits/stl_algobase.h **** 
 480:/Library/DaisyToolchain/0.2.0/arm/arm-none-eabi/include/c++/10.3.1/bits/stl_algobase.h **** _GLIBCXX_END_NAMESPACE_CONTAINER
 481:/Library/DaisyToolchain/0.2.0/arm/arm-none-eabi/include/c++/10.3.1/bits/stl_algobase.h **** 
 482:/Library/DaisyToolchain/0.2.0/arm/arm-none-eabi/include/c++/10.3.1/bits/stl_algobase.h ****   template<bool _IsMove,
 483:/Library/DaisyToolchain/0.2.0/arm/arm-none-eabi/include/c++/10.3.1/bits/stl_algobase.h **** 	   typename _Tp, typename _Ref, typename _Ptr, typename _OI>
 484:/Library/DaisyToolchain/0.2.0/arm/arm-none-eabi/include/c++/10.3.1/bits/stl_algobase.h ****     _OI
 485:/Library/DaisyToolchain/0.2.0/arm/arm-none-eabi/include/c++/10.3.1/bits/stl_algobase.h ****     __copy_move_a1(_GLIBCXX_STD_C::_Deque_iterator<_Tp, _Ref, _Ptr>,
 486:/Library/DaisyToolchain/0.2.0/arm/arm-none-eabi/include/c++/10.3.1/bits/stl_algobase.h **** 		   _GLIBCXX_STD_C::_Deque_iterator<_Tp, _Ref, _Ptr>,
 487:/Library/DaisyToolchain/0.2.0/arm/arm-none-eabi/include/c++/10.3.1/bits/stl_algobase.h **** 		   _OI);
 488:/Library/DaisyToolchain/0.2.0/arm/arm-none-eabi/include/c++/10.3.1/bits/stl_algobase.h **** 
 489:/Library/DaisyToolchain/0.2.0/arm/arm-none-eabi/include/c++/10.3.1/bits/stl_algobase.h ****   template<bool _IsMove,
 490:/Library/DaisyToolchain/0.2.0/arm/arm-none-eabi/include/c++/10.3.1/bits/stl_algobase.h **** 	   typename _ITp, typename _IRef, typename _IPtr, typename _OTp>
 491:/Library/DaisyToolchain/0.2.0/arm/arm-none-eabi/include/c++/10.3.1/bits/stl_algobase.h ****     _GLIBCXX_STD_C::_Deque_iterator<_OTp, _OTp&, _OTp*>
 492:/Library/DaisyToolchain/0.2.0/arm/arm-none-eabi/include/c++/10.3.1/bits/stl_algobase.h ****     __copy_move_a1(_GLIBCXX_STD_C::_Deque_iterator<_ITp, _IRef, _IPtr>,
 493:/Library/DaisyToolchain/0.2.0/arm/arm-none-eabi/include/c++/10.3.1/bits/stl_algobase.h **** 		   _GLIBCXX_STD_C::_Deque_iterator<_ITp, _IRef, _IPtr>,
 494:/Library/DaisyToolchain/0.2.0/arm/arm-none-eabi/include/c++/10.3.1/bits/stl_algobase.h **** 		   _GLIBCXX_STD_C::_Deque_iterator<_OTp, _OTp&, _OTp*>);
 495:/Library/DaisyToolchain/0.2.0/arm/arm-none-eabi/include/c++/10.3.1/bits/stl_algobase.h **** 
 496:/Library/DaisyToolchain/0.2.0/arm/arm-none-eabi/include/c++/10.3.1/bits/stl_algobase.h ****   template<bool _IsMove, typename _II, typename _Tp>
 497:/Library/DaisyToolchain/0.2.0/arm/arm-none-eabi/include/c++/10.3.1/bits/stl_algobase.h ****     typename __gnu_cxx::__enable_if<
 498:/Library/DaisyToolchain/0.2.0/arm/arm-none-eabi/include/c++/10.3.1/bits/stl_algobase.h ****       __is_random_access_iter<_II>::__value,
 499:/Library/DaisyToolchain/0.2.0/arm/arm-none-eabi/include/c++/10.3.1/bits/stl_algobase.h ****       _GLIBCXX_STD_C::_Deque_iterator<_Tp, _Tp&, _Tp*> >::__type
 500:/Library/DaisyToolchain/0.2.0/arm/arm-none-eabi/include/c++/10.3.1/bits/stl_algobase.h ****     __copy_move_a1(_II, _II, _GLIBCXX_STD_C::_Deque_iterator<_Tp, _Tp&, _Tp*>);
 501:/Library/DaisyToolchain/0.2.0/arm/arm-none-eabi/include/c++/10.3.1/bits/stl_algobase.h **** 
 502:/Library/DaisyToolchain/0.2.0/arm/arm-none-eabi/include/c++/10.3.1/bits/stl_algobase.h ****   template<bool _IsMove, typename _II, typename _OI>
 503:/Library/DaisyToolchain/0.2.0/arm/arm-none-eabi/include/c++/10.3.1/bits/stl_algobase.h ****     _GLIBCXX20_CONSTEXPR
 504:/Library/DaisyToolchain/0.2.0/arm/arm-none-eabi/include/c++/10.3.1/bits/stl_algobase.h ****     inline _OI
 505:/Library/DaisyToolchain/0.2.0/arm/arm-none-eabi/include/c++/10.3.1/bits/stl_algobase.h ****     __copy_move_a1(_II __first, _II __last, _OI __result)
 506:/Library/DaisyToolchain/0.2.0/arm/arm-none-eabi/include/c++/10.3.1/bits/stl_algobase.h ****     { return std::__copy_move_a2<_IsMove>(__first, __last, __result); }
 507:/Library/DaisyToolchain/0.2.0/arm/arm-none-eabi/include/c++/10.3.1/bits/stl_algobase.h **** 
 508:/Library/DaisyToolchain/0.2.0/arm/arm-none-eabi/include/c++/10.3.1/bits/stl_algobase.h ****   template<bool _IsMove, typename _II, typename _OI>
 509:/Library/DaisyToolchain/0.2.0/arm/arm-none-eabi/include/c++/10.3.1/bits/stl_algobase.h ****     _GLIBCXX20_CONSTEXPR
 510:/Library/DaisyToolchain/0.2.0/arm/arm-none-eabi/include/c++/10.3.1/bits/stl_algobase.h ****     inline _OI
 511:/Library/DaisyToolchain/0.2.0/arm/arm-none-eabi/include/c++/10.3.1/bits/stl_algobase.h ****     __copy_move_a(_II __first, _II __last, _OI __result)
 512:/Library/DaisyToolchain/0.2.0/arm/arm-none-eabi/include/c++/10.3.1/bits/stl_algobase.h ****     {
 513:/Library/DaisyToolchain/0.2.0/arm/arm-none-eabi/include/c++/10.3.1/bits/stl_algobase.h ****       return std::__niter_wrap(__result,
 514:/Library/DaisyToolchain/0.2.0/arm/arm-none-eabi/include/c++/10.3.1/bits/stl_algobase.h **** 		std::__copy_move_a1<_IsMove>(std::__niter_base(__first),
 515:/Library/DaisyToolchain/0.2.0/arm/arm-none-eabi/include/c++/10.3.1/bits/stl_algobase.h **** 					     std::__niter_base(__last),
 516:/Library/DaisyToolchain/0.2.0/arm/arm-none-eabi/include/c++/10.3.1/bits/stl_algobase.h **** 					     std::__niter_base(__result)));
 517:/Library/DaisyToolchain/0.2.0/arm/arm-none-eabi/include/c++/10.3.1/bits/stl_algobase.h ****     }
 518:/Library/DaisyToolchain/0.2.0/arm/arm-none-eabi/include/c++/10.3.1/bits/stl_algobase.h **** 
 519:/Library/DaisyToolchain/0.2.0/arm/arm-none-eabi/include/c++/10.3.1/bits/stl_algobase.h ****   template<bool _IsMove,
 520:/Library/DaisyToolchain/0.2.0/arm/arm-none-eabi/include/c++/10.3.1/bits/stl_algobase.h **** 	   typename _Ite, typename _Seq, typename _Cat, typename _OI>
 521:/Library/DaisyToolchain/0.2.0/arm/arm-none-eabi/include/c++/10.3.1/bits/stl_algobase.h ****     _OI
ARM GAS  /var/folders/9k/zk1mgrrd7wg4__6zvxvr9w8m0000gn/T//ccVlS6UW.s 			page 33


 522:/Library/DaisyToolchain/0.2.0/arm/arm-none-eabi/include/c++/10.3.1/bits/stl_algobase.h ****     __copy_move_a(const ::__gnu_debug::_Safe_iterator<_Ite, _Seq, _Cat>&,
 523:/Library/DaisyToolchain/0.2.0/arm/arm-none-eabi/include/c++/10.3.1/bits/stl_algobase.h **** 		  const ::__gnu_debug::_Safe_iterator<_Ite, _Seq, _Cat>&,
 524:/Library/DaisyToolchain/0.2.0/arm/arm-none-eabi/include/c++/10.3.1/bits/stl_algobase.h **** 		  _OI);
 525:/Library/DaisyToolchain/0.2.0/arm/arm-none-eabi/include/c++/10.3.1/bits/stl_algobase.h **** 
 526:/Library/DaisyToolchain/0.2.0/arm/arm-none-eabi/include/c++/10.3.1/bits/stl_algobase.h ****   template<bool _IsMove,
 527:/Library/DaisyToolchain/0.2.0/arm/arm-none-eabi/include/c++/10.3.1/bits/stl_algobase.h **** 	   typename _II, typename _Ite, typename _Seq, typename _Cat>
 528:/Library/DaisyToolchain/0.2.0/arm/arm-none-eabi/include/c++/10.3.1/bits/stl_algobase.h ****     __gnu_debug::_Safe_iterator<_Ite, _Seq, _Cat>
 529:/Library/DaisyToolchain/0.2.0/arm/arm-none-eabi/include/c++/10.3.1/bits/stl_algobase.h ****     __copy_move_a(_II, _II,
 530:/Library/DaisyToolchain/0.2.0/arm/arm-none-eabi/include/c++/10.3.1/bits/stl_algobase.h **** 		  const ::__gnu_debug::_Safe_iterator<_Ite, _Seq, _Cat>&);
 531:/Library/DaisyToolchain/0.2.0/arm/arm-none-eabi/include/c++/10.3.1/bits/stl_algobase.h **** 
 532:/Library/DaisyToolchain/0.2.0/arm/arm-none-eabi/include/c++/10.3.1/bits/stl_algobase.h ****   template<bool _IsMove,
 533:/Library/DaisyToolchain/0.2.0/arm/arm-none-eabi/include/c++/10.3.1/bits/stl_algobase.h **** 	   typename _IIte, typename _ISeq, typename _ICat,
 534:/Library/DaisyToolchain/0.2.0/arm/arm-none-eabi/include/c++/10.3.1/bits/stl_algobase.h **** 	   typename _OIte, typename _OSeq, typename _OCat>
 535:/Library/DaisyToolchain/0.2.0/arm/arm-none-eabi/include/c++/10.3.1/bits/stl_algobase.h ****     ::__gnu_debug::_Safe_iterator<_OIte, _OSeq, _OCat>
 536:/Library/DaisyToolchain/0.2.0/arm/arm-none-eabi/include/c++/10.3.1/bits/stl_algobase.h ****     __copy_move_a(const ::__gnu_debug::_Safe_iterator<_IIte, _ISeq, _ICat>&,
 537:/Library/DaisyToolchain/0.2.0/arm/arm-none-eabi/include/c++/10.3.1/bits/stl_algobase.h **** 		  const ::__gnu_debug::_Safe_iterator<_IIte, _ISeq, _ICat>&,
 538:/Library/DaisyToolchain/0.2.0/arm/arm-none-eabi/include/c++/10.3.1/bits/stl_algobase.h **** 		  const ::__gnu_debug::_Safe_iterator<_OIte, _OSeq, _OCat>&);
 539:/Library/DaisyToolchain/0.2.0/arm/arm-none-eabi/include/c++/10.3.1/bits/stl_algobase.h **** 
 540:/Library/DaisyToolchain/0.2.0/arm/arm-none-eabi/include/c++/10.3.1/bits/stl_algobase.h ****   /**
 541:/Library/DaisyToolchain/0.2.0/arm/arm-none-eabi/include/c++/10.3.1/bits/stl_algobase.h ****    *  @brief Copies the range [first,last) into result.
 542:/Library/DaisyToolchain/0.2.0/arm/arm-none-eabi/include/c++/10.3.1/bits/stl_algobase.h ****    *  @ingroup mutating_algorithms
 543:/Library/DaisyToolchain/0.2.0/arm/arm-none-eabi/include/c++/10.3.1/bits/stl_algobase.h ****    *  @param  __first  An input iterator.
 544:/Library/DaisyToolchain/0.2.0/arm/arm-none-eabi/include/c++/10.3.1/bits/stl_algobase.h ****    *  @param  __last   An input iterator.
 545:/Library/DaisyToolchain/0.2.0/arm/arm-none-eabi/include/c++/10.3.1/bits/stl_algobase.h ****    *  @param  __result An output iterator.
 546:/Library/DaisyToolchain/0.2.0/arm/arm-none-eabi/include/c++/10.3.1/bits/stl_algobase.h ****    *  @return   result + (last - first)
 547:/Library/DaisyToolchain/0.2.0/arm/arm-none-eabi/include/c++/10.3.1/bits/stl_algobase.h ****    *
 548:/Library/DaisyToolchain/0.2.0/arm/arm-none-eabi/include/c++/10.3.1/bits/stl_algobase.h ****    *  This inline function will boil down to a call to @c memmove whenever
 549:/Library/DaisyToolchain/0.2.0/arm/arm-none-eabi/include/c++/10.3.1/bits/stl_algobase.h ****    *  possible.  Failing that, if random access iterators are passed, then the
 550:/Library/DaisyToolchain/0.2.0/arm/arm-none-eabi/include/c++/10.3.1/bits/stl_algobase.h ****    *  loop count will be known (and therefore a candidate for compiler
 551:/Library/DaisyToolchain/0.2.0/arm/arm-none-eabi/include/c++/10.3.1/bits/stl_algobase.h ****    *  optimizations such as unrolling).  Result may not be contained within
 552:/Library/DaisyToolchain/0.2.0/arm/arm-none-eabi/include/c++/10.3.1/bits/stl_algobase.h ****    *  [first,last); the copy_backward function should be used instead.
 553:/Library/DaisyToolchain/0.2.0/arm/arm-none-eabi/include/c++/10.3.1/bits/stl_algobase.h ****    *
 554:/Library/DaisyToolchain/0.2.0/arm/arm-none-eabi/include/c++/10.3.1/bits/stl_algobase.h ****    *  Note that the end of the output range is permitted to be contained
 555:/Library/DaisyToolchain/0.2.0/arm/arm-none-eabi/include/c++/10.3.1/bits/stl_algobase.h ****    *  within [first,last).
 556:/Library/DaisyToolchain/0.2.0/arm/arm-none-eabi/include/c++/10.3.1/bits/stl_algobase.h ****   */
 557:/Library/DaisyToolchain/0.2.0/arm/arm-none-eabi/include/c++/10.3.1/bits/stl_algobase.h ****   template<typename _II, typename _OI>
 558:/Library/DaisyToolchain/0.2.0/arm/arm-none-eabi/include/c++/10.3.1/bits/stl_algobase.h ****     _GLIBCXX20_CONSTEXPR
 559:/Library/DaisyToolchain/0.2.0/arm/arm-none-eabi/include/c++/10.3.1/bits/stl_algobase.h ****     inline _OI
 560:/Library/DaisyToolchain/0.2.0/arm/arm-none-eabi/include/c++/10.3.1/bits/stl_algobase.h ****     copy(_II __first, _II __last, _OI __result)
 561:/Library/DaisyToolchain/0.2.0/arm/arm-none-eabi/include/c++/10.3.1/bits/stl_algobase.h ****     {
 562:/Library/DaisyToolchain/0.2.0/arm/arm-none-eabi/include/c++/10.3.1/bits/stl_algobase.h ****       // concept requirements
 563:/Library/DaisyToolchain/0.2.0/arm/arm-none-eabi/include/c++/10.3.1/bits/stl_algobase.h ****       __glibcxx_function_requires(_InputIteratorConcept<_II>)
 564:/Library/DaisyToolchain/0.2.0/arm/arm-none-eabi/include/c++/10.3.1/bits/stl_algobase.h ****       __glibcxx_function_requires(_OutputIteratorConcept<_OI,
 565:/Library/DaisyToolchain/0.2.0/arm/arm-none-eabi/include/c++/10.3.1/bits/stl_algobase.h **** 	    typename iterator_traits<_II>::value_type>)
 566:/Library/DaisyToolchain/0.2.0/arm/arm-none-eabi/include/c++/10.3.1/bits/stl_algobase.h ****       __glibcxx_requires_can_increment_range(__first, __last, __result);
 567:/Library/DaisyToolchain/0.2.0/arm/arm-none-eabi/include/c++/10.3.1/bits/stl_algobase.h **** 
 568:/Library/DaisyToolchain/0.2.0/arm/arm-none-eabi/include/c++/10.3.1/bits/stl_algobase.h ****       return std::__copy_move_a<__is_move_iterator<_II>::__value>
 569:/Library/DaisyToolchain/0.2.0/arm/arm-none-eabi/include/c++/10.3.1/bits/stl_algobase.h **** 	     (std::__miter_base(__first), std::__miter_base(__last), __result);
 570:/Library/DaisyToolchain/0.2.0/arm/arm-none-eabi/include/c++/10.3.1/bits/stl_algobase.h ****     }
 571:/Library/DaisyToolchain/0.2.0/arm/arm-none-eabi/include/c++/10.3.1/bits/stl_algobase.h **** 
 572:/Library/DaisyToolchain/0.2.0/arm/arm-none-eabi/include/c++/10.3.1/bits/stl_algobase.h **** #if __cplusplus >= 201103L
 573:/Library/DaisyToolchain/0.2.0/arm/arm-none-eabi/include/c++/10.3.1/bits/stl_algobase.h ****   /**
 574:/Library/DaisyToolchain/0.2.0/arm/arm-none-eabi/include/c++/10.3.1/bits/stl_algobase.h ****    *  @brief Moves the range [first,last) into result.
 575:/Library/DaisyToolchain/0.2.0/arm/arm-none-eabi/include/c++/10.3.1/bits/stl_algobase.h ****    *  @ingroup mutating_algorithms
 576:/Library/DaisyToolchain/0.2.0/arm/arm-none-eabi/include/c++/10.3.1/bits/stl_algobase.h ****    *  @param  __first  An input iterator.
 577:/Library/DaisyToolchain/0.2.0/arm/arm-none-eabi/include/c++/10.3.1/bits/stl_algobase.h ****    *  @param  __last   An input iterator.
 578:/Library/DaisyToolchain/0.2.0/arm/arm-none-eabi/include/c++/10.3.1/bits/stl_algobase.h ****    *  @param  __result An output iterator.
ARM GAS  /var/folders/9k/zk1mgrrd7wg4__6zvxvr9w8m0000gn/T//ccVlS6UW.s 			page 34


 579:/Library/DaisyToolchain/0.2.0/arm/arm-none-eabi/include/c++/10.3.1/bits/stl_algobase.h ****    *  @return   result + (last - first)
 580:/Library/DaisyToolchain/0.2.0/arm/arm-none-eabi/include/c++/10.3.1/bits/stl_algobase.h ****    *
 581:/Library/DaisyToolchain/0.2.0/arm/arm-none-eabi/include/c++/10.3.1/bits/stl_algobase.h ****    *  This inline function will boil down to a call to @c memmove whenever
 582:/Library/DaisyToolchain/0.2.0/arm/arm-none-eabi/include/c++/10.3.1/bits/stl_algobase.h ****    *  possible.  Failing that, if random access iterators are passed, then the
 583:/Library/DaisyToolchain/0.2.0/arm/arm-none-eabi/include/c++/10.3.1/bits/stl_algobase.h ****    *  loop count will be known (and therefore a candidate for compiler
 584:/Library/DaisyToolchain/0.2.0/arm/arm-none-eabi/include/c++/10.3.1/bits/stl_algobase.h ****    *  optimizations such as unrolling).  Result may not be contained within
 585:/Library/DaisyToolchain/0.2.0/arm/arm-none-eabi/include/c++/10.3.1/bits/stl_algobase.h ****    *  [first,last); the move_backward function should be used instead.
 586:/Library/DaisyToolchain/0.2.0/arm/arm-none-eabi/include/c++/10.3.1/bits/stl_algobase.h ****    *
 587:/Library/DaisyToolchain/0.2.0/arm/arm-none-eabi/include/c++/10.3.1/bits/stl_algobase.h ****    *  Note that the end of the output range is permitted to be contained
 588:/Library/DaisyToolchain/0.2.0/arm/arm-none-eabi/include/c++/10.3.1/bits/stl_algobase.h ****    *  within [first,last).
 589:/Library/DaisyToolchain/0.2.0/arm/arm-none-eabi/include/c++/10.3.1/bits/stl_algobase.h ****   */
 590:/Library/DaisyToolchain/0.2.0/arm/arm-none-eabi/include/c++/10.3.1/bits/stl_algobase.h ****   template<typename _II, typename _OI>
 591:/Library/DaisyToolchain/0.2.0/arm/arm-none-eabi/include/c++/10.3.1/bits/stl_algobase.h ****     _GLIBCXX20_CONSTEXPR
 592:/Library/DaisyToolchain/0.2.0/arm/arm-none-eabi/include/c++/10.3.1/bits/stl_algobase.h ****     inline _OI
 593:/Library/DaisyToolchain/0.2.0/arm/arm-none-eabi/include/c++/10.3.1/bits/stl_algobase.h ****     move(_II __first, _II __last, _OI __result)
 594:/Library/DaisyToolchain/0.2.0/arm/arm-none-eabi/include/c++/10.3.1/bits/stl_algobase.h ****     {
 595:/Library/DaisyToolchain/0.2.0/arm/arm-none-eabi/include/c++/10.3.1/bits/stl_algobase.h ****       // concept requirements
 596:/Library/DaisyToolchain/0.2.0/arm/arm-none-eabi/include/c++/10.3.1/bits/stl_algobase.h ****       __glibcxx_function_requires(_InputIteratorConcept<_II>)
 597:/Library/DaisyToolchain/0.2.0/arm/arm-none-eabi/include/c++/10.3.1/bits/stl_algobase.h ****       __glibcxx_function_requires(_OutputIteratorConcept<_OI,
 598:/Library/DaisyToolchain/0.2.0/arm/arm-none-eabi/include/c++/10.3.1/bits/stl_algobase.h **** 	    typename iterator_traits<_II>::value_type>)
 599:/Library/DaisyToolchain/0.2.0/arm/arm-none-eabi/include/c++/10.3.1/bits/stl_algobase.h ****       __glibcxx_requires_can_increment_range(__first, __last, __result);
 600:/Library/DaisyToolchain/0.2.0/arm/arm-none-eabi/include/c++/10.3.1/bits/stl_algobase.h **** 
 601:/Library/DaisyToolchain/0.2.0/arm/arm-none-eabi/include/c++/10.3.1/bits/stl_algobase.h ****       return std::__copy_move_a<true>(std::__miter_base(__first),
 602:/Library/DaisyToolchain/0.2.0/arm/arm-none-eabi/include/c++/10.3.1/bits/stl_algobase.h **** 				      std::__miter_base(__last), __result);
 603:/Library/DaisyToolchain/0.2.0/arm/arm-none-eabi/include/c++/10.3.1/bits/stl_algobase.h ****     }
 604:/Library/DaisyToolchain/0.2.0/arm/arm-none-eabi/include/c++/10.3.1/bits/stl_algobase.h **** 
 605:/Library/DaisyToolchain/0.2.0/arm/arm-none-eabi/include/c++/10.3.1/bits/stl_algobase.h **** #define _GLIBCXX_MOVE3(_Tp, _Up, _Vp) std::move(_Tp, _Up, _Vp)
 606:/Library/DaisyToolchain/0.2.0/arm/arm-none-eabi/include/c++/10.3.1/bits/stl_algobase.h **** #else
 607:/Library/DaisyToolchain/0.2.0/arm/arm-none-eabi/include/c++/10.3.1/bits/stl_algobase.h **** #define _GLIBCXX_MOVE3(_Tp, _Up, _Vp) std::copy(_Tp, _Up, _Vp)
 608:/Library/DaisyToolchain/0.2.0/arm/arm-none-eabi/include/c++/10.3.1/bits/stl_algobase.h **** #endif
 609:/Library/DaisyToolchain/0.2.0/arm/arm-none-eabi/include/c++/10.3.1/bits/stl_algobase.h **** 
 610:/Library/DaisyToolchain/0.2.0/arm/arm-none-eabi/include/c++/10.3.1/bits/stl_algobase.h ****   template<bool _IsMove, bool _IsSimple, typename _Category>
 611:/Library/DaisyToolchain/0.2.0/arm/arm-none-eabi/include/c++/10.3.1/bits/stl_algobase.h ****     struct __copy_move_backward
 612:/Library/DaisyToolchain/0.2.0/arm/arm-none-eabi/include/c++/10.3.1/bits/stl_algobase.h ****     {
 613:/Library/DaisyToolchain/0.2.0/arm/arm-none-eabi/include/c++/10.3.1/bits/stl_algobase.h ****       template<typename _BI1, typename _BI2>
 614:/Library/DaisyToolchain/0.2.0/arm/arm-none-eabi/include/c++/10.3.1/bits/stl_algobase.h **** 	_GLIBCXX20_CONSTEXPR
 615:/Library/DaisyToolchain/0.2.0/arm/arm-none-eabi/include/c++/10.3.1/bits/stl_algobase.h **** 	static _BI2
 616:/Library/DaisyToolchain/0.2.0/arm/arm-none-eabi/include/c++/10.3.1/bits/stl_algobase.h **** 	__copy_move_b(_BI1 __first, _BI1 __last, _BI2 __result)
 617:/Library/DaisyToolchain/0.2.0/arm/arm-none-eabi/include/c++/10.3.1/bits/stl_algobase.h **** 	{
 618:/Library/DaisyToolchain/0.2.0/arm/arm-none-eabi/include/c++/10.3.1/bits/stl_algobase.h **** 	  while (__first != __last)
 619:/Library/DaisyToolchain/0.2.0/arm/arm-none-eabi/include/c++/10.3.1/bits/stl_algobase.h **** 	    *--__result = *--__last;
 620:/Library/DaisyToolchain/0.2.0/arm/arm-none-eabi/include/c++/10.3.1/bits/stl_algobase.h **** 	  return __result;
 621:/Library/DaisyToolchain/0.2.0/arm/arm-none-eabi/include/c++/10.3.1/bits/stl_algobase.h **** 	}
 622:/Library/DaisyToolchain/0.2.0/arm/arm-none-eabi/include/c++/10.3.1/bits/stl_algobase.h ****     };
 623:/Library/DaisyToolchain/0.2.0/arm/arm-none-eabi/include/c++/10.3.1/bits/stl_algobase.h **** 
 624:/Library/DaisyToolchain/0.2.0/arm/arm-none-eabi/include/c++/10.3.1/bits/stl_algobase.h **** #if __cplusplus >= 201103L
 625:/Library/DaisyToolchain/0.2.0/arm/arm-none-eabi/include/c++/10.3.1/bits/stl_algobase.h ****   template<typename _Category>
 626:/Library/DaisyToolchain/0.2.0/arm/arm-none-eabi/include/c++/10.3.1/bits/stl_algobase.h ****     struct __copy_move_backward<true, false, _Category>
 627:/Library/DaisyToolchain/0.2.0/arm/arm-none-eabi/include/c++/10.3.1/bits/stl_algobase.h ****     {
 628:/Library/DaisyToolchain/0.2.0/arm/arm-none-eabi/include/c++/10.3.1/bits/stl_algobase.h ****       template<typename _BI1, typename _BI2>
 629:/Library/DaisyToolchain/0.2.0/arm/arm-none-eabi/include/c++/10.3.1/bits/stl_algobase.h **** 	_GLIBCXX20_CONSTEXPR
 630:/Library/DaisyToolchain/0.2.0/arm/arm-none-eabi/include/c++/10.3.1/bits/stl_algobase.h **** 	static _BI2
 631:/Library/DaisyToolchain/0.2.0/arm/arm-none-eabi/include/c++/10.3.1/bits/stl_algobase.h **** 	__copy_move_b(_BI1 __first, _BI1 __last, _BI2 __result)
 632:/Library/DaisyToolchain/0.2.0/arm/arm-none-eabi/include/c++/10.3.1/bits/stl_algobase.h **** 	{
 633:/Library/DaisyToolchain/0.2.0/arm/arm-none-eabi/include/c++/10.3.1/bits/stl_algobase.h **** 	  while (__first != __last)
 634:/Library/DaisyToolchain/0.2.0/arm/arm-none-eabi/include/c++/10.3.1/bits/stl_algobase.h **** 	    *--__result = std::move(*--__last);
 635:/Library/DaisyToolchain/0.2.0/arm/arm-none-eabi/include/c++/10.3.1/bits/stl_algobase.h **** 	  return __result;
ARM GAS  /var/folders/9k/zk1mgrrd7wg4__6zvxvr9w8m0000gn/T//ccVlS6UW.s 			page 35


 636:/Library/DaisyToolchain/0.2.0/arm/arm-none-eabi/include/c++/10.3.1/bits/stl_algobase.h **** 	}
 637:/Library/DaisyToolchain/0.2.0/arm/arm-none-eabi/include/c++/10.3.1/bits/stl_algobase.h ****     };
 638:/Library/DaisyToolchain/0.2.0/arm/arm-none-eabi/include/c++/10.3.1/bits/stl_algobase.h **** #endif
 639:/Library/DaisyToolchain/0.2.0/arm/arm-none-eabi/include/c++/10.3.1/bits/stl_algobase.h **** 
 640:/Library/DaisyToolchain/0.2.0/arm/arm-none-eabi/include/c++/10.3.1/bits/stl_algobase.h ****   template<>
 641:/Library/DaisyToolchain/0.2.0/arm/arm-none-eabi/include/c++/10.3.1/bits/stl_algobase.h ****     struct __copy_move_backward<false, false, random_access_iterator_tag>
 642:/Library/DaisyToolchain/0.2.0/arm/arm-none-eabi/include/c++/10.3.1/bits/stl_algobase.h ****     {
 643:/Library/DaisyToolchain/0.2.0/arm/arm-none-eabi/include/c++/10.3.1/bits/stl_algobase.h ****       template<typename _BI1, typename _BI2>
 644:/Library/DaisyToolchain/0.2.0/arm/arm-none-eabi/include/c++/10.3.1/bits/stl_algobase.h **** 	_GLIBCXX20_CONSTEXPR
 645:/Library/DaisyToolchain/0.2.0/arm/arm-none-eabi/include/c++/10.3.1/bits/stl_algobase.h **** 	static _BI2
 646:/Library/DaisyToolchain/0.2.0/arm/arm-none-eabi/include/c++/10.3.1/bits/stl_algobase.h **** 	__copy_move_b(_BI1 __first, _BI1 __last, _BI2 __result)
 647:/Library/DaisyToolchain/0.2.0/arm/arm-none-eabi/include/c++/10.3.1/bits/stl_algobase.h **** 	{
 648:/Library/DaisyToolchain/0.2.0/arm/arm-none-eabi/include/c++/10.3.1/bits/stl_algobase.h **** 	  typename iterator_traits<_BI1>::difference_type
 649:/Library/DaisyToolchain/0.2.0/arm/arm-none-eabi/include/c++/10.3.1/bits/stl_algobase.h **** 	    __n = __last - __first;
 650:/Library/DaisyToolchain/0.2.0/arm/arm-none-eabi/include/c++/10.3.1/bits/stl_algobase.h **** 	  for (; __n > 0; --__n)
 651:/Library/DaisyToolchain/0.2.0/arm/arm-none-eabi/include/c++/10.3.1/bits/stl_algobase.h **** 	    *--__result = *--__last;
 652:/Library/DaisyToolchain/0.2.0/arm/arm-none-eabi/include/c++/10.3.1/bits/stl_algobase.h **** 	  return __result;
 653:/Library/DaisyToolchain/0.2.0/arm/arm-none-eabi/include/c++/10.3.1/bits/stl_algobase.h **** 	}
 654:/Library/DaisyToolchain/0.2.0/arm/arm-none-eabi/include/c++/10.3.1/bits/stl_algobase.h ****     };
 655:/Library/DaisyToolchain/0.2.0/arm/arm-none-eabi/include/c++/10.3.1/bits/stl_algobase.h **** 
 656:/Library/DaisyToolchain/0.2.0/arm/arm-none-eabi/include/c++/10.3.1/bits/stl_algobase.h **** #if __cplusplus >= 201103L
 657:/Library/DaisyToolchain/0.2.0/arm/arm-none-eabi/include/c++/10.3.1/bits/stl_algobase.h ****   template<>
 658:/Library/DaisyToolchain/0.2.0/arm/arm-none-eabi/include/c++/10.3.1/bits/stl_algobase.h ****     struct __copy_move_backward<true, false, random_access_iterator_tag>
 659:/Library/DaisyToolchain/0.2.0/arm/arm-none-eabi/include/c++/10.3.1/bits/stl_algobase.h ****     {
 660:/Library/DaisyToolchain/0.2.0/arm/arm-none-eabi/include/c++/10.3.1/bits/stl_algobase.h ****       template<typename _BI1, typename _BI2>
 661:/Library/DaisyToolchain/0.2.0/arm/arm-none-eabi/include/c++/10.3.1/bits/stl_algobase.h **** 	_GLIBCXX20_CONSTEXPR
 662:/Library/DaisyToolchain/0.2.0/arm/arm-none-eabi/include/c++/10.3.1/bits/stl_algobase.h **** 	static _BI2
 663:/Library/DaisyToolchain/0.2.0/arm/arm-none-eabi/include/c++/10.3.1/bits/stl_algobase.h **** 	__copy_move_b(_BI1 __first, _BI1 __last, _BI2 __result)
 664:/Library/DaisyToolchain/0.2.0/arm/arm-none-eabi/include/c++/10.3.1/bits/stl_algobase.h **** 	{
 665:/Library/DaisyToolchain/0.2.0/arm/arm-none-eabi/include/c++/10.3.1/bits/stl_algobase.h **** 	  typename iterator_traits<_BI1>::difference_type
 666:/Library/DaisyToolchain/0.2.0/arm/arm-none-eabi/include/c++/10.3.1/bits/stl_algobase.h **** 	    __n = __last - __first;
 667:/Library/DaisyToolchain/0.2.0/arm/arm-none-eabi/include/c++/10.3.1/bits/stl_algobase.h **** 	  for (; __n > 0; --__n)
 668:/Library/DaisyToolchain/0.2.0/arm/arm-none-eabi/include/c++/10.3.1/bits/stl_algobase.h **** 	    *--__result = std::move(*--__last);
 669:/Library/DaisyToolchain/0.2.0/arm/arm-none-eabi/include/c++/10.3.1/bits/stl_algobase.h **** 	  return __result;
 670:/Library/DaisyToolchain/0.2.0/arm/arm-none-eabi/include/c++/10.3.1/bits/stl_algobase.h **** 	}
 671:/Library/DaisyToolchain/0.2.0/arm/arm-none-eabi/include/c++/10.3.1/bits/stl_algobase.h ****     };
 672:/Library/DaisyToolchain/0.2.0/arm/arm-none-eabi/include/c++/10.3.1/bits/stl_algobase.h **** #endif
 673:/Library/DaisyToolchain/0.2.0/arm/arm-none-eabi/include/c++/10.3.1/bits/stl_algobase.h **** 
 674:/Library/DaisyToolchain/0.2.0/arm/arm-none-eabi/include/c++/10.3.1/bits/stl_algobase.h ****   template<bool _IsMove>
 675:/Library/DaisyToolchain/0.2.0/arm/arm-none-eabi/include/c++/10.3.1/bits/stl_algobase.h ****     struct __copy_move_backward<_IsMove, true, random_access_iterator_tag>
 676:/Library/DaisyToolchain/0.2.0/arm/arm-none-eabi/include/c++/10.3.1/bits/stl_algobase.h ****     {
 677:/Library/DaisyToolchain/0.2.0/arm/arm-none-eabi/include/c++/10.3.1/bits/stl_algobase.h ****       template<typename _Tp>
 678:/Library/DaisyToolchain/0.2.0/arm/arm-none-eabi/include/c++/10.3.1/bits/stl_algobase.h **** 	_GLIBCXX20_CONSTEXPR
 679:/Library/DaisyToolchain/0.2.0/arm/arm-none-eabi/include/c++/10.3.1/bits/stl_algobase.h **** 	static _Tp*
 680:/Library/DaisyToolchain/0.2.0/arm/arm-none-eabi/include/c++/10.3.1/bits/stl_algobase.h **** 	__copy_move_b(const _Tp* __first, const _Tp* __last, _Tp* __result)
 681:/Library/DaisyToolchain/0.2.0/arm/arm-none-eabi/include/c++/10.3.1/bits/stl_algobase.h **** 	{
 682:/Library/DaisyToolchain/0.2.0/arm/arm-none-eabi/include/c++/10.3.1/bits/stl_algobase.h **** #if __cplusplus >= 201103L
 683:/Library/DaisyToolchain/0.2.0/arm/arm-none-eabi/include/c++/10.3.1/bits/stl_algobase.h **** 	  using __assignable = conditional<_IsMove,
 684:/Library/DaisyToolchain/0.2.0/arm/arm-none-eabi/include/c++/10.3.1/bits/stl_algobase.h **** 					   is_move_assignable<_Tp>,
 685:/Library/DaisyToolchain/0.2.0/arm/arm-none-eabi/include/c++/10.3.1/bits/stl_algobase.h **** 					   is_copy_assignable<_Tp>>;
 686:/Library/DaisyToolchain/0.2.0/arm/arm-none-eabi/include/c++/10.3.1/bits/stl_algobase.h **** 	  // trivial types can have deleted assignment
 687:/Library/DaisyToolchain/0.2.0/arm/arm-none-eabi/include/c++/10.3.1/bits/stl_algobase.h **** 	  static_assert( __assignable::type::value, "type is not assignable" );
 688:/Library/DaisyToolchain/0.2.0/arm/arm-none-eabi/include/c++/10.3.1/bits/stl_algobase.h **** #endif
 689:/Library/DaisyToolchain/0.2.0/arm/arm-none-eabi/include/c++/10.3.1/bits/stl_algobase.h **** 	  const ptrdiff_t _Num = __last - __first;
 690:/Library/DaisyToolchain/0.2.0/arm/arm-none-eabi/include/c++/10.3.1/bits/stl_algobase.h **** 	  if (_Num)
 691:/Library/DaisyToolchain/0.2.0/arm/arm-none-eabi/include/c++/10.3.1/bits/stl_algobase.h **** 	    __builtin_memmove(__result - _Num, __first, sizeof(_Tp) * _Num);
 692:/Library/DaisyToolchain/0.2.0/arm/arm-none-eabi/include/c++/10.3.1/bits/stl_algobase.h **** 	  return __result - _Num;
ARM GAS  /var/folders/9k/zk1mgrrd7wg4__6zvxvr9w8m0000gn/T//ccVlS6UW.s 			page 36


 693:/Library/DaisyToolchain/0.2.0/arm/arm-none-eabi/include/c++/10.3.1/bits/stl_algobase.h **** 	}
 694:/Library/DaisyToolchain/0.2.0/arm/arm-none-eabi/include/c++/10.3.1/bits/stl_algobase.h ****     };
 695:/Library/DaisyToolchain/0.2.0/arm/arm-none-eabi/include/c++/10.3.1/bits/stl_algobase.h **** 
 696:/Library/DaisyToolchain/0.2.0/arm/arm-none-eabi/include/c++/10.3.1/bits/stl_algobase.h ****   template<bool _IsMove, typename _BI1, typename _BI2>
 697:/Library/DaisyToolchain/0.2.0/arm/arm-none-eabi/include/c++/10.3.1/bits/stl_algobase.h ****     _GLIBCXX20_CONSTEXPR
 698:/Library/DaisyToolchain/0.2.0/arm/arm-none-eabi/include/c++/10.3.1/bits/stl_algobase.h ****     inline _BI2
 699:/Library/DaisyToolchain/0.2.0/arm/arm-none-eabi/include/c++/10.3.1/bits/stl_algobase.h ****     __copy_move_backward_a2(_BI1 __first, _BI1 __last, _BI2 __result)
 700:/Library/DaisyToolchain/0.2.0/arm/arm-none-eabi/include/c++/10.3.1/bits/stl_algobase.h ****     {
 701:/Library/DaisyToolchain/0.2.0/arm/arm-none-eabi/include/c++/10.3.1/bits/stl_algobase.h ****       typedef typename iterator_traits<_BI1>::iterator_category _Category;
 702:/Library/DaisyToolchain/0.2.0/arm/arm-none-eabi/include/c++/10.3.1/bits/stl_algobase.h **** #ifdef __cpp_lib_is_constant_evaluated
 703:/Library/DaisyToolchain/0.2.0/arm/arm-none-eabi/include/c++/10.3.1/bits/stl_algobase.h ****       if (std::is_constant_evaluated())
 704:/Library/DaisyToolchain/0.2.0/arm/arm-none-eabi/include/c++/10.3.1/bits/stl_algobase.h **** 	return std::__copy_move_backward<_IsMove, false, _Category>::
 705:/Library/DaisyToolchain/0.2.0/arm/arm-none-eabi/include/c++/10.3.1/bits/stl_algobase.h **** 	  __copy_move_b(__first, __last, __result);
 706:/Library/DaisyToolchain/0.2.0/arm/arm-none-eabi/include/c++/10.3.1/bits/stl_algobase.h **** #endif
 707:/Library/DaisyToolchain/0.2.0/arm/arm-none-eabi/include/c++/10.3.1/bits/stl_algobase.h ****       return std::__copy_move_backward<_IsMove,
 708:/Library/DaisyToolchain/0.2.0/arm/arm-none-eabi/include/c++/10.3.1/bits/stl_algobase.h **** 				       __memcpyable<_BI2, _BI1>::__value,
 709:/Library/DaisyToolchain/0.2.0/arm/arm-none-eabi/include/c++/10.3.1/bits/stl_algobase.h **** 				       _Category>::__copy_move_b(__first,
 710:/Library/DaisyToolchain/0.2.0/arm/arm-none-eabi/include/c++/10.3.1/bits/stl_algobase.h **** 								 __last,
 711:/Library/DaisyToolchain/0.2.0/arm/arm-none-eabi/include/c++/10.3.1/bits/stl_algobase.h **** 								 __result);
 712:/Library/DaisyToolchain/0.2.0/arm/arm-none-eabi/include/c++/10.3.1/bits/stl_algobase.h ****     }
 713:/Library/DaisyToolchain/0.2.0/arm/arm-none-eabi/include/c++/10.3.1/bits/stl_algobase.h **** 
 714:/Library/DaisyToolchain/0.2.0/arm/arm-none-eabi/include/c++/10.3.1/bits/stl_algobase.h ****   template<bool _IsMove, typename _BI1, typename _BI2>
 715:/Library/DaisyToolchain/0.2.0/arm/arm-none-eabi/include/c++/10.3.1/bits/stl_algobase.h ****     _GLIBCXX20_CONSTEXPR
 716:/Library/DaisyToolchain/0.2.0/arm/arm-none-eabi/include/c++/10.3.1/bits/stl_algobase.h ****     inline _BI2
 717:/Library/DaisyToolchain/0.2.0/arm/arm-none-eabi/include/c++/10.3.1/bits/stl_algobase.h ****     __copy_move_backward_a1(_BI1 __first, _BI1 __last, _BI2 __result)
 718:/Library/DaisyToolchain/0.2.0/arm/arm-none-eabi/include/c++/10.3.1/bits/stl_algobase.h ****     { return std::__copy_move_backward_a2<_IsMove>(__first, __last, __result); }
 719:/Library/DaisyToolchain/0.2.0/arm/arm-none-eabi/include/c++/10.3.1/bits/stl_algobase.h **** 
 720:/Library/DaisyToolchain/0.2.0/arm/arm-none-eabi/include/c++/10.3.1/bits/stl_algobase.h ****   template<bool _IsMove,
 721:/Library/DaisyToolchain/0.2.0/arm/arm-none-eabi/include/c++/10.3.1/bits/stl_algobase.h **** 	   typename _Tp, typename _Ref, typename _Ptr, typename _OI>
 722:/Library/DaisyToolchain/0.2.0/arm/arm-none-eabi/include/c++/10.3.1/bits/stl_algobase.h ****     _OI
 723:/Library/DaisyToolchain/0.2.0/arm/arm-none-eabi/include/c++/10.3.1/bits/stl_algobase.h ****     __copy_move_backward_a1(_GLIBCXX_STD_C::_Deque_iterator<_Tp, _Ref, _Ptr>,
 724:/Library/DaisyToolchain/0.2.0/arm/arm-none-eabi/include/c++/10.3.1/bits/stl_algobase.h **** 			    _GLIBCXX_STD_C::_Deque_iterator<_Tp, _Ref, _Ptr>,
 725:/Library/DaisyToolchain/0.2.0/arm/arm-none-eabi/include/c++/10.3.1/bits/stl_algobase.h **** 			    _OI);
 726:/Library/DaisyToolchain/0.2.0/arm/arm-none-eabi/include/c++/10.3.1/bits/stl_algobase.h **** 
 727:/Library/DaisyToolchain/0.2.0/arm/arm-none-eabi/include/c++/10.3.1/bits/stl_algobase.h ****   template<bool _IsMove,
 728:/Library/DaisyToolchain/0.2.0/arm/arm-none-eabi/include/c++/10.3.1/bits/stl_algobase.h **** 	   typename _ITp, typename _IRef, typename _IPtr, typename _OTp>
 729:/Library/DaisyToolchain/0.2.0/arm/arm-none-eabi/include/c++/10.3.1/bits/stl_algobase.h ****     _GLIBCXX_STD_C::_Deque_iterator<_OTp, _OTp&, _OTp*>
 730:/Library/DaisyToolchain/0.2.0/arm/arm-none-eabi/include/c++/10.3.1/bits/stl_algobase.h ****     __copy_move_backward_a1(
 731:/Library/DaisyToolchain/0.2.0/arm/arm-none-eabi/include/c++/10.3.1/bits/stl_algobase.h **** 			_GLIBCXX_STD_C::_Deque_iterator<_ITp, _IRef, _IPtr>,
 732:/Library/DaisyToolchain/0.2.0/arm/arm-none-eabi/include/c++/10.3.1/bits/stl_algobase.h **** 			_GLIBCXX_STD_C::_Deque_iterator<_ITp, _IRef, _IPtr>,
 733:/Library/DaisyToolchain/0.2.0/arm/arm-none-eabi/include/c++/10.3.1/bits/stl_algobase.h **** 			_GLIBCXX_STD_C::_Deque_iterator<_OTp, _OTp&, _OTp*>);
 734:/Library/DaisyToolchain/0.2.0/arm/arm-none-eabi/include/c++/10.3.1/bits/stl_algobase.h **** 
 735:/Library/DaisyToolchain/0.2.0/arm/arm-none-eabi/include/c++/10.3.1/bits/stl_algobase.h ****   template<bool _IsMove, typename _II, typename _Tp>
 736:/Library/DaisyToolchain/0.2.0/arm/arm-none-eabi/include/c++/10.3.1/bits/stl_algobase.h ****     typename __gnu_cxx::__enable_if<
 737:/Library/DaisyToolchain/0.2.0/arm/arm-none-eabi/include/c++/10.3.1/bits/stl_algobase.h ****       __is_random_access_iter<_II>::__value,
 738:/Library/DaisyToolchain/0.2.0/arm/arm-none-eabi/include/c++/10.3.1/bits/stl_algobase.h ****       _GLIBCXX_STD_C::_Deque_iterator<_Tp, _Tp&, _Tp*> >::__type
 739:/Library/DaisyToolchain/0.2.0/arm/arm-none-eabi/include/c++/10.3.1/bits/stl_algobase.h ****     __copy_move_backward_a1(_II, _II,
 740:/Library/DaisyToolchain/0.2.0/arm/arm-none-eabi/include/c++/10.3.1/bits/stl_algobase.h **** 			    _GLIBCXX_STD_C::_Deque_iterator<_Tp, _Tp&, _Tp*>);
 741:/Library/DaisyToolchain/0.2.0/arm/arm-none-eabi/include/c++/10.3.1/bits/stl_algobase.h **** 
 742:/Library/DaisyToolchain/0.2.0/arm/arm-none-eabi/include/c++/10.3.1/bits/stl_algobase.h ****   template<bool _IsMove, typename _II, typename _OI>
 743:/Library/DaisyToolchain/0.2.0/arm/arm-none-eabi/include/c++/10.3.1/bits/stl_algobase.h ****     _GLIBCXX20_CONSTEXPR
 744:/Library/DaisyToolchain/0.2.0/arm/arm-none-eabi/include/c++/10.3.1/bits/stl_algobase.h ****     inline _OI
 745:/Library/DaisyToolchain/0.2.0/arm/arm-none-eabi/include/c++/10.3.1/bits/stl_algobase.h ****     __copy_move_backward_a(_II __first, _II __last, _OI __result)
 746:/Library/DaisyToolchain/0.2.0/arm/arm-none-eabi/include/c++/10.3.1/bits/stl_algobase.h ****     {
 747:/Library/DaisyToolchain/0.2.0/arm/arm-none-eabi/include/c++/10.3.1/bits/stl_algobase.h ****       return std::__niter_wrap(__result,
 748:/Library/DaisyToolchain/0.2.0/arm/arm-none-eabi/include/c++/10.3.1/bits/stl_algobase.h **** 		std::__copy_move_backward_a1<_IsMove>
 749:/Library/DaisyToolchain/0.2.0/arm/arm-none-eabi/include/c++/10.3.1/bits/stl_algobase.h **** 		  (std::__niter_base(__first), std::__niter_base(__last),
ARM GAS  /var/folders/9k/zk1mgrrd7wg4__6zvxvr9w8m0000gn/T//ccVlS6UW.s 			page 37


 750:/Library/DaisyToolchain/0.2.0/arm/arm-none-eabi/include/c++/10.3.1/bits/stl_algobase.h **** 		   std::__niter_base(__result)));
 751:/Library/DaisyToolchain/0.2.0/arm/arm-none-eabi/include/c++/10.3.1/bits/stl_algobase.h ****     }
 752:/Library/DaisyToolchain/0.2.0/arm/arm-none-eabi/include/c++/10.3.1/bits/stl_algobase.h **** 
 753:/Library/DaisyToolchain/0.2.0/arm/arm-none-eabi/include/c++/10.3.1/bits/stl_algobase.h ****   template<bool _IsMove,
 754:/Library/DaisyToolchain/0.2.0/arm/arm-none-eabi/include/c++/10.3.1/bits/stl_algobase.h **** 	   typename _Ite, typename _Seq, typename _Cat, typename _OI>
 755:/Library/DaisyToolchain/0.2.0/arm/arm-none-eabi/include/c++/10.3.1/bits/stl_algobase.h ****     _OI
 756:/Library/DaisyToolchain/0.2.0/arm/arm-none-eabi/include/c++/10.3.1/bits/stl_algobase.h ****     __copy_move_backward_a(
 757:/Library/DaisyToolchain/0.2.0/arm/arm-none-eabi/include/c++/10.3.1/bits/stl_algobase.h **** 		const ::__gnu_debug::_Safe_iterator<_Ite, _Seq, _Cat>&,
 758:/Library/DaisyToolchain/0.2.0/arm/arm-none-eabi/include/c++/10.3.1/bits/stl_algobase.h **** 		const ::__gnu_debug::_Safe_iterator<_Ite, _Seq, _Cat>&,
 759:/Library/DaisyToolchain/0.2.0/arm/arm-none-eabi/include/c++/10.3.1/bits/stl_algobase.h **** 		_OI);
 760:/Library/DaisyToolchain/0.2.0/arm/arm-none-eabi/include/c++/10.3.1/bits/stl_algobase.h **** 
 761:/Library/DaisyToolchain/0.2.0/arm/arm-none-eabi/include/c++/10.3.1/bits/stl_algobase.h ****   template<bool _IsMove,
 762:/Library/DaisyToolchain/0.2.0/arm/arm-none-eabi/include/c++/10.3.1/bits/stl_algobase.h **** 	   typename _II, typename _Ite, typename _Seq, typename _Cat>
 763:/Library/DaisyToolchain/0.2.0/arm/arm-none-eabi/include/c++/10.3.1/bits/stl_algobase.h ****     __gnu_debug::_Safe_iterator<_Ite, _Seq, _Cat>
 764:/Library/DaisyToolchain/0.2.0/arm/arm-none-eabi/include/c++/10.3.1/bits/stl_algobase.h ****     __copy_move_backward_a(_II, _II,
 765:/Library/DaisyToolchain/0.2.0/arm/arm-none-eabi/include/c++/10.3.1/bits/stl_algobase.h **** 		const ::__gnu_debug::_Safe_iterator<_Ite, _Seq, _Cat>&);
 766:/Library/DaisyToolchain/0.2.0/arm/arm-none-eabi/include/c++/10.3.1/bits/stl_algobase.h **** 
 767:/Library/DaisyToolchain/0.2.0/arm/arm-none-eabi/include/c++/10.3.1/bits/stl_algobase.h ****   template<bool _IsMove,
 768:/Library/DaisyToolchain/0.2.0/arm/arm-none-eabi/include/c++/10.3.1/bits/stl_algobase.h **** 	   typename _IIte, typename _ISeq, typename _ICat,
 769:/Library/DaisyToolchain/0.2.0/arm/arm-none-eabi/include/c++/10.3.1/bits/stl_algobase.h **** 	   typename _OIte, typename _OSeq, typename _OCat>
 770:/Library/DaisyToolchain/0.2.0/arm/arm-none-eabi/include/c++/10.3.1/bits/stl_algobase.h ****     ::__gnu_debug::_Safe_iterator<_OIte, _OSeq, _OCat>
 771:/Library/DaisyToolchain/0.2.0/arm/arm-none-eabi/include/c++/10.3.1/bits/stl_algobase.h ****     __copy_move_backward_a(
 772:/Library/DaisyToolchain/0.2.0/arm/arm-none-eabi/include/c++/10.3.1/bits/stl_algobase.h **** 		const ::__gnu_debug::_Safe_iterator<_IIte, _ISeq, _ICat>&,
 773:/Library/DaisyToolchain/0.2.0/arm/arm-none-eabi/include/c++/10.3.1/bits/stl_algobase.h **** 		const ::__gnu_debug::_Safe_iterator<_IIte, _ISeq, _ICat>&,
 774:/Library/DaisyToolchain/0.2.0/arm/arm-none-eabi/include/c++/10.3.1/bits/stl_algobase.h **** 		const ::__gnu_debug::_Safe_iterator<_OIte, _OSeq, _OCat>&);
 775:/Library/DaisyToolchain/0.2.0/arm/arm-none-eabi/include/c++/10.3.1/bits/stl_algobase.h **** 
 776:/Library/DaisyToolchain/0.2.0/arm/arm-none-eabi/include/c++/10.3.1/bits/stl_algobase.h ****   /**
 777:/Library/DaisyToolchain/0.2.0/arm/arm-none-eabi/include/c++/10.3.1/bits/stl_algobase.h ****    *  @brief Copies the range [first,last) into result.
 778:/Library/DaisyToolchain/0.2.0/arm/arm-none-eabi/include/c++/10.3.1/bits/stl_algobase.h ****    *  @ingroup mutating_algorithms
 779:/Library/DaisyToolchain/0.2.0/arm/arm-none-eabi/include/c++/10.3.1/bits/stl_algobase.h ****    *  @param  __first  A bidirectional iterator.
 780:/Library/DaisyToolchain/0.2.0/arm/arm-none-eabi/include/c++/10.3.1/bits/stl_algobase.h ****    *  @param  __last   A bidirectional iterator.
 781:/Library/DaisyToolchain/0.2.0/arm/arm-none-eabi/include/c++/10.3.1/bits/stl_algobase.h ****    *  @param  __result A bidirectional iterator.
 782:/Library/DaisyToolchain/0.2.0/arm/arm-none-eabi/include/c++/10.3.1/bits/stl_algobase.h ****    *  @return   result - (last - first)
 783:/Library/DaisyToolchain/0.2.0/arm/arm-none-eabi/include/c++/10.3.1/bits/stl_algobase.h ****    *
 784:/Library/DaisyToolchain/0.2.0/arm/arm-none-eabi/include/c++/10.3.1/bits/stl_algobase.h ****    *  The function has the same effect as copy, but starts at the end of the
 785:/Library/DaisyToolchain/0.2.0/arm/arm-none-eabi/include/c++/10.3.1/bits/stl_algobase.h ****    *  range and works its way to the start, returning the start of the result.
 786:/Library/DaisyToolchain/0.2.0/arm/arm-none-eabi/include/c++/10.3.1/bits/stl_algobase.h ****    *  This inline function will boil down to a call to @c memmove whenever
 787:/Library/DaisyToolchain/0.2.0/arm/arm-none-eabi/include/c++/10.3.1/bits/stl_algobase.h ****    *  possible.  Failing that, if random access iterators are passed, then the
 788:/Library/DaisyToolchain/0.2.0/arm/arm-none-eabi/include/c++/10.3.1/bits/stl_algobase.h ****    *  loop count will be known (and therefore a candidate for compiler
 789:/Library/DaisyToolchain/0.2.0/arm/arm-none-eabi/include/c++/10.3.1/bits/stl_algobase.h ****    *  optimizations such as unrolling).
 790:/Library/DaisyToolchain/0.2.0/arm/arm-none-eabi/include/c++/10.3.1/bits/stl_algobase.h ****    *
 791:/Library/DaisyToolchain/0.2.0/arm/arm-none-eabi/include/c++/10.3.1/bits/stl_algobase.h ****    *  Result may not be in the range (first,last].  Use copy instead.  Note
 792:/Library/DaisyToolchain/0.2.0/arm/arm-none-eabi/include/c++/10.3.1/bits/stl_algobase.h ****    *  that the start of the output range may overlap [first,last).
 793:/Library/DaisyToolchain/0.2.0/arm/arm-none-eabi/include/c++/10.3.1/bits/stl_algobase.h ****   */
 794:/Library/DaisyToolchain/0.2.0/arm/arm-none-eabi/include/c++/10.3.1/bits/stl_algobase.h ****   template<typename _BI1, typename _BI2>
 795:/Library/DaisyToolchain/0.2.0/arm/arm-none-eabi/include/c++/10.3.1/bits/stl_algobase.h ****     _GLIBCXX20_CONSTEXPR
 796:/Library/DaisyToolchain/0.2.0/arm/arm-none-eabi/include/c++/10.3.1/bits/stl_algobase.h ****     inline _BI2
 797:/Library/DaisyToolchain/0.2.0/arm/arm-none-eabi/include/c++/10.3.1/bits/stl_algobase.h ****     copy_backward(_BI1 __first, _BI1 __last, _BI2 __result)
 798:/Library/DaisyToolchain/0.2.0/arm/arm-none-eabi/include/c++/10.3.1/bits/stl_algobase.h ****     {
 799:/Library/DaisyToolchain/0.2.0/arm/arm-none-eabi/include/c++/10.3.1/bits/stl_algobase.h ****       // concept requirements
 800:/Library/DaisyToolchain/0.2.0/arm/arm-none-eabi/include/c++/10.3.1/bits/stl_algobase.h ****       __glibcxx_function_requires(_BidirectionalIteratorConcept<_BI1>)
 801:/Library/DaisyToolchain/0.2.0/arm/arm-none-eabi/include/c++/10.3.1/bits/stl_algobase.h ****       __glibcxx_function_requires(_Mutable_BidirectionalIteratorConcept<_BI2>)
 802:/Library/DaisyToolchain/0.2.0/arm/arm-none-eabi/include/c++/10.3.1/bits/stl_algobase.h ****       __glibcxx_function_requires(_ConvertibleConcept<
 803:/Library/DaisyToolchain/0.2.0/arm/arm-none-eabi/include/c++/10.3.1/bits/stl_algobase.h **** 	    typename iterator_traits<_BI1>::value_type,
 804:/Library/DaisyToolchain/0.2.0/arm/arm-none-eabi/include/c++/10.3.1/bits/stl_algobase.h **** 	    typename iterator_traits<_BI2>::value_type>)
 805:/Library/DaisyToolchain/0.2.0/arm/arm-none-eabi/include/c++/10.3.1/bits/stl_algobase.h ****       __glibcxx_requires_can_decrement_range(__first, __last, __result);
 806:/Library/DaisyToolchain/0.2.0/arm/arm-none-eabi/include/c++/10.3.1/bits/stl_algobase.h **** 
ARM GAS  /var/folders/9k/zk1mgrrd7wg4__6zvxvr9w8m0000gn/T//ccVlS6UW.s 			page 38


 807:/Library/DaisyToolchain/0.2.0/arm/arm-none-eabi/include/c++/10.3.1/bits/stl_algobase.h ****       return std::__copy_move_backward_a<__is_move_iterator<_BI1>::__value>
 808:/Library/DaisyToolchain/0.2.0/arm/arm-none-eabi/include/c++/10.3.1/bits/stl_algobase.h **** 	     (std::__miter_base(__first), std::__miter_base(__last), __result);
 809:/Library/DaisyToolchain/0.2.0/arm/arm-none-eabi/include/c++/10.3.1/bits/stl_algobase.h ****     }
 810:/Library/DaisyToolchain/0.2.0/arm/arm-none-eabi/include/c++/10.3.1/bits/stl_algobase.h **** 
 811:/Library/DaisyToolchain/0.2.0/arm/arm-none-eabi/include/c++/10.3.1/bits/stl_algobase.h **** #if __cplusplus >= 201103L
 812:/Library/DaisyToolchain/0.2.0/arm/arm-none-eabi/include/c++/10.3.1/bits/stl_algobase.h ****   /**
 813:/Library/DaisyToolchain/0.2.0/arm/arm-none-eabi/include/c++/10.3.1/bits/stl_algobase.h ****    *  @brief Moves the range [first,last) into result.
 814:/Library/DaisyToolchain/0.2.0/arm/arm-none-eabi/include/c++/10.3.1/bits/stl_algobase.h ****    *  @ingroup mutating_algorithms
 815:/Library/DaisyToolchain/0.2.0/arm/arm-none-eabi/include/c++/10.3.1/bits/stl_algobase.h ****    *  @param  __first  A bidirectional iterator.
 816:/Library/DaisyToolchain/0.2.0/arm/arm-none-eabi/include/c++/10.3.1/bits/stl_algobase.h ****    *  @param  __last   A bidirectional iterator.
 817:/Library/DaisyToolchain/0.2.0/arm/arm-none-eabi/include/c++/10.3.1/bits/stl_algobase.h ****    *  @param  __result A bidirectional iterator.
 818:/Library/DaisyToolchain/0.2.0/arm/arm-none-eabi/include/c++/10.3.1/bits/stl_algobase.h ****    *  @return   result - (last - first)
 819:/Library/DaisyToolchain/0.2.0/arm/arm-none-eabi/include/c++/10.3.1/bits/stl_algobase.h ****    *
 820:/Library/DaisyToolchain/0.2.0/arm/arm-none-eabi/include/c++/10.3.1/bits/stl_algobase.h ****    *  The function has the same effect as move, but starts at the end of the
 821:/Library/DaisyToolchain/0.2.0/arm/arm-none-eabi/include/c++/10.3.1/bits/stl_algobase.h ****    *  range and works its way to the start, returning the start of the result.
 822:/Library/DaisyToolchain/0.2.0/arm/arm-none-eabi/include/c++/10.3.1/bits/stl_algobase.h ****    *  This inline function will boil down to a call to @c memmove whenever
 823:/Library/DaisyToolchain/0.2.0/arm/arm-none-eabi/include/c++/10.3.1/bits/stl_algobase.h ****    *  possible.  Failing that, if random access iterators are passed, then the
 824:/Library/DaisyToolchain/0.2.0/arm/arm-none-eabi/include/c++/10.3.1/bits/stl_algobase.h ****    *  loop count will be known (and therefore a candidate for compiler
 825:/Library/DaisyToolchain/0.2.0/arm/arm-none-eabi/include/c++/10.3.1/bits/stl_algobase.h ****    *  optimizations such as unrolling).
 826:/Library/DaisyToolchain/0.2.0/arm/arm-none-eabi/include/c++/10.3.1/bits/stl_algobase.h ****    *
 827:/Library/DaisyToolchain/0.2.0/arm/arm-none-eabi/include/c++/10.3.1/bits/stl_algobase.h ****    *  Result may not be in the range (first,last].  Use move instead.  Note
 828:/Library/DaisyToolchain/0.2.0/arm/arm-none-eabi/include/c++/10.3.1/bits/stl_algobase.h ****    *  that the start of the output range may overlap [first,last).
 829:/Library/DaisyToolchain/0.2.0/arm/arm-none-eabi/include/c++/10.3.1/bits/stl_algobase.h ****   */
 830:/Library/DaisyToolchain/0.2.0/arm/arm-none-eabi/include/c++/10.3.1/bits/stl_algobase.h ****   template<typename _BI1, typename _BI2>
 831:/Library/DaisyToolchain/0.2.0/arm/arm-none-eabi/include/c++/10.3.1/bits/stl_algobase.h ****     _GLIBCXX20_CONSTEXPR
 832:/Library/DaisyToolchain/0.2.0/arm/arm-none-eabi/include/c++/10.3.1/bits/stl_algobase.h ****     inline _BI2
 833:/Library/DaisyToolchain/0.2.0/arm/arm-none-eabi/include/c++/10.3.1/bits/stl_algobase.h ****     move_backward(_BI1 __first, _BI1 __last, _BI2 __result)
 834:/Library/DaisyToolchain/0.2.0/arm/arm-none-eabi/include/c++/10.3.1/bits/stl_algobase.h ****     {
 835:/Library/DaisyToolchain/0.2.0/arm/arm-none-eabi/include/c++/10.3.1/bits/stl_algobase.h ****       // concept requirements
 836:/Library/DaisyToolchain/0.2.0/arm/arm-none-eabi/include/c++/10.3.1/bits/stl_algobase.h ****       __glibcxx_function_requires(_BidirectionalIteratorConcept<_BI1>)
 837:/Library/DaisyToolchain/0.2.0/arm/arm-none-eabi/include/c++/10.3.1/bits/stl_algobase.h ****       __glibcxx_function_requires(_Mutable_BidirectionalIteratorConcept<_BI2>)
 838:/Library/DaisyToolchain/0.2.0/arm/arm-none-eabi/include/c++/10.3.1/bits/stl_algobase.h ****       __glibcxx_function_requires(_ConvertibleConcept<
 839:/Library/DaisyToolchain/0.2.0/arm/arm-none-eabi/include/c++/10.3.1/bits/stl_algobase.h **** 	    typename iterator_traits<_BI1>::value_type,
 840:/Library/DaisyToolchain/0.2.0/arm/arm-none-eabi/include/c++/10.3.1/bits/stl_algobase.h **** 	    typename iterator_traits<_BI2>::value_type>)
 841:/Library/DaisyToolchain/0.2.0/arm/arm-none-eabi/include/c++/10.3.1/bits/stl_algobase.h ****       __glibcxx_requires_can_decrement_range(__first, __last, __result);
 842:/Library/DaisyToolchain/0.2.0/arm/arm-none-eabi/include/c++/10.3.1/bits/stl_algobase.h **** 
 843:/Library/DaisyToolchain/0.2.0/arm/arm-none-eabi/include/c++/10.3.1/bits/stl_algobase.h ****       return std::__copy_move_backward_a<true>(std::__miter_base(__first),
 844:/Library/DaisyToolchain/0.2.0/arm/arm-none-eabi/include/c++/10.3.1/bits/stl_algobase.h **** 					       std::__miter_base(__last),
 845:/Library/DaisyToolchain/0.2.0/arm/arm-none-eabi/include/c++/10.3.1/bits/stl_algobase.h **** 					       __result);
 846:/Library/DaisyToolchain/0.2.0/arm/arm-none-eabi/include/c++/10.3.1/bits/stl_algobase.h ****     }
 847:/Library/DaisyToolchain/0.2.0/arm/arm-none-eabi/include/c++/10.3.1/bits/stl_algobase.h **** 
 848:/Library/DaisyToolchain/0.2.0/arm/arm-none-eabi/include/c++/10.3.1/bits/stl_algobase.h **** #define _GLIBCXX_MOVE_BACKWARD3(_Tp, _Up, _Vp) std::move_backward(_Tp, _Up, _Vp)
 849:/Library/DaisyToolchain/0.2.0/arm/arm-none-eabi/include/c++/10.3.1/bits/stl_algobase.h **** #else
 850:/Library/DaisyToolchain/0.2.0/arm/arm-none-eabi/include/c++/10.3.1/bits/stl_algobase.h **** #define _GLIBCXX_MOVE_BACKWARD3(_Tp, _Up, _Vp) std::copy_backward(_Tp, _Up, _Vp)
 851:/Library/DaisyToolchain/0.2.0/arm/arm-none-eabi/include/c++/10.3.1/bits/stl_algobase.h **** #endif
 852:/Library/DaisyToolchain/0.2.0/arm/arm-none-eabi/include/c++/10.3.1/bits/stl_algobase.h **** 
 853:/Library/DaisyToolchain/0.2.0/arm/arm-none-eabi/include/c++/10.3.1/bits/stl_algobase.h ****   template<typename _ForwardIterator, typename _Tp>
 854:/Library/DaisyToolchain/0.2.0/arm/arm-none-eabi/include/c++/10.3.1/bits/stl_algobase.h ****     _GLIBCXX20_CONSTEXPR
 855:/Library/DaisyToolchain/0.2.0/arm/arm-none-eabi/include/c++/10.3.1/bits/stl_algobase.h ****     inline typename
 856:/Library/DaisyToolchain/0.2.0/arm/arm-none-eabi/include/c++/10.3.1/bits/stl_algobase.h ****     __gnu_cxx::__enable_if<!__is_scalar<_Tp>::__value, void>::__type
 857:/Library/DaisyToolchain/0.2.0/arm/arm-none-eabi/include/c++/10.3.1/bits/stl_algobase.h ****     __fill_a1(_ForwardIterator __first, _ForwardIterator __last,
 858:/Library/DaisyToolchain/0.2.0/arm/arm-none-eabi/include/c++/10.3.1/bits/stl_algobase.h **** 	      const _Tp& __value)
 859:/Library/DaisyToolchain/0.2.0/arm/arm-none-eabi/include/c++/10.3.1/bits/stl_algobase.h ****     {
 860:/Library/DaisyToolchain/0.2.0/arm/arm-none-eabi/include/c++/10.3.1/bits/stl_algobase.h ****       for (; __first != __last; ++__first)
 861:/Library/DaisyToolchain/0.2.0/arm/arm-none-eabi/include/c++/10.3.1/bits/stl_algobase.h **** 	*__first = __value;
 862:/Library/DaisyToolchain/0.2.0/arm/arm-none-eabi/include/c++/10.3.1/bits/stl_algobase.h ****     }
 863:/Library/DaisyToolchain/0.2.0/arm/arm-none-eabi/include/c++/10.3.1/bits/stl_algobase.h **** 
ARM GAS  /var/folders/9k/zk1mgrrd7wg4__6zvxvr9w8m0000gn/T//ccVlS6UW.s 			page 39


 864:/Library/DaisyToolchain/0.2.0/arm/arm-none-eabi/include/c++/10.3.1/bits/stl_algobase.h ****   template<typename _ForwardIterator, typename _Tp>
 865:/Library/DaisyToolchain/0.2.0/arm/arm-none-eabi/include/c++/10.3.1/bits/stl_algobase.h ****     _GLIBCXX20_CONSTEXPR
 866:/Library/DaisyToolchain/0.2.0/arm/arm-none-eabi/include/c++/10.3.1/bits/stl_algobase.h ****     inline typename
 867:/Library/DaisyToolchain/0.2.0/arm/arm-none-eabi/include/c++/10.3.1/bits/stl_algobase.h ****     __gnu_cxx::__enable_if<__is_scalar<_Tp>::__value, void>::__type
 868:/Library/DaisyToolchain/0.2.0/arm/arm-none-eabi/include/c++/10.3.1/bits/stl_algobase.h ****     __fill_a1(_ForwardIterator __first, _ForwardIterator __last,
 869:/Library/DaisyToolchain/0.2.0/arm/arm-none-eabi/include/c++/10.3.1/bits/stl_algobase.h **** 	      const _Tp& __value)
 870:/Library/DaisyToolchain/0.2.0/arm/arm-none-eabi/include/c++/10.3.1/bits/stl_algobase.h ****     {
 871:/Library/DaisyToolchain/0.2.0/arm/arm-none-eabi/include/c++/10.3.1/bits/stl_algobase.h ****       const _Tp __tmp = __value;
 872:/Library/DaisyToolchain/0.2.0/arm/arm-none-eabi/include/c++/10.3.1/bits/stl_algobase.h ****       for (; __first != __last; ++__first)
 873:/Library/DaisyToolchain/0.2.0/arm/arm-none-eabi/include/c++/10.3.1/bits/stl_algobase.h **** 	*__first = __tmp;
 874:/Library/DaisyToolchain/0.2.0/arm/arm-none-eabi/include/c++/10.3.1/bits/stl_algobase.h ****     }
 875:/Library/DaisyToolchain/0.2.0/arm/arm-none-eabi/include/c++/10.3.1/bits/stl_algobase.h **** 
 876:/Library/DaisyToolchain/0.2.0/arm/arm-none-eabi/include/c++/10.3.1/bits/stl_algobase.h ****   // Specialization: for char types we can use memset.
 877:/Library/DaisyToolchain/0.2.0/arm/arm-none-eabi/include/c++/10.3.1/bits/stl_algobase.h ****   template<typename _Tp>
 878:/Library/DaisyToolchain/0.2.0/arm/arm-none-eabi/include/c++/10.3.1/bits/stl_algobase.h ****     _GLIBCXX20_CONSTEXPR
 879:/Library/DaisyToolchain/0.2.0/arm/arm-none-eabi/include/c++/10.3.1/bits/stl_algobase.h ****     inline typename
 880:/Library/DaisyToolchain/0.2.0/arm/arm-none-eabi/include/c++/10.3.1/bits/stl_algobase.h ****     __gnu_cxx::__enable_if<__is_byte<_Tp>::__value, void>::__type
 881:/Library/DaisyToolchain/0.2.0/arm/arm-none-eabi/include/c++/10.3.1/bits/stl_algobase.h ****     __fill_a1(_Tp* __first, _Tp* __last, const _Tp& __c)
 882:/Library/DaisyToolchain/0.2.0/arm/arm-none-eabi/include/c++/10.3.1/bits/stl_algobase.h ****     {
 883:/Library/DaisyToolchain/0.2.0/arm/arm-none-eabi/include/c++/10.3.1/bits/stl_algobase.h ****       const _Tp __tmp = __c;
 884:/Library/DaisyToolchain/0.2.0/arm/arm-none-eabi/include/c++/10.3.1/bits/stl_algobase.h **** #if __cpp_lib_is_constant_evaluated
 885:/Library/DaisyToolchain/0.2.0/arm/arm-none-eabi/include/c++/10.3.1/bits/stl_algobase.h ****       if (std::is_constant_evaluated())
 886:/Library/DaisyToolchain/0.2.0/arm/arm-none-eabi/include/c++/10.3.1/bits/stl_algobase.h **** 	{
 887:/Library/DaisyToolchain/0.2.0/arm/arm-none-eabi/include/c++/10.3.1/bits/stl_algobase.h **** 	  for (; __first != __last; ++__first)
 888:/Library/DaisyToolchain/0.2.0/arm/arm-none-eabi/include/c++/10.3.1/bits/stl_algobase.h **** 	    *__first = __tmp;
 889:/Library/DaisyToolchain/0.2.0/arm/arm-none-eabi/include/c++/10.3.1/bits/stl_algobase.h **** 	  return;
 890:/Library/DaisyToolchain/0.2.0/arm/arm-none-eabi/include/c++/10.3.1/bits/stl_algobase.h **** 	}
 891:/Library/DaisyToolchain/0.2.0/arm/arm-none-eabi/include/c++/10.3.1/bits/stl_algobase.h **** #endif
 892:/Library/DaisyToolchain/0.2.0/arm/arm-none-eabi/include/c++/10.3.1/bits/stl_algobase.h ****       if (const size_t __len = __last - __first)
 893:/Library/DaisyToolchain/0.2.0/arm/arm-none-eabi/include/c++/10.3.1/bits/stl_algobase.h **** 	__builtin_memset(__first, static_cast<unsigned char>(__tmp), __len);
 894:/Library/DaisyToolchain/0.2.0/arm/arm-none-eabi/include/c++/10.3.1/bits/stl_algobase.h ****     }
 895:/Library/DaisyToolchain/0.2.0/arm/arm-none-eabi/include/c++/10.3.1/bits/stl_algobase.h **** 
 896:/Library/DaisyToolchain/0.2.0/arm/arm-none-eabi/include/c++/10.3.1/bits/stl_algobase.h ****   template<typename _Ite, typename _Cont, typename _Tp>
 897:/Library/DaisyToolchain/0.2.0/arm/arm-none-eabi/include/c++/10.3.1/bits/stl_algobase.h ****     _GLIBCXX20_CONSTEXPR
 898:/Library/DaisyToolchain/0.2.0/arm/arm-none-eabi/include/c++/10.3.1/bits/stl_algobase.h ****     inline void
 899:/Library/DaisyToolchain/0.2.0/arm/arm-none-eabi/include/c++/10.3.1/bits/stl_algobase.h ****     __fill_a1(::__gnu_cxx::__normal_iterator<_Ite, _Cont> __first,
 900:/Library/DaisyToolchain/0.2.0/arm/arm-none-eabi/include/c++/10.3.1/bits/stl_algobase.h **** 	      ::__gnu_cxx::__normal_iterator<_Ite, _Cont> __last,
 901:/Library/DaisyToolchain/0.2.0/arm/arm-none-eabi/include/c++/10.3.1/bits/stl_algobase.h **** 	      const _Tp& __value)
 902:/Library/DaisyToolchain/0.2.0/arm/arm-none-eabi/include/c++/10.3.1/bits/stl_algobase.h ****     { std::__fill_a1(__first.base(), __last.base(), __value); }
 903:/Library/DaisyToolchain/0.2.0/arm/arm-none-eabi/include/c++/10.3.1/bits/stl_algobase.h **** 
 904:/Library/DaisyToolchain/0.2.0/arm/arm-none-eabi/include/c++/10.3.1/bits/stl_algobase.h ****   template<typename _Tp, typename _VTp>
 905:/Library/DaisyToolchain/0.2.0/arm/arm-none-eabi/include/c++/10.3.1/bits/stl_algobase.h ****     void
 906:/Library/DaisyToolchain/0.2.0/arm/arm-none-eabi/include/c++/10.3.1/bits/stl_algobase.h ****     __fill_a1(const _GLIBCXX_STD_C::_Deque_iterator<_Tp, _Tp&, _Tp*>&,
 907:/Library/DaisyToolchain/0.2.0/arm/arm-none-eabi/include/c++/10.3.1/bits/stl_algobase.h **** 	      const _GLIBCXX_STD_C::_Deque_iterator<_Tp, _Tp&, _Tp*>&,
 908:/Library/DaisyToolchain/0.2.0/arm/arm-none-eabi/include/c++/10.3.1/bits/stl_algobase.h **** 	      const _VTp&);
 909:/Library/DaisyToolchain/0.2.0/arm/arm-none-eabi/include/c++/10.3.1/bits/stl_algobase.h **** 
 910:/Library/DaisyToolchain/0.2.0/arm/arm-none-eabi/include/c++/10.3.1/bits/stl_algobase.h ****   template<typename _FIte, typename _Tp>
 911:/Library/DaisyToolchain/0.2.0/arm/arm-none-eabi/include/c++/10.3.1/bits/stl_algobase.h ****     _GLIBCXX20_CONSTEXPR
 912:/Library/DaisyToolchain/0.2.0/arm/arm-none-eabi/include/c++/10.3.1/bits/stl_algobase.h ****     inline void
 913:/Library/DaisyToolchain/0.2.0/arm/arm-none-eabi/include/c++/10.3.1/bits/stl_algobase.h ****     __fill_a(_FIte __first, _FIte __last, const _Tp& __value)
 914:/Library/DaisyToolchain/0.2.0/arm/arm-none-eabi/include/c++/10.3.1/bits/stl_algobase.h ****     { std::__fill_a1(__first, __last, __value); }
 915:/Library/DaisyToolchain/0.2.0/arm/arm-none-eabi/include/c++/10.3.1/bits/stl_algobase.h **** 
 916:/Library/DaisyToolchain/0.2.0/arm/arm-none-eabi/include/c++/10.3.1/bits/stl_algobase.h ****   template<typename _Ite, typename _Seq, typename _Cat, typename _Tp>
 917:/Library/DaisyToolchain/0.2.0/arm/arm-none-eabi/include/c++/10.3.1/bits/stl_algobase.h ****     void
 918:/Library/DaisyToolchain/0.2.0/arm/arm-none-eabi/include/c++/10.3.1/bits/stl_algobase.h ****     __fill_a(const ::__gnu_debug::_Safe_iterator<_Ite, _Seq, _Cat>&,
 919:/Library/DaisyToolchain/0.2.0/arm/arm-none-eabi/include/c++/10.3.1/bits/stl_algobase.h **** 	     const ::__gnu_debug::_Safe_iterator<_Ite, _Seq, _Cat>&,
 920:/Library/DaisyToolchain/0.2.0/arm/arm-none-eabi/include/c++/10.3.1/bits/stl_algobase.h **** 	     const _Tp&);
ARM GAS  /var/folders/9k/zk1mgrrd7wg4__6zvxvr9w8m0000gn/T//ccVlS6UW.s 			page 40


 921:/Library/DaisyToolchain/0.2.0/arm/arm-none-eabi/include/c++/10.3.1/bits/stl_algobase.h **** 
 922:/Library/DaisyToolchain/0.2.0/arm/arm-none-eabi/include/c++/10.3.1/bits/stl_algobase.h ****   /**
 923:/Library/DaisyToolchain/0.2.0/arm/arm-none-eabi/include/c++/10.3.1/bits/stl_algobase.h ****    *  @brief Fills the range [first,last) with copies of value.
 924:/Library/DaisyToolchain/0.2.0/arm/arm-none-eabi/include/c++/10.3.1/bits/stl_algobase.h ****    *  @ingroup mutating_algorithms
 925:/Library/DaisyToolchain/0.2.0/arm/arm-none-eabi/include/c++/10.3.1/bits/stl_algobase.h ****    *  @param  __first  A forward iterator.
 926:/Library/DaisyToolchain/0.2.0/arm/arm-none-eabi/include/c++/10.3.1/bits/stl_algobase.h ****    *  @param  __last   A forward iterator.
 927:/Library/DaisyToolchain/0.2.0/arm/arm-none-eabi/include/c++/10.3.1/bits/stl_algobase.h ****    *  @param  __value  A reference-to-const of arbitrary type.
 928:/Library/DaisyToolchain/0.2.0/arm/arm-none-eabi/include/c++/10.3.1/bits/stl_algobase.h ****    *  @return   Nothing.
 929:/Library/DaisyToolchain/0.2.0/arm/arm-none-eabi/include/c++/10.3.1/bits/stl_algobase.h ****    *
 930:/Library/DaisyToolchain/0.2.0/arm/arm-none-eabi/include/c++/10.3.1/bits/stl_algobase.h ****    *  This function fills a range with copies of the same value.  For char
 931:/Library/DaisyToolchain/0.2.0/arm/arm-none-eabi/include/c++/10.3.1/bits/stl_algobase.h ****    *  types filling contiguous areas of memory, this becomes an inline call
 932:/Library/DaisyToolchain/0.2.0/arm/arm-none-eabi/include/c++/10.3.1/bits/stl_algobase.h ****    *  to @c memset or @c wmemset.
 933:/Library/DaisyToolchain/0.2.0/arm/arm-none-eabi/include/c++/10.3.1/bits/stl_algobase.h ****   */
 934:/Library/DaisyToolchain/0.2.0/arm/arm-none-eabi/include/c++/10.3.1/bits/stl_algobase.h ****   template<typename _ForwardIterator, typename _Tp>
 935:/Library/DaisyToolchain/0.2.0/arm/arm-none-eabi/include/c++/10.3.1/bits/stl_algobase.h ****     _GLIBCXX20_CONSTEXPR
 936:/Library/DaisyToolchain/0.2.0/arm/arm-none-eabi/include/c++/10.3.1/bits/stl_algobase.h ****     inline void
 937:/Library/DaisyToolchain/0.2.0/arm/arm-none-eabi/include/c++/10.3.1/bits/stl_algobase.h ****     fill(_ForwardIterator __first, _ForwardIterator __last, const _Tp& __value)
 376              		.loc 8 937 5 view .LVU100
 377              	.LBB326:
 378              	.LBI326:
 913:/Library/DaisyToolchain/0.2.0/arm/arm-none-eabi/include/c++/10.3.1/bits/stl_algobase.h ****     { std::__fill_a1(__first, __last, __value); }
 379              		.loc 8 913 5 view .LVU101
 380              	.LBB327:
 381              	.LBI327:
 868:/Library/DaisyToolchain/0.2.0/arm/arm-none-eabi/include/c++/10.3.1/bits/stl_algobase.h **** 	      const _Tp& __value)
 382              		.loc 8 868 5 view .LVU102
 383              	.LBB328:
 872:/Library/DaisyToolchain/0.2.0/arm/arm-none-eabi/include/c++/10.3.1/bits/stl_algobase.h **** 	*__first = __tmp;
 384              		.loc 8 872 22 view .LVU103
 873:/Library/DaisyToolchain/0.2.0/arm/arm-none-eabi/include/c++/10.3.1/bits/stl_algobase.h ****     }
 385              		.loc 8 873 11 is_stmt 0 view .LVU104
 386 000a 4FF48052 		mov	r2, #4096
 387 000e 0021     		movs	r1, #0
 388 0010 606B     		ldr	r0, [r4, #52]
 389 0012 FFF7FEFF 		bl	memset
 390              	.LVL16:
 873:/Library/DaisyToolchain/0.2.0/arm/arm-none-eabi/include/c++/10.3.1/bits/stl_algobase.h ****     }
 391              		.loc 8 873 11 view .LVU105
 392              	.LBE328:
 393              	.LBE327:
 394              	.LBE326:
 395              	.LBE325:
 112:mi/plaits/dsp/fx/fx_engine.h ****     std::fill(&buffer_[0], &buffer_[size], 0);
 113:mi/plaits/dsp/fx/fx_engine.h ****     write_ptr_ = 0;
 396              		.loc 7 113 16 view .LVU106
 397 0016 0023     		movs	r3, #0
 398 0018 2363     		str	r3, [r4, #48]
 399              	.LVL17:
 400              		.loc 7 113 16 view .LVU107
 401              	.LBE324:
 402              	.LBE323:
 403              	.LBE329:
  55:mi/plaits/dsp/engine2/string_machine_engine.cpp **** }
 404              		.loc 2 55 1 view .LVU108
 405 001a 10BD     		pop	{r4, pc}
 406              		.loc 2 55 1 view .LVU109
 407              		.cfi_endproc
ARM GAS  /var/folders/9k/zk1mgrrd7wg4__6zvxvr9w8m0000gn/T//ccVlS6UW.s 			page 41


 408              	.LFE1707:
 410              		.section	.text._ZN6plaits21StringSynthOscillator6RenderEfPKffPfj,"axG",%progbits,_ZN6plaits21Strin
 411              		.align	1
 412              		.p2align 2,,3
 413              		.weak	_ZN6plaits21StringSynthOscillator6RenderEfPKffPfj
 414              		.syntax unified
 415              		.thumb
 416              		.thumb_func
 418              	_ZN6plaits21StringSynthOscillator6RenderEfPKffPfj:
 419              	.LVL18:
 420              	.LFB1504:
  64:mi/plaits/dsp/oscillator/string_synth_oscillator.h ****   }
  65:mi/plaits/dsp/oscillator/string_synth_oscillator.h ****   
  66:mi/plaits/dsp/oscillator/string_synth_oscillator.h ****   inline void Render(
 421              		.loc 3 66 15 is_stmt 1 view -0
 422              		.cfi_startproc
 423              		@ args = 0, pretend = 0, frame = 32
 424              		@ frame_needed = 0, uses_anonymous_args = 0
  67:mi/plaits/dsp/oscillator/string_synth_oscillator.h ****       float frequency,
  68:mi/plaits/dsp/oscillator/string_synth_oscillator.h ****       const float* unshifted_registration,
  69:mi/plaits/dsp/oscillator/string_synth_oscillator.h ****       float gain,
  70:mi/plaits/dsp/oscillator/string_synth_oscillator.h ****       float* out,
  71:mi/plaits/dsp/oscillator/string_synth_oscillator.h ****       size_t size) {
  72:mi/plaits/dsp/oscillator/string_synth_oscillator.h ****     frequency *= 8.0f;
 425              		.loc 3 72 5 view .LVU111
  66:mi/plaits/dsp/oscillator/string_synth_oscillator.h ****       float frequency,
 426              		.loc 3 66 15 is_stmt 0 view .LVU112
 427 0000 2DE9F043 		push	{r4, r5, r6, r7, r8, r9, lr}
 428              		.cfi_def_cfa_offset 28
 429              		.cfi_offset 4, -28
 430              		.cfi_offset 5, -24
 431              		.cfi_offset 6, -20
 432              		.cfi_offset 7, -16
 433              		.cfi_offset 8, -12
 434              		.cfi_offset 9, -8
 435              		.cfi_offset 14, -4
 436 0004 2DED088B 		vpush.64	{d8, d9, d10, d11}
 437              		.cfi_def_cfa_offset 60
 438              		.cfi_offset 80, -60
 439              		.cfi_offset 81, -56
 440              		.cfi_offset 82, -52
 441              		.cfi_offset 83, -48
 442              		.cfi_offset 84, -44
 443              		.cfi_offset 85, -40
 444              		.cfi_offset 86, -36
 445              		.cfi_offset 87, -32
 446              		.loc 3 72 15 view .LVU113
 447 0008 B2EE008A 		vmov.f32	s16, #8.0e+0
  66:mi/plaits/dsp/oscillator/string_synth_oscillator.h ****       float frequency,
 448              		.loc 3 66 15 view .LVU114
 449 000c 89B0     		sub	sp, sp, #36
 450              		.cfi_def_cfa_offset 96
  73:mi/plaits/dsp/oscillator/string_synth_oscillator.h ****     
  74:mi/plaits/dsp/oscillator/string_synth_oscillator.h ****     // Deal with very high frequencies by shifting everything 1 or 2 octave
  75:mi/plaits/dsp/oscillator/string_synth_oscillator.h ****     // down: Instead of playing the 1st harmonic of a 8kHz wave, we play the
  76:mi/plaits/dsp/oscillator/string_synth_oscillator.h ****     // second harmonic of a 4kHz wave.
  77:mi/plaits/dsp/oscillator/string_synth_oscillator.h ****     size_t shift = 0;
ARM GAS  /var/folders/9k/zk1mgrrd7wg4__6zvxvr9w8m0000gn/T//ccVlS6UW.s 			page 42


  78:mi/plaits/dsp/oscillator/string_synth_oscillator.h ****     while (frequency > 0.5f) {
 451              		.loc 3 78 22 view .LVU115
 452 000e F6EE007A 		vmov.f32	s15, #5.0e-1
  66:mi/plaits/dsp/oscillator/string_synth_oscillator.h ****       float frequency,
 453              		.loc 3 66 15 view .LVU116
 454 0012 0646     		mov	r6, r0
 455 0014 F0EE608A 		vmov.f32	s17, s1
 456 0018 8846     		mov	r8, r1
  72:mi/plaits/dsp/oscillator/string_synth_oscillator.h ****     
 457              		.loc 3 72 15 view .LVU117
 458 001a 20EE088A 		vmul.f32	s16, s0, s16
 459              	.LVL19:
  77:mi/plaits/dsp/oscillator/string_synth_oscillator.h ****     while (frequency > 0.5f) {
 460              		.loc 3 77 5 is_stmt 1 view .LVU118
 461              		.loc 3 78 5 view .LVU119
 462              		.loc 3 78 22 view .LVU120
  66:mi/plaits/dsp/oscillator/string_synth_oscillator.h ****       float frequency,
 463              		.loc 3 66 15 is_stmt 0 view .LVU121
 464 001e 1546     		mov	r5, r2
 465 0020 1F46     		mov	r7, r3
 466              		.loc 3 78 22 view .LVU122
 467 0022 B4EEE78A 		vcmpe.f32	s16, s15
 468 0026 F1EE10FA 		vmrs	APSR_nzcv, FPSCR
 469 002a 40F36381 		ble	.L42
  77:mi/plaits/dsp/oscillator/string_synth_oscillator.h ****     while (frequency > 0.5f) {
 470              		.loc 3 77 12 view .LVU123
 471 002e 0024     		movs	r4, #0
 472              	.LVL20:
 473              	.L16:
  79:mi/plaits/dsp/oscillator/string_synth_oscillator.h ****       shift += 2;
 474              		.loc 3 79 7 is_stmt 1 view .LVU124
  80:mi/plaits/dsp/oscillator/string_synth_oscillator.h ****       frequency *= 0.5f;
 475              		.loc 3 80 17 is_stmt 0 view .LVU125
 476 0030 F6EE007A 		vmov.f32	s15, #5.0e-1
  79:mi/plaits/dsp/oscillator/string_synth_oscillator.h ****       shift += 2;
 477              		.loc 3 79 13 view .LVU126
 478 0034 0234     		adds	r4, r4, #2
 479              	.LVL21:
 480              		.loc 3 80 7 is_stmt 1 view .LVU127
 481              		.loc 3 80 17 is_stmt 0 view .LVU128
 482 0036 28EE278A 		vmul.f32	s16, s16, s15
 483              	.LVL22:
  78:mi/plaits/dsp/oscillator/string_synth_oscillator.h ****       shift += 2;
 484              		.loc 3 78 5 is_stmt 1 view .LVU129
  78:mi/plaits/dsp/oscillator/string_synth_oscillator.h ****       shift += 2;
 485              		.loc 3 78 22 view .LVU130
 486 003a B4EEE78A 		vcmpe.f32	s16, s15
 487 003e F1EE10FA 		vmrs	APSR_nzcv, FPSCR
 488 0042 F5DC     		bgt	.L16
  81:mi/plaits/dsp/oscillator/string_synth_oscillator.h ****     }
  82:mi/plaits/dsp/oscillator/string_synth_oscillator.h ****     // Frequency is just too high.
  83:mi/plaits/dsp/oscillator/string_synth_oscillator.h ****     if (shift >= 8) {
 489              		.loc 3 83 5 view .LVU131
 490 0044 072C     		cmp	r4, #7
 491 0046 00F2FD80 		bhi	.L13
  84:mi/plaits/dsp/oscillator/string_synth_oscillator.h ****       return;
  85:mi/plaits/dsp/oscillator/string_synth_oscillator.h ****     }
ARM GAS  /var/folders/9k/zk1mgrrd7wg4__6zvxvr9w8m0000gn/T//ccVlS6UW.s 			page 43


  86:mi/plaits/dsp/oscillator/string_synth_oscillator.h ****     
  87:mi/plaits/dsp/oscillator/string_synth_oscillator.h ****     float registration[7];
 492              		.loc 3 87 5 view .LVU132
  88:mi/plaits/dsp/oscillator/string_synth_oscillator.h ****     std::fill(&registration[0], &registration[shift], 0.0f);
 493              		.loc 3 88 5 view .LVU133
 494              		.loc 3 88 14 is_stmt 0 view .LVU134
 495 004a 01A8     		add	r0, sp, #4
 496              	.LVL23:
 497              		.loc 3 88 14 view .LVU135
 498 004c 00EB8409 		add	r9, r0, r4, lsl #2
 499              	.LVL24:
 500              	.LBB386:
 501              	.LBI386:
 502              		.loc 8 937 5 is_stmt 1 view .LVU136
 503              	.LBB387:
 504              	.LBI387:
 913:/Library/DaisyToolchain/0.2.0/arm/arm-none-eabi/include/c++/10.3.1/bits/stl_algobase.h ****     { std::__fill_a1(__first, __last, __value); }
 505              		.loc 8 913 5 view .LVU137
 506              	.LBB388:
 507              	.LBI388:
 868:/Library/DaisyToolchain/0.2.0/arm/arm-none-eabi/include/c++/10.3.1/bits/stl_algobase.h **** 	      const _Tp& __value)
 508              		.loc 8 868 5 view .LVU138
 509              	.LBB389:
 872:/Library/DaisyToolchain/0.2.0/arm/arm-none-eabi/include/c++/10.3.1/bits/stl_algobase.h **** 	*__first = __tmp;
 510              		.loc 8 872 22 view .LVU139
 511 0050 8145     		cmp	r9, r0
 512 0052 04D0     		beq	.L44
 873:/Library/DaisyToolchain/0.2.0/arm/arm-none-eabi/include/c++/10.3.1/bits/stl_algobase.h ****     }
 513              		.loc 8 873 11 is_stmt 0 view .LVU140
 514 0054 A9EB0002 		sub	r2, r9, r0
 515              	.LVL25:
 873:/Library/DaisyToolchain/0.2.0/arm/arm-none-eabi/include/c++/10.3.1/bits/stl_algobase.h ****     }
 516              		.loc 8 873 11 view .LVU141
 517 0058 0021     		movs	r1, #0
 518              	.LVL26:
 873:/Library/DaisyToolchain/0.2.0/arm/arm-none-eabi/include/c++/10.3.1/bits/stl_algobase.h ****     }
 519              		.loc 8 873 11 view .LVU142
 520 005a FFF7FEFF 		bl	memset
 521              	.LVL27:
 522              	.L44:
 873:/Library/DaisyToolchain/0.2.0/arm/arm-none-eabi/include/c++/10.3.1/bits/stl_algobase.h ****     }
 523              		.loc 8 873 11 view .LVU143
 524              	.LBE389:
 525              	.LBE388:
 526              	.LBE387:
 527              	.LBE386:
  89:mi/plaits/dsp/oscillator/string_synth_oscillator.h ****     std::copy(
 528              		.loc 3 89 5 is_stmt 1 view .LVU144
 529              	.LBB390:
 530              	.LBI390:
 560:/Library/DaisyToolchain/0.2.0/arm/arm-none-eabi/include/c++/10.3.1/bits/stl_algobase.h ****     {
 531              		.loc 8 560 5 view .LVU145
 532              	.LBB391:
 533              	.LBI391:
 511:/Library/DaisyToolchain/0.2.0/arm/arm-none-eabi/include/c++/10.3.1/bits/stl_algobase.h ****     {
 534              		.loc 8 511 5 view .LVU146
 535              	.LBB392:
ARM GAS  /var/folders/9k/zk1mgrrd7wg4__6zvxvr9w8m0000gn/T//ccVlS6UW.s 			page 44


 536              	.LBI392:
 505:/Library/DaisyToolchain/0.2.0/arm/arm-none-eabi/include/c++/10.3.1/bits/stl_algobase.h ****     { return std::__copy_move_a2<_IsMove>(__first, __last, __result); }
 537              		.loc 8 505 5 view .LVU147
 538              	.LBB393:
 539              	.LBI393:
 463:/Library/DaisyToolchain/0.2.0/arm/arm-none-eabi/include/c++/10.3.1/bits/stl_algobase.h ****     {
 540              		.loc 8 463 5 view .LVU148
 541              	.LBB394:
 542              	.LBB395:
 543              	.LBI395:
 415:/Library/DaisyToolchain/0.2.0/arm/arm-none-eabi/include/c++/10.3.1/bits/stl_algobase.h **** 	{
 544              		.loc 8 415 2 view .LVU149
 415:/Library/DaisyToolchain/0.2.0/arm/arm-none-eabi/include/c++/10.3.1/bits/stl_algobase.h **** 	{
 545              		.loc 8 415 2 is_stmt 0 view .LVU150
 546              	.LBE395:
 547              	.LBE394:
 548              	.LBE393:
 549              	.LBE392:
 550              	.LBE391:
 551              	.LBE390:
  90:mi/plaits/dsp/oscillator/string_synth_oscillator.h ****         &unshifted_registration[0],
  91:mi/plaits/dsp/oscillator/string_synth_oscillator.h ****         &unshifted_registration[7 - shift],
 552              		.loc 3 91 35 view .LVU151
 553 005e C4F10704 		rsb	r4, r4, #7
 554              	.LVL28:
 555              		.loc 3 91 42 view .LVU152
 556 0062 A200     		lsls	r2, r4, #2
 557              	.LBB408:
 558              	.LBB406:
 559              	.LBB404:
 560              	.LBB402:
 561              	.LBB400:
 562              	.LBB398:
 563              	.LBB396:
 425:/Library/DaisyToolchain/0.2.0/arm/arm-none-eabi/include/c++/10.3.1/bits/stl_algobase.h **** 	    __builtin_memmove(__result, __first, sizeof(_Tp) * _Num);
 564              		.loc 8 425 4 view .LVU153
 565 0064 002A     		cmp	r2, #0
 566 0066 40F04881 		bne	.L14
 567              	.LVL29:
 568              	.L21:
 425:/Library/DaisyToolchain/0.2.0/arm/arm-none-eabi/include/c++/10.3.1/bits/stl_algobase.h **** 	    __builtin_memmove(__result, __first, sizeof(_Tp) * _Num);
 569              		.loc 8 425 4 view .LVU154
 570              	.LBE396:
 571              	.LBE398:
 572              	.LBE400:
 573              	.LBE402:
 574              	.LBE404:
 575              	.LBE406:
 576              	.LBE408:
  92:mi/plaits/dsp/oscillator/string_synth_oscillator.h ****         &registration[shift]);
  93:mi/plaits/dsp/oscillator/string_synth_oscillator.h ****     
  94:mi/plaits/dsp/oscillator/string_synth_oscillator.h ****     stmlib::ParameterInterpolator fm(&frequency_, frequency, size);
 577              		.loc 3 94 5 is_stmt 1 view .LVU155
 578              	.LBB409:
 579              	.LBI409:
 580              		.file 9 "mi/stmlib/dsp/parameter_interpolator.h"
   1:mi/stmlib/dsp/parameter_interpolator.h **** // Copyright 2015 Emilie Gillet.
ARM GAS  /var/folders/9k/zk1mgrrd7wg4__6zvxvr9w8m0000gn/T//ccVlS6UW.s 			page 45


   2:mi/stmlib/dsp/parameter_interpolator.h **** //
   3:mi/stmlib/dsp/parameter_interpolator.h **** // Author: Emilie Gillet (emilie.o.gillet@gmail.com)
   4:mi/stmlib/dsp/parameter_interpolator.h **** //
   5:mi/stmlib/dsp/parameter_interpolator.h **** // Permission is hereby granted, free of charge, to any person obtaining a copy
   6:mi/stmlib/dsp/parameter_interpolator.h **** // of this software and associated documentation files (the "Software"), to deal
   7:mi/stmlib/dsp/parameter_interpolator.h **** // in the Software without restriction, including without limitation the rights
   8:mi/stmlib/dsp/parameter_interpolator.h **** // to use, copy, modify, merge, publish, distribute, sublicense, and/or sell
   9:mi/stmlib/dsp/parameter_interpolator.h **** // copies of the Software, and to permit persons to whom the Software is
  10:mi/stmlib/dsp/parameter_interpolator.h **** // furnished to do so, subject to the following conditions:
  11:mi/stmlib/dsp/parameter_interpolator.h **** // 
  12:mi/stmlib/dsp/parameter_interpolator.h **** // The above copyright notice and this permission notice shall be included in
  13:mi/stmlib/dsp/parameter_interpolator.h **** // all copies or substantial portions of the Software.
  14:mi/stmlib/dsp/parameter_interpolator.h **** // 
  15:mi/stmlib/dsp/parameter_interpolator.h **** // THE SOFTWARE IS PROVIDED "AS IS", WITHOUT WARRANTY OF ANY KIND, EXPRESS OR
  16:mi/stmlib/dsp/parameter_interpolator.h **** // IMPLIED, INCLUDING BUT NOT LIMITED TO THE WARRANTIES OF MERCHANTABILITY,
  17:mi/stmlib/dsp/parameter_interpolator.h **** // FITNESS FOR A PARTICULAR PURPOSE AND NONINFRINGEMENT. IN NO EVENT SHALL THE
  18:mi/stmlib/dsp/parameter_interpolator.h **** // AUTHORS OR COPYRIGHT HOLDERS BE LIABLE FOR ANY CLAIM, DAMAGES OR OTHER
  19:mi/stmlib/dsp/parameter_interpolator.h **** // LIABILITY, WHETHER IN AN ACTION OF CONTRACT, TORT OR OTHERWISE, ARISING FROM,
  20:mi/stmlib/dsp/parameter_interpolator.h **** // OUT OF OR IN CONNECTION WITH THE SOFTWARE OR THE USE OR OTHER DEALINGS IN
  21:mi/stmlib/dsp/parameter_interpolator.h **** // THE SOFTWARE.
  22:mi/stmlib/dsp/parameter_interpolator.h **** // 
  23:mi/stmlib/dsp/parameter_interpolator.h **** // See http://creativecommons.org/licenses/MIT/ for more information.
  24:mi/stmlib/dsp/parameter_interpolator.h **** //
  25:mi/stmlib/dsp/parameter_interpolator.h **** // -----------------------------------------------------------------------------
  26:mi/stmlib/dsp/parameter_interpolator.h **** //
  27:mi/stmlib/dsp/parameter_interpolator.h **** // Linear interpolation of parameters in rendering loops.
  28:mi/stmlib/dsp/parameter_interpolator.h **** 
  29:mi/stmlib/dsp/parameter_interpolator.h **** #ifndef STMLIB_DSP_PARAMETER_INTERPOLATOR_H_
  30:mi/stmlib/dsp/parameter_interpolator.h **** #define STMLIB_DSP_PARAMETER_INTERPOLATOR_H_
  31:mi/stmlib/dsp/parameter_interpolator.h **** 
  32:mi/stmlib/dsp/parameter_interpolator.h **** #include "stmlib/stmlib.h"
  33:mi/stmlib/dsp/parameter_interpolator.h **** 
  34:mi/stmlib/dsp/parameter_interpolator.h **** namespace stmlib {
  35:mi/stmlib/dsp/parameter_interpolator.h **** 
  36:mi/stmlib/dsp/parameter_interpolator.h **** class ParameterInterpolator {
  37:mi/stmlib/dsp/parameter_interpolator.h ****  public:
  38:mi/stmlib/dsp/parameter_interpolator.h ****   ParameterInterpolator() { }
  39:mi/stmlib/dsp/parameter_interpolator.h ****   ParameterInterpolator(float* state, float new_value, size_t size) {
 581              		.loc 9 39 3 view .LVU156
 582              	.LBE409:
  40:mi/stmlib/dsp/parameter_interpolator.h ****     Init(state, new_value, size);
 583              		.loc 9 40 5 view .LVU157
 584              	.LBB422:
 585              	.LBB410:
 586              	.LBI410:
  41:mi/stmlib/dsp/parameter_interpolator.h ****   }
  42:mi/stmlib/dsp/parameter_interpolator.h **** 
  43:mi/stmlib/dsp/parameter_interpolator.h ****   ParameterInterpolator(float* state, float new_value, float step) {
  44:mi/stmlib/dsp/parameter_interpolator.h ****     state_ = state;
  45:mi/stmlib/dsp/parameter_interpolator.h ****     value_ = *state;
  46:mi/stmlib/dsp/parameter_interpolator.h ****     increment_ = (new_value - *state) * step;
  47:mi/stmlib/dsp/parameter_interpolator.h ****   }
  48:mi/stmlib/dsp/parameter_interpolator.h **** 
  49:mi/stmlib/dsp/parameter_interpolator.h ****   ~ParameterInterpolator() {
  50:mi/stmlib/dsp/parameter_interpolator.h ****     *state_ = value_;
  51:mi/stmlib/dsp/parameter_interpolator.h ****   }
  52:mi/stmlib/dsp/parameter_interpolator.h ****   
ARM GAS  /var/folders/9k/zk1mgrrd7wg4__6zvxvr9w8m0000gn/T//ccVlS6UW.s 			page 46


  53:mi/stmlib/dsp/parameter_interpolator.h ****   inline void Init(float* state, float new_value, size_t size) {
 587              		.loc 9 53 15 view .LVU158
 588              	.LBB411:
  54:mi/stmlib/dsp/parameter_interpolator.h ****     state_ = state;
 589              		.loc 9 54 5 view .LVU159
  55:mi/stmlib/dsp/parameter_interpolator.h ****     value_ = *state;
 590              		.loc 9 55 5 view .LVU160
 591              	.LBE411:
 592              	.LBE410:
 593              	.LBE422:
  95:mi/plaits/dsp/oscillator/string_synth_oscillator.h ****     stmlib::ParameterInterpolator saw_8_gain_modulation(
  96:mi/plaits/dsp/oscillator/string_synth_oscillator.h ****         &saw_8_gain_,
  97:mi/plaits/dsp/oscillator/string_synth_oscillator.h ****         (registration[0] + 2.0f * registration[1]) * gain,
 594              		.loc 3 97 26 is_stmt 0 view .LVU161
 595 006a B0EE007A 		vmov.f32	s14, #2.0e+0
 596              		.loc 3 97 49 view .LVU162
 597 006e 9DED024A 		vldr.32	s8, [sp, #8]
  98:mi/plaits/dsp/oscillator/string_synth_oscillator.h ****         size);
  99:mi/plaits/dsp/oscillator/string_synth_oscillator.h ****     stmlib::ParameterInterpolator saw_4_gain_modulation(
 100:mi/plaits/dsp/oscillator/string_synth_oscillator.h ****         &saw_4_gain_,
 101:mi/plaits/dsp/oscillator/string_synth_oscillator.h ****         (registration[2] - registration[1] + 2.0f * registration[3]) * gain,
 598              		.loc 3 101 26 view .LVU163
 599 0072 9DED036A 		vldr.32	s12, [sp, #12]
 102:mi/plaits/dsp/oscillator/string_synth_oscillator.h ****         size);
 103:mi/plaits/dsp/oscillator/string_synth_oscillator.h ****     stmlib::ParameterInterpolator saw_2_gain_modulation(
 104:mi/plaits/dsp/oscillator/string_synth_oscillator.h ****         &saw_2_gain_,
 105:mi/plaits/dsp/oscillator/string_synth_oscillator.h ****         (registration[4] - registration[3] + 2.0f * registration[5]) * gain,
 106:mi/plaits/dsp/oscillator/string_synth_oscillator.h ****         size);
 107:mi/plaits/dsp/oscillator/string_synth_oscillator.h ****     stmlib::ParameterInterpolator saw_1_gain_modulation(
 108:mi/plaits/dsp/oscillator/string_synth_oscillator.h ****         &saw_1_gain_,
 109:mi/plaits/dsp/oscillator/string_synth_oscillator.h ****         (registration[6] - registration[5]) * gain,
 110:mi/plaits/dsp/oscillator/string_synth_oscillator.h ****         size);
 111:mi/plaits/dsp/oscillator/string_synth_oscillator.h ****     
 112:mi/plaits/dsp/oscillator/string_synth_oscillator.h ****     float phase = phase_;
 113:mi/plaits/dsp/oscillator/string_synth_oscillator.h ****     float next_sample = next_sample_;
 114:mi/plaits/dsp/oscillator/string_synth_oscillator.h ****     int segment = segment_;
 115:mi/plaits/dsp/oscillator/string_synth_oscillator.h ****     while (size--) {
 600              		.loc 3 115 16 view .LVU164
 601 0076 791E     		subs	r1, r7, #1
  97:mi/plaits/dsp/oscillator/string_synth_oscillator.h ****         size);
 602              		.loc 3 97 26 view .LVU165
 603 0078 9DED015A 		vldr.32	s10, [sp, #4]
 101:mi/plaits/dsp/oscillator/string_synth_oscillator.h ****         size);
 604              		.loc 3 101 26 view .LVU166
 605 007c 36EE446A 		vsub.f32	s12, s12, s8
 101:mi/plaits/dsp/oscillator/string_synth_oscillator.h ****         size);
 606              		.loc 3 101 67 view .LVU167
 607 0080 DDED044A 		vldr.32	s9, [sp, #16]
  97:mi/plaits/dsp/oscillator/string_synth_oscillator.h ****         size);
 608              		.loc 3 97 26 view .LVU168
 609 0084 A4EE075A 		vfma.f32	s10, s8, s14
 105:mi/plaits/dsp/oscillator/string_synth_oscillator.h ****         size);
 610              		.loc 3 105 26 view .LVU169
 611 0088 DDED056A 		vldr.32	s13, [sp, #20]
 612              	.LBB423:
 613              	.LBB424:
 614              	.LBB425:
ARM GAS  /var/folders/9k/zk1mgrrd7wg4__6zvxvr9w8m0000gn/T//ccVlS6UW.s 			page 47


 615              		.loc 9 55 14 view .LVU170
 616 008c 96ED042A 		vldr.32	s4, [r6, #16]
 617              	.LBE425:
 618              	.LBE424:
 619              	.LBE423:
 101:mi/plaits/dsp/oscillator/string_synth_oscillator.h ****         size);
 620              		.loc 3 101 44 view .LVU171
 621 0090 A4EE876A 		vfma.f32	s12, s9, s14
 105:mi/plaits/dsp/oscillator/string_synth_oscillator.h ****         size);
 622              		.loc 3 105 67 view .LVU172
 623 0094 DDED065A 		vldr.32	s11, [sp, #24]
 105:mi/plaits/dsp/oscillator/string_synth_oscillator.h ****         size);
 624              		.loc 3 105 26 view .LVU173
 625 0098 76EEE46A 		vsub.f32	s13, s13, s9
 626              	.LBB434:
 627              	.LBB435:
 628              	.LBB436:
 629              		.loc 9 55 14 view .LVU174
 630 009c 96ED053A 		vldr.32	s6, [r6, #20]
 631              	.LBE436:
 632              	.LBE435:
 633              	.LBE434:
 634              	.LBB443:
 635              	.LBB430:
 636              	.LBB426:
  56:mi/stmlib/dsp/parameter_interpolator.h ****     increment_ = (new_value - *state) / static_cast<float>(size);
 637              		.loc 9 56 29 view .LVU175
 638 00a0 F0EE424A 		vmov.f32	s9, s4
 639              	.LBE426:
 640              	.LBE430:
 641              	.LBE443:
 109:mi/plaits/dsp/oscillator/string_synth_oscillator.h ****         size);
 642              		.loc 3 109 26 view .LVU176
 643 00a4 DDED077A 		vldr.32	s15, [sp, #28]
 644              	.LBB444:
 645              	.LBB445:
 646              	.LBB446:
  55:mi/stmlib/dsp/parameter_interpolator.h ****     increment_ = (new_value - *state) / static_cast<float>(size);
 647              		.loc 9 55 14 view .LVU177
 648 00a8 D6ED062A 		vldr.32	s5, [r6, #24]
 649              	.LBE446:
 650              	.LBE445:
 651              	.LBE444:
 105:mi/plaits/dsp/oscillator/string_synth_oscillator.h ****         size);
 652              		.loc 3 105 44 view .LVU178
 653 00ac E5EE876A 		vfma.f32	s13, s11, s14
 654              	.LBB455:
 655              	.LBB456:
 656              	.LBB457:
  55:mi/stmlib/dsp/parameter_interpolator.h ****     increment_ = (new_value - *state) / static_cast<float>(size);
 657              		.loc 9 55 14 view .LVU179
 658 00b0 96ED074A 		vldr.32	s8, [r6, #28]
 659              	.LBE457:
 660              	.LBE456:
 661              	.LBE455:
 662              	.LBB466:
 663              	.LBB431:
ARM GAS  /var/folders/9k/zk1mgrrd7wg4__6zvxvr9w8m0000gn/T//ccVlS6UW.s 			page 48


 664              	.LBB427:
 665              		.loc 9 56 29 view .LVU180
 666 00b4 D5EE284A 		vfnms.f32	s9, s10, s17
 667              	.LBE427:
 668              	.LBE431:
 669              	.LBE466:
 670              	.LBB467:
 671              	.LBB417:
 672              	.LBB412:
  55:mi/stmlib/dsp/parameter_interpolator.h ****     increment_ = (new_value - *state) / static_cast<float>(size);
 673              		.loc 9 55 14 view .LVU181
 674 00b8 D6ED033A 		vldr.32	s7, [r6, #12]
 675              	.LVL30:
 676              		.loc 9 56 5 is_stmt 1 view .LVU182
 677              	.LBE412:
 678              	.LBE417:
 679              	.LBE467:
 680              	.LBB468:
 681              	.LBB440:
 682              	.LBB437:
 683              		.loc 9 56 29 is_stmt 0 view .LVU183
 684 00bc B0EE435A 		vmov.f32	s10, s6
 685              	.LBE437:
 686              	.LBE440:
 687              	.LBE468:
 688              	.LBB469:
 689              	.LBB418:
 690              	.LBB413:
 691              		.loc 9 56 41 view .LVU184
 692 00c0 07EE107A 		vmov	s14, r7	@ int
 693              	.LBE413:
 694              	.LBE418:
 695              	.LBE469:
 109:mi/plaits/dsp/oscillator/string_synth_oscillator.h ****         size);
 696              		.loc 3 109 26 view .LVU185
 697 00c4 77EEE57A 		vsub.f32	s15, s15, s11
 114:mi/plaits/dsp/oscillator/string_synth_oscillator.h ****     while (size--) {
 698              		.loc 3 114 9 view .LVU186
 699 00c8 B268     		ldr	r2, [r6, #8]
 700              	.LBB470:
 701              	.LBB462:
 702              	.LBB458:
 703              		.loc 9 56 29 view .LVU187
 704 00ca F0EE441A 		vmov.f32	s3, s8
 705              	.LBE458:
 706              	.LBE462:
 707              	.LBE470:
 112:mi/plaits/dsp/oscillator/string_synth_oscillator.h ****     float next_sample = next_sample_;
 708              		.loc 3 112 11 view .LVU188
 709 00ce D6ED005A 		vldr.32	s11, [r6]
 710              	.LBB471:
 711              	.LBB441:
 712              	.LBB438:
 713              		.loc 9 56 29 view .LVU189
 714 00d2 96EE285A 		vfnms.f32	s10, s12, s17
 715              	.LBE438:
 716              	.LBE441:
ARM GAS  /var/folders/9k/zk1mgrrd7wg4__6zvxvr9w8m0000gn/T//ccVlS6UW.s 			page 49


 717              	.LBE471:
 718              	.LBB472:
 719              	.LBB451:
 720              	.LBB447:
 721 00d6 B0EE626A 		vmov.f32	s12, s5
 722              	.LBE447:
 723              	.LBE451:
 724              	.LBE472:
 725              	.LBB473:
 726              	.LBB463:
 727              	.LBB459:
 728 00da D7EEA81A 		vfnms.f32	s3, s15, s17
 729              	.LBE459:
 730              	.LBE463:
 731              	.LBE473:
 113:mi/plaits/dsp/oscillator/string_synth_oscillator.h ****     int segment = segment_;
 732              		.loc 3 113 11 view .LVU190
 733 00de D6ED017A 		vldr.32	s15, [r6, #4]
 734              	.LBB474:
 735              	.LBB419:
 736              	.LBB414:
 737              		.loc 9 56 41 view .LVU191
 738 00e2 B8EE477A 		vcvt.f32.u32	s14, s14
 739              	.LBE414:
 740              	.LBE419:
 741              	.LBE474:
 742              	.LBB475:
 743              	.LBB452:
 744              	.LBB448:
 745              		.loc 9 56 29 view .LVU192
 746 00e6 96EEA86A 		vfnms.f32	s12, s13, s17
 747              	.LBE448:
 748              	.LBE452:
 749              	.LBE475:
 750              	.LBB476:
 751              	.LBB420:
 752              	.LBB415:
 753 00ea 38EE638A 		vsub.f32	s16, s16, s7
 754              	.LVL31:
 755              		.loc 9 56 29 view .LVU193
 756              	.LBE415:
 757              	.LBE420:
 758              	.LBE476:
 759              	.LBB477:
 760              	.LBB432:
 761              	.LBB428:
 762              		.loc 9 56 39 view .LVU194
 763 00ee C4EE870A 		vdiv.f32	s1, s9, s14
 764              	.LBE428:
 765              	.LBE432:
 766              	.LBE477:
 767              	.LBB478:
 768              	.LBB421:
 769              	.LBB416:
 770 00f2 88EE070A 		vdiv.f32	s0, s16, s14
 771              	.LVL32:
 772              		.loc 9 56 39 view .LVU195
ARM GAS  /var/folders/9k/zk1mgrrd7wg4__6zvxvr9w8m0000gn/T//ccVlS6UW.s 			page 50


 773              	.LBE416:
 774              	.LBE421:
 775              	.LBE478:
  95:mi/plaits/dsp/oscillator/string_synth_oscillator.h ****         &saw_8_gain_,
 776              		.loc 3 95 5 is_stmt 1 view .LVU196
 777              	.LBB479:
 778              	.LBI423:
  39:mi/stmlib/dsp/parameter_interpolator.h ****     Init(state, new_value, size);
 779              		.loc 9 39 3 view .LVU197
 780              	.LBE479:
  40:mi/stmlib/dsp/parameter_interpolator.h ****   }
 781              		.loc 9 40 5 view .LVU198
 782              	.LBB480:
 783              	.LBB433:
 784              	.LBI424:
  53:mi/stmlib/dsp/parameter_interpolator.h ****     state_ = state;
 785              		.loc 9 53 15 view .LVU199
 786              	.LBB429:
  54:mi/stmlib/dsp/parameter_interpolator.h ****     value_ = *state;
 787              		.loc 9 54 5 view .LVU200
  55:mi/stmlib/dsp/parameter_interpolator.h ****     increment_ = (new_value - *state) / static_cast<float>(size);
 788              		.loc 9 55 5 view .LVU201
 789              		.loc 9 56 5 view .LVU202
 790              		.loc 9 56 5 is_stmt 0 view .LVU203
 791              	.LBE429:
 792              	.LBE433:
 793              	.LBE480:
  99:mi/plaits/dsp/oscillator/string_synth_oscillator.h ****         &saw_4_gain_,
 794              		.loc 3 99 5 is_stmt 1 view .LVU204
 795              	.LBB481:
 796              	.LBI434:
  39:mi/stmlib/dsp/parameter_interpolator.h ****     Init(state, new_value, size);
 797              		.loc 9 39 3 view .LVU205
 798              	.LBE481:
  40:mi/stmlib/dsp/parameter_interpolator.h ****   }
 799              		.loc 9 40 5 view .LVU206
 800              	.LBB482:
 801              	.LBB442:
 802              	.LBI435:
  53:mi/stmlib/dsp/parameter_interpolator.h ****     state_ = state;
 803              		.loc 9 53 15 view .LVU207
 804              	.LBB439:
  54:mi/stmlib/dsp/parameter_interpolator.h ****     value_ = *state;
 805              		.loc 9 54 5 view .LVU208
  55:mi/stmlib/dsp/parameter_interpolator.h ****     increment_ = (new_value - *state) / static_cast<float>(size);
 806              		.loc 9 55 5 view .LVU209
 807              		.loc 9 56 5 view .LVU210
 808              		.loc 9 56 39 is_stmt 0 view .LVU211
 809 00f6 85EE071A 		vdiv.f32	s2, s10, s14
 810              	.LVL33:
 811              		.loc 9 56 39 view .LVU212
 812              	.LBE439:
 813              	.LBE442:
 814              	.LBE482:
 103:mi/plaits/dsp/oscillator/string_synth_oscillator.h ****         &saw_2_gain_,
 815              		.loc 3 103 5 is_stmt 1 view .LVU213
 816              	.LBB483:
ARM GAS  /var/folders/9k/zk1mgrrd7wg4__6zvxvr9w8m0000gn/T//ccVlS6UW.s 			page 51


 817              	.LBI444:
  39:mi/stmlib/dsp/parameter_interpolator.h ****     Init(state, new_value, size);
 818              		.loc 9 39 3 view .LVU214
 819              	.LBE483:
  40:mi/stmlib/dsp/parameter_interpolator.h ****   }
 820              		.loc 9 40 5 view .LVU215
 821              	.LBB484:
 822              	.LBB453:
 823              	.LBI445:
  53:mi/stmlib/dsp/parameter_interpolator.h ****     state_ = state;
 824              		.loc 9 53 15 view .LVU216
 825              	.LBB449:
  54:mi/stmlib/dsp/parameter_interpolator.h ****     value_ = *state;
 826              		.loc 9 54 5 view .LVU217
  55:mi/stmlib/dsp/parameter_interpolator.h ****     increment_ = (new_value - *state) / static_cast<float>(size);
 827              		.loc 9 55 5 view .LVU218
 828              		.loc 9 56 5 view .LVU219
 829              	.LBE449:
 830              	.LBE453:
 831              	.LBE484:
 832              	.LBB485:
 833              	.LBB464:
 834              	.LBB460:
 835              		.loc 9 56 39 is_stmt 0 view .LVU220
 836 00fa 81EE878A 		vdiv.f32	s16, s3, s14
 837              	.LBE460:
 838              	.LBE464:
 839              	.LBE485:
 840              	.LBB486:
 841              	.LBB454:
 842              	.LBB450:
 843 00fe C6EE071A 		vdiv.f32	s3, s12, s14
 844              	.LVL34:
 845              		.loc 9 56 39 view .LVU221
 846              	.LBE450:
 847              	.LBE454:
 848              	.LBE486:
 107:mi/plaits/dsp/oscillator/string_synth_oscillator.h ****         &saw_1_gain_,
 849              		.loc 3 107 5 is_stmt 1 view .LVU222
 850              	.LBB487:
 851              	.LBI455:
  39:mi/stmlib/dsp/parameter_interpolator.h ****     Init(state, new_value, size);
 852              		.loc 9 39 3 view .LVU223
 853              	.LBE487:
  40:mi/stmlib/dsp/parameter_interpolator.h ****   }
 854              		.loc 9 40 5 view .LVU224
 855              	.LBB488:
 856              	.LBB465:
 857              	.LBI456:
  53:mi/stmlib/dsp/parameter_interpolator.h ****     state_ = state;
 858              		.loc 9 53 15 view .LVU225
 859              	.LBB461:
  54:mi/stmlib/dsp/parameter_interpolator.h ****     value_ = *state;
 860              		.loc 9 54 5 view .LVU226
  55:mi/stmlib/dsp/parameter_interpolator.h ****     increment_ = (new_value - *state) / static_cast<float>(size);
 861              		.loc 9 55 5 view .LVU227
 862              		.loc 9 56 5 view .LVU228
ARM GAS  /var/folders/9k/zk1mgrrd7wg4__6zvxvr9w8m0000gn/T//ccVlS6UW.s 			page 52


 863              		.loc 9 56 5 is_stmt 0 view .LVU229
 864              	.LBE461:
 865              	.LBE465:
 866              	.LBE488:
 112:mi/plaits/dsp/oscillator/string_synth_oscillator.h ****     float next_sample = next_sample_;
 867              		.loc 3 112 5 is_stmt 1 view .LVU230
 113:mi/plaits/dsp/oscillator/string_synth_oscillator.h ****     int segment = segment_;
 868              		.loc 3 113 5 view .LVU231
 114:mi/plaits/dsp/oscillator/string_synth_oscillator.h ****     while (size--) {
 869              		.loc 3 114 5 view .LVU232
 870              		.loc 3 115 5 view .LVU233
 871              		.loc 3 115 16 view .LVU234
 872              		.loc 3 115 16 is_stmt 0 view .LVU235
 873 0102 002F     		cmp	r7, #0
 874 0104 00F08F80 		beq	.L22
 875              	.LVL35:
 876              	.L30:
 877              	.LBB489:
 116:mi/plaits/dsp/oscillator/string_synth_oscillator.h ****       float this_sample = next_sample;
 878              		.loc 3 116 7 is_stmt 1 view .LVU236
 117:mi/plaits/dsp/oscillator/string_synth_oscillator.h ****       next_sample = 0.0f;
 879              		.loc 3 117 7 view .LVU237
 118:mi/plaits/dsp/oscillator/string_synth_oscillator.h ****   
 119:mi/plaits/dsp/oscillator/string_synth_oscillator.h ****       const float frequency = fm.Next();
 880              		.loc 3 119 7 view .LVU238
 881              	.LBB490:
 882              	.LBI490:
  57:mi/stmlib/dsp/parameter_interpolator.h ****   }
  58:mi/stmlib/dsp/parameter_interpolator.h **** 
  59:mi/stmlib/dsp/parameter_interpolator.h ****   inline float Next() {
 883              		.loc 9 59 16 view .LVU239
 884              	.LBB491:
  60:mi/stmlib/dsp/parameter_interpolator.h ****     value_ += increment_;
 885              		.loc 9 60 5 view .LVU240
 886              		.loc 9 60 12 is_stmt 0 view .LVU241
 887 0108 73EE803A 		vadd.f32	s7, s7, s0
 888              	.LVL36:
  61:mi/stmlib/dsp/parameter_interpolator.h ****     return value_;
 889              		.loc 9 61 5 is_stmt 1 view .LVU242
 890              		.loc 9 61 5 is_stmt 0 view .LVU243
 891              	.LBE491:
 892              	.LBE490:
 120:mi/plaits/dsp/oscillator/string_synth_oscillator.h ****       const float saw_8_gain = saw_8_gain_modulation.Next();
 893              		.loc 3 120 7 is_stmt 1 view .LVU244
 894              	.LBB492:
 895              	.LBI492:
  59:mi/stmlib/dsp/parameter_interpolator.h ****     value_ += increment_;
 896              		.loc 9 59 16 view .LVU245
 897              	.LBB493:
  60:mi/stmlib/dsp/parameter_interpolator.h ****     return value_;
 898              		.loc 9 60 5 view .LVU246
  60:mi/stmlib/dsp/parameter_interpolator.h ****     return value_;
 899              		.loc 9 60 12 is_stmt 0 view .LVU247
 900 010c 32EE202A 		vadd.f32	s4, s4, s1
 901              	.LVL37:
 902              		.loc 9 61 5 is_stmt 1 view .LVU248
 903              		.loc 9 61 5 is_stmt 0 view .LVU249
ARM GAS  /var/folders/9k/zk1mgrrd7wg4__6zvxvr9w8m0000gn/T//ccVlS6UW.s 			page 53


 904              	.LBE493:
 905              	.LBE492:
 121:mi/plaits/dsp/oscillator/string_synth_oscillator.h ****       const float saw_4_gain = saw_4_gain_modulation.Next();
 906              		.loc 3 121 7 is_stmt 1 view .LVU250
 907              	.LBB494:
 908              	.LBI494:
  59:mi/stmlib/dsp/parameter_interpolator.h ****     value_ += increment_;
 909              		.loc 9 59 16 view .LVU251
 910              	.LBB495:
  60:mi/stmlib/dsp/parameter_interpolator.h ****     return value_;
 911              		.loc 9 60 5 view .LVU252
  60:mi/stmlib/dsp/parameter_interpolator.h ****     return value_;
 912              		.loc 9 60 12 is_stmt 0 view .LVU253
 913 0110 33EE013A 		vadd.f32	s6, s6, s2
 914              	.LVL38:
 915              		.loc 9 61 5 is_stmt 1 view .LVU254
 916              		.loc 9 61 5 is_stmt 0 view .LVU255
 917              	.LBE495:
 918              	.LBE494:
 122:mi/plaits/dsp/oscillator/string_synth_oscillator.h ****       const float saw_2_gain = saw_2_gain_modulation.Next();
 919              		.loc 3 122 7 is_stmt 1 view .LVU256
 920              	.LBB496:
 921              	.LBI496:
  59:mi/stmlib/dsp/parameter_interpolator.h ****     value_ += increment_;
 922              		.loc 9 59 16 view .LVU257
 923              	.LBB497:
  60:mi/stmlib/dsp/parameter_interpolator.h ****     return value_;
 924              		.loc 9 60 5 view .LVU258
 925              	.LBE497:
 926              	.LBE496:
 123:mi/plaits/dsp/oscillator/string_synth_oscillator.h ****       const float saw_1_gain = saw_1_gain_modulation.Next();
 124:mi/plaits/dsp/oscillator/string_synth_oscillator.h **** 
 125:mi/plaits/dsp/oscillator/string_synth_oscillator.h ****       phase += frequency;
 927              		.loc 3 125 13 is_stmt 0 view .LVU259
 928 0114 75EEA35A 		vadd.f32	s11, s11, s7
 929              	.LVL39:
 930              	.LBB499:
 931              	.LBB498:
  60:mi/stmlib/dsp/parameter_interpolator.h ****     return value_;
 932              		.loc 9 60 12 view .LVU260
 933 0118 72EEA12A 		vadd.f32	s5, s5, s3
 934              	.LVL40:
 935              		.loc 9 61 5 is_stmt 1 view .LVU261
 936              		.loc 9 61 5 is_stmt 0 view .LVU262
 937              	.LBE498:
 938              	.LBE499:
 123:mi/plaits/dsp/oscillator/string_synth_oscillator.h ****       const float saw_1_gain = saw_1_gain_modulation.Next();
 939              		.loc 3 123 7 is_stmt 1 view .LVU263
 940              	.LBB500:
 941              	.LBI500:
  59:mi/stmlib/dsp/parameter_interpolator.h ****     value_ += increment_;
 942              		.loc 9 59 16 view .LVU264
 943              	.LBB501:
  60:mi/stmlib/dsp/parameter_interpolator.h ****     return value_;
 944              		.loc 9 60 5 view .LVU265
  60:mi/stmlib/dsp/parameter_interpolator.h ****     return value_;
 945              		.loc 9 60 12 is_stmt 0 view .LVU266
ARM GAS  /var/folders/9k/zk1mgrrd7wg4__6zvxvr9w8m0000gn/T//ccVlS6UW.s 			page 54


 946 011c 34EE084A 		vadd.f32	s8, s8, s16
 947              	.LVL41:
 948              		.loc 9 61 5 is_stmt 1 view .LVU267
 949              		.loc 9 61 5 is_stmt 0 view .LVU268
 950              	.LBE501:
 951              	.LBE500:
 952              		.loc 3 125 7 is_stmt 1 view .LVU269
 126:mi/plaits/dsp/oscillator/string_synth_oscillator.h ****       int next_segment = static_cast<int>(phase);
 953              		.loc 3 126 7 view .LVU270
 954              		.loc 3 126 11 is_stmt 0 view .LVU271
 955 0120 BDEEE57A 		vcvt.s32.f32	s14, s11
 956 0124 17EE103A 		vmov	r3, s14	@ int
 957              	.LVL42:
 127:mi/plaits/dsp/oscillator/string_synth_oscillator.h ****       if (next_segment != segment) {
 958              		.loc 3 127 7 is_stmt 1 view .LVU272
 959              	.LBB502:
 960 0128 9342     		cmp	r3, r2
 961 012a 00F09080 		beq	.L45
 962              	.LBB503:
 128:mi/plaits/dsp/oscillator/string_synth_oscillator.h ****         float discontinuity = 0.0f;
 963              		.loc 3 128 9 view .LVU273
 964              	.LVL43:
 129:mi/plaits/dsp/oscillator/string_synth_oscillator.h ****         if (next_segment == 8) {
 965              		.loc 3 129 9 view .LVU274
 966 012e 082B     		cmp	r3, #8
 967 0130 00F0AF80 		beq	.L46
 130:mi/plaits/dsp/oscillator/string_synth_oscillator.h ****           phase -= 8.0f;
 131:mi/plaits/dsp/oscillator/string_synth_oscillator.h ****           next_segment -= 8;
 132:mi/plaits/dsp/oscillator/string_synth_oscillator.h ****           discontinuity -= saw_8_gain;
 133:mi/plaits/dsp/oscillator/string_synth_oscillator.h ****         }
 134:mi/plaits/dsp/oscillator/string_synth_oscillator.h ****         if ((next_segment & 3) == 0) {
 968              		.loc 3 134 9 view .LVU275
 969 0134 9A07     		lsls	r2, r3, #30
 970              	.LVL44:
 971              		.loc 3 134 9 is_stmt 0 view .LVU276
 972 0136 00F0BF80 		beq	.L27
 973              	.LBE503:
 974              	.LBE502:
 135:mi/plaits/dsp/oscillator/string_synth_oscillator.h ****           discontinuity -= saw_4_gain;
 136:mi/plaits/dsp/oscillator/string_synth_oscillator.h ****         }
 137:mi/plaits/dsp/oscillator/string_synth_oscillator.h ****         if ((next_segment & 1) == 0) {
 138:mi/plaits/dsp/oscillator/string_synth_oscillator.h ****           discontinuity -= saw_2_gain;
 139:mi/plaits/dsp/oscillator/string_synth_oscillator.h ****         }
 140:mi/plaits/dsp/oscillator/string_synth_oscillator.h ****         discontinuity -= saw_1_gain;
 141:mi/plaits/dsp/oscillator/string_synth_oscillator.h ****         if (discontinuity != 0.0f) {
 142:mi/plaits/dsp/oscillator/string_synth_oscillator.h ****           float fraction = phase - static_cast<float>(next_segment);
 143:mi/plaits/dsp/oscillator/string_synth_oscillator.h ****           float t = fraction / frequency;
 144:mi/plaits/dsp/oscillator/string_synth_oscillator.h ****           this_sample += stmlib::ThisBlepSample(t) * discontinuity;
 145:mi/plaits/dsp/oscillator/string_synth_oscillator.h ****           next_sample += stmlib::NextBlepSample(t) * discontinuity;
 146:mi/plaits/dsp/oscillator/string_synth_oscillator.h ****         }
 147:mi/plaits/dsp/oscillator/string_synth_oscillator.h ****       }
 148:mi/plaits/dsp/oscillator/string_synth_oscillator.h ****       segment = next_segment;
 149:mi/plaits/dsp/oscillator/string_synth_oscillator.h ****       
 150:mi/plaits/dsp/oscillator/string_synth_oscillator.h ****       next_sample += (phase - 4.0f) * saw_8_gain * 0.125f;
 151:mi/plaits/dsp/oscillator/string_synth_oscillator.h ****       next_sample += (phase - float(segment & 4) - 2.0f) * saw_4_gain * 0.25f;
