ARM GAS  /var/folders/9k/zk1mgrrd7wg4__6zvxvr9w8m0000gn/T//ccUrAnV6.s 			page 1


   1              		.cpu cortex-m7
   2              		.arch armv7e-m
   3              		.fpu fpv5-d16
   4              		.eabi_attribute 28, 1
   5              		.eabi_attribute 20, 1
   6              		.eabi_attribute 21, 1
   7              		.eabi_attribute 23, 3
   8              		.eabi_attribute 24, 1
   9              		.eabi_attribute 25, 1
  10              		.eabi_attribute 26, 1
  11              		.eabi_attribute 30, 2
  12              		.eabi_attribute 34, 1
  13              		.eabi_attribute 18, 4
  14              		.file	"string_voice.cpp"
  15              		.text
  16              	.Ltext0:
  17              		.cfi_sections	.debug_frame
  18              		.section	.text._ZN6plaits11StringVoice4InitEPN6stmlib15BufferAllocatorE,"ax",%progbits
  19              		.align	1
  20              		.p2align 2,,3
  21              		.global	_ZN6plaits11StringVoice4InitEPN6stmlib15BufferAllocatorE
  22              		.syntax unified
  23              		.thumb
  24              		.thumb_func
  26              	_ZN6plaits11StringVoice4InitEPN6stmlib15BufferAllocatorE:
  27              	.LVL0:
  28              	.LFB1537:
  29              		.file 1 "mi/plaits/dsp/physical_modelling/string_voice.cpp"
   1:mi/plaits/dsp/physical_modelling/string_voice.cpp **** // Copyright 2016 Emilie Gillet.
   2:mi/plaits/dsp/physical_modelling/string_voice.cpp **** //
   3:mi/plaits/dsp/physical_modelling/string_voice.cpp **** // Author: Emilie Gillet (emilie.o.gillet@gmail.com)
   4:mi/plaits/dsp/physical_modelling/string_voice.cpp **** //
   5:mi/plaits/dsp/physical_modelling/string_voice.cpp **** // Permission is hereby granted, free of charge, to any person obtaining a copy
   6:mi/plaits/dsp/physical_modelling/string_voice.cpp **** // of this software and associated documentation files (the "Software"), to deal
   7:mi/plaits/dsp/physical_modelling/string_voice.cpp **** // in the Software without restriction, including without limitation the rights
   8:mi/plaits/dsp/physical_modelling/string_voice.cpp **** // to use, copy, modify, merge, publish, distribute, sublicense, and/or sell
   9:mi/plaits/dsp/physical_modelling/string_voice.cpp **** // copies of the Software, and to permit persons to whom the Software is
  10:mi/plaits/dsp/physical_modelling/string_voice.cpp **** // furnished to do so, subject to the following conditions:
  11:mi/plaits/dsp/physical_modelling/string_voice.cpp **** // 
  12:mi/plaits/dsp/physical_modelling/string_voice.cpp **** // The above copyright notice and this permission notice shall be included in
  13:mi/plaits/dsp/physical_modelling/string_voice.cpp **** // all copies or substantial portions of the Software.
  14:mi/plaits/dsp/physical_modelling/string_voice.cpp **** // 
  15:mi/plaits/dsp/physical_modelling/string_voice.cpp **** // THE SOFTWARE IS PROVIDED "AS IS", WITHOUT WARRANTY OF ANY KIND, EXPRESS OR
  16:mi/plaits/dsp/physical_modelling/string_voice.cpp **** // IMPLIED, INCLUDING BUT NOT LIMITED TO THE WARRANTIES OF MERCHANTABILITY,
  17:mi/plaits/dsp/physical_modelling/string_voice.cpp **** // FITNESS FOR A PARTICULAR PURPOSE AND NONINFRINGEMENT. IN NO EVENT SHALL THE
  18:mi/plaits/dsp/physical_modelling/string_voice.cpp **** // AUTHORS OR COPYRIGHT HOLDERS BE LIABLE FOR ANY CLAIM, DAMAGES OR OTHER
  19:mi/plaits/dsp/physical_modelling/string_voice.cpp **** // LIABILITY, WHETHER IN AN ACTION OF CONTRACT, TORT OR OTHERWISE, ARISING FROM,
  20:mi/plaits/dsp/physical_modelling/string_voice.cpp **** // OUT OF OR IN CONNECTION WITH THE SOFTWARE OR THE USE OR OTHER DEALINGS IN
  21:mi/plaits/dsp/physical_modelling/string_voice.cpp **** // THE SOFTWARE.
  22:mi/plaits/dsp/physical_modelling/string_voice.cpp **** // 
  23:mi/plaits/dsp/physical_modelling/string_voice.cpp **** // See http://creativecommons.org/licenses/MIT/ for more information.
  24:mi/plaits/dsp/physical_modelling/string_voice.cpp **** //
  25:mi/plaits/dsp/physical_modelling/string_voice.cpp **** // -----------------------------------------------------------------------------
  26:mi/plaits/dsp/physical_modelling/string_voice.cpp **** //
  27:mi/plaits/dsp/physical_modelling/string_voice.cpp **** // Extended Karplus-Strong, with all the niceties from Rings.
  28:mi/plaits/dsp/physical_modelling/string_voice.cpp **** 
  29:mi/plaits/dsp/physical_modelling/string_voice.cpp **** #include "plaits/dsp/physical_modelling/string_voice.h"
ARM GAS  /var/folders/9k/zk1mgrrd7wg4__6zvxvr9w8m0000gn/T//ccUrAnV6.s 			page 2


  30:mi/plaits/dsp/physical_modelling/string_voice.cpp **** 
  31:mi/plaits/dsp/physical_modelling/string_voice.cpp **** #include <algorithm>
  32:mi/plaits/dsp/physical_modelling/string_voice.cpp **** 
  33:mi/plaits/dsp/physical_modelling/string_voice.cpp **** #include "stmlib/dsp/units.h"
  34:mi/plaits/dsp/physical_modelling/string_voice.cpp **** #include "stmlib/utils/random.h"
  35:mi/plaits/dsp/physical_modelling/string_voice.cpp **** 
  36:mi/plaits/dsp/physical_modelling/string_voice.cpp **** #include "plaits/dsp/noise/dust.h"
  37:mi/plaits/dsp/physical_modelling/string_voice.cpp **** 
  38:mi/plaits/dsp/physical_modelling/string_voice.cpp **** namespace plaits {
  39:mi/plaits/dsp/physical_modelling/string_voice.cpp **** 
  40:mi/plaits/dsp/physical_modelling/string_voice.cpp **** using namespace std;
  41:mi/plaits/dsp/physical_modelling/string_voice.cpp **** using namespace stmlib;
  42:mi/plaits/dsp/physical_modelling/string_voice.cpp **** 
  43:mi/plaits/dsp/physical_modelling/string_voice.cpp **** void StringVoice::Init(BufferAllocator* allocator) {
  30              		.loc 1 43 52 view -0
  31              		.cfi_startproc
  32              		@ args = 0, pretend = 0, frame = 0
  33              		@ frame_needed = 0, uses_anonymous_args = 0
  44:mi/plaits/dsp/physical_modelling/string_voice.cpp ****   excitation_filter_.Init();
  34              		.loc 1 44 3 view .LVU1
  35              	.LBB52:
  36              	.LBB53:
  37              	.LBB54:
  38              		.file 2 "mi/stmlib/dsp/filter.h"
   1:mi/stmlib/dsp/filter.h **** // Copyright 2014 Emilie Gillet.
   2:mi/stmlib/dsp/filter.h **** //
   3:mi/stmlib/dsp/filter.h **** // Author: Emilie Gillet (emilie.o.gillet@gmail.com)
   4:mi/stmlib/dsp/filter.h **** //
   5:mi/stmlib/dsp/filter.h **** // Permission is hereby granted, free of charge, to any person obtaining a copy
   6:mi/stmlib/dsp/filter.h **** // of this software and associated documentation files (the "Software"), to deal
   7:mi/stmlib/dsp/filter.h **** // in the Software without restriction, including without limitation the rights
   8:mi/stmlib/dsp/filter.h **** // to use, copy, modify, merge, publish, distribute, sublicense, and/or sell
   9:mi/stmlib/dsp/filter.h **** // copies of the Software, and to permit persons to whom the Software is
  10:mi/stmlib/dsp/filter.h **** // furnished to do so, subject to the following conditions:
  11:mi/stmlib/dsp/filter.h **** // 
  12:mi/stmlib/dsp/filter.h **** // The above copyright notice and this permission notice shall be included in
  13:mi/stmlib/dsp/filter.h **** // all copies or substantial portions of the Software.
  14:mi/stmlib/dsp/filter.h **** // 
  15:mi/stmlib/dsp/filter.h **** // THE SOFTWARE IS PROVIDED "AS IS", WITHOUT WARRANTY OF ANY KIND, EXPRESS OR
  16:mi/stmlib/dsp/filter.h **** // IMPLIED, INCLUDING BUT NOT LIMITED TO THE WARRANTIES OF MERCHANTABILITY,
  17:mi/stmlib/dsp/filter.h **** // FITNESS FOR A PARTICULAR PURPOSE AND NONINFRINGEMENT. IN NO EVENT SHALL THE
  18:mi/stmlib/dsp/filter.h **** // AUTHORS OR COPYRIGHT HOLDERS BE LIABLE FOR ANY CLAIM, DAMAGES OR OTHER
  19:mi/stmlib/dsp/filter.h **** // LIABILITY, WHETHER IN AN ACTION OF CONTRACT, TORT OR OTHERWISE, ARISING FROM,
  20:mi/stmlib/dsp/filter.h **** // OUT OF OR IN CONNECTION WITH THE SOFTWARE OR THE USE OR OTHER DEALINGS IN
  21:mi/stmlib/dsp/filter.h **** // THE SOFTWARE.
  22:mi/stmlib/dsp/filter.h **** // 
  23:mi/stmlib/dsp/filter.h **** // See http://creativecommons.org/licenses/MIT/ for more information.
  24:mi/stmlib/dsp/filter.h **** //
  25:mi/stmlib/dsp/filter.h **** // -----------------------------------------------------------------------------
  26:mi/stmlib/dsp/filter.h **** //
  27:mi/stmlib/dsp/filter.h **** // Zero-delay-feedback filters (one pole and SVF).
  28:mi/stmlib/dsp/filter.h **** // Naive SVF.
  29:mi/stmlib/dsp/filter.h **** 
  30:mi/stmlib/dsp/filter.h **** #ifndef STMLIB_DSP_FILTER_H_
  31:mi/stmlib/dsp/filter.h **** #define STMLIB_DSP_FILTER_H_
  32:mi/stmlib/dsp/filter.h **** 
  33:mi/stmlib/dsp/filter.h **** #include "stmlib/stmlib.h"
ARM GAS  /var/folders/9k/zk1mgrrd7wg4__6zvxvr9w8m0000gn/T//ccUrAnV6.s 			page 3


  34:mi/stmlib/dsp/filter.h **** 
  35:mi/stmlib/dsp/filter.h **** #include <cmath>
  36:mi/stmlib/dsp/filter.h **** #include <algorithm>
  37:mi/stmlib/dsp/filter.h **** 
  38:mi/stmlib/dsp/filter.h **** namespace stmlib {
  39:mi/stmlib/dsp/filter.h **** 
  40:mi/stmlib/dsp/filter.h **** enum FilterMode {
  41:mi/stmlib/dsp/filter.h ****   FILTER_MODE_LOW_PASS,
  42:mi/stmlib/dsp/filter.h ****   FILTER_MODE_BAND_PASS,
  43:mi/stmlib/dsp/filter.h ****   FILTER_MODE_BAND_PASS_NORMALIZED,
  44:mi/stmlib/dsp/filter.h ****   FILTER_MODE_HIGH_PASS
  45:mi/stmlib/dsp/filter.h **** };
  46:mi/stmlib/dsp/filter.h **** 
  47:mi/stmlib/dsp/filter.h **** enum FrequencyApproximation {
  48:mi/stmlib/dsp/filter.h ****   FREQUENCY_EXACT,
  49:mi/stmlib/dsp/filter.h ****   FREQUENCY_ACCURATE,
  50:mi/stmlib/dsp/filter.h ****   FREQUENCY_FAST,
  51:mi/stmlib/dsp/filter.h ****   FREQUENCY_DIRTY
  52:mi/stmlib/dsp/filter.h **** };
  53:mi/stmlib/dsp/filter.h **** 
  54:mi/stmlib/dsp/filter.h **** #define M_PI_F float(M_PI)
  55:mi/stmlib/dsp/filter.h **** #define M_PI_POW_2 M_PI * M_PI
  56:mi/stmlib/dsp/filter.h **** #define M_PI_POW_3 M_PI_POW_2 * M_PI
  57:mi/stmlib/dsp/filter.h **** #define M_PI_POW_5 M_PI_POW_3 * M_PI_POW_2
  58:mi/stmlib/dsp/filter.h **** #define M_PI_POW_7 M_PI_POW_5 * M_PI_POW_2
  59:mi/stmlib/dsp/filter.h **** #define M_PI_POW_9 M_PI_POW_7 * M_PI_POW_2
  60:mi/stmlib/dsp/filter.h **** #define M_PI_POW_11 M_PI_POW_9 * M_PI_POW_2
  61:mi/stmlib/dsp/filter.h **** 
  62:mi/stmlib/dsp/filter.h **** class DCBlocker {
  63:mi/stmlib/dsp/filter.h ****  public:
  64:mi/stmlib/dsp/filter.h ****   DCBlocker() { }
  65:mi/stmlib/dsp/filter.h ****   ~DCBlocker() { }
  66:mi/stmlib/dsp/filter.h ****   
  67:mi/stmlib/dsp/filter.h ****   void Init(float pole) {
  68:mi/stmlib/dsp/filter.h ****     x_ = 0.0f;
  69:mi/stmlib/dsp/filter.h ****     y_ = 0.0f;
  70:mi/stmlib/dsp/filter.h ****     pole_ = pole;
  71:mi/stmlib/dsp/filter.h ****   }
  72:mi/stmlib/dsp/filter.h ****   
  73:mi/stmlib/dsp/filter.h ****   inline void Process(float* in_out, size_t size) {
  74:mi/stmlib/dsp/filter.h ****     float x = x_;
  75:mi/stmlib/dsp/filter.h ****     float y = y_;
  76:mi/stmlib/dsp/filter.h ****     const float pole = pole_;
  77:mi/stmlib/dsp/filter.h ****     while (size--) {
  78:mi/stmlib/dsp/filter.h ****       float old_x = x;
  79:mi/stmlib/dsp/filter.h ****       x = *in_out;
  80:mi/stmlib/dsp/filter.h ****       *in_out++ = y = y * pole + x - old_x;
  81:mi/stmlib/dsp/filter.h ****     }
  82:mi/stmlib/dsp/filter.h ****     x_ = x;
  83:mi/stmlib/dsp/filter.h ****     y_ = y;
  84:mi/stmlib/dsp/filter.h ****   }
  85:mi/stmlib/dsp/filter.h ****   
  86:mi/stmlib/dsp/filter.h ****  private:
  87:mi/stmlib/dsp/filter.h ****   float pole_;
  88:mi/stmlib/dsp/filter.h ****   float x_;
  89:mi/stmlib/dsp/filter.h ****   float y_;
  90:mi/stmlib/dsp/filter.h **** };
ARM GAS  /var/folders/9k/zk1mgrrd7wg4__6zvxvr9w8m0000gn/T//ccUrAnV6.s 			page 4


  91:mi/stmlib/dsp/filter.h **** 
  92:mi/stmlib/dsp/filter.h **** class OnePole {
  93:mi/stmlib/dsp/filter.h ****  public:
  94:mi/stmlib/dsp/filter.h ****   OnePole() { }
  95:mi/stmlib/dsp/filter.h ****   ~OnePole() { }
  96:mi/stmlib/dsp/filter.h ****   
  97:mi/stmlib/dsp/filter.h ****   void Init() {
  98:mi/stmlib/dsp/filter.h ****     set_f<FREQUENCY_DIRTY>(0.01f);
  99:mi/stmlib/dsp/filter.h ****     Reset();
 100:mi/stmlib/dsp/filter.h ****   }
 101:mi/stmlib/dsp/filter.h ****   
 102:mi/stmlib/dsp/filter.h ****   void Reset() {
 103:mi/stmlib/dsp/filter.h ****     state_ = 0.0f;
 104:mi/stmlib/dsp/filter.h ****   }
 105:mi/stmlib/dsp/filter.h ****   
 106:mi/stmlib/dsp/filter.h ****   template<FrequencyApproximation approximation>
 107:mi/stmlib/dsp/filter.h ****   static inline float tan(float f) {
 108:mi/stmlib/dsp/filter.h ****     if (approximation == FREQUENCY_EXACT) {
 109:mi/stmlib/dsp/filter.h ****       // Clip coefficient to about 100.
 110:mi/stmlib/dsp/filter.h ****       f = f < 0.497f ? f : 0.497f;
 111:mi/stmlib/dsp/filter.h ****       return tanf(M_PI_F * f);
 112:mi/stmlib/dsp/filter.h ****     } else if (approximation == FREQUENCY_DIRTY) {
 113:mi/stmlib/dsp/filter.h ****       // Optimized for frequencies below 8kHz.
 114:mi/stmlib/dsp/filter.h ****       const float a = 3.736e-01f * M_PI_POW_3;
 115:mi/stmlib/dsp/filter.h ****       return f * (M_PI_F + a * f * f);
 116:mi/stmlib/dsp/filter.h ****     } else if (approximation == FREQUENCY_FAST) {
 117:mi/stmlib/dsp/filter.h ****       // The usual tangent approximation uses 3.1755e-01 and 2.033e-01, but
 118:mi/stmlib/dsp/filter.h ****       // the coefficients used here are optimized to minimize error for the
 119:mi/stmlib/dsp/filter.h ****       // 16Hz to 16kHz range, with a sample rate of 48kHz.
 120:mi/stmlib/dsp/filter.h ****       const float a = 3.260e-01f * M_PI_POW_3;
 121:mi/stmlib/dsp/filter.h ****       const float b = 1.823e-01f * M_PI_POW_5;
 122:mi/stmlib/dsp/filter.h ****       float f2 = f * f;
 123:mi/stmlib/dsp/filter.h ****       return f * (M_PI_F + f2 * (a + b * f2));
 124:mi/stmlib/dsp/filter.h ****     } else if (approximation == FREQUENCY_ACCURATE) {
 125:mi/stmlib/dsp/filter.h ****       // These coefficients don't need to be tweaked for the audio range.
 126:mi/stmlib/dsp/filter.h ****       const float a = 3.333314036e-01f * M_PI_POW_3;
 127:mi/stmlib/dsp/filter.h ****       const float b = 1.333923995e-01f * M_PI_POW_5;
 128:mi/stmlib/dsp/filter.h ****       const float c = 5.33740603e-02f * M_PI_POW_7;
 129:mi/stmlib/dsp/filter.h ****       const float d = 2.900525e-03f * M_PI_POW_9;
 130:mi/stmlib/dsp/filter.h ****       const float e = 9.5168091e-03f * M_PI_POW_11;
 131:mi/stmlib/dsp/filter.h ****       float f2 = f * f;
 132:mi/stmlib/dsp/filter.h ****       return f * (M_PI_F + f2 * (a + f2 * (b + f2 * (c + f2 * (d + f2 * e)))));
 133:mi/stmlib/dsp/filter.h ****     }
 134:mi/stmlib/dsp/filter.h ****   }
 135:mi/stmlib/dsp/filter.h ****   
 136:mi/stmlib/dsp/filter.h ****   // Set frequency and resonance from true units. Various approximations
 137:mi/stmlib/dsp/filter.h ****   // are available to avoid the cost of tanf.
 138:mi/stmlib/dsp/filter.h ****   template<FrequencyApproximation approximation>
 139:mi/stmlib/dsp/filter.h ****   inline void set_f(float f) {
 140:mi/stmlib/dsp/filter.h ****     g_ = tan<approximation>(f);
 141:mi/stmlib/dsp/filter.h ****     gi_ = 1.0f / (1.0f + g_);
 142:mi/stmlib/dsp/filter.h ****   }
 143:mi/stmlib/dsp/filter.h ****   
 144:mi/stmlib/dsp/filter.h ****   template<FilterMode mode>
 145:mi/stmlib/dsp/filter.h ****   inline float Process(float in) {
 146:mi/stmlib/dsp/filter.h ****     float lp;
 147:mi/stmlib/dsp/filter.h ****     lp = (g_ * in + state_) * gi_;
ARM GAS  /var/folders/9k/zk1mgrrd7wg4__6zvxvr9w8m0000gn/T//ccUrAnV6.s 			page 5


 148:mi/stmlib/dsp/filter.h ****     state_ = g_ * (in - lp) + lp;
 149:mi/stmlib/dsp/filter.h **** 
 150:mi/stmlib/dsp/filter.h ****     if (mode == FILTER_MODE_LOW_PASS) {
 151:mi/stmlib/dsp/filter.h ****       return lp;
 152:mi/stmlib/dsp/filter.h ****     } else if (mode == FILTER_MODE_HIGH_PASS) {
 153:mi/stmlib/dsp/filter.h ****       return in - lp;
 154:mi/stmlib/dsp/filter.h ****     } else {
 155:mi/stmlib/dsp/filter.h ****       return 0.0f;
 156:mi/stmlib/dsp/filter.h ****     }
 157:mi/stmlib/dsp/filter.h ****   }
 158:mi/stmlib/dsp/filter.h ****   
 159:mi/stmlib/dsp/filter.h ****   template<FilterMode mode>
 160:mi/stmlib/dsp/filter.h ****   inline void Process(float* in_out, size_t size) {
 161:mi/stmlib/dsp/filter.h ****     while (size--) {
 162:mi/stmlib/dsp/filter.h ****       *in_out = Process<mode>(*in_out);
 163:mi/stmlib/dsp/filter.h ****       ++in_out;
 164:mi/stmlib/dsp/filter.h ****     }
 165:mi/stmlib/dsp/filter.h ****   }
 166:mi/stmlib/dsp/filter.h ****   
 167:mi/stmlib/dsp/filter.h ****  private:
 168:mi/stmlib/dsp/filter.h ****   float g_;
 169:mi/stmlib/dsp/filter.h ****   float gi_;
 170:mi/stmlib/dsp/filter.h ****   float state_;
 171:mi/stmlib/dsp/filter.h ****   
 172:mi/stmlib/dsp/filter.h ****   DISALLOW_COPY_AND_ASSIGN(OnePole);
 173:mi/stmlib/dsp/filter.h **** };
 174:mi/stmlib/dsp/filter.h **** 
 175:mi/stmlib/dsp/filter.h **** 
 176:mi/stmlib/dsp/filter.h **** 
 177:mi/stmlib/dsp/filter.h **** class Svf {
 178:mi/stmlib/dsp/filter.h ****  public:
 179:mi/stmlib/dsp/filter.h ****   Svf() { }
 180:mi/stmlib/dsp/filter.h ****   ~Svf() { }
 181:mi/stmlib/dsp/filter.h ****   
 182:mi/stmlib/dsp/filter.h ****   void Init() {
 183:mi/stmlib/dsp/filter.h ****     set_f_q<FREQUENCY_DIRTY>(0.01f, 100.0f);
 184:mi/stmlib/dsp/filter.h ****     Reset();
 185:mi/stmlib/dsp/filter.h ****   }
 186:mi/stmlib/dsp/filter.h ****   
 187:mi/stmlib/dsp/filter.h ****   void Reset() {
 188:mi/stmlib/dsp/filter.h ****     state_1_ = state_2_ = 0.0f;
 189:mi/stmlib/dsp/filter.h ****   }
 190:mi/stmlib/dsp/filter.h ****   
 191:mi/stmlib/dsp/filter.h ****   // Copy settings from another filter.
 192:mi/stmlib/dsp/filter.h ****   inline void set(const Svf& f) {
 193:mi/stmlib/dsp/filter.h ****     g_ = f.g();
 194:mi/stmlib/dsp/filter.h ****     r_ = f.r();
 195:mi/stmlib/dsp/filter.h ****     h_ = f.h();
 196:mi/stmlib/dsp/filter.h ****   }
 197:mi/stmlib/dsp/filter.h **** 
 198:mi/stmlib/dsp/filter.h ****   // Set all parameters from LUT.
 199:mi/stmlib/dsp/filter.h ****   inline void set_g_r_h(float g, float r, float h) {
 200:mi/stmlib/dsp/filter.h ****     g_ = g;
 201:mi/stmlib/dsp/filter.h ****     r_ = r;
 202:mi/stmlib/dsp/filter.h ****     h_ = h;
 203:mi/stmlib/dsp/filter.h ****   }
 204:mi/stmlib/dsp/filter.h ****   
ARM GAS  /var/folders/9k/zk1mgrrd7wg4__6zvxvr9w8m0000gn/T//ccUrAnV6.s 			page 6


 205:mi/stmlib/dsp/filter.h ****   // Set frequency and resonance coefficients from LUT, adjust remaining
 206:mi/stmlib/dsp/filter.h ****   // parameter.
 207:mi/stmlib/dsp/filter.h ****   inline void set_g_r(float g, float r) {
 208:mi/stmlib/dsp/filter.h ****     g_ = g;
 209:mi/stmlib/dsp/filter.h ****     r_ = r;
 210:mi/stmlib/dsp/filter.h ****     h_ = 1.0f / (1.0f + r_ * g_ + g_ * g_);
 211:mi/stmlib/dsp/filter.h ****   }
 212:mi/stmlib/dsp/filter.h **** 
 213:mi/stmlib/dsp/filter.h ****   // Set frequency from LUT, resonance in true units, adjust the rest.
 214:mi/stmlib/dsp/filter.h ****   inline void set_g_q(float g, float resonance) {
 215:mi/stmlib/dsp/filter.h ****     g_ = g;
 216:mi/stmlib/dsp/filter.h ****     r_ = 1.0f / resonance;
 217:mi/stmlib/dsp/filter.h ****     h_ = 1.0f / (1.0f + r_ * g_ + g_ * g_);
 218:mi/stmlib/dsp/filter.h ****   }
 219:mi/stmlib/dsp/filter.h **** 
 220:mi/stmlib/dsp/filter.h ****   // Set frequency and resonance from true units. Various approximations
 221:mi/stmlib/dsp/filter.h ****   // are available to avoid the cost of tanf.
 222:mi/stmlib/dsp/filter.h ****   template<FrequencyApproximation approximation>
 223:mi/stmlib/dsp/filter.h ****   inline void set_f_q(float f, float resonance) {
 224:mi/stmlib/dsp/filter.h ****     g_ = OnePole::tan<approximation>(f);
 225:mi/stmlib/dsp/filter.h ****     r_ = 1.0f / resonance;
  39              		.loc 2 225 8 is_stmt 0 view .LVU2
  40 0000 094A     		ldr	r2, .L4
  41              	.LBE54:
  42              	.LBE53:
  43              	.LBB60:
  44              	.LBB61:
 188:mi/stmlib/dsp/filter.h ****   }
  45              		.loc 2 188 25 view .LVU3
  46 0002 0023     		movs	r3, #0
  47              	.LBE61:
  48              	.LBE60:
  49              	.LBB64:
  50              	.LBB55:
 224:mi/stmlib/dsp/filter.h ****     r_ = 1.0f / resonance;
  51              		.loc 2 224 8 view .LVU4
  52 0004 DFF828C0 		ldr	ip, .L4+8
  53              	.LBE55:
  54              	.LBE64:
  55              	.LBE52:
  43:mi/plaits/dsp/physical_modelling/string_voice.cpp ****   excitation_filter_.Init();
  56              		.loc 1 43 52 view .LVU5
  57 0008 10B5     		push	{r4, lr}
  58              		.cfi_def_cfa_offset 8
  59              		.cfi_offset 4, -8
  60              		.cfi_offset 14, -4
  61              	.LBB71:
  62              	.LBB65:
  63              	.LBB56:
  64              		.loc 2 225 8 view .LVU6
  65 000a 4260     		str	r2, [r0, #4]	@ float
  66              	.LBE56:
  67              	.LBE65:
  68              	.LBE71:
  43:mi/plaits/dsp/physical_modelling/string_voice.cpp ****   excitation_filter_.Init();
  69              		.loc 1 43 52 view .LVU7
  70 000c 0446     		mov	r4, r0
ARM GAS  /var/folders/9k/zk1mgrrd7wg4__6zvxvr9w8m0000gn/T//ccUrAnV6.s 			page 7


  71              	.LVL1:
  72              	.LBB72:
  73              	.LBI52:
 182:mi/stmlib/dsp/filter.h ****     set_f_q<FREQUENCY_DIRTY>(0.01f, 100.0f);
  74              		.loc 2 182 8 is_stmt 1 view .LVU8
  75              	.LBE72:
 183:mi/stmlib/dsp/filter.h ****     Reset();
  76              		.loc 2 183 5 view .LVU9
  77              	.LBB73:
  78              	.LBB66:
  79              	.LBI53:
 223:mi/stmlib/dsp/filter.h ****     g_ = OnePole::tan<approximation>(f);
  80              		.loc 2 223 15 view .LVU10
  81              	.LBB57:
 226:mi/stmlib/dsp/filter.h ****     h_ = 1.0f / (1.0f + r_ * g_ + g_ * g_);
  82              		.loc 2 226 8 is_stmt 0 view .LVU11
  83 000e 074A     		ldr	r2, .L4+4
  84              	.LBE57:
  85              	.LBE66:
  86              	.LBE73:
  45:mi/plaits/dsp/physical_modelling/string_voice.cpp ****   string_.Init(allocator);
  87              		.loc 1 45 15 view .LVU12
  88 0010 1430     		adds	r0, r0, #20
  89              	.LVL2:
  90              	.LBB74:
  91              	.LBB67:
  92              	.LBB58:
 224:mi/stmlib/dsp/filter.h ****     r_ = 1.0f / resonance;
  93              		.loc 2 224 8 view .LVU13
  94 0012 40F814CC 		str	ip, [r0, #-20]	@ float
  95              	.LBE58:
  96              	.LBE67:
  97              	.LBB68:
  98              	.LBB62:
 188:mi/stmlib/dsp/filter.h ****   }
  99              		.loc 2 188 25 view .LVU14
 100 0016 2361     		str	r3, [r4, #16]	@ float
 188:mi/stmlib/dsp/filter.h ****   }
 101              		.loc 2 188 14 view .LVU15
 102 0018 E360     		str	r3, [r4, #12]	@ float
 103              	.LBE62:
 104              	.LBE68:
 105              	.LBB69:
 106              	.LBB59:
 107              		.loc 2 226 8 view .LVU16
 108 001a A260     		str	r2, [r4, #8]	@ float
 109              	.LVL3:
 110              		.loc 2 226 8 view .LVU17
 111              	.LBE59:
 112              	.LBE69:
 113              	.LBE74:
 184:mi/stmlib/dsp/filter.h ****   }
 114              		.loc 2 184 5 is_stmt 1 view .LVU18
 115              	.LBB75:
 116              	.LBB70:
 117              	.LBI60:
 187:mi/stmlib/dsp/filter.h ****     state_1_ = state_2_ = 0.0f;
ARM GAS  /var/folders/9k/zk1mgrrd7wg4__6zvxvr9w8m0000gn/T//ccUrAnV6.s 			page 8


 118              		.loc 2 187 8 view .LVU19
 119              	.LBB63:
 188:mi/stmlib/dsp/filter.h ****   }
 120              		.loc 2 188 5 view .LVU20
 188:mi/stmlib/dsp/filter.h ****   }
 121              		.loc 2 188 5 is_stmt 0 view .LVU21
 122              	.LBE63:
 123              	.LBE70:
 124              	.LBE75:
 125              		.loc 1 45 3 is_stmt 1 view .LVU22
 126              		.loc 1 45 15 is_stmt 0 view .LVU23
 127 001c FFF7FEFF 		bl	_ZN6plaits6String4InitEPN6stmlib15BufferAllocatorE
 128              	.LVL4:
  46:mi/plaits/dsp/physical_modelling/string_voice.cpp ****   remaining_noise_samples_ = 0;
 129              		.loc 1 46 3 is_stmt 1 view .LVU24
 130              		.loc 1 46 28 is_stmt 0 view .LVU25
 131 0020 0023     		movs	r3, #0
 132 0022 E365     		str	r3, [r4, #92]
  47:mi/plaits/dsp/physical_modelling/string_voice.cpp **** }
 133              		.loc 1 47 1 view .LVU26
 134 0024 10BD     		pop	{r4, pc}
 135              	.LVL5:
 136              	.L5:
 137              		.loc 1 47 1 view .LVU27
 138 0026 00BF     		.align	2
 139              	.L4:
 140 0028 0AD7233C 		.word	1008981770
 141 002c CAAA7F3F 		.word	1065331402
 142 0030 22BA003D 		.word	1023457826
 143              		.cfi_endproc
 144              	.LFE1537:
 146              		.section	.text._ZN6plaits11StringVoice5ResetEv,"ax",%progbits
 147              		.align	1
 148              		.p2align 2,,3
 149              		.global	_ZN6plaits11StringVoice5ResetEv
 150              		.syntax unified
 151              		.thumb
 152              		.thumb_func
 154              	_ZN6plaits11StringVoice5ResetEv:
 155              	.LVL6:
 156              	.LFB1538:
  48:mi/plaits/dsp/physical_modelling/string_voice.cpp **** 
  49:mi/plaits/dsp/physical_modelling/string_voice.cpp **** void StringVoice::Reset() {
 157              		.loc 1 49 27 is_stmt 1 view -0
 158              		.cfi_startproc
 159              		@ args = 0, pretend = 0, frame = 0
 160              		@ frame_needed = 0, uses_anonymous_args = 0
 161              		@ link register save eliminated.
  50:mi/plaits/dsp/physical_modelling/string_voice.cpp ****   string_.Reset();
 162              		.loc 1 50 3 view .LVU29
 163              		.loc 1 50 16 is_stmt 0 view .LVU30
 164 0000 1430     		adds	r0, r0, #20
 165              	.LVL7:
 166              		.loc 1 50 16 view .LVU31
 167 0002 FFF7FEBF 		b	_ZN6plaits6String5ResetEv
 168              	.LVL8:
 169              		.loc 1 50 16 view .LVU32
ARM GAS  /var/folders/9k/zk1mgrrd7wg4__6zvxvr9w8m0000gn/T//ccUrAnV6.s 			page 9


 170              		.cfi_endproc
 171              	.LFE1538:
 173 0006 00BF     		.section	.text._ZN6plaits11StringVoice6RenderEbbfffffPfS1_S1_j,"ax",%progbits
 174              		.align	1
 175              		.p2align 2,,3
 176              		.global	_ZN6plaits11StringVoice6RenderEbbfffffPfS1_S1_j
 177              		.syntax unified
 178              		.thumb
 179              		.thumb_func
 181              	_ZN6plaits11StringVoice6RenderEbbfffffPfS1_S1_j:
 182              	.LVL9:
 183              	.LFB1539:
  51:mi/plaits/dsp/physical_modelling/string_voice.cpp **** }
  52:mi/plaits/dsp/physical_modelling/string_voice.cpp **** 
  53:mi/plaits/dsp/physical_modelling/string_voice.cpp **** void StringVoice::Render(
  54:mi/plaits/dsp/physical_modelling/string_voice.cpp ****     bool sustain,
  55:mi/plaits/dsp/physical_modelling/string_voice.cpp ****     bool trigger,
  56:mi/plaits/dsp/physical_modelling/string_voice.cpp ****     float accent,
  57:mi/plaits/dsp/physical_modelling/string_voice.cpp ****     float f0,
  58:mi/plaits/dsp/physical_modelling/string_voice.cpp ****     float structure,
  59:mi/plaits/dsp/physical_modelling/string_voice.cpp ****     float brightness,
  60:mi/plaits/dsp/physical_modelling/string_voice.cpp ****     float damping,
  61:mi/plaits/dsp/physical_modelling/string_voice.cpp ****     float* temp,
  62:mi/plaits/dsp/physical_modelling/string_voice.cpp ****     float* out,
  63:mi/plaits/dsp/physical_modelling/string_voice.cpp ****     float* aux,
  64:mi/plaits/dsp/physical_modelling/string_voice.cpp ****     size_t size) {
 184              		.loc 1 64 18 is_stmt 1 view -0
 185              		.cfi_startproc
 186              		@ args = 12, pretend = 0, frame = 8
 187              		@ frame_needed = 0, uses_anonymous_args = 0
  65:mi/plaits/dsp/physical_modelling/string_voice.cpp ****   const float density = brightness * brightness;
 188              		.loc 1 65 3 view .LVU34
  66:mi/plaits/dsp/physical_modelling/string_voice.cpp **** 
  67:mi/plaits/dsp/physical_modelling/string_voice.cpp ****   brightness += 0.25f * accent * (1.0f - brightness);
 189              		.loc 1 67 40 is_stmt 0 view .LVU35
 190 0000 F7EE007A 		vmov.f32	s15, #1.0e+0
 191              		.loc 1 67 23 view .LVU36
 192 0004 B5EE007A 		vmov.f32	s14, #2.5e-1
  68:mi/plaits/dsp/physical_modelling/string_voice.cpp ****   damping += 0.25f * accent * (1.0f - damping);
 193              		.loc 1 68 37 view .LVU37
 194 0008 77EEC26A 		vsub.f32	s13, s15, s4
  67:mi/plaits/dsp/physical_modelling/string_voice.cpp ****   damping += 0.25f * accent * (1.0f - damping);
 195              		.loc 1 67 23 view .LVU38
 196 000c 20EE077A 		vmul.f32	s14, s0, s14
  67:mi/plaits/dsp/physical_modelling/string_voice.cpp ****   damping += 0.25f * accent * (1.0f - damping);
 197              		.loc 1 67 40 view .LVU39
 198 0010 77EEE17A 		vsub.f32	s15, s15, s3
 199              		.loc 1 68 11 view .LVU40
 200 0014 A6EE872A 		vfma.f32	s4, s13, s14
 201              	.LVL10:
  64:mi/plaits/dsp/physical_modelling/string_voice.cpp ****   const float density = brightness * brightness;
 202              		.loc 1 64 18 view .LVU41
 203 0018 2DE9F047 		push	{r4, r5, r6, r7, r8, r9, r10, lr}
 204              		.cfi_def_cfa_offset 32
 205              		.cfi_offset 4, -32
 206              		.cfi_offset 5, -28
 207              		.cfi_offset 6, -24
ARM GAS  /var/folders/9k/zk1mgrrd7wg4__6zvxvr9w8m0000gn/T//ccUrAnV6.s 			page 10


 208              		.cfi_offset 7, -20
 209              		.cfi_offset 8, -16
 210              		.cfi_offset 9, -12
 211              		.cfi_offset 10, -8
 212              		.cfi_offset 14, -4
 213 001c 2DED048B 		vpush.64	{d8, d9}
 214              		.cfi_def_cfa_offset 48
 215              		.cfi_offset 80, -48
 216              		.cfi_offset 81, -44
 217              		.cfi_offset 82, -40
 218              		.cfi_offset 83, -36
  67:mi/plaits/dsp/physical_modelling/string_voice.cpp ****   damping += 0.25f * accent * (1.0f - damping);
 219              		.loc 1 67 14 view .LVU42
 220 0020 B0EE619A 		vmov.f32	s18, s3
  64:mi/plaits/dsp/physical_modelling/string_voice.cpp ****   const float density = brightness * brightness;
 221              		.loc 1 64 18 view .LVU43
 222 0024 82B0     		sub	sp, sp, #8
 223              		.cfi_def_cfa_offset 56
  64:mi/plaits/dsp/physical_modelling/string_voice.cpp ****   const float density = brightness * brightness;
 224              		.loc 1 64 18 view .LVU44
 225 0026 1E46     		mov	r6, r3
 226              	.LVL11:
  67:mi/plaits/dsp/physical_modelling/string_voice.cpp ****   damping += 0.25f * accent * (1.0f - damping);
 227              		.loc 1 67 3 is_stmt 1 view .LVU45
 228              		.loc 1 68 11 is_stmt 0 view .LVU46
 229 0028 F0EE428A 		vmov.f32	s17, s4
  64:mi/plaits/dsp/physical_modelling/string_voice.cpp ****   const float density = brightness * brightness;
 230              		.loc 1 64 18 view .LVU47
 231 002c B0EE608A 		vmov.f32	s16, s1
 232 0030 0446     		mov	r4, r0
  67:mi/plaits/dsp/physical_modelling/string_voice.cpp ****   damping += 0.25f * accent * (1.0f - damping);
 233              		.loc 1 67 14 view .LVU48
 234 0032 A7EE279A 		vfma.f32	s18, s14, s15
 235              	.LVL12:
 236              		.loc 1 68 3 is_stmt 1 view .LVU49
  69:mi/plaits/dsp/physical_modelling/string_voice.cpp ****   
  70:mi/plaits/dsp/physical_modelling/string_voice.cpp ****   // Synthesize excitation signal.
  71:mi/plaits/dsp/physical_modelling/string_voice.cpp ****   if (trigger || sustain) {
 237              		.loc 1 71 3 view .LVU50
  64:mi/plaits/dsp/physical_modelling/string_voice.cpp ****   const float density = brightness * brightness;
 238              		.loc 1 64 18 is_stmt 0 view .LVU51
 239 0036 109B     		ldr	r3, [sp, #64]
 240              	.LVL13:
  64:mi/plaits/dsp/physical_modelling/string_voice.cpp ****   const float density = brightness * brightness;
 241              		.loc 1 64 18 view .LVU52
 242 0038 F0EE419A 		vmov.f32	s19, s2
 243 003c DDE90E75 		ldrd	r7, r5, [sp, #56]
 244              	.LBB111:
 245              		.loc 1 71 3 view .LVU53
 246 0040 002A     		cmp	r2, #0
 247 0042 40F09C80 		bne	.L39
 248 0046 0029     		cmp	r1, #0
 249 0048 40F09980 		bne	.L39
 250              	.LBE111:
  72:mi/plaits/dsp/physical_modelling/string_voice.cpp ****     const float range = 72.0f;
  73:mi/plaits/dsp/physical_modelling/string_voice.cpp ****     const float f = 4.0f * f0;
  74:mi/plaits/dsp/physical_modelling/string_voice.cpp ****     const float cutoff = min(
ARM GAS  /var/folders/9k/zk1mgrrd7wg4__6zvxvr9w8m0000gn/T//ccUrAnV6.s 			page 11


  75:mi/plaits/dsp/physical_modelling/string_voice.cpp ****         f * SemitonesToRatio((brightness * (2.0f - brightness) - 0.5f) * range),
  76:mi/plaits/dsp/physical_modelling/string_voice.cpp ****         0.499f);
  77:mi/plaits/dsp/physical_modelling/string_voice.cpp ****     const float q = sustain ? 1.0f : 0.5f;
  78:mi/plaits/dsp/physical_modelling/string_voice.cpp ****     remaining_noise_samples_ = static_cast<size_t>(1.0f / f0);
  79:mi/plaits/dsp/physical_modelling/string_voice.cpp ****     excitation_filter_.set_f_q<FREQUENCY_DIRTY>(cutoff, q);
  80:mi/plaits/dsp/physical_modelling/string_voice.cpp ****   }
  81:mi/plaits/dsp/physical_modelling/string_voice.cpp **** 
  82:mi/plaits/dsp/physical_modelling/string_voice.cpp ****   if (sustain) {
  83:mi/plaits/dsp/physical_modelling/string_voice.cpp ****     const float dust_f = 0.00005f + 0.99995f * density * density;
  84:mi/plaits/dsp/physical_modelling/string_voice.cpp ****     for (size_t i = 0; i < size; ++i) {
  85:mi/plaits/dsp/physical_modelling/string_voice.cpp ****       temp[i] = Dust(dust_f) * (8.0f - dust_f * 6.0f) * accent;
  86:mi/plaits/dsp/physical_modelling/string_voice.cpp ****     }
  87:mi/plaits/dsp/physical_modelling/string_voice.cpp ****   } else if (remaining_noise_samples_) {
 251              		.loc 1 87 10 is_stmt 1 view .LVU54
 252              	.LBB160:
 253              		.loc 1 87 14 is_stmt 0 view .LVU55
 254 004c E16D     		ldr	r1, [r4, #92]
 255              	.LVL14:
 256              		.loc 1 87 10 view .LVU56
 257 004e 0029     		cmp	r1, #0
 258 0050 00F0F380 		beq	.L16
 259              	.LVL15:
 260              	.L65:
 261              	.LBB161:
  88:mi/plaits/dsp/physical_modelling/string_voice.cpp ****     size_t noise_samples = min(remaining_noise_samples_, size);
 262              		.loc 1 88 5 is_stmt 1 view .LVU57
 263              		.loc 1 88 5 is_stmt 0 view .LVU58
 264 0054 9942     		cmp	r1, r3
 265 0056 8946     		mov	r9, r1
 266 0058 28BF     		it	cs
 267 005a 9946     		movcs	r9, r3
 268              	.LVL16:
  89:mi/plaits/dsp/physical_modelling/string_voice.cpp ****     remaining_noise_samples_ -= noise_samples;
 269              		.loc 1 89 5 is_stmt 1 view .LVU59
 270              		.loc 1 89 30 is_stmt 0 view .LVU60
 271 005c A1EB0901 		sub	r1, r1, r9
  90:mi/plaits/dsp/physical_modelling/string_voice.cpp ****     size_t tail = size - noise_samples;
 272              		.loc 1 90 12 view .LVU61
 273 0060 A3EB090A 		sub	r10, r3, r9
  91:mi/plaits/dsp/physical_modelling/string_voice.cpp ****     float* start = temp;
  92:mi/plaits/dsp/physical_modelling/string_voice.cpp ****     while (noise_samples--) {
 274              		.loc 1 92 25 view .LVU62
 275 0064 09F1FF3C 		add	ip, r9, #-1
  89:mi/plaits/dsp/physical_modelling/string_voice.cpp ****     size_t tail = size - noise_samples;
 276              		.loc 1 89 30 view .LVU63
 277 0068 E165     		str	r1, [r4, #92]
  90:mi/plaits/dsp/physical_modelling/string_voice.cpp ****     size_t tail = size - noise_samples;
 278              		.loc 1 90 5 is_stmt 1 view .LVU64
 279              	.LVL17:
  91:mi/plaits/dsp/physical_modelling/string_voice.cpp ****     float* start = temp;
 280              		.loc 1 91 5 view .LVU65
 281              		.loc 1 92 5 view .LVU66
 282              		.loc 1 92 25 view .LVU67
 283              		.loc 1 92 25 is_stmt 0 view .LVU68
 284 006a B9F1000F 		cmp	r9, #0
 285 006e 00F06E81 		beq	.L64
 286 0072 DFF83083 		ldr	r8, .L67+76
ARM GAS  /var/folders/9k/zk1mgrrd7wg4__6zvxvr9w8m0000gn/T//ccUrAnV6.s 			page 12


 287 0076 B646     		mov	lr, r6
 288 0078 D8F80010 		ldr	r1, [r8]
 289              	.LVL18:
 290              	.L21:
  93:mi/plaits/dsp/physical_modelling/string_voice.cpp ****       *start++ = 2.0f * Random::GetFloat() - 1.0f;
 291              		.loc 1 93 7 is_stmt 1 view .LVU69
 292              	.LBB162:
 293              	.LBI162:
 294              		.file 3 "mi/stmlib/utils/random.h"
   1:mi/stmlib/utils/random.h **** // Copyright 2012 Emilie Gillet.
   2:mi/stmlib/utils/random.h **** //
   3:mi/stmlib/utils/random.h **** // Author: Emilie Gillet (emilie.o.gillet@gmail.com)
   4:mi/stmlib/utils/random.h **** //
   5:mi/stmlib/utils/random.h **** // Permission is hereby granted, free of charge, to any person obtaining a copy
   6:mi/stmlib/utils/random.h **** // of this software and associated documentation files (the "Software"), to deal
   7:mi/stmlib/utils/random.h **** // in the Software without restriction, including without limitation the rights
   8:mi/stmlib/utils/random.h **** // to use, copy, modify, merge, publish, distribute, sublicense, and/or sell
   9:mi/stmlib/utils/random.h **** // copies of the Software, and to permit persons to whom the Software is
  10:mi/stmlib/utils/random.h **** // furnished to do so, subject to the following conditions:
  11:mi/stmlib/utils/random.h **** // 
  12:mi/stmlib/utils/random.h **** // The above copyright notice and this permission notice shall be included in
  13:mi/stmlib/utils/random.h **** // all copies or substantial portions of the Software.
  14:mi/stmlib/utils/random.h **** // 
  15:mi/stmlib/utils/random.h **** // THE SOFTWARE IS PROVIDED "AS IS", WITHOUT WARRANTY OF ANY KIND, EXPRESS OR
  16:mi/stmlib/utils/random.h **** // IMPLIED, INCLUDING BUT NOT LIMITED TO THE WARRANTIES OF MERCHANTABILITY,
  17:mi/stmlib/utils/random.h **** // FITNESS FOR A PARTICULAR PURPOSE AND NONINFRINGEMENT. IN NO EVENT SHALL THE
  18:mi/stmlib/utils/random.h **** // AUTHORS OR COPYRIGHT HOLDERS BE LIABLE FOR ANY CLAIM, DAMAGES OR OTHER
  19:mi/stmlib/utils/random.h **** // LIABILITY, WHETHER IN AN ACTION OF CONTRACT, TORT OR OTHERWISE, ARISING FROM,
  20:mi/stmlib/utils/random.h **** // OUT OF OR IN CONNECTION WITH THE SOFTWARE OR THE USE OR OTHER DEALINGS IN
  21:mi/stmlib/utils/random.h **** // THE SOFTWARE.
  22:mi/stmlib/utils/random.h **** // 
  23:mi/stmlib/utils/random.h **** // See http://creativecommons.org/licenses/MIT/ for more information.
  24:mi/stmlib/utils/random.h **** //
  25:mi/stmlib/utils/random.h **** // -----------------------------------------------------------------------------
  26:mi/stmlib/utils/random.h **** //
  27:mi/stmlib/utils/random.h **** // Fast 16-bit pseudo random number generator.
  28:mi/stmlib/utils/random.h **** 
  29:mi/stmlib/utils/random.h **** #ifndef STMLIB_UTILS_RANDOM_H_
  30:mi/stmlib/utils/random.h **** #define STMLIB_UTILS_RANDOM_H_
  31:mi/stmlib/utils/random.h **** 
  32:mi/stmlib/utils/random.h **** #include "stmlib/stmlib.h"
  33:mi/stmlib/utils/random.h **** 
  34:mi/stmlib/utils/random.h **** namespace stmlib {
  35:mi/stmlib/utils/random.h **** 
  36:mi/stmlib/utils/random.h **** class Random {
  37:mi/stmlib/utils/random.h ****  public:
  38:mi/stmlib/utils/random.h ****   static inline uint32_t state() { return rng_state_; }
  39:mi/stmlib/utils/random.h **** 
  40:mi/stmlib/utils/random.h ****   static inline void Seed(uint32_t seed) {
  41:mi/stmlib/utils/random.h ****     rng_state_ = seed;
  42:mi/stmlib/utils/random.h ****   }
  43:mi/stmlib/utils/random.h **** 
  44:mi/stmlib/utils/random.h ****   static inline uint32_t GetWord() {
  45:mi/stmlib/utils/random.h ****     rng_state_ = rng_state_ * 1664525L + 1013904223L;
  46:mi/stmlib/utils/random.h ****     return state();
  47:mi/stmlib/utils/random.h ****   }
  48:mi/stmlib/utils/random.h ****   
ARM GAS  /var/folders/9k/zk1mgrrd7wg4__6zvxvr9w8m0000gn/T//ccUrAnV6.s 			page 13


  49:mi/stmlib/utils/random.h ****   static inline int16_t GetSample() {
  50:mi/stmlib/utils/random.h ****     return static_cast<int16_t>(GetWord() >> 16);
  51:mi/stmlib/utils/random.h ****   }
  52:mi/stmlib/utils/random.h **** 
  53:mi/stmlib/utils/random.h ****   static inline float GetFloat() {
 295              		.loc 3 53 23 view .LVU70
 296              	.LBB163:
  54:mi/stmlib/utils/random.h ****     return static_cast<float>(GetWord()) / 4294967296.0f;
 297              		.loc 3 54 5 view .LVU71
 298              	.LBB164:
 299              	.LBI164:
  44:mi/stmlib/utils/random.h ****     rng_state_ = rng_state_ * 1664525L + 1013904223L;
 300              		.loc 3 44 26 view .LVU72
 301              	.LBB165:
  45:mi/stmlib/utils/random.h ****     return state();
 302              		.loc 3 45 5 view .LVU73
  45:mi/stmlib/utils/random.h ****     return state();
 303              		.loc 3 45 29 is_stmt 0 view .LVU74
 304 007c B64A     		ldr	r2, .L67
 305              	.LBE165:
 306              	.LBE164:
 307              	.LBE163:
 308              	.LBE162:
 309              		.loc 1 93 44 view .LVU75
 310 007e F0EE006A 		vmov.f32	s13, #2.0e+0
 311              	.LBB174:
 312              	.LBB170:
 313              	.LBB168:
 314              	.LBB166:
  45:mi/stmlib/utils/random.h ****     return state();
 315              		.loc 3 45 40 view .LVU76
 316 0082 B648     		ldr	r0, .L67+4
 317              	.LBE166:
 318              	.LBE168:
 319              	.LBE170:
 320              	.LBE174:
 321              		.loc 1 93 44 view .LVU77
 322 0084 FFEE007A 		vmov.f32	s15, #-1.0e+0
 323              	.LBB175:
 324              	.LBB171:
 325              		.loc 3 54 44 view .LVU78
 326 0088 9FEDB56A 		vldr.32	s12, .L67+8
 327              	.LBE171:
 328              	.LBE175:
  92:mi/plaits/dsp/physical_modelling/string_voice.cpp ****       *start++ = 2.0f * Random::GetFloat() - 1.0f;
 329              		.loc 1 92 25 view .LVU79
 330 008c 0CF1FF3C 		add	ip, ip, #-1
 331              	.LVL19:
 332              	.LBB176:
 333              	.LBB172:
 334              	.LBB169:
 335              	.LBB167:
  45:mi/stmlib/utils/random.h ****     return state();
 336              		.loc 3 45 40 view .LVU80
 337 0090 02FB0101 		mla	r1, r2, r1, r0
  46:mi/stmlib/utils/random.h ****   }
 338              		.loc 3 46 5 is_stmt 1 view .LVU81
ARM GAS  /var/folders/9k/zk1mgrrd7wg4__6zvxvr9w8m0000gn/T//ccUrAnV6.s 			page 14


 339              	.LBE167:
 340              	.LBE169:
 341              	.LBE172:
 342              	.LBE176:
 343              	.LBE161:
 344              	.LBE160:
  38:mi/stmlib/utils/random.h **** 
 345              		.loc 3 38 36 view .LVU82
 346              	.LVL20:
 347              	.LBB185:
 348              	.LBB178:
  92:mi/plaits/dsp/physical_modelling/string_voice.cpp ****       *start++ = 2.0f * Random::GetFloat() - 1.0f;
 349              		.loc 1 92 25 is_stmt 0 view .LVU83
 350 0094 BCF1FF3F 		cmp	ip, #-1
 351              	.LBB177:
 352              	.LBB173:
 353              		.loc 3 54 12 view .LVU84
 354 0098 07EE101A 		vmov	s14, r1	@ int
 355 009c B8EE477A 		vcvt.f32.u32	s14, s14
 356              		.loc 3 54 44 view .LVU85
 357 00a0 27EE067A 		vmul.f32	s14, s14, s12
 358              	.LBE173:
 359              	.LBE177:
 360              		.loc 1 93 44 view .LVU86
 361 00a4 E7EE267A 		vfma.f32	s15, s14, s13
 362              		.loc 1 93 16 view .LVU87
 363 00a8 EEEC017A 		vstmia.32	lr!, {s15}
 364              	.LVL21:
  92:mi/plaits/dsp/physical_modelling/string_voice.cpp ****       *start++ = 2.0f * Random::GetFloat() - 1.0f;
 365              		.loc 1 92 5 is_stmt 1 view .LVU88
  92:mi/plaits/dsp/physical_modelling/string_voice.cpp ****       *start++ = 2.0f * Random::GetFloat() - 1.0f;
 366              		.loc 1 92 25 view .LVU89
  92:mi/plaits/dsp/physical_modelling/string_voice.cpp ****       *start++ = 2.0f * Random::GetFloat() - 1.0f;
 367              		.loc 1 92 25 is_stmt 0 view .LVU90
 368 00ac E6D1     		bne	.L21
 369              		.loc 1 93 13 view .LVU91
 370 00ae 06EB8900 		add	r0, r6, r9, lsl #2
 371              	.LVL22:
  94:mi/plaits/dsp/physical_modelling/string_voice.cpp ****     }
  95:mi/plaits/dsp/physical_modelling/string_voice.cpp ****     while (tail--) {
 372              		.loc 1 95 5 is_stmt 1 view .LVU92
 373              		.loc 1 95 16 view .LVU93
 374              		.loc 1 95 16 is_stmt 0 view .LVU94
 375 00b2 C8F80010 		str	r1, [r8]
 376 00b6 BAF1000F 		cmp	r10, #0
 377 00ba 00F0C580 		beq	.L22
 378              	.LVL23:
 379              	.L31:
  96:mi/plaits/dsp/physical_modelling/string_voice.cpp ****       *start++ = 0.0f;
 380              		.loc 1 96 16 view .LVU95
 381 00be 4FEA8A02 		lsl	r2, r10, #2
 382 00c2 0021     		movs	r1, #0
 383 00c4 0193     		str	r3, [sp, #4]
 384 00c6 FFF7FEFF 		bl	memset
 385              	.LVL24:
 386              		.loc 1 96 16 view .LVU96
 387 00ca 019B     		ldr	r3, [sp, #4]
ARM GAS  /var/folders/9k/zk1mgrrd7wg4__6zvxvr9w8m0000gn/T//ccUrAnV6.s 			page 15


 388              		.loc 1 96 16 view .LVU97
 389              	.LBE178:
 390              	.LBE185:
  97:mi/plaits/dsp/physical_modelling/string_voice.cpp ****     }
  98:mi/plaits/dsp/physical_modelling/string_voice.cpp ****   } else {
  99:mi/plaits/dsp/physical_modelling/string_voice.cpp ****     fill(&temp[0], &temp[size], 0.0f);
 100:mi/plaits/dsp/physical_modelling/string_voice.cpp ****   }
 101:mi/plaits/dsp/physical_modelling/string_voice.cpp ****   
 102:mi/plaits/dsp/physical_modelling/string_voice.cpp ****   excitation_filter_.Process<FILTER_MODE_LOW_PASS>(temp, temp, size);
 391              		.loc 1 102 3 is_stmt 1 view .LVU98
 392              	.LVL25:
 393              	.LBB186:
 394              	.LBI186:
 227:mi/stmlib/dsp/filter.h ****   }
 228:mi/stmlib/dsp/filter.h ****   
 229:mi/stmlib/dsp/filter.h ****   template<FilterMode mode>
 230:mi/stmlib/dsp/filter.h ****   inline float Process(float in) {
 231:mi/stmlib/dsp/filter.h ****     float hp, bp, lp;
 232:mi/stmlib/dsp/filter.h ****     hp = (in - r_ * state_1_ - g_ * state_1_ - state_2_) * h_;
 233:mi/stmlib/dsp/filter.h ****     bp = g_ * hp + state_1_;
 234:mi/stmlib/dsp/filter.h ****     state_1_ = g_ * hp + bp;
 235:mi/stmlib/dsp/filter.h ****     lp = g_ * bp + state_2_;
 236:mi/stmlib/dsp/filter.h ****     state_2_ = g_ * bp + lp;
 237:mi/stmlib/dsp/filter.h ****     
 238:mi/stmlib/dsp/filter.h ****     if (mode == FILTER_MODE_LOW_PASS) {
 239:mi/stmlib/dsp/filter.h ****       return lp;
 240:mi/stmlib/dsp/filter.h ****     } else if (mode == FILTER_MODE_BAND_PASS) {
 241:mi/stmlib/dsp/filter.h ****       return bp;
 242:mi/stmlib/dsp/filter.h ****     } else if (mode == FILTER_MODE_BAND_PASS_NORMALIZED) {
 243:mi/stmlib/dsp/filter.h ****       return bp * r_;
 244:mi/stmlib/dsp/filter.h ****     } else if (mode == FILTER_MODE_HIGH_PASS) {
 245:mi/stmlib/dsp/filter.h ****       return hp;
 246:mi/stmlib/dsp/filter.h ****     }
 247:mi/stmlib/dsp/filter.h ****   }
 248:mi/stmlib/dsp/filter.h ****   
 249:mi/stmlib/dsp/filter.h ****   template<FilterMode mode_1, FilterMode mode_2>
 250:mi/stmlib/dsp/filter.h ****   inline void Process(float in, float* out_1, float* out_2) {
 251:mi/stmlib/dsp/filter.h ****     float hp, bp, lp;
 252:mi/stmlib/dsp/filter.h ****     hp = (in - r_ * state_1_ - g_ * state_1_ - state_2_) * h_;
 253:mi/stmlib/dsp/filter.h ****     bp = g_ * hp + state_1_;
 254:mi/stmlib/dsp/filter.h ****     state_1_ = g_ * hp + bp;
 255:mi/stmlib/dsp/filter.h ****     lp = g_ * bp + state_2_;
 256:mi/stmlib/dsp/filter.h ****     state_2_ = g_ * bp + lp;
 257:mi/stmlib/dsp/filter.h ****     
 258:mi/stmlib/dsp/filter.h ****     if (mode_1 == FILTER_MODE_LOW_PASS) {
 259:mi/stmlib/dsp/filter.h ****       *out_1 = lp;
 260:mi/stmlib/dsp/filter.h ****     } else if (mode_1 == FILTER_MODE_BAND_PASS) {
 261:mi/stmlib/dsp/filter.h ****       *out_1 = bp;
 262:mi/stmlib/dsp/filter.h ****     } else if (mode_1 == FILTER_MODE_BAND_PASS_NORMALIZED) {
 263:mi/stmlib/dsp/filter.h ****       *out_1 = bp * r_;
 264:mi/stmlib/dsp/filter.h ****     } else if (mode_1 == FILTER_MODE_HIGH_PASS) {
 265:mi/stmlib/dsp/filter.h ****       *out_1 = hp;
 266:mi/stmlib/dsp/filter.h ****     }
 267:mi/stmlib/dsp/filter.h **** 
 268:mi/stmlib/dsp/filter.h ****     if (mode_2 == FILTER_MODE_LOW_PASS) {
 269:mi/stmlib/dsp/filter.h ****       *out_2 = lp;
 270:mi/stmlib/dsp/filter.h ****     } else if (mode_2 == FILTER_MODE_BAND_PASS) {
ARM GAS  /var/folders/9k/zk1mgrrd7wg4__6zvxvr9w8m0000gn/T//ccUrAnV6.s 			page 16


 271:mi/stmlib/dsp/filter.h ****       *out_2 = bp;
 272:mi/stmlib/dsp/filter.h ****     } else if (mode_2 == FILTER_MODE_BAND_PASS_NORMALIZED) {
 273:mi/stmlib/dsp/filter.h ****       *out_2 = bp * r_;
 274:mi/stmlib/dsp/filter.h ****     } else if (mode_2 == FILTER_MODE_HIGH_PASS) {
 275:mi/stmlib/dsp/filter.h ****       *out_2 = hp;
 276:mi/stmlib/dsp/filter.h ****     }
 277:mi/stmlib/dsp/filter.h ****   }
 278:mi/stmlib/dsp/filter.h ****   
 279:mi/stmlib/dsp/filter.h ****   template<FilterMode mode>
 280:mi/stmlib/dsp/filter.h ****   inline void Process(const float* in, float* out, size_t size) {
 395              		.loc 2 280 15 view .LVU99
 396              	.LBB187:
 281:mi/stmlib/dsp/filter.h ****     float hp, bp, lp;
 282:mi/stmlib/dsp/filter.h ****     float state_1 = state_1_;
 397              		.loc 2 282 11 is_stmt 0 view .LVU100
 398 00cc 94ED036A 		vldr.32	s12, [r4, #12]
 399              	.LVL26:
 283:mi/stmlib/dsp/filter.h ****     float state_2 = state_2_;
 400              		.loc 2 283 11 view .LVU101
 401 00d0 94ED047A 		vldr.32	s14, [r4, #16]
 402              	.LVL27:
 284:mi/stmlib/dsp/filter.h ****     
 285:mi/stmlib/dsp/filter.h ****     while (size--) {
 403              		.loc 2 285 5 is_stmt 1 view .LVU102
 404 00d4 5A1E     		subs	r2, r3, #1
 405              	.LVL28:
 406              		.loc 2 285 5 is_stmt 0 view .LVU103
 407 00d6 002B     		cmp	r3, #0
 408 00d8 00F0BE80 		beq	.L20
 409              	.L19:
 410              		.loc 2 285 5 view .LVU104
 411              	.LBE187:
 412              	.LBE186:
 413              	.LBB197:
 414              	.LBB179:
  91:mi/plaits/dsp/physical_modelling/string_voice.cpp ****     while (noise_samples--) {
 415              		.loc 1 91 12 view .LVU105
 416 00dc 3046     		mov	r0, r6
 417              	.LVL29:
 418              	.L23:
  91:mi/plaits/dsp/physical_modelling/string_voice.cpp ****     while (noise_samples--) {
 419              		.loc 1 91 12 view .LVU106
 420              	.LBE179:
 421              	.LBE197:
 422              	.LBB198:
 423              	.LBB191:
 424              	.LBB188:
 286:mi/stmlib/dsp/filter.h ****       hp = (*in - r_ * state_1 - g_ * state_1 - state_2) * h_;
 425              		.loc 2 286 17 view .LVU107
 426 00de 94ED015A 		vldr.32	s10, [r4, #4]
 427              	.LBE188:
 285:mi/stmlib/dsp/filter.h ****       hp = (*in - r_ * state_1 - g_ * state_1 - state_2) * h_;
 428              		.loc 2 285 5 view .LVU108
 429 00e2 013A     		subs	r2, r2, #1
 430              	.LVL30:
 431              	.LBB189:
 432              		.loc 2 286 17 view .LVU109
ARM GAS  /var/folders/9k/zk1mgrrd7wg4__6zvxvr9w8m0000gn/T//ccUrAnV6.s 			page 17


 433 00e4 D0ED007A 		vldr.32	s15, [r0]
 434              		.loc 2 286 34 view .LVU110
 435 00e8 D4ED006A 		vldr.32	s13, [r4]
 436              	.LBE189:
 285:mi/stmlib/dsp/filter.h ****       hp = (*in - r_ * state_1 - g_ * state_1 - state_2) * h_;
 437              		.loc 2 285 5 view .LVU111
 438 00ec 511C     		adds	r1, r2, #1
 439              	.LBB190:
 440              		.loc 2 286 17 view .LVU112
 441 00ee E5EE467A 		vfms.f32	s15, s10, s12
 442              		.loc 2 286 10 view .LVU113
 443 00f2 D4ED025A 		vldr.32	s11, [r4, #8]
 444              		.loc 2 286 32 view .LVU114
 445 00f6 E6EEC67A 		vfms.f32	s15, s13, s12
 446              		.loc 2 286 47 view .LVU115
 447 00fa 77EEC77A 		vsub.f32	s15, s15, s14
 448              		.loc 2 286 10 view .LVU116
 449 00fe 67EEA57A 		vmul.f32	s15, s15, s11
 450              	.LVL31:
 287:mi/stmlib/dsp/filter.h ****       bp = g_ * hp + state_1;
 451              		.loc 2 287 10 view .LVU117
 452 0102 A6EEA76A 		vfma.f32	s12, s13, s15
 453              	.LVL32:
 288:mi/stmlib/dsp/filter.h ****       state_1 = g_ * hp + bp;
 289:mi/stmlib/dsp/filter.h ****       lp = g_ * bp + state_2;
 454              		.loc 2 289 10 view .LVU118
 455 0106 A6EE867A 		vfma.f32	s14, s13, s12
 456              	.LVL33:
 287:mi/stmlib/dsp/filter.h ****       bp = g_ * hp + state_1;
 457              		.loc 2 287 10 view .LVU119
 458 010a F0EE465A 		vmov.f32	s11, s12
 459              	.LVL34:
 288:mi/stmlib/dsp/filter.h ****       state_1 = g_ * hp + bp;
 460              		.loc 2 288 15 view .LVU120
 461 010e A6EEA76A 		vfma.f32	s12, s13, s15
 462              	.LVL35:
 290:mi/stmlib/dsp/filter.h ****       state_2 = g_ * bp + lp;
 291:mi/stmlib/dsp/filter.h ****     
 292:mi/stmlib/dsp/filter.h ****       float value;
 293:mi/stmlib/dsp/filter.h ****       if (mode == FILTER_MODE_LOW_PASS) {
 294:mi/stmlib/dsp/filter.h ****         value = lp;
 295:mi/stmlib/dsp/filter.h ****       } else if (mode == FILTER_MODE_BAND_PASS) {
 296:mi/stmlib/dsp/filter.h ****         value = bp;
 297:mi/stmlib/dsp/filter.h ****       } else if (mode == FILTER_MODE_BAND_PASS_NORMALIZED) {
 298:mi/stmlib/dsp/filter.h ****         value = bp * r_;
 299:mi/stmlib/dsp/filter.h ****       } else if (mode == FILTER_MODE_HIGH_PASS) {
 300:mi/stmlib/dsp/filter.h ****         value = hp;
 301:mi/stmlib/dsp/filter.h ****       }
 302:mi/stmlib/dsp/filter.h ****       
 303:mi/stmlib/dsp/filter.h ****       *out = value;
 463              		.loc 2 303 12 view .LVU121
 464 0112 A0EC017A 		vstmia.32	r0!, {s14}
 465              	.LVL36:
 290:mi/stmlib/dsp/filter.h ****       state_2 = g_ * bp + lp;
 466              		.loc 2 290 15 view .LVU122
 467 0116 A6EEA57A 		vfma.f32	s14, s13, s11
 468              	.LVL37:
ARM GAS  /var/folders/9k/zk1mgrrd7wg4__6zvxvr9w8m0000gn/T//ccUrAnV6.s 			page 18


 290:mi/stmlib/dsp/filter.h ****       state_2 = g_ * bp + lp;
 469              		.loc 2 290 15 view .LVU123
 470              	.LBE190:
 285:mi/stmlib/dsp/filter.h ****       hp = (*in - r_ * state_1 - g_ * state_1 - state_2) * h_;
 471              		.loc 2 285 5 is_stmt 1 view .LVU124
 285:mi/stmlib/dsp/filter.h ****       hp = (*in - r_ * state_1 - g_ * state_1 - state_2) * h_;
 472              		.loc 2 285 5 is_stmt 0 view .LVU125
 473 011a E0D1     		bne	.L23
 474 011c 2846     		mov	r0, r5
 475              	.LVL38:
 285:mi/stmlib/dsp/filter.h ****       hp = (*in - r_ * state_1 - g_ * state_1 - state_2) * h_;
 476              		.loc 2 285 5 view .LVU126
 477 011e 3146     		mov	r1, r6
 304:mi/stmlib/dsp/filter.h ****       ++out;
 305:mi/stmlib/dsp/filter.h ****       ++in;
 306:mi/stmlib/dsp/filter.h ****     }
 307:mi/stmlib/dsp/filter.h ****     state_1_ = state_1;
 308:mi/stmlib/dsp/filter.h ****     state_2_ = state_2;
 478              		.loc 2 308 14 view .LVU127
 479 0120 0022     		movs	r2, #0
 480              	.LVL39:
 307:mi/stmlib/dsp/filter.h ****     state_2_ = state_2;
 481              		.loc 2 307 14 view .LVU128
 482 0122 84ED036A 		vstr.32	s12, [r4, #12]
 483              		.loc 2 308 14 view .LVU129
 484 0126 84ED047A 		vstr.32	s14, [r4, #16]
 485              	.LVL40:
 486              		.loc 2 308 14 view .LVU130
 487              	.LBE191:
 488              	.LBE198:
 489              	.LBB199:
 103:mi/plaits/dsp/physical_modelling/string_voice.cpp ****   for (size_t i = 0; i < size; ++i) {
 490              		.loc 1 103 24 is_stmt 1 view .LVU131
 491              	.L25:
 104:mi/plaits/dsp/physical_modelling/string_voice.cpp ****     aux[i] += temp[i];
 492              		.loc 1 104 5 discriminator 2 view .LVU132
 493              		.loc 1 104 12 is_stmt 0 discriminator 2 view .LVU133
 494 012a D0ED007A 		vldr.32	s15, [r0]
 103:mi/plaits/dsp/physical_modelling/string_voice.cpp ****   for (size_t i = 0; i < size; ++i) {
 495              		.loc 1 103 3 discriminator 2 view .LVU134
 496 012e 0132     		adds	r2, r2, #1
 497              	.LVL41:
 498              		.loc 1 104 21 discriminator 2 view .LVU135
 499 0130 B1EC017A 		vldmia.32	r1!, {s14}
 103:mi/plaits/dsp/physical_modelling/string_voice.cpp ****   for (size_t i = 0; i < size; ++i) {
 500              		.loc 1 103 24 discriminator 2 view .LVU136
 501 0134 9342     		cmp	r3, r2
 502              		.loc 1 104 12 discriminator 2 view .LVU137
 503 0136 77EE877A 		vadd.f32	s15, s15, s14
 504 013a E0EC017A 		vstmia.32	r0!, {s15}
 103:mi/plaits/dsp/physical_modelling/string_voice.cpp ****   for (size_t i = 0; i < size; ++i) {
 505              		.loc 1 103 3 is_stmt 1 discriminator 2 view .LVU138
 506              	.LVL42:
 103:mi/plaits/dsp/physical_modelling/string_voice.cpp ****   for (size_t i = 0; i < size; ++i) {
 507              		.loc 1 103 24 discriminator 2 view .LVU139
 508 013e F4D8     		bhi	.L25
 509              	.LBE199:
ARM GAS  /var/folders/9k/zk1mgrrd7wg4__6zvxvr9w8m0000gn/T//ccUrAnV6.s 			page 19


 105:mi/plaits/dsp/physical_modelling/string_voice.cpp ****   }
 106:mi/plaits/dsp/physical_modelling/string_voice.cpp ****   
 107:mi/plaits/dsp/physical_modelling/string_voice.cpp ****   float non_linearity = structure < 0.24f
 510              		.loc 1 107 3 view .LVU140
 108:mi/plaits/dsp/physical_modelling/string_voice.cpp ****       ? (structure - 0.24f) * 4.166f
 511              		.loc 1 108 7 is_stmt 0 view .LVU141
 512 0140 DFED887A 		vldr.32	s15, .L67+12
 513 0144 F4EEE79A 		vcmpe.f32	s19, s15
 514 0148 F1EE10FA 		vmrs	APSR_nzcv, FPSCR
 515 014c 40F19080 		bpl	.L59
 516              	.LVL43:
 517              	.L66:
 518              		.loc 1 108 20 discriminator 1 view .LVU142
 519 0150 79EEE79A 		vsub.f32	s19, s19, s15
 520              	.LVL44:
 521              		.loc 1 108 7 discriminator 1 view .LVU143
 522 0154 DFED840A 		vldr.32	s1, .L67+16
 523 0158 69EEA00A 		vmul.f32	s1, s19, s1
 524              	.L28:
 525              	.LVL45:
 109:mi/plaits/dsp/physical_modelling/string_voice.cpp ****       : (structure > 0.26f ? (structure - 0.26f) * 1.35135f : 0.0f);
 110:mi/plaits/dsp/physical_modelling/string_voice.cpp ****   string_.Process(f0, non_linearity, brightness, damping, temp, out, size);
 526              		.loc 1 110 3 is_stmt 1 view .LVU144
 527              		.loc 1 110 18 is_stmt 0 view .LVU145
 528 015c F0EE681A 		vmov.f32	s3, s17
 529 0160 3A46     		mov	r2, r7
 530 0162 B0EE491A 		vmov.f32	s2, s18
 531 0166 3146     		mov	r1, r6
 532 0168 B0EE480A 		vmov.f32	s0, s16
 533 016c 04F11400 		add	r0, r4, #20
 111:mi/plaits/dsp/physical_modelling/string_voice.cpp **** }
 534              		.loc 1 111 1 view .LVU146
 535 0170 02B0     		add	sp, sp, #8
 536              		.cfi_remember_state
 537              		.cfi_def_cfa_offset 48
 538              		@ sp needed
 539 0172 BDEC048B 		vldm	sp!, {d8-d9}
 540              		.cfi_restore 82
 541              		.cfi_restore 83
 542              		.cfi_restore 80
 543              		.cfi_restore 81
 544              		.cfi_def_cfa_offset 32
 545              	.LVL46:
 546              		.loc 1 111 1 view .LVU147
 547 0176 BDE8F047 		pop	{r4, r5, r6, r7, r8, r9, r10, lr}
 548              		.cfi_restore 14
 549              		.cfi_restore 10
 550              		.cfi_restore 9
 551              		.cfi_restore 8
 552              		.cfi_restore 7
 553              		.cfi_restore 6
 554              		.cfi_restore 5
 555              		.cfi_restore 4
 556              		.cfi_def_cfa_offset 0
 557              	.LVL47:
 110:mi/plaits/dsp/physical_modelling/string_voice.cpp **** }
 558              		.loc 1 110 18 view .LVU148
ARM GAS  /var/folders/9k/zk1mgrrd7wg4__6zvxvr9w8m0000gn/T//ccUrAnV6.s 			page 20


 559 017a FFF7FEBF 		b	_ZN6plaits6String7ProcessEffffPKfPfj
 560              	.LVL48:
 561              	.L39:
 562              		.cfi_restore_state
 563              	.LBB200:
 564              	.LBB112:
  72:mi/plaits/dsp/physical_modelling/string_voice.cpp ****     const float f = 4.0f * f0;
 565              		.loc 1 72 5 is_stmt 1 view .LVU149
  73:mi/plaits/dsp/physical_modelling/string_voice.cpp ****     const float cutoff = min(
 566              		.loc 1 73 5 view .LVU150
  74:mi/plaits/dsp/physical_modelling/string_voice.cpp ****         f * SemitonesToRatio((brightness * (2.0f - brightness) - 0.5f) * range),
 567              		.loc 1 74 5 view .LVU151
  75:mi/plaits/dsp/physical_modelling/string_voice.cpp ****         0.499f);
 568              		.loc 1 75 50 is_stmt 0 view .LVU152
 569 017e B0EE006A 		vmov.f32	s12, #2.0e+0
 570              	.LBB113:
 571              	.LBB114:
 572              		.file 4 "mi/stmlib/dsp/units.h"
   1:mi/stmlib/dsp/units.h **** // Copyright 2014 Emilie Gillet.
   2:mi/stmlib/dsp/units.h **** //
   3:mi/stmlib/dsp/units.h **** // Author: Emilie Gillet (emilie.o.gillet@gmail.com)
   4:mi/stmlib/dsp/units.h **** //
   5:mi/stmlib/dsp/units.h **** // Permission is hereby granted, free of charge, to any person obtaining a copy
   6:mi/stmlib/dsp/units.h **** // of this software and associated documentation files (the "Software"), to deal
   7:mi/stmlib/dsp/units.h **** // in the Software without restriction, including without limitation the rights
   8:mi/stmlib/dsp/units.h **** // to use, copy, modify, merge, publish, distribute, sublicense, and/or sell
   9:mi/stmlib/dsp/units.h **** // copies of the Software, and to permit persons to whom the Software is
  10:mi/stmlib/dsp/units.h **** // furnished to do so, subject to the following conditions:
  11:mi/stmlib/dsp/units.h **** // 
  12:mi/stmlib/dsp/units.h **** // The above copyright notice and this permission notice shall be included in
  13:mi/stmlib/dsp/units.h **** // all copies or substantial portions of the Software.
  14:mi/stmlib/dsp/units.h **** // 
  15:mi/stmlib/dsp/units.h **** // THE SOFTWARE IS PROVIDED "AS IS", WITHOUT WARRANTY OF ANY KIND, EXPRESS OR
  16:mi/stmlib/dsp/units.h **** // IMPLIED, INCLUDING BUT NOT LIMITED TO THE WARRANTIES OF MERCHANTABILITY,
  17:mi/stmlib/dsp/units.h **** // FITNESS FOR A PARTICULAR PURPOSE AND NONINFRINGEMENT. IN NO EVENT SHALL THE
  18:mi/stmlib/dsp/units.h **** // AUTHORS OR COPYRIGHT HOLDERS BE LIABLE FOR ANY CLAIM, DAMAGES OR OTHER
  19:mi/stmlib/dsp/units.h **** // LIABILITY, WHETHER IN AN ACTION OF CONTRACT, TORT OR OTHERWISE, ARISING FROM,
  20:mi/stmlib/dsp/units.h **** // OUT OF OR IN CONNECTION WITH THE SOFTWARE OR THE USE OR OTHER DEALINGS IN
  21:mi/stmlib/dsp/units.h **** // THE SOFTWARE.
  22:mi/stmlib/dsp/units.h **** // 
  23:mi/stmlib/dsp/units.h **** // See http://creativecommons.org/licenses/MIT/ for more information.
  24:mi/stmlib/dsp/units.h **** //
  25:mi/stmlib/dsp/units.h **** // -----------------------------------------------------------------------------
  26:mi/stmlib/dsp/units.h **** //
  27:mi/stmlib/dsp/units.h **** // Conversion from semitones to frequency ratio.
  28:mi/stmlib/dsp/units.h **** 
  29:mi/stmlib/dsp/units.h **** #ifndef STMLIB_DSP_UNITS_H_
  30:mi/stmlib/dsp/units.h **** #define STMLIB_DSP_UNITS_H_
  31:mi/stmlib/dsp/units.h **** 
  32:mi/stmlib/dsp/units.h **** #include "stmlib/stmlib.h"
  33:mi/stmlib/dsp/units.h **** #include "stmlib/dsp/dsp.h"
  34:mi/stmlib/dsp/units.h **** 
  35:mi/stmlib/dsp/units.h **** namespace stmlib {
  36:mi/stmlib/dsp/units.h **** 
  37:mi/stmlib/dsp/units.h **** extern const float lut_pitch_ratio_high[257];
  38:mi/stmlib/dsp/units.h **** extern const float lut_pitch_ratio_low[257];
  39:mi/stmlib/dsp/units.h **** 
ARM GAS  /var/folders/9k/zk1mgrrd7wg4__6zvxvr9w8m0000gn/T//ccUrAnV6.s 			page 21


  40:mi/stmlib/dsp/units.h **** inline float SemitonesToRatio(float semitones) {
  41:mi/stmlib/dsp/units.h ****   float pitch = semitones + 128.0f;
 573              		.loc 4 41 9 view .LVU153
 574 0182 9FED7A5A 		vldr.32	s10, .L67+20
 575              	.LBE114:
 576              	.LBE113:
  75:mi/plaits/dsp/physical_modelling/string_voice.cpp ****         0.499f);
 577              		.loc 1 75 64 view .LVU154
 578 0186 FEEE007A 		vmov.f32	s15, #-5.0e-1
 579              	.LBB118:
 580              	.LBB115:
 581              		.loc 4 41 9 view .LVU155
 582 018a DFED796A 		vldr.32	s13, .L67+24
  42:mi/stmlib/dsp/units.h ****   MAKE_INTEGRAL_FRACTIONAL(pitch)
  43:mi/stmlib/dsp/units.h **** 
  44:mi/stmlib/dsp/units.h ****   return lut_pitch_ratio_high[pitch_integral] * \
 583              		.loc 4 44 45 view .LVU156
 584 018e 7948     		ldr	r0, .L67+28
 585              	.LVL49:
 586              		.loc 4 44 45 view .LVU157
 587              	.LBE115:
 588              	.LBE118:
  73:mi/plaits/dsp/physical_modelling/string_voice.cpp ****     const float cutoff = min(
 589              		.loc 1 73 17 view .LVU158
 590 0190 B1EE007A 		vmov.f32	s14, #4.0e+0
  75:mi/plaits/dsp/physical_modelling/string_voice.cpp ****         0.499f);
 591              		.loc 1 75 50 view .LVU159
 592 0194 36EE496A 		vsub.f32	s12, s12, s18
 593              	.LBB119:
 594              	.LBB116:
  45:mi/stmlib/dsp/units.h ****       lut_pitch_ratio_low[static_cast<int32_t>(pitch_fractional * 256.0f)];
 595              		.loc 4 45 74 view .LVU160
 596 0198 774A     		ldr	r2, .L67+32
 597              	.LVL50:
 598              		.loc 4 45 74 view .LVU161
 599              	.LBE116:
 600              	.LBE119:
 601              	.LBB120:
 602              	.LBB121:
 603              		.file 5 "/Library/DaisyToolchain/0.2.0/arm/arm-none-eabi/include/c++/10.3.1/bits/stl_algobase.h"
   1:/Library/DaisyToolchain/0.2.0/arm/arm-none-eabi/include/c++/10.3.1/bits/stl_algobase.h **** // Core algorithmic facilities -*- C++ -*-
   2:/Library/DaisyToolchain/0.2.0/arm/arm-none-eabi/include/c++/10.3.1/bits/stl_algobase.h **** 
   3:/Library/DaisyToolchain/0.2.0/arm/arm-none-eabi/include/c++/10.3.1/bits/stl_algobase.h **** // Copyright (C) 2001-2020 Free Software Foundation, Inc.
   4:/Library/DaisyToolchain/0.2.0/arm/arm-none-eabi/include/c++/10.3.1/bits/stl_algobase.h **** //
   5:/Library/DaisyToolchain/0.2.0/arm/arm-none-eabi/include/c++/10.3.1/bits/stl_algobase.h **** // This file is part of the GNU ISO C++ Library.  This library is free
   6:/Library/DaisyToolchain/0.2.0/arm/arm-none-eabi/include/c++/10.3.1/bits/stl_algobase.h **** // software; you can redistribute it and/or modify it under the
   7:/Library/DaisyToolchain/0.2.0/arm/arm-none-eabi/include/c++/10.3.1/bits/stl_algobase.h **** // terms of the GNU General Public License as published by the
   8:/Library/DaisyToolchain/0.2.0/arm/arm-none-eabi/include/c++/10.3.1/bits/stl_algobase.h **** // Free Software Foundation; either version 3, or (at your option)
   9:/Library/DaisyToolchain/0.2.0/arm/arm-none-eabi/include/c++/10.3.1/bits/stl_algobase.h **** // any later version.
  10:/Library/DaisyToolchain/0.2.0/arm/arm-none-eabi/include/c++/10.3.1/bits/stl_algobase.h **** 
  11:/Library/DaisyToolchain/0.2.0/arm/arm-none-eabi/include/c++/10.3.1/bits/stl_algobase.h **** // This library is distributed in the hope that it will be useful,
  12:/Library/DaisyToolchain/0.2.0/arm/arm-none-eabi/include/c++/10.3.1/bits/stl_algobase.h **** // but WITHOUT ANY WARRANTY; without even the implied warranty of
  13:/Library/DaisyToolchain/0.2.0/arm/arm-none-eabi/include/c++/10.3.1/bits/stl_algobase.h **** // MERCHANTABILITY or FITNESS FOR A PARTICULAR PURPOSE.  See the
  14:/Library/DaisyToolchain/0.2.0/arm/arm-none-eabi/include/c++/10.3.1/bits/stl_algobase.h **** // GNU General Public License for more details.
  15:/Library/DaisyToolchain/0.2.0/arm/arm-none-eabi/include/c++/10.3.1/bits/stl_algobase.h **** 
  16:/Library/DaisyToolchain/0.2.0/arm/arm-none-eabi/include/c++/10.3.1/bits/stl_algobase.h **** // Under Section 7 of GPL version 3, you are granted additional
  17:/Library/DaisyToolchain/0.2.0/arm/arm-none-eabi/include/c++/10.3.1/bits/stl_algobase.h **** // permissions described in the GCC Runtime Library Exception, version
ARM GAS  /var/folders/9k/zk1mgrrd7wg4__6zvxvr9w8m0000gn/T//ccUrAnV6.s 			page 22


  18:/Library/DaisyToolchain/0.2.0/arm/arm-none-eabi/include/c++/10.3.1/bits/stl_algobase.h **** // 3.1, as published by the Free Software Foundation.
  19:/Library/DaisyToolchain/0.2.0/arm/arm-none-eabi/include/c++/10.3.1/bits/stl_algobase.h **** 
  20:/Library/DaisyToolchain/0.2.0/arm/arm-none-eabi/include/c++/10.3.1/bits/stl_algobase.h **** // You should have received a copy of the GNU General Public License and
  21:/Library/DaisyToolchain/0.2.0/arm/arm-none-eabi/include/c++/10.3.1/bits/stl_algobase.h **** // a copy of the GCC Runtime Library Exception along with this program;
  22:/Library/DaisyToolchain/0.2.0/arm/arm-none-eabi/include/c++/10.3.1/bits/stl_algobase.h **** // see the files COPYING3 and COPYING.RUNTIME respectively.  If not, see
  23:/Library/DaisyToolchain/0.2.0/arm/arm-none-eabi/include/c++/10.3.1/bits/stl_algobase.h **** // <http://www.gnu.org/licenses/>.
  24:/Library/DaisyToolchain/0.2.0/arm/arm-none-eabi/include/c++/10.3.1/bits/stl_algobase.h **** 
  25:/Library/DaisyToolchain/0.2.0/arm/arm-none-eabi/include/c++/10.3.1/bits/stl_algobase.h **** /*
  26:/Library/DaisyToolchain/0.2.0/arm/arm-none-eabi/include/c++/10.3.1/bits/stl_algobase.h ****  *
  27:/Library/DaisyToolchain/0.2.0/arm/arm-none-eabi/include/c++/10.3.1/bits/stl_algobase.h ****  * Copyright (c) 1994
  28:/Library/DaisyToolchain/0.2.0/arm/arm-none-eabi/include/c++/10.3.1/bits/stl_algobase.h ****  * Hewlett-Packard Company
  29:/Library/DaisyToolchain/0.2.0/arm/arm-none-eabi/include/c++/10.3.1/bits/stl_algobase.h ****  *
  30:/Library/DaisyToolchain/0.2.0/arm/arm-none-eabi/include/c++/10.3.1/bits/stl_algobase.h ****  * Permission to use, copy, modify, distribute and sell this software
  31:/Library/DaisyToolchain/0.2.0/arm/arm-none-eabi/include/c++/10.3.1/bits/stl_algobase.h ****  * and its documentation for any purpose is hereby granted without fee,
  32:/Library/DaisyToolchain/0.2.0/arm/arm-none-eabi/include/c++/10.3.1/bits/stl_algobase.h ****  * provided that the above copyright notice appear in all copies and
  33:/Library/DaisyToolchain/0.2.0/arm/arm-none-eabi/include/c++/10.3.1/bits/stl_algobase.h ****  * that both that copyright notice and this permission notice appear
  34:/Library/DaisyToolchain/0.2.0/arm/arm-none-eabi/include/c++/10.3.1/bits/stl_algobase.h ****  * in supporting documentation.  Hewlett-Packard Company makes no
  35:/Library/DaisyToolchain/0.2.0/arm/arm-none-eabi/include/c++/10.3.1/bits/stl_algobase.h ****  * representations about the suitability of this software for any
  36:/Library/DaisyToolchain/0.2.0/arm/arm-none-eabi/include/c++/10.3.1/bits/stl_algobase.h ****  * purpose.  It is provided "as is" without express or implied warranty.
  37:/Library/DaisyToolchain/0.2.0/arm/arm-none-eabi/include/c++/10.3.1/bits/stl_algobase.h ****  *
  38:/Library/DaisyToolchain/0.2.0/arm/arm-none-eabi/include/c++/10.3.1/bits/stl_algobase.h ****  *
  39:/Library/DaisyToolchain/0.2.0/arm/arm-none-eabi/include/c++/10.3.1/bits/stl_algobase.h ****  * Copyright (c) 1996-1998
  40:/Library/DaisyToolchain/0.2.0/arm/arm-none-eabi/include/c++/10.3.1/bits/stl_algobase.h ****  * Silicon Graphics Computer Systems, Inc.
  41:/Library/DaisyToolchain/0.2.0/arm/arm-none-eabi/include/c++/10.3.1/bits/stl_algobase.h ****  *
  42:/Library/DaisyToolchain/0.2.0/arm/arm-none-eabi/include/c++/10.3.1/bits/stl_algobase.h ****  * Permission to use, copy, modify, distribute and sell this software
  43:/Library/DaisyToolchain/0.2.0/arm/arm-none-eabi/include/c++/10.3.1/bits/stl_algobase.h ****  * and its documentation for any purpose is hereby granted without fee,
  44:/Library/DaisyToolchain/0.2.0/arm/arm-none-eabi/include/c++/10.3.1/bits/stl_algobase.h ****  * provided that the above copyright notice appear in all copies and
  45:/Library/DaisyToolchain/0.2.0/arm/arm-none-eabi/include/c++/10.3.1/bits/stl_algobase.h ****  * that both that copyright notice and this permission notice appear
  46:/Library/DaisyToolchain/0.2.0/arm/arm-none-eabi/include/c++/10.3.1/bits/stl_algobase.h ****  * in supporting documentation.  Silicon Graphics makes no
  47:/Library/DaisyToolchain/0.2.0/arm/arm-none-eabi/include/c++/10.3.1/bits/stl_algobase.h ****  * representations about the suitability of this software for any
  48:/Library/DaisyToolchain/0.2.0/arm/arm-none-eabi/include/c++/10.3.1/bits/stl_algobase.h ****  * purpose.  It is provided "as is" without express or implied warranty.
  49:/Library/DaisyToolchain/0.2.0/arm/arm-none-eabi/include/c++/10.3.1/bits/stl_algobase.h ****  */
  50:/Library/DaisyToolchain/0.2.0/arm/arm-none-eabi/include/c++/10.3.1/bits/stl_algobase.h **** 
  51:/Library/DaisyToolchain/0.2.0/arm/arm-none-eabi/include/c++/10.3.1/bits/stl_algobase.h **** /** @file bits/stl_algobase.h
  52:/Library/DaisyToolchain/0.2.0/arm/arm-none-eabi/include/c++/10.3.1/bits/stl_algobase.h ****  *  This is an internal header file, included by other library headers.
  53:/Library/DaisyToolchain/0.2.0/arm/arm-none-eabi/include/c++/10.3.1/bits/stl_algobase.h ****  *  Do not attempt to use it directly. @headername{algorithm}
  54:/Library/DaisyToolchain/0.2.0/arm/arm-none-eabi/include/c++/10.3.1/bits/stl_algobase.h ****  */
  55:/Library/DaisyToolchain/0.2.0/arm/arm-none-eabi/include/c++/10.3.1/bits/stl_algobase.h **** 
  56:/Library/DaisyToolchain/0.2.0/arm/arm-none-eabi/include/c++/10.3.1/bits/stl_algobase.h **** #ifndef _STL_ALGOBASE_H
  57:/Library/DaisyToolchain/0.2.0/arm/arm-none-eabi/include/c++/10.3.1/bits/stl_algobase.h **** #define _STL_ALGOBASE_H 1
  58:/Library/DaisyToolchain/0.2.0/arm/arm-none-eabi/include/c++/10.3.1/bits/stl_algobase.h **** 
  59:/Library/DaisyToolchain/0.2.0/arm/arm-none-eabi/include/c++/10.3.1/bits/stl_algobase.h **** #include <bits/c++config.h>
  60:/Library/DaisyToolchain/0.2.0/arm/arm-none-eabi/include/c++/10.3.1/bits/stl_algobase.h **** #include <bits/functexcept.h>
  61:/Library/DaisyToolchain/0.2.0/arm/arm-none-eabi/include/c++/10.3.1/bits/stl_algobase.h **** #include <bits/cpp_type_traits.h>
  62:/Library/DaisyToolchain/0.2.0/arm/arm-none-eabi/include/c++/10.3.1/bits/stl_algobase.h **** #include <ext/type_traits.h>
  63:/Library/DaisyToolchain/0.2.0/arm/arm-none-eabi/include/c++/10.3.1/bits/stl_algobase.h **** #include <ext/numeric_traits.h>
  64:/Library/DaisyToolchain/0.2.0/arm/arm-none-eabi/include/c++/10.3.1/bits/stl_algobase.h **** #include <bits/stl_pair.h>
  65:/Library/DaisyToolchain/0.2.0/arm/arm-none-eabi/include/c++/10.3.1/bits/stl_algobase.h **** #include <bits/stl_iterator_base_types.h>
  66:/Library/DaisyToolchain/0.2.0/arm/arm-none-eabi/include/c++/10.3.1/bits/stl_algobase.h **** #include <bits/stl_iterator_base_funcs.h>
  67:/Library/DaisyToolchain/0.2.0/arm/arm-none-eabi/include/c++/10.3.1/bits/stl_algobase.h **** #include <bits/stl_iterator.h>
  68:/Library/DaisyToolchain/0.2.0/arm/arm-none-eabi/include/c++/10.3.1/bits/stl_algobase.h **** #include <bits/concept_check.h>
  69:/Library/DaisyToolchain/0.2.0/arm/arm-none-eabi/include/c++/10.3.1/bits/stl_algobase.h **** #include <debug/debug.h>
  70:/Library/DaisyToolchain/0.2.0/arm/arm-none-eabi/include/c++/10.3.1/bits/stl_algobase.h **** #include <bits/move.h> // For std::swap
  71:/Library/DaisyToolchain/0.2.0/arm/arm-none-eabi/include/c++/10.3.1/bits/stl_algobase.h **** #include <bits/predefined_ops.h>
  72:/Library/DaisyToolchain/0.2.0/arm/arm-none-eabi/include/c++/10.3.1/bits/stl_algobase.h **** #if __cplusplus >= 201103L
  73:/Library/DaisyToolchain/0.2.0/arm/arm-none-eabi/include/c++/10.3.1/bits/stl_algobase.h **** # include <type_traits>
  74:/Library/DaisyToolchain/0.2.0/arm/arm-none-eabi/include/c++/10.3.1/bits/stl_algobase.h **** #endif
ARM GAS  /var/folders/9k/zk1mgrrd7wg4__6zvxvr9w8m0000gn/T//ccUrAnV6.s 			page 23


  75:/Library/DaisyToolchain/0.2.0/arm/arm-none-eabi/include/c++/10.3.1/bits/stl_algobase.h **** #if __cplusplus > 201703L
  76:/Library/DaisyToolchain/0.2.0/arm/arm-none-eabi/include/c++/10.3.1/bits/stl_algobase.h **** # include <compare>
  77:/Library/DaisyToolchain/0.2.0/arm/arm-none-eabi/include/c++/10.3.1/bits/stl_algobase.h **** #endif
  78:/Library/DaisyToolchain/0.2.0/arm/arm-none-eabi/include/c++/10.3.1/bits/stl_algobase.h **** 
  79:/Library/DaisyToolchain/0.2.0/arm/arm-none-eabi/include/c++/10.3.1/bits/stl_algobase.h **** namespace std _GLIBCXX_VISIBILITY(default)
  80:/Library/DaisyToolchain/0.2.0/arm/arm-none-eabi/include/c++/10.3.1/bits/stl_algobase.h **** {
  81:/Library/DaisyToolchain/0.2.0/arm/arm-none-eabi/include/c++/10.3.1/bits/stl_algobase.h **** _GLIBCXX_BEGIN_NAMESPACE_VERSION
  82:/Library/DaisyToolchain/0.2.0/arm/arm-none-eabi/include/c++/10.3.1/bits/stl_algobase.h **** 
  83:/Library/DaisyToolchain/0.2.0/arm/arm-none-eabi/include/c++/10.3.1/bits/stl_algobase.h ****   /*
  84:/Library/DaisyToolchain/0.2.0/arm/arm-none-eabi/include/c++/10.3.1/bits/stl_algobase.h ****    * A constexpr wrapper for __builtin_memcmp.
  85:/Library/DaisyToolchain/0.2.0/arm/arm-none-eabi/include/c++/10.3.1/bits/stl_algobase.h ****    * @param __num The number of elements of type _Tp (not bytes).
  86:/Library/DaisyToolchain/0.2.0/arm/arm-none-eabi/include/c++/10.3.1/bits/stl_algobase.h ****    */
  87:/Library/DaisyToolchain/0.2.0/arm/arm-none-eabi/include/c++/10.3.1/bits/stl_algobase.h ****   template<typename _Tp, typename _Up>
  88:/Library/DaisyToolchain/0.2.0/arm/arm-none-eabi/include/c++/10.3.1/bits/stl_algobase.h ****     _GLIBCXX14_CONSTEXPR
  89:/Library/DaisyToolchain/0.2.0/arm/arm-none-eabi/include/c++/10.3.1/bits/stl_algobase.h ****     inline int
  90:/Library/DaisyToolchain/0.2.0/arm/arm-none-eabi/include/c++/10.3.1/bits/stl_algobase.h ****     __memcmp(const _Tp* __first1, const _Up* __first2, size_t __num)
  91:/Library/DaisyToolchain/0.2.0/arm/arm-none-eabi/include/c++/10.3.1/bits/stl_algobase.h ****     {
  92:/Library/DaisyToolchain/0.2.0/arm/arm-none-eabi/include/c++/10.3.1/bits/stl_algobase.h **** #if __cplusplus >= 201103L
  93:/Library/DaisyToolchain/0.2.0/arm/arm-none-eabi/include/c++/10.3.1/bits/stl_algobase.h ****       static_assert(sizeof(_Tp) == sizeof(_Up), "can be compared with memcmp");
  94:/Library/DaisyToolchain/0.2.0/arm/arm-none-eabi/include/c++/10.3.1/bits/stl_algobase.h **** #endif
  95:/Library/DaisyToolchain/0.2.0/arm/arm-none-eabi/include/c++/10.3.1/bits/stl_algobase.h **** #ifdef __cpp_lib_is_constant_evaluated
  96:/Library/DaisyToolchain/0.2.0/arm/arm-none-eabi/include/c++/10.3.1/bits/stl_algobase.h ****       if (std::is_constant_evaluated())
  97:/Library/DaisyToolchain/0.2.0/arm/arm-none-eabi/include/c++/10.3.1/bits/stl_algobase.h **** 	{
  98:/Library/DaisyToolchain/0.2.0/arm/arm-none-eabi/include/c++/10.3.1/bits/stl_algobase.h **** 	  for(; __num > 0; ++__first1, ++__first2, --__num)
  99:/Library/DaisyToolchain/0.2.0/arm/arm-none-eabi/include/c++/10.3.1/bits/stl_algobase.h **** 	    if (*__first1 != *__first2)
 100:/Library/DaisyToolchain/0.2.0/arm/arm-none-eabi/include/c++/10.3.1/bits/stl_algobase.h **** 	      return *__first1 < *__first2 ? -1 : 1;
 101:/Library/DaisyToolchain/0.2.0/arm/arm-none-eabi/include/c++/10.3.1/bits/stl_algobase.h **** 	  return 0;
 102:/Library/DaisyToolchain/0.2.0/arm/arm-none-eabi/include/c++/10.3.1/bits/stl_algobase.h **** 	}
 103:/Library/DaisyToolchain/0.2.0/arm/arm-none-eabi/include/c++/10.3.1/bits/stl_algobase.h ****       else
 104:/Library/DaisyToolchain/0.2.0/arm/arm-none-eabi/include/c++/10.3.1/bits/stl_algobase.h **** #endif
 105:/Library/DaisyToolchain/0.2.0/arm/arm-none-eabi/include/c++/10.3.1/bits/stl_algobase.h **** 	return __builtin_memcmp(__first1, __first2, sizeof(_Tp) * __num);
 106:/Library/DaisyToolchain/0.2.0/arm/arm-none-eabi/include/c++/10.3.1/bits/stl_algobase.h ****     }
 107:/Library/DaisyToolchain/0.2.0/arm/arm-none-eabi/include/c++/10.3.1/bits/stl_algobase.h **** 
 108:/Library/DaisyToolchain/0.2.0/arm/arm-none-eabi/include/c++/10.3.1/bits/stl_algobase.h **** #if __cplusplus < 201103L
 109:/Library/DaisyToolchain/0.2.0/arm/arm-none-eabi/include/c++/10.3.1/bits/stl_algobase.h ****   // See http://gcc.gnu.org/ml/libstdc++/2004-08/msg00167.html: in a
 110:/Library/DaisyToolchain/0.2.0/arm/arm-none-eabi/include/c++/10.3.1/bits/stl_algobase.h ****   // nutshell, we are partially implementing the resolution of DR 187,
 111:/Library/DaisyToolchain/0.2.0/arm/arm-none-eabi/include/c++/10.3.1/bits/stl_algobase.h ****   // when it's safe, i.e., the value_types are equal.
 112:/Library/DaisyToolchain/0.2.0/arm/arm-none-eabi/include/c++/10.3.1/bits/stl_algobase.h ****   template<bool _BoolType>
 113:/Library/DaisyToolchain/0.2.0/arm/arm-none-eabi/include/c++/10.3.1/bits/stl_algobase.h ****     struct __iter_swap
 114:/Library/DaisyToolchain/0.2.0/arm/arm-none-eabi/include/c++/10.3.1/bits/stl_algobase.h ****     {
 115:/Library/DaisyToolchain/0.2.0/arm/arm-none-eabi/include/c++/10.3.1/bits/stl_algobase.h ****       template<typename _ForwardIterator1, typename _ForwardIterator2>
 116:/Library/DaisyToolchain/0.2.0/arm/arm-none-eabi/include/c++/10.3.1/bits/stl_algobase.h **** 	static void
 117:/Library/DaisyToolchain/0.2.0/arm/arm-none-eabi/include/c++/10.3.1/bits/stl_algobase.h **** 	iter_swap(_ForwardIterator1 __a, _ForwardIterator2 __b)
 118:/Library/DaisyToolchain/0.2.0/arm/arm-none-eabi/include/c++/10.3.1/bits/stl_algobase.h **** 	{
 119:/Library/DaisyToolchain/0.2.0/arm/arm-none-eabi/include/c++/10.3.1/bits/stl_algobase.h **** 	  typedef typename iterator_traits<_ForwardIterator1>::value_type
 120:/Library/DaisyToolchain/0.2.0/arm/arm-none-eabi/include/c++/10.3.1/bits/stl_algobase.h **** 	    _ValueType1;
 121:/Library/DaisyToolchain/0.2.0/arm/arm-none-eabi/include/c++/10.3.1/bits/stl_algobase.h **** 	  _ValueType1 __tmp = *__a;
 122:/Library/DaisyToolchain/0.2.0/arm/arm-none-eabi/include/c++/10.3.1/bits/stl_algobase.h **** 	  *__a = *__b;
 123:/Library/DaisyToolchain/0.2.0/arm/arm-none-eabi/include/c++/10.3.1/bits/stl_algobase.h **** 	  *__b = __tmp;
 124:/Library/DaisyToolchain/0.2.0/arm/arm-none-eabi/include/c++/10.3.1/bits/stl_algobase.h **** 	}
 125:/Library/DaisyToolchain/0.2.0/arm/arm-none-eabi/include/c++/10.3.1/bits/stl_algobase.h ****     };
 126:/Library/DaisyToolchain/0.2.0/arm/arm-none-eabi/include/c++/10.3.1/bits/stl_algobase.h **** 
 127:/Library/DaisyToolchain/0.2.0/arm/arm-none-eabi/include/c++/10.3.1/bits/stl_algobase.h ****   template<>
 128:/Library/DaisyToolchain/0.2.0/arm/arm-none-eabi/include/c++/10.3.1/bits/stl_algobase.h ****     struct __iter_swap<true>
 129:/Library/DaisyToolchain/0.2.0/arm/arm-none-eabi/include/c++/10.3.1/bits/stl_algobase.h ****     {
 130:/Library/DaisyToolchain/0.2.0/arm/arm-none-eabi/include/c++/10.3.1/bits/stl_algobase.h ****       template<typename _ForwardIterator1, typename _ForwardIterator2>
 131:/Library/DaisyToolchain/0.2.0/arm/arm-none-eabi/include/c++/10.3.1/bits/stl_algobase.h **** 	static void
ARM GAS  /var/folders/9k/zk1mgrrd7wg4__6zvxvr9w8m0000gn/T//ccUrAnV6.s 			page 24


 132:/Library/DaisyToolchain/0.2.0/arm/arm-none-eabi/include/c++/10.3.1/bits/stl_algobase.h **** 	iter_swap(_ForwardIterator1 __a, _ForwardIterator2 __b)
 133:/Library/DaisyToolchain/0.2.0/arm/arm-none-eabi/include/c++/10.3.1/bits/stl_algobase.h **** 	{
 134:/Library/DaisyToolchain/0.2.0/arm/arm-none-eabi/include/c++/10.3.1/bits/stl_algobase.h **** 	  swap(*__a, *__b);
 135:/Library/DaisyToolchain/0.2.0/arm/arm-none-eabi/include/c++/10.3.1/bits/stl_algobase.h **** 	}
 136:/Library/DaisyToolchain/0.2.0/arm/arm-none-eabi/include/c++/10.3.1/bits/stl_algobase.h ****     };
 137:/Library/DaisyToolchain/0.2.0/arm/arm-none-eabi/include/c++/10.3.1/bits/stl_algobase.h **** #endif // C++03
 138:/Library/DaisyToolchain/0.2.0/arm/arm-none-eabi/include/c++/10.3.1/bits/stl_algobase.h **** 
 139:/Library/DaisyToolchain/0.2.0/arm/arm-none-eabi/include/c++/10.3.1/bits/stl_algobase.h ****   /**
 140:/Library/DaisyToolchain/0.2.0/arm/arm-none-eabi/include/c++/10.3.1/bits/stl_algobase.h ****    *  @brief Swaps the contents of two iterators.
 141:/Library/DaisyToolchain/0.2.0/arm/arm-none-eabi/include/c++/10.3.1/bits/stl_algobase.h ****    *  @ingroup mutating_algorithms
 142:/Library/DaisyToolchain/0.2.0/arm/arm-none-eabi/include/c++/10.3.1/bits/stl_algobase.h ****    *  @param  __a  An iterator.
 143:/Library/DaisyToolchain/0.2.0/arm/arm-none-eabi/include/c++/10.3.1/bits/stl_algobase.h ****    *  @param  __b  Another iterator.
 144:/Library/DaisyToolchain/0.2.0/arm/arm-none-eabi/include/c++/10.3.1/bits/stl_algobase.h ****    *  @return   Nothing.
 145:/Library/DaisyToolchain/0.2.0/arm/arm-none-eabi/include/c++/10.3.1/bits/stl_algobase.h ****    *
 146:/Library/DaisyToolchain/0.2.0/arm/arm-none-eabi/include/c++/10.3.1/bits/stl_algobase.h ****    *  This function swaps the values pointed to by two iterators, not the
 147:/Library/DaisyToolchain/0.2.0/arm/arm-none-eabi/include/c++/10.3.1/bits/stl_algobase.h ****    *  iterators themselves.
 148:/Library/DaisyToolchain/0.2.0/arm/arm-none-eabi/include/c++/10.3.1/bits/stl_algobase.h ****   */
 149:/Library/DaisyToolchain/0.2.0/arm/arm-none-eabi/include/c++/10.3.1/bits/stl_algobase.h ****   template<typename _ForwardIterator1, typename _ForwardIterator2>
 150:/Library/DaisyToolchain/0.2.0/arm/arm-none-eabi/include/c++/10.3.1/bits/stl_algobase.h ****     _GLIBCXX20_CONSTEXPR
 151:/Library/DaisyToolchain/0.2.0/arm/arm-none-eabi/include/c++/10.3.1/bits/stl_algobase.h ****     inline void
 152:/Library/DaisyToolchain/0.2.0/arm/arm-none-eabi/include/c++/10.3.1/bits/stl_algobase.h ****     iter_swap(_ForwardIterator1 __a, _ForwardIterator2 __b)
 153:/Library/DaisyToolchain/0.2.0/arm/arm-none-eabi/include/c++/10.3.1/bits/stl_algobase.h ****     {
 154:/Library/DaisyToolchain/0.2.0/arm/arm-none-eabi/include/c++/10.3.1/bits/stl_algobase.h ****       // concept requirements
 155:/Library/DaisyToolchain/0.2.0/arm/arm-none-eabi/include/c++/10.3.1/bits/stl_algobase.h ****       __glibcxx_function_requires(_Mutable_ForwardIteratorConcept<
 156:/Library/DaisyToolchain/0.2.0/arm/arm-none-eabi/include/c++/10.3.1/bits/stl_algobase.h **** 				  _ForwardIterator1>)
 157:/Library/DaisyToolchain/0.2.0/arm/arm-none-eabi/include/c++/10.3.1/bits/stl_algobase.h ****       __glibcxx_function_requires(_Mutable_ForwardIteratorConcept<
 158:/Library/DaisyToolchain/0.2.0/arm/arm-none-eabi/include/c++/10.3.1/bits/stl_algobase.h **** 				  _ForwardIterator2>)
 159:/Library/DaisyToolchain/0.2.0/arm/arm-none-eabi/include/c++/10.3.1/bits/stl_algobase.h **** 
 160:/Library/DaisyToolchain/0.2.0/arm/arm-none-eabi/include/c++/10.3.1/bits/stl_algobase.h **** #if __cplusplus < 201103L
 161:/Library/DaisyToolchain/0.2.0/arm/arm-none-eabi/include/c++/10.3.1/bits/stl_algobase.h ****       typedef typename iterator_traits<_ForwardIterator1>::value_type
 162:/Library/DaisyToolchain/0.2.0/arm/arm-none-eabi/include/c++/10.3.1/bits/stl_algobase.h **** 	_ValueType1;
 163:/Library/DaisyToolchain/0.2.0/arm/arm-none-eabi/include/c++/10.3.1/bits/stl_algobase.h ****       typedef typename iterator_traits<_ForwardIterator2>::value_type
 164:/Library/DaisyToolchain/0.2.0/arm/arm-none-eabi/include/c++/10.3.1/bits/stl_algobase.h **** 	_ValueType2;
 165:/Library/DaisyToolchain/0.2.0/arm/arm-none-eabi/include/c++/10.3.1/bits/stl_algobase.h **** 
 166:/Library/DaisyToolchain/0.2.0/arm/arm-none-eabi/include/c++/10.3.1/bits/stl_algobase.h ****       __glibcxx_function_requires(_ConvertibleConcept<_ValueType1,
 167:/Library/DaisyToolchain/0.2.0/arm/arm-none-eabi/include/c++/10.3.1/bits/stl_algobase.h **** 				  _ValueType2>)
 168:/Library/DaisyToolchain/0.2.0/arm/arm-none-eabi/include/c++/10.3.1/bits/stl_algobase.h ****       __glibcxx_function_requires(_ConvertibleConcept<_ValueType2,
 169:/Library/DaisyToolchain/0.2.0/arm/arm-none-eabi/include/c++/10.3.1/bits/stl_algobase.h **** 				  _ValueType1>)
 170:/Library/DaisyToolchain/0.2.0/arm/arm-none-eabi/include/c++/10.3.1/bits/stl_algobase.h **** 
 171:/Library/DaisyToolchain/0.2.0/arm/arm-none-eabi/include/c++/10.3.1/bits/stl_algobase.h ****       typedef typename iterator_traits<_ForwardIterator1>::reference
 172:/Library/DaisyToolchain/0.2.0/arm/arm-none-eabi/include/c++/10.3.1/bits/stl_algobase.h **** 	_ReferenceType1;
 173:/Library/DaisyToolchain/0.2.0/arm/arm-none-eabi/include/c++/10.3.1/bits/stl_algobase.h ****       typedef typename iterator_traits<_ForwardIterator2>::reference
 174:/Library/DaisyToolchain/0.2.0/arm/arm-none-eabi/include/c++/10.3.1/bits/stl_algobase.h **** 	_ReferenceType2;
 175:/Library/DaisyToolchain/0.2.0/arm/arm-none-eabi/include/c++/10.3.1/bits/stl_algobase.h ****       std::__iter_swap<__are_same<_ValueType1, _ValueType2>::__value
 176:/Library/DaisyToolchain/0.2.0/arm/arm-none-eabi/include/c++/10.3.1/bits/stl_algobase.h **** 	&& __are_same<_ValueType1&, _ReferenceType1>::__value
 177:/Library/DaisyToolchain/0.2.0/arm/arm-none-eabi/include/c++/10.3.1/bits/stl_algobase.h **** 	&& __are_same<_ValueType2&, _ReferenceType2>::__value>::
 178:/Library/DaisyToolchain/0.2.0/arm/arm-none-eabi/include/c++/10.3.1/bits/stl_algobase.h **** 	iter_swap(__a, __b);
 179:/Library/DaisyToolchain/0.2.0/arm/arm-none-eabi/include/c++/10.3.1/bits/stl_algobase.h **** #else
 180:/Library/DaisyToolchain/0.2.0/arm/arm-none-eabi/include/c++/10.3.1/bits/stl_algobase.h ****       // _GLIBCXX_RESOLVE_LIB_DEFECTS
 181:/Library/DaisyToolchain/0.2.0/arm/arm-none-eabi/include/c++/10.3.1/bits/stl_algobase.h ****       // 187. iter_swap underspecified
 182:/Library/DaisyToolchain/0.2.0/arm/arm-none-eabi/include/c++/10.3.1/bits/stl_algobase.h ****       swap(*__a, *__b);
 183:/Library/DaisyToolchain/0.2.0/arm/arm-none-eabi/include/c++/10.3.1/bits/stl_algobase.h **** #endif
 184:/Library/DaisyToolchain/0.2.0/arm/arm-none-eabi/include/c++/10.3.1/bits/stl_algobase.h ****     }
 185:/Library/DaisyToolchain/0.2.0/arm/arm-none-eabi/include/c++/10.3.1/bits/stl_algobase.h **** 
 186:/Library/DaisyToolchain/0.2.0/arm/arm-none-eabi/include/c++/10.3.1/bits/stl_algobase.h ****   /**
 187:/Library/DaisyToolchain/0.2.0/arm/arm-none-eabi/include/c++/10.3.1/bits/stl_algobase.h ****    *  @brief Swap the elements of two sequences.
 188:/Library/DaisyToolchain/0.2.0/arm/arm-none-eabi/include/c++/10.3.1/bits/stl_algobase.h ****    *  @ingroup mutating_algorithms
ARM GAS  /var/folders/9k/zk1mgrrd7wg4__6zvxvr9w8m0000gn/T//ccUrAnV6.s 			page 25


 189:/Library/DaisyToolchain/0.2.0/arm/arm-none-eabi/include/c++/10.3.1/bits/stl_algobase.h ****    *  @param  __first1  A forward iterator.
 190:/Library/DaisyToolchain/0.2.0/arm/arm-none-eabi/include/c++/10.3.1/bits/stl_algobase.h ****    *  @param  __last1   A forward iterator.
 191:/Library/DaisyToolchain/0.2.0/arm/arm-none-eabi/include/c++/10.3.1/bits/stl_algobase.h ****    *  @param  __first2  A forward iterator.
 192:/Library/DaisyToolchain/0.2.0/arm/arm-none-eabi/include/c++/10.3.1/bits/stl_algobase.h ****    *  @return   An iterator equal to @p first2+(last1-first1).
 193:/Library/DaisyToolchain/0.2.0/arm/arm-none-eabi/include/c++/10.3.1/bits/stl_algobase.h ****    *
 194:/Library/DaisyToolchain/0.2.0/arm/arm-none-eabi/include/c++/10.3.1/bits/stl_algobase.h ****    *  Swaps each element in the range @p [first1,last1) with the
 195:/Library/DaisyToolchain/0.2.0/arm/arm-none-eabi/include/c++/10.3.1/bits/stl_algobase.h ****    *  corresponding element in the range @p [first2,(last1-first1)).
 196:/Library/DaisyToolchain/0.2.0/arm/arm-none-eabi/include/c++/10.3.1/bits/stl_algobase.h ****    *  The ranges must not overlap.
 197:/Library/DaisyToolchain/0.2.0/arm/arm-none-eabi/include/c++/10.3.1/bits/stl_algobase.h ****   */
 198:/Library/DaisyToolchain/0.2.0/arm/arm-none-eabi/include/c++/10.3.1/bits/stl_algobase.h ****   template<typename _ForwardIterator1, typename _ForwardIterator2>
 199:/Library/DaisyToolchain/0.2.0/arm/arm-none-eabi/include/c++/10.3.1/bits/stl_algobase.h ****     _GLIBCXX20_CONSTEXPR
 200:/Library/DaisyToolchain/0.2.0/arm/arm-none-eabi/include/c++/10.3.1/bits/stl_algobase.h ****     _ForwardIterator2
 201:/Library/DaisyToolchain/0.2.0/arm/arm-none-eabi/include/c++/10.3.1/bits/stl_algobase.h ****     swap_ranges(_ForwardIterator1 __first1, _ForwardIterator1 __last1,
 202:/Library/DaisyToolchain/0.2.0/arm/arm-none-eabi/include/c++/10.3.1/bits/stl_algobase.h **** 		_ForwardIterator2 __first2)
 203:/Library/DaisyToolchain/0.2.0/arm/arm-none-eabi/include/c++/10.3.1/bits/stl_algobase.h ****     {
 204:/Library/DaisyToolchain/0.2.0/arm/arm-none-eabi/include/c++/10.3.1/bits/stl_algobase.h ****       // concept requirements
 205:/Library/DaisyToolchain/0.2.0/arm/arm-none-eabi/include/c++/10.3.1/bits/stl_algobase.h ****       __glibcxx_function_requires(_Mutable_ForwardIteratorConcept<
 206:/Library/DaisyToolchain/0.2.0/arm/arm-none-eabi/include/c++/10.3.1/bits/stl_algobase.h **** 				  _ForwardIterator1>)
 207:/Library/DaisyToolchain/0.2.0/arm/arm-none-eabi/include/c++/10.3.1/bits/stl_algobase.h ****       __glibcxx_function_requires(_Mutable_ForwardIteratorConcept<
 208:/Library/DaisyToolchain/0.2.0/arm/arm-none-eabi/include/c++/10.3.1/bits/stl_algobase.h **** 				  _ForwardIterator2>)
 209:/Library/DaisyToolchain/0.2.0/arm/arm-none-eabi/include/c++/10.3.1/bits/stl_algobase.h ****       __glibcxx_requires_valid_range(__first1, __last1);
 210:/Library/DaisyToolchain/0.2.0/arm/arm-none-eabi/include/c++/10.3.1/bits/stl_algobase.h **** 
 211:/Library/DaisyToolchain/0.2.0/arm/arm-none-eabi/include/c++/10.3.1/bits/stl_algobase.h ****       for (; __first1 != __last1; ++__first1, (void)++__first2)
 212:/Library/DaisyToolchain/0.2.0/arm/arm-none-eabi/include/c++/10.3.1/bits/stl_algobase.h **** 	std::iter_swap(__first1, __first2);
 213:/Library/DaisyToolchain/0.2.0/arm/arm-none-eabi/include/c++/10.3.1/bits/stl_algobase.h ****       return __first2;
 214:/Library/DaisyToolchain/0.2.0/arm/arm-none-eabi/include/c++/10.3.1/bits/stl_algobase.h ****     }
 215:/Library/DaisyToolchain/0.2.0/arm/arm-none-eabi/include/c++/10.3.1/bits/stl_algobase.h **** 
 216:/Library/DaisyToolchain/0.2.0/arm/arm-none-eabi/include/c++/10.3.1/bits/stl_algobase.h ****   /**
 217:/Library/DaisyToolchain/0.2.0/arm/arm-none-eabi/include/c++/10.3.1/bits/stl_algobase.h ****    *  @brief This does what you think it does.
 218:/Library/DaisyToolchain/0.2.0/arm/arm-none-eabi/include/c++/10.3.1/bits/stl_algobase.h ****    *  @ingroup sorting_algorithms
 219:/Library/DaisyToolchain/0.2.0/arm/arm-none-eabi/include/c++/10.3.1/bits/stl_algobase.h ****    *  @param  __a  A thing of arbitrary type.
 220:/Library/DaisyToolchain/0.2.0/arm/arm-none-eabi/include/c++/10.3.1/bits/stl_algobase.h ****    *  @param  __b  Another thing of arbitrary type.
 221:/Library/DaisyToolchain/0.2.0/arm/arm-none-eabi/include/c++/10.3.1/bits/stl_algobase.h ****    *  @return   The lesser of the parameters.
 222:/Library/DaisyToolchain/0.2.0/arm/arm-none-eabi/include/c++/10.3.1/bits/stl_algobase.h ****    *
 223:/Library/DaisyToolchain/0.2.0/arm/arm-none-eabi/include/c++/10.3.1/bits/stl_algobase.h ****    *  This is the simple classic generic implementation.  It will work on
 224:/Library/DaisyToolchain/0.2.0/arm/arm-none-eabi/include/c++/10.3.1/bits/stl_algobase.h ****    *  temporary expressions, since they are only evaluated once, unlike a
 225:/Library/DaisyToolchain/0.2.0/arm/arm-none-eabi/include/c++/10.3.1/bits/stl_algobase.h ****    *  preprocessor macro.
 226:/Library/DaisyToolchain/0.2.0/arm/arm-none-eabi/include/c++/10.3.1/bits/stl_algobase.h ****   */
 227:/Library/DaisyToolchain/0.2.0/arm/arm-none-eabi/include/c++/10.3.1/bits/stl_algobase.h ****   template<typename _Tp>
 228:/Library/DaisyToolchain/0.2.0/arm/arm-none-eabi/include/c++/10.3.1/bits/stl_algobase.h ****     _GLIBCXX14_CONSTEXPR
 229:/Library/DaisyToolchain/0.2.0/arm/arm-none-eabi/include/c++/10.3.1/bits/stl_algobase.h ****     inline const _Tp&
 230:/Library/DaisyToolchain/0.2.0/arm/arm-none-eabi/include/c++/10.3.1/bits/stl_algobase.h ****     min(const _Tp& __a, const _Tp& __b)
 231:/Library/DaisyToolchain/0.2.0/arm/arm-none-eabi/include/c++/10.3.1/bits/stl_algobase.h ****     {
 232:/Library/DaisyToolchain/0.2.0/arm/arm-none-eabi/include/c++/10.3.1/bits/stl_algobase.h ****       // concept requirements
 233:/Library/DaisyToolchain/0.2.0/arm/arm-none-eabi/include/c++/10.3.1/bits/stl_algobase.h ****       __glibcxx_function_requires(_LessThanComparableConcept<_Tp>)
 234:/Library/DaisyToolchain/0.2.0/arm/arm-none-eabi/include/c++/10.3.1/bits/stl_algobase.h ****       //return __b < __a ? __b : __a;
 235:/Library/DaisyToolchain/0.2.0/arm/arm-none-eabi/include/c++/10.3.1/bits/stl_algobase.h ****       if (__b < __a)
 604              		.loc 5 235 7 view .LVU162
 605 019a DFED785A 		vldr.32	s11, .L67+36
 606              	.LBE121:
 607              	.LBE120:
  73:mi/plaits/dsp/physical_modelling/string_voice.cpp ****     const float cutoff = min(
 608              		.loc 1 73 17 view .LVU163
 609 019e 28EE077A 		vmul.f32	s14, s16, s14
 610              	.LVL51:
  75:mi/plaits/dsp/physical_modelling/string_voice.cpp ****         0.499f);
 611              		.loc 1 75 64 view .LVU164
ARM GAS  /var/folders/9k/zk1mgrrd7wg4__6zvxvr9w8m0000gn/T//ccUrAnV6.s 			page 26


 612 01a2 E6EE097A 		vfma.f32	s15, s12, s18
 613              	.LVL52:
 614              	.LBB124:
 615              	.LBI113:
  40:mi/stmlib/dsp/units.h ****   float pitch = semitones + 128.0f;
 616              		.loc 4 40 14 is_stmt 1 view .LVU165
 617              	.LBB117:
  41:mi/stmlib/dsp/units.h ****   MAKE_INTEGRAL_FRACTIONAL(pitch)
 618              		.loc 4 41 3 view .LVU166
  41:mi/stmlib/dsp/units.h ****   MAKE_INTEGRAL_FRACTIONAL(pitch)
 619              		.loc 4 41 9 is_stmt 0 view .LVU167
 620 01a6 E7EE856A 		vfma.f32	s13, s15, s10
 621              	.LVL53:
  42:mi/stmlib/dsp/units.h **** 
 622              		.loc 4 42 3 is_stmt 1 view .LVU168
 623 01aa FDEEE67A 		vcvt.s32.f32	s15, s13
 624              	.LVL54:
  42:mi/stmlib/dsp/units.h **** 
 625              		.loc 4 42 3 view .LVU169
  44:mi/stmlib/dsp/units.h ****       lut_pitch_ratio_low[static_cast<int32_t>(pitch_fractional * 256.0f)];
 626              		.loc 4 44 3 view .LVU170
  42:mi/stmlib/dsp/units.h **** 
 627              		.loc 4 42 3 is_stmt 0 view .LVU171
 628 01ae B8EEE76A 		vcvt.f32.s32	s12, s15
  44:mi/stmlib/dsp/units.h ****       lut_pitch_ratio_low[static_cast<int32_t>(pitch_fractional * 256.0f)];
 629              		.loc 4 44 45 view .LVU172
 630 01b2 17EE90CA 		vmov	ip, s15	@ int
 631 01b6 00EB8C00 		add	r0, r0, ip, lsl #2
  42:mi/stmlib/dsp/units.h **** 
 632              		.loc 4 42 3 view .LVU173
 633 01ba 76EEC66A 		vsub.f32	s13, s13, s12
 634              		.loc 4 45 74 view .LVU174
 635 01be 90ED006A 		vldr.32	s12, [r0]
 636              		.loc 4 45 27 view .LVU175
 637 01c2 FEEECC6A 		vcvt.s32.f32	s13, s13, #8
 638              		.loc 4 45 74 view .LVU176
 639 01c6 16EE900A 		vmov	r0, s13	@ int
 640 01ca 02EB8002 		add	r2, r2, r0, lsl #2
 641 01ce D2ED007A 		vldr.32	s15, [r2]
 642 01d2 67EE867A 		vmul.f32	s15, s15, s12
 643              	.LBE117:
 644              	.LBE124:
  75:mi/plaits/dsp/physical_modelling/string_voice.cpp ****         0.499f);
 645              		.loc 1 75 11 view .LVU177
 646 01d6 27EE877A 		vmul.f32	s14, s15, s14
 647              	.LVL55:
 648              	.LBB125:
 649              	.LBI120:
 230:/Library/DaisyToolchain/0.2.0/arm/arm-none-eabi/include/c++/10.3.1/bits/stl_algobase.h ****     {
 650              		.loc 5 230 5 is_stmt 1 view .LVU178
 651              	.LBB122:
 652              		.loc 5 235 7 is_stmt 0 view .LVU179
 653 01da B4EEE57A 		vcmpe.f32	s14, s11
 654 01de F1EE10FA 		vmrs	APSR_nzcv, FPSCR
 655 01e2 00F3AA80 		bgt	.L35
 656              	.LBE122:
 657              	.LBE125:
ARM GAS  /var/folders/9k/zk1mgrrd7wg4__6zvxvr9w8m0000gn/T//ccUrAnV6.s 			page 27


 658              	.LBB126:
 659              	.LBB127:
 660              	.LBB128:
 661              	.LBB129:
 115:mi/stmlib/dsp/filter.h ****     } else if (approximation == FREQUENCY_FAST) {
 662              		.loc 2 115 30 view .LVU180
 663 01e6 DFED666A 		vldr.32	s13, .L67+40
 115:mi/stmlib/dsp/filter.h ****     } else if (approximation == FREQUENCY_FAST) {
 664              		.loc 2 115 26 view .LVU181
 665 01ea DFED667A 		vldr.32	s15, .L67+44
 115:mi/stmlib/dsp/filter.h ****     } else if (approximation == FREQUENCY_FAST) {
 666              		.loc 2 115 30 view .LVU182
 667 01ee 67EE266A 		vmul.f32	s13, s14, s13
 115:mi/stmlib/dsp/filter.h ****     } else if (approximation == FREQUENCY_FAST) {
 668              		.loc 2 115 26 view .LVU183
 669 01f2 E7EE267A 		vfma.f32	s15, s14, s13
 115:mi/stmlib/dsp/filter.h ****     } else if (approximation == FREQUENCY_FAST) {
 670              		.loc 2 115 37 view .LVU184
 671 01f6 67EE277A 		vmul.f32	s15, s14, s15
 672              	.LBE129:
 673              	.LBE128:
 226:mi/stmlib/dsp/filter.h ****   }
 674              		.loc 2 226 38 view .LVU185
 675 01fa 27EEA75A 		vmul.f32	s10, s15, s15
 676              	.L10:
 677              	.LVL56:
 226:mi/stmlib/dsp/filter.h ****   }
 678              		.loc 2 226 38 view .LVU186
 679              	.LBE127:
 680              	.LBE126:
  77:mi/plaits/dsp/physical_modelling/string_voice.cpp ****     remaining_noise_samples_ = static_cast<size_t>(1.0f / f0);
 681              		.loc 1 77 5 is_stmt 1 view .LVU187
  77:mi/plaits/dsp/physical_modelling/string_voice.cpp ****     remaining_noise_samples_ = static_cast<size_t>(1.0f / f0);
 682              		.loc 1 77 29 is_stmt 0 view .LVU188
 683 01fe 0029     		cmp	r1, #0
 684 0200 44D1     		bne	.L11
  78:mi/plaits/dsp/physical_modelling/string_voice.cpp ****     excitation_filter_.set_f_q<FREQUENCY_DIRTY>(cutoff, q);
 685              		.loc 1 78 5 is_stmt 1 view .LVU189
  78:mi/plaits/dsp/physical_modelling/string_voice.cpp ****     excitation_filter_.set_f_q<FREQUENCY_DIRTY>(cutoff, q);
 686              		.loc 1 78 57 is_stmt 0 view .LVU190
 687 0202 B7EE006A 		vmov.f32	s12, #1.0e+0
 688              	.LBB142:
 689              	.LBB132:
 224:mi/stmlib/dsp/filter.h ****     r_ = 1.0f / resonance;
 690              		.loc 2 224 8 view .LVU191
 691 0206 C4ED007A 		vstr.32	s15, [r4]
 225:mi/stmlib/dsp/filter.h ****     h_ = 1.0f / (1.0f + r_ * g_ + g_ * g_);
 692              		.loc 2 225 8 view .LVU192
 693 020a F0EE005A 		vmov.f32	s11, #2.0e+0
 226:mi/stmlib/dsp/filter.h ****   }
 694              		.loc 2 226 23 view .LVU193
 695 020e F0EE466A 		vmov.f32	s13, s12
 696              	.LBE132:
 697              	.LBE142:
  78:mi/plaits/dsp/physical_modelling/string_voice.cpp ****     excitation_filter_.set_f_q<FREQUENCY_DIRTY>(cutoff, q);
 698              		.loc 1 78 57 view .LVU194
 699 0212 86EE087A 		vdiv.f32	s14, s12, s16
ARM GAS  /var/folders/9k/zk1mgrrd7wg4__6zvxvr9w8m0000gn/T//ccUrAnV6.s 			page 28


 700              	.LBB143:
 701              	.LBB133:
 225:mi/stmlib/dsp/filter.h ****     h_ = 1.0f / (1.0f + r_ * g_ + g_ * g_);
 702              		.loc 2 225 8 view .LVU195
 703 0216 C4ED015A 		vstr.32	s11, [r4, #4]
 226:mi/stmlib/dsp/filter.h ****   }
 704              		.loc 2 226 23 view .LVU196
 705 021a E7EEA56A 		vfma.f32	s13, s15, s11
 226:mi/stmlib/dsp/filter.h ****   }
 706              		.loc 2 226 33 view .LVU197
 707 021e 76EE857A 		vadd.f32	s15, s13, s10
 226:mi/stmlib/dsp/filter.h ****   }
 708              		.loc 2 226 15 view .LVU198
 709 0222 C6EE276A 		vdiv.f32	s13, s12, s15
 710              	.LBE133:
 711              	.LBE143:
  78:mi/plaits/dsp/physical_modelling/string_voice.cpp ****     excitation_filter_.set_f_q<FREQUENCY_DIRTY>(cutoff, q);
 712              		.loc 1 78 32 view .LVU199
 713 0226 BCEEC77A 		vcvt.u32.f32	s14, s14
 714 022a 84ED177A 		vstr.32	s14, [r4, #92]	@ int
  79:mi/plaits/dsp/physical_modelling/string_voice.cpp ****   }
 715              		.loc 1 79 5 is_stmt 1 view .LVU200
 716              	.LVL57:
 717              	.LBB144:
 718              	.LBI126:
 223:mi/stmlib/dsp/filter.h ****     g_ = OnePole::tan<approximation>(f);
 719              		.loc 2 223 15 view .LVU201
 720              	.LBB134:
 721              	.LBB130:
 722              	.LBI128:
 107:mi/stmlib/dsp/filter.h ****     if (approximation == FREQUENCY_EXACT) {
 723              		.loc 2 107 23 view .LVU202
 107:mi/stmlib/dsp/filter.h ****     if (approximation == FREQUENCY_EXACT) {
 724              		.loc 2 107 23 is_stmt 0 view .LVU203
 725              	.LBE130:
 726              	.LBE134:
 727              	.LBE144:
 728              	.LBE112:
 729              	.LBE200:
  82:mi/plaits/dsp/physical_modelling/string_voice.cpp ****     const float dust_f = 0.00005f + 0.99995f * density * density;
 730              		.loc 1 82 3 is_stmt 1 view .LVU204
  87:mi/plaits/dsp/physical_modelling/string_voice.cpp ****     size_t noise_samples = min(remaining_noise_samples_, size);
 731              		.loc 1 87 10 view .LVU205
 732              	.LBB201:
  87:mi/plaits/dsp/physical_modelling/string_voice.cpp ****     size_t noise_samples = min(remaining_noise_samples_, size);
 733              		.loc 1 87 14 is_stmt 0 view .LVU206
 734 022e E16D     		ldr	r1, [r4, #92]
 735              	.LVL58:
  87:mi/plaits/dsp/physical_modelling/string_voice.cpp ****     size_t noise_samples = min(remaining_noise_samples_, size);
 736              		.loc 1 87 14 view .LVU207
 737              	.LBE201:
 738              	.LBB202:
 739              	.LBB153:
 740              	.LBB145:
 741              	.LBB135:
 226:mi/stmlib/dsp/filter.h ****   }
 742              		.loc 2 226 8 view .LVU208
ARM GAS  /var/folders/9k/zk1mgrrd7wg4__6zvxvr9w8m0000gn/T//ccUrAnV6.s 			page 29


 743 0230 C4ED026A 		vstr.32	s13, [r4, #8]
 744              	.LBE135:
 745              	.LBE145:
 746              	.LBE153:
 747              	.LBE202:
 748              	.LBB203:
  87:mi/plaits/dsp/physical_modelling/string_voice.cpp ****     size_t noise_samples = min(remaining_noise_samples_, size);
 749              		.loc 1 87 10 view .LVU209
 750 0234 0029     		cmp	r1, #0
 751 0236 7FF40DAF 		bne	.L65
 752              	.LVL59:
 753              	.L16:
  99:mi/plaits/dsp/physical_modelling/string_voice.cpp ****   }
 754              		.loc 1 99 5 is_stmt 1 view .LVU210
 755              	.LBB180:
 756              	.LBI180:
 236:/Library/DaisyToolchain/0.2.0/arm/arm-none-eabi/include/c++/10.3.1/bits/stl_algobase.h **** 	return __b;
 237:/Library/DaisyToolchain/0.2.0/arm/arm-none-eabi/include/c++/10.3.1/bits/stl_algobase.h ****       return __a;
 238:/Library/DaisyToolchain/0.2.0/arm/arm-none-eabi/include/c++/10.3.1/bits/stl_algobase.h ****     }
 239:/Library/DaisyToolchain/0.2.0/arm/arm-none-eabi/include/c++/10.3.1/bits/stl_algobase.h **** 
 240:/Library/DaisyToolchain/0.2.0/arm/arm-none-eabi/include/c++/10.3.1/bits/stl_algobase.h ****   /**
 241:/Library/DaisyToolchain/0.2.0/arm/arm-none-eabi/include/c++/10.3.1/bits/stl_algobase.h ****    *  @brief This does what you think it does.
 242:/Library/DaisyToolchain/0.2.0/arm/arm-none-eabi/include/c++/10.3.1/bits/stl_algobase.h ****    *  @ingroup sorting_algorithms
 243:/Library/DaisyToolchain/0.2.0/arm/arm-none-eabi/include/c++/10.3.1/bits/stl_algobase.h ****    *  @param  __a  A thing of arbitrary type.
 244:/Library/DaisyToolchain/0.2.0/arm/arm-none-eabi/include/c++/10.3.1/bits/stl_algobase.h ****    *  @param  __b  Another thing of arbitrary type.
 245:/Library/DaisyToolchain/0.2.0/arm/arm-none-eabi/include/c++/10.3.1/bits/stl_algobase.h ****    *  @return   The greater of the parameters.
 246:/Library/DaisyToolchain/0.2.0/arm/arm-none-eabi/include/c++/10.3.1/bits/stl_algobase.h ****    *
 247:/Library/DaisyToolchain/0.2.0/arm/arm-none-eabi/include/c++/10.3.1/bits/stl_algobase.h ****    *  This is the simple classic generic implementation.  It will work on
 248:/Library/DaisyToolchain/0.2.0/arm/arm-none-eabi/include/c++/10.3.1/bits/stl_algobase.h ****    *  temporary expressions, since they are only evaluated once, unlike a
 249:/Library/DaisyToolchain/0.2.0/arm/arm-none-eabi/include/c++/10.3.1/bits/stl_algobase.h ****    *  preprocessor macro.
 250:/Library/DaisyToolchain/0.2.0/arm/arm-none-eabi/include/c++/10.3.1/bits/stl_algobase.h ****   */
 251:/Library/DaisyToolchain/0.2.0/arm/arm-none-eabi/include/c++/10.3.1/bits/stl_algobase.h ****   template<typename _Tp>
 252:/Library/DaisyToolchain/0.2.0/arm/arm-none-eabi/include/c++/10.3.1/bits/stl_algobase.h ****     _GLIBCXX14_CONSTEXPR
 253:/Library/DaisyToolchain/0.2.0/arm/arm-none-eabi/include/c++/10.3.1/bits/stl_algobase.h ****     inline const _Tp&
 254:/Library/DaisyToolchain/0.2.0/arm/arm-none-eabi/include/c++/10.3.1/bits/stl_algobase.h ****     max(const _Tp& __a, const _Tp& __b)
 255:/Library/DaisyToolchain/0.2.0/arm/arm-none-eabi/include/c++/10.3.1/bits/stl_algobase.h ****     {
 256:/Library/DaisyToolchain/0.2.0/arm/arm-none-eabi/include/c++/10.3.1/bits/stl_algobase.h ****       // concept requirements
 257:/Library/DaisyToolchain/0.2.0/arm/arm-none-eabi/include/c++/10.3.1/bits/stl_algobase.h ****       __glibcxx_function_requires(_LessThanComparableConcept<_Tp>)
 258:/Library/DaisyToolchain/0.2.0/arm/arm-none-eabi/include/c++/10.3.1/bits/stl_algobase.h ****       //return  __a < __b ? __b : __a;
 259:/Library/DaisyToolchain/0.2.0/arm/arm-none-eabi/include/c++/10.3.1/bits/stl_algobase.h ****       if (__a < __b)
 260:/Library/DaisyToolchain/0.2.0/arm/arm-none-eabi/include/c++/10.3.1/bits/stl_algobase.h **** 	return __b;
 261:/Library/DaisyToolchain/0.2.0/arm/arm-none-eabi/include/c++/10.3.1/bits/stl_algobase.h ****       return __a;
 262:/Library/DaisyToolchain/0.2.0/arm/arm-none-eabi/include/c++/10.3.1/bits/stl_algobase.h ****     }
 263:/Library/DaisyToolchain/0.2.0/arm/arm-none-eabi/include/c++/10.3.1/bits/stl_algobase.h **** 
 264:/Library/DaisyToolchain/0.2.0/arm/arm-none-eabi/include/c++/10.3.1/bits/stl_algobase.h ****   /**
 265:/Library/DaisyToolchain/0.2.0/arm/arm-none-eabi/include/c++/10.3.1/bits/stl_algobase.h ****    *  @brief This does what you think it does.
 266:/Library/DaisyToolchain/0.2.0/arm/arm-none-eabi/include/c++/10.3.1/bits/stl_algobase.h ****    *  @ingroup sorting_algorithms
 267:/Library/DaisyToolchain/0.2.0/arm/arm-none-eabi/include/c++/10.3.1/bits/stl_algobase.h ****    *  @param  __a  A thing of arbitrary type.
 268:/Library/DaisyToolchain/0.2.0/arm/arm-none-eabi/include/c++/10.3.1/bits/stl_algobase.h ****    *  @param  __b  Another thing of arbitrary type.
 269:/Library/DaisyToolchain/0.2.0/arm/arm-none-eabi/include/c++/10.3.1/bits/stl_algobase.h ****    *  @param  __comp  A @link comparison_functors comparison functor@endlink.
 270:/Library/DaisyToolchain/0.2.0/arm/arm-none-eabi/include/c++/10.3.1/bits/stl_algobase.h ****    *  @return   The lesser of the parameters.
 271:/Library/DaisyToolchain/0.2.0/arm/arm-none-eabi/include/c++/10.3.1/bits/stl_algobase.h ****    *
 272:/Library/DaisyToolchain/0.2.0/arm/arm-none-eabi/include/c++/10.3.1/bits/stl_algobase.h ****    *  This will work on temporary expressions, since they are only evaluated
 273:/Library/DaisyToolchain/0.2.0/arm/arm-none-eabi/include/c++/10.3.1/bits/stl_algobase.h ****    *  once, unlike a preprocessor macro.
 274:/Library/DaisyToolchain/0.2.0/arm/arm-none-eabi/include/c++/10.3.1/bits/stl_algobase.h ****   */
 275:/Library/DaisyToolchain/0.2.0/arm/arm-none-eabi/include/c++/10.3.1/bits/stl_algobase.h ****   template<typename _Tp, typename _Compare>
 276:/Library/DaisyToolchain/0.2.0/arm/arm-none-eabi/include/c++/10.3.1/bits/stl_algobase.h ****     _GLIBCXX14_CONSTEXPR
ARM GAS  /var/folders/9k/zk1mgrrd7wg4__6zvxvr9w8m0000gn/T//ccUrAnV6.s 			page 30


 277:/Library/DaisyToolchain/0.2.0/arm/arm-none-eabi/include/c++/10.3.1/bits/stl_algobase.h ****     inline const _Tp&
 278:/Library/DaisyToolchain/0.2.0/arm/arm-none-eabi/include/c++/10.3.1/bits/stl_algobase.h ****     min(const _Tp& __a, const _Tp& __b, _Compare __comp)
 279:/Library/DaisyToolchain/0.2.0/arm/arm-none-eabi/include/c++/10.3.1/bits/stl_algobase.h ****     {
 280:/Library/DaisyToolchain/0.2.0/arm/arm-none-eabi/include/c++/10.3.1/bits/stl_algobase.h ****       //return __comp(__b, __a) ? __b : __a;
 281:/Library/DaisyToolchain/0.2.0/arm/arm-none-eabi/include/c++/10.3.1/bits/stl_algobase.h ****       if (__comp(__b, __a))
 282:/Library/DaisyToolchain/0.2.0/arm/arm-none-eabi/include/c++/10.3.1/bits/stl_algobase.h **** 	return __b;
 283:/Library/DaisyToolchain/0.2.0/arm/arm-none-eabi/include/c++/10.3.1/bits/stl_algobase.h ****       return __a;
 284:/Library/DaisyToolchain/0.2.0/arm/arm-none-eabi/include/c++/10.3.1/bits/stl_algobase.h ****     }
 285:/Library/DaisyToolchain/0.2.0/arm/arm-none-eabi/include/c++/10.3.1/bits/stl_algobase.h **** 
 286:/Library/DaisyToolchain/0.2.0/arm/arm-none-eabi/include/c++/10.3.1/bits/stl_algobase.h ****   /**
 287:/Library/DaisyToolchain/0.2.0/arm/arm-none-eabi/include/c++/10.3.1/bits/stl_algobase.h ****    *  @brief This does what you think it does.
 288:/Library/DaisyToolchain/0.2.0/arm/arm-none-eabi/include/c++/10.3.1/bits/stl_algobase.h ****    *  @ingroup sorting_algorithms
 289:/Library/DaisyToolchain/0.2.0/arm/arm-none-eabi/include/c++/10.3.1/bits/stl_algobase.h ****    *  @param  __a  A thing of arbitrary type.
 290:/Library/DaisyToolchain/0.2.0/arm/arm-none-eabi/include/c++/10.3.1/bits/stl_algobase.h ****    *  @param  __b  Another thing of arbitrary type.
 291:/Library/DaisyToolchain/0.2.0/arm/arm-none-eabi/include/c++/10.3.1/bits/stl_algobase.h ****    *  @param  __comp  A @link comparison_functors comparison functor@endlink.
 292:/Library/DaisyToolchain/0.2.0/arm/arm-none-eabi/include/c++/10.3.1/bits/stl_algobase.h ****    *  @return   The greater of the parameters.
 293:/Library/DaisyToolchain/0.2.0/arm/arm-none-eabi/include/c++/10.3.1/bits/stl_algobase.h ****    *
 294:/Library/DaisyToolchain/0.2.0/arm/arm-none-eabi/include/c++/10.3.1/bits/stl_algobase.h ****    *  This will work on temporary expressions, since they are only evaluated
 295:/Library/DaisyToolchain/0.2.0/arm/arm-none-eabi/include/c++/10.3.1/bits/stl_algobase.h ****    *  once, unlike a preprocessor macro.
 296:/Library/DaisyToolchain/0.2.0/arm/arm-none-eabi/include/c++/10.3.1/bits/stl_algobase.h ****   */
 297:/Library/DaisyToolchain/0.2.0/arm/arm-none-eabi/include/c++/10.3.1/bits/stl_algobase.h ****   template<typename _Tp, typename _Compare>
 298:/Library/DaisyToolchain/0.2.0/arm/arm-none-eabi/include/c++/10.3.1/bits/stl_algobase.h ****     _GLIBCXX14_CONSTEXPR
 299:/Library/DaisyToolchain/0.2.0/arm/arm-none-eabi/include/c++/10.3.1/bits/stl_algobase.h ****     inline const _Tp&
 300:/Library/DaisyToolchain/0.2.0/arm/arm-none-eabi/include/c++/10.3.1/bits/stl_algobase.h ****     max(const _Tp& __a, const _Tp& __b, _Compare __comp)
 301:/Library/DaisyToolchain/0.2.0/arm/arm-none-eabi/include/c++/10.3.1/bits/stl_algobase.h ****     {
 302:/Library/DaisyToolchain/0.2.0/arm/arm-none-eabi/include/c++/10.3.1/bits/stl_algobase.h ****       //return __comp(__a, __b) ? __b : __a;
 303:/Library/DaisyToolchain/0.2.0/arm/arm-none-eabi/include/c++/10.3.1/bits/stl_algobase.h ****       if (__comp(__a, __b))
 304:/Library/DaisyToolchain/0.2.0/arm/arm-none-eabi/include/c++/10.3.1/bits/stl_algobase.h **** 	return __b;
 305:/Library/DaisyToolchain/0.2.0/arm/arm-none-eabi/include/c++/10.3.1/bits/stl_algobase.h ****       return __a;
 306:/Library/DaisyToolchain/0.2.0/arm/arm-none-eabi/include/c++/10.3.1/bits/stl_algobase.h ****     }
 307:/Library/DaisyToolchain/0.2.0/arm/arm-none-eabi/include/c++/10.3.1/bits/stl_algobase.h **** 
 308:/Library/DaisyToolchain/0.2.0/arm/arm-none-eabi/include/c++/10.3.1/bits/stl_algobase.h ****   // Fallback implementation of the function in bits/stl_iterator.h used to
 309:/Library/DaisyToolchain/0.2.0/arm/arm-none-eabi/include/c++/10.3.1/bits/stl_algobase.h ****   // remove the __normal_iterator wrapper. See copy, fill, ...
 310:/Library/DaisyToolchain/0.2.0/arm/arm-none-eabi/include/c++/10.3.1/bits/stl_algobase.h ****   template<typename _Iterator>
 311:/Library/DaisyToolchain/0.2.0/arm/arm-none-eabi/include/c++/10.3.1/bits/stl_algobase.h ****     _GLIBCXX20_CONSTEXPR
 312:/Library/DaisyToolchain/0.2.0/arm/arm-none-eabi/include/c++/10.3.1/bits/stl_algobase.h ****     inline _Iterator
 313:/Library/DaisyToolchain/0.2.0/arm/arm-none-eabi/include/c++/10.3.1/bits/stl_algobase.h ****     __niter_base(_Iterator __it)
 314:/Library/DaisyToolchain/0.2.0/arm/arm-none-eabi/include/c++/10.3.1/bits/stl_algobase.h ****     _GLIBCXX_NOEXCEPT_IF(std::is_nothrow_copy_constructible<_Iterator>::value)
 315:/Library/DaisyToolchain/0.2.0/arm/arm-none-eabi/include/c++/10.3.1/bits/stl_algobase.h ****     { return __it; }
 316:/Library/DaisyToolchain/0.2.0/arm/arm-none-eabi/include/c++/10.3.1/bits/stl_algobase.h **** 
 317:/Library/DaisyToolchain/0.2.0/arm/arm-none-eabi/include/c++/10.3.1/bits/stl_algobase.h ****   // Reverse the __niter_base transformation to get a
 318:/Library/DaisyToolchain/0.2.0/arm/arm-none-eabi/include/c++/10.3.1/bits/stl_algobase.h ****   // __normal_iterator back again (this assumes that __normal_iterator
 319:/Library/DaisyToolchain/0.2.0/arm/arm-none-eabi/include/c++/10.3.1/bits/stl_algobase.h ****   // is only used to wrap random access iterators, like pointers).
 320:/Library/DaisyToolchain/0.2.0/arm/arm-none-eabi/include/c++/10.3.1/bits/stl_algobase.h ****   template<typename _From, typename _To>
 321:/Library/DaisyToolchain/0.2.0/arm/arm-none-eabi/include/c++/10.3.1/bits/stl_algobase.h ****     _GLIBCXX20_CONSTEXPR
 322:/Library/DaisyToolchain/0.2.0/arm/arm-none-eabi/include/c++/10.3.1/bits/stl_algobase.h ****     inline _From
 323:/Library/DaisyToolchain/0.2.0/arm/arm-none-eabi/include/c++/10.3.1/bits/stl_algobase.h ****     __niter_wrap(_From __from, _To __res)
 324:/Library/DaisyToolchain/0.2.0/arm/arm-none-eabi/include/c++/10.3.1/bits/stl_algobase.h ****     { return __from + (__res - std::__niter_base(__from)); }
 325:/Library/DaisyToolchain/0.2.0/arm/arm-none-eabi/include/c++/10.3.1/bits/stl_algobase.h **** 
 326:/Library/DaisyToolchain/0.2.0/arm/arm-none-eabi/include/c++/10.3.1/bits/stl_algobase.h ****   // No need to wrap, iterator already has the right type.
 327:/Library/DaisyToolchain/0.2.0/arm/arm-none-eabi/include/c++/10.3.1/bits/stl_algobase.h ****   template<typename _Iterator>
 328:/Library/DaisyToolchain/0.2.0/arm/arm-none-eabi/include/c++/10.3.1/bits/stl_algobase.h ****     _GLIBCXX20_CONSTEXPR
 329:/Library/DaisyToolchain/0.2.0/arm/arm-none-eabi/include/c++/10.3.1/bits/stl_algobase.h ****     inline _Iterator
 330:/Library/DaisyToolchain/0.2.0/arm/arm-none-eabi/include/c++/10.3.1/bits/stl_algobase.h ****     __niter_wrap(const _Iterator&, _Iterator __res)
 331:/Library/DaisyToolchain/0.2.0/arm/arm-none-eabi/include/c++/10.3.1/bits/stl_algobase.h ****     { return __res; }
 332:/Library/DaisyToolchain/0.2.0/arm/arm-none-eabi/include/c++/10.3.1/bits/stl_algobase.h **** 
 333:/Library/DaisyToolchain/0.2.0/arm/arm-none-eabi/include/c++/10.3.1/bits/stl_algobase.h ****   // All of these auxiliary structs serve two purposes.  (1) Replace
ARM GAS  /var/folders/9k/zk1mgrrd7wg4__6zvxvr9w8m0000gn/T//ccUrAnV6.s 			page 31


 334:/Library/DaisyToolchain/0.2.0/arm/arm-none-eabi/include/c++/10.3.1/bits/stl_algobase.h ****   // calls to copy with memmove whenever possible.  (Memmove, not memcpy,
 335:/Library/DaisyToolchain/0.2.0/arm/arm-none-eabi/include/c++/10.3.1/bits/stl_algobase.h ****   // because the input and output ranges are permitted to overlap.)
 336:/Library/DaisyToolchain/0.2.0/arm/arm-none-eabi/include/c++/10.3.1/bits/stl_algobase.h ****   // (2) If we're using random access iterators, then write the loop as
 337:/Library/DaisyToolchain/0.2.0/arm/arm-none-eabi/include/c++/10.3.1/bits/stl_algobase.h ****   // a for loop with an explicit count.
 338:/Library/DaisyToolchain/0.2.0/arm/arm-none-eabi/include/c++/10.3.1/bits/stl_algobase.h **** 
 339:/Library/DaisyToolchain/0.2.0/arm/arm-none-eabi/include/c++/10.3.1/bits/stl_algobase.h ****   template<bool _IsMove, bool _IsSimple, typename _Category>
 340:/Library/DaisyToolchain/0.2.0/arm/arm-none-eabi/include/c++/10.3.1/bits/stl_algobase.h ****     struct __copy_move
 341:/Library/DaisyToolchain/0.2.0/arm/arm-none-eabi/include/c++/10.3.1/bits/stl_algobase.h ****     {
 342:/Library/DaisyToolchain/0.2.0/arm/arm-none-eabi/include/c++/10.3.1/bits/stl_algobase.h ****       template<typename _II, typename _OI>
 343:/Library/DaisyToolchain/0.2.0/arm/arm-none-eabi/include/c++/10.3.1/bits/stl_algobase.h **** 	_GLIBCXX20_CONSTEXPR
 344:/Library/DaisyToolchain/0.2.0/arm/arm-none-eabi/include/c++/10.3.1/bits/stl_algobase.h **** 	static _OI
 345:/Library/DaisyToolchain/0.2.0/arm/arm-none-eabi/include/c++/10.3.1/bits/stl_algobase.h **** 	__copy_m(_II __first, _II __last, _OI __result)
 346:/Library/DaisyToolchain/0.2.0/arm/arm-none-eabi/include/c++/10.3.1/bits/stl_algobase.h **** 	{
 347:/Library/DaisyToolchain/0.2.0/arm/arm-none-eabi/include/c++/10.3.1/bits/stl_algobase.h **** 	  for (; __first != __last; ++__result, (void)++__first)
 348:/Library/DaisyToolchain/0.2.0/arm/arm-none-eabi/include/c++/10.3.1/bits/stl_algobase.h **** 	    *__result = *__first;
 349:/Library/DaisyToolchain/0.2.0/arm/arm-none-eabi/include/c++/10.3.1/bits/stl_algobase.h **** 	  return __result;
 350:/Library/DaisyToolchain/0.2.0/arm/arm-none-eabi/include/c++/10.3.1/bits/stl_algobase.h **** 	}
 351:/Library/DaisyToolchain/0.2.0/arm/arm-none-eabi/include/c++/10.3.1/bits/stl_algobase.h ****     };
 352:/Library/DaisyToolchain/0.2.0/arm/arm-none-eabi/include/c++/10.3.1/bits/stl_algobase.h **** 
 353:/Library/DaisyToolchain/0.2.0/arm/arm-none-eabi/include/c++/10.3.1/bits/stl_algobase.h **** #if __cplusplus >= 201103L
 354:/Library/DaisyToolchain/0.2.0/arm/arm-none-eabi/include/c++/10.3.1/bits/stl_algobase.h ****   template<typename _Category>
 355:/Library/DaisyToolchain/0.2.0/arm/arm-none-eabi/include/c++/10.3.1/bits/stl_algobase.h ****     struct __copy_move<true, false, _Category>
 356:/Library/DaisyToolchain/0.2.0/arm/arm-none-eabi/include/c++/10.3.1/bits/stl_algobase.h ****     {
 357:/Library/DaisyToolchain/0.2.0/arm/arm-none-eabi/include/c++/10.3.1/bits/stl_algobase.h ****       template<typename _II, typename _OI>
 358:/Library/DaisyToolchain/0.2.0/arm/arm-none-eabi/include/c++/10.3.1/bits/stl_algobase.h **** 	_GLIBCXX20_CONSTEXPR
 359:/Library/DaisyToolchain/0.2.0/arm/arm-none-eabi/include/c++/10.3.1/bits/stl_algobase.h **** 	static _OI
 360:/Library/DaisyToolchain/0.2.0/arm/arm-none-eabi/include/c++/10.3.1/bits/stl_algobase.h **** 	__copy_m(_II __first, _II __last, _OI __result)
 361:/Library/DaisyToolchain/0.2.0/arm/arm-none-eabi/include/c++/10.3.1/bits/stl_algobase.h **** 	{
 362:/Library/DaisyToolchain/0.2.0/arm/arm-none-eabi/include/c++/10.3.1/bits/stl_algobase.h **** 	  for (; __first != __last; ++__result, (void)++__first)
 363:/Library/DaisyToolchain/0.2.0/arm/arm-none-eabi/include/c++/10.3.1/bits/stl_algobase.h **** 	    *__result = std::move(*__first);
 364:/Library/DaisyToolchain/0.2.0/arm/arm-none-eabi/include/c++/10.3.1/bits/stl_algobase.h **** 	  return __result;
 365:/Library/DaisyToolchain/0.2.0/arm/arm-none-eabi/include/c++/10.3.1/bits/stl_algobase.h **** 	}
 366:/Library/DaisyToolchain/0.2.0/arm/arm-none-eabi/include/c++/10.3.1/bits/stl_algobase.h ****     };
 367:/Library/DaisyToolchain/0.2.0/arm/arm-none-eabi/include/c++/10.3.1/bits/stl_algobase.h **** #endif
 368:/Library/DaisyToolchain/0.2.0/arm/arm-none-eabi/include/c++/10.3.1/bits/stl_algobase.h **** 
 369:/Library/DaisyToolchain/0.2.0/arm/arm-none-eabi/include/c++/10.3.1/bits/stl_algobase.h ****   template<>
 370:/Library/DaisyToolchain/0.2.0/arm/arm-none-eabi/include/c++/10.3.1/bits/stl_algobase.h ****     struct __copy_move<false, false, random_access_iterator_tag>
 371:/Library/DaisyToolchain/0.2.0/arm/arm-none-eabi/include/c++/10.3.1/bits/stl_algobase.h ****     {
 372:/Library/DaisyToolchain/0.2.0/arm/arm-none-eabi/include/c++/10.3.1/bits/stl_algobase.h ****       template<typename _II, typename _OI>
 373:/Library/DaisyToolchain/0.2.0/arm/arm-none-eabi/include/c++/10.3.1/bits/stl_algobase.h **** 	_GLIBCXX20_CONSTEXPR
 374:/Library/DaisyToolchain/0.2.0/arm/arm-none-eabi/include/c++/10.3.1/bits/stl_algobase.h **** 	static _OI
 375:/Library/DaisyToolchain/0.2.0/arm/arm-none-eabi/include/c++/10.3.1/bits/stl_algobase.h **** 	__copy_m(_II __first, _II __last, _OI __result)
 376:/Library/DaisyToolchain/0.2.0/arm/arm-none-eabi/include/c++/10.3.1/bits/stl_algobase.h **** 	{
 377:/Library/DaisyToolchain/0.2.0/arm/arm-none-eabi/include/c++/10.3.1/bits/stl_algobase.h **** 	  typedef typename iterator_traits<_II>::difference_type _Distance;
 378:/Library/DaisyToolchain/0.2.0/arm/arm-none-eabi/include/c++/10.3.1/bits/stl_algobase.h **** 	  for(_Distance __n = __last - __first; __n > 0; --__n)
 379:/Library/DaisyToolchain/0.2.0/arm/arm-none-eabi/include/c++/10.3.1/bits/stl_algobase.h **** 	    {
 380:/Library/DaisyToolchain/0.2.0/arm/arm-none-eabi/include/c++/10.3.1/bits/stl_algobase.h **** 	      *__result = *__first;
 381:/Library/DaisyToolchain/0.2.0/arm/arm-none-eabi/include/c++/10.3.1/bits/stl_algobase.h **** 	      ++__first;
 382:/Library/DaisyToolchain/0.2.0/arm/arm-none-eabi/include/c++/10.3.1/bits/stl_algobase.h **** 	      ++__result;
 383:/Library/DaisyToolchain/0.2.0/arm/arm-none-eabi/include/c++/10.3.1/bits/stl_algobase.h **** 	    }
 384:/Library/DaisyToolchain/0.2.0/arm/arm-none-eabi/include/c++/10.3.1/bits/stl_algobase.h **** 	  return __result;
 385:/Library/DaisyToolchain/0.2.0/arm/arm-none-eabi/include/c++/10.3.1/bits/stl_algobase.h **** 	}
 386:/Library/DaisyToolchain/0.2.0/arm/arm-none-eabi/include/c++/10.3.1/bits/stl_algobase.h ****     };
 387:/Library/DaisyToolchain/0.2.0/arm/arm-none-eabi/include/c++/10.3.1/bits/stl_algobase.h **** 
 388:/Library/DaisyToolchain/0.2.0/arm/arm-none-eabi/include/c++/10.3.1/bits/stl_algobase.h **** #if __cplusplus >= 201103L
 389:/Library/DaisyToolchain/0.2.0/arm/arm-none-eabi/include/c++/10.3.1/bits/stl_algobase.h ****   template<>
 390:/Library/DaisyToolchain/0.2.0/arm/arm-none-eabi/include/c++/10.3.1/bits/stl_algobase.h ****     struct __copy_move<true, false, random_access_iterator_tag>
ARM GAS  /var/folders/9k/zk1mgrrd7wg4__6zvxvr9w8m0000gn/T//ccUrAnV6.s 			page 32


 391:/Library/DaisyToolchain/0.2.0/arm/arm-none-eabi/include/c++/10.3.1/bits/stl_algobase.h ****     {
 392:/Library/DaisyToolchain/0.2.0/arm/arm-none-eabi/include/c++/10.3.1/bits/stl_algobase.h ****       template<typename _II, typename _OI>
 393:/Library/DaisyToolchain/0.2.0/arm/arm-none-eabi/include/c++/10.3.1/bits/stl_algobase.h **** 	_GLIBCXX20_CONSTEXPR
 394:/Library/DaisyToolchain/0.2.0/arm/arm-none-eabi/include/c++/10.3.1/bits/stl_algobase.h **** 	static _OI
 395:/Library/DaisyToolchain/0.2.0/arm/arm-none-eabi/include/c++/10.3.1/bits/stl_algobase.h **** 	__copy_m(_II __first, _II __last, _OI __result)
 396:/Library/DaisyToolchain/0.2.0/arm/arm-none-eabi/include/c++/10.3.1/bits/stl_algobase.h **** 	{
 397:/Library/DaisyToolchain/0.2.0/arm/arm-none-eabi/include/c++/10.3.1/bits/stl_algobase.h **** 	  typedef typename iterator_traits<_II>::difference_type _Distance;
 398:/Library/DaisyToolchain/0.2.0/arm/arm-none-eabi/include/c++/10.3.1/bits/stl_algobase.h **** 	  for(_Distance __n = __last - __first; __n > 0; --__n)
 399:/Library/DaisyToolchain/0.2.0/arm/arm-none-eabi/include/c++/10.3.1/bits/stl_algobase.h **** 	    {
 400:/Library/DaisyToolchain/0.2.0/arm/arm-none-eabi/include/c++/10.3.1/bits/stl_algobase.h **** 	      *__result = std::move(*__first);
 401:/Library/DaisyToolchain/0.2.0/arm/arm-none-eabi/include/c++/10.3.1/bits/stl_algobase.h **** 	      ++__first;
 402:/Library/DaisyToolchain/0.2.0/arm/arm-none-eabi/include/c++/10.3.1/bits/stl_algobase.h **** 	      ++__result;
 403:/Library/DaisyToolchain/0.2.0/arm/arm-none-eabi/include/c++/10.3.1/bits/stl_algobase.h **** 	    }
 404:/Library/DaisyToolchain/0.2.0/arm/arm-none-eabi/include/c++/10.3.1/bits/stl_algobase.h **** 	  return __result;
 405:/Library/DaisyToolchain/0.2.0/arm/arm-none-eabi/include/c++/10.3.1/bits/stl_algobase.h **** 	}
 406:/Library/DaisyToolchain/0.2.0/arm/arm-none-eabi/include/c++/10.3.1/bits/stl_algobase.h ****     };
 407:/Library/DaisyToolchain/0.2.0/arm/arm-none-eabi/include/c++/10.3.1/bits/stl_algobase.h **** #endif
 408:/Library/DaisyToolchain/0.2.0/arm/arm-none-eabi/include/c++/10.3.1/bits/stl_algobase.h **** 
 409:/Library/DaisyToolchain/0.2.0/arm/arm-none-eabi/include/c++/10.3.1/bits/stl_algobase.h ****   template<bool _IsMove>
 410:/Library/DaisyToolchain/0.2.0/arm/arm-none-eabi/include/c++/10.3.1/bits/stl_algobase.h ****     struct __copy_move<_IsMove, true, random_access_iterator_tag>
 411:/Library/DaisyToolchain/0.2.0/arm/arm-none-eabi/include/c++/10.3.1/bits/stl_algobase.h ****     {
 412:/Library/DaisyToolchain/0.2.0/arm/arm-none-eabi/include/c++/10.3.1/bits/stl_algobase.h ****       template<typename _Tp>
 413:/Library/DaisyToolchain/0.2.0/arm/arm-none-eabi/include/c++/10.3.1/bits/stl_algobase.h **** 	_GLIBCXX20_CONSTEXPR
 414:/Library/DaisyToolchain/0.2.0/arm/arm-none-eabi/include/c++/10.3.1/bits/stl_algobase.h **** 	static _Tp*
 415:/Library/DaisyToolchain/0.2.0/arm/arm-none-eabi/include/c++/10.3.1/bits/stl_algobase.h **** 	__copy_m(const _Tp* __first, const _Tp* __last, _Tp* __result)
 416:/Library/DaisyToolchain/0.2.0/arm/arm-none-eabi/include/c++/10.3.1/bits/stl_algobase.h **** 	{
 417:/Library/DaisyToolchain/0.2.0/arm/arm-none-eabi/include/c++/10.3.1/bits/stl_algobase.h **** #if __cplusplus >= 201103L
 418:/Library/DaisyToolchain/0.2.0/arm/arm-none-eabi/include/c++/10.3.1/bits/stl_algobase.h **** 	  using __assignable = conditional<_IsMove,
 419:/Library/DaisyToolchain/0.2.0/arm/arm-none-eabi/include/c++/10.3.1/bits/stl_algobase.h **** 					   is_move_assignable<_Tp>,
 420:/Library/DaisyToolchain/0.2.0/arm/arm-none-eabi/include/c++/10.3.1/bits/stl_algobase.h **** 					   is_copy_assignable<_Tp>>;
 421:/Library/DaisyToolchain/0.2.0/arm/arm-none-eabi/include/c++/10.3.1/bits/stl_algobase.h **** 	  // trivial types can have deleted assignment
 422:/Library/DaisyToolchain/0.2.0/arm/arm-none-eabi/include/c++/10.3.1/bits/stl_algobase.h **** 	  static_assert( __assignable::type::value, "type is not assignable" );
 423:/Library/DaisyToolchain/0.2.0/arm/arm-none-eabi/include/c++/10.3.1/bits/stl_algobase.h **** #endif
 424:/Library/DaisyToolchain/0.2.0/arm/arm-none-eabi/include/c++/10.3.1/bits/stl_algobase.h **** 	  const ptrdiff_t _Num = __last - __first;
 425:/Library/DaisyToolchain/0.2.0/arm/arm-none-eabi/include/c++/10.3.1/bits/stl_algobase.h **** 	  if (_Num)
 426:/Library/DaisyToolchain/0.2.0/arm/arm-none-eabi/include/c++/10.3.1/bits/stl_algobase.h **** 	    __builtin_memmove(__result, __first, sizeof(_Tp) * _Num);
 427:/Library/DaisyToolchain/0.2.0/arm/arm-none-eabi/include/c++/10.3.1/bits/stl_algobase.h **** 	  return __result + _Num;
 428:/Library/DaisyToolchain/0.2.0/arm/arm-none-eabi/include/c++/10.3.1/bits/stl_algobase.h **** 	}
 429:/Library/DaisyToolchain/0.2.0/arm/arm-none-eabi/include/c++/10.3.1/bits/stl_algobase.h ****     };
 430:/Library/DaisyToolchain/0.2.0/arm/arm-none-eabi/include/c++/10.3.1/bits/stl_algobase.h **** 
 431:/Library/DaisyToolchain/0.2.0/arm/arm-none-eabi/include/c++/10.3.1/bits/stl_algobase.h ****   // Helpers for streambuf iterators (either istream or ostream).
 432:/Library/DaisyToolchain/0.2.0/arm/arm-none-eabi/include/c++/10.3.1/bits/stl_algobase.h ****   // NB: avoid including <iosfwd>, relatively large.
 433:/Library/DaisyToolchain/0.2.0/arm/arm-none-eabi/include/c++/10.3.1/bits/stl_algobase.h ****   template<typename _CharT>
 434:/Library/DaisyToolchain/0.2.0/arm/arm-none-eabi/include/c++/10.3.1/bits/stl_algobase.h ****     struct char_traits;
 435:/Library/DaisyToolchain/0.2.0/arm/arm-none-eabi/include/c++/10.3.1/bits/stl_algobase.h **** 
 436:/Library/DaisyToolchain/0.2.0/arm/arm-none-eabi/include/c++/10.3.1/bits/stl_algobase.h ****   template<typename _CharT, typename _Traits>
 437:/Library/DaisyToolchain/0.2.0/arm/arm-none-eabi/include/c++/10.3.1/bits/stl_algobase.h ****     class istreambuf_iterator;
 438:/Library/DaisyToolchain/0.2.0/arm/arm-none-eabi/include/c++/10.3.1/bits/stl_algobase.h **** 
 439:/Library/DaisyToolchain/0.2.0/arm/arm-none-eabi/include/c++/10.3.1/bits/stl_algobase.h ****   template<typename _CharT, typename _Traits>
 440:/Library/DaisyToolchain/0.2.0/arm/arm-none-eabi/include/c++/10.3.1/bits/stl_algobase.h ****     class ostreambuf_iterator;
 441:/Library/DaisyToolchain/0.2.0/arm/arm-none-eabi/include/c++/10.3.1/bits/stl_algobase.h **** 
 442:/Library/DaisyToolchain/0.2.0/arm/arm-none-eabi/include/c++/10.3.1/bits/stl_algobase.h ****   template<bool _IsMove, typename _CharT>
 443:/Library/DaisyToolchain/0.2.0/arm/arm-none-eabi/include/c++/10.3.1/bits/stl_algobase.h ****     typename __gnu_cxx::__enable_if<__is_char<_CharT>::__value,
 444:/Library/DaisyToolchain/0.2.0/arm/arm-none-eabi/include/c++/10.3.1/bits/stl_algobase.h **** 	     ostreambuf_iterator<_CharT, char_traits<_CharT> > >::__type
 445:/Library/DaisyToolchain/0.2.0/arm/arm-none-eabi/include/c++/10.3.1/bits/stl_algobase.h ****     __copy_move_a2(_CharT*, _CharT*,
 446:/Library/DaisyToolchain/0.2.0/arm/arm-none-eabi/include/c++/10.3.1/bits/stl_algobase.h **** 		   ostreambuf_iterator<_CharT, char_traits<_CharT> >);
 447:/Library/DaisyToolchain/0.2.0/arm/arm-none-eabi/include/c++/10.3.1/bits/stl_algobase.h **** 
ARM GAS  /var/folders/9k/zk1mgrrd7wg4__6zvxvr9w8m0000gn/T//ccUrAnV6.s 			page 33


 448:/Library/DaisyToolchain/0.2.0/arm/arm-none-eabi/include/c++/10.3.1/bits/stl_algobase.h ****   template<bool _IsMove, typename _CharT>
 449:/Library/DaisyToolchain/0.2.0/arm/arm-none-eabi/include/c++/10.3.1/bits/stl_algobase.h ****     typename __gnu_cxx::__enable_if<__is_char<_CharT>::__value,
 450:/Library/DaisyToolchain/0.2.0/arm/arm-none-eabi/include/c++/10.3.1/bits/stl_algobase.h **** 	     ostreambuf_iterator<_CharT, char_traits<_CharT> > >::__type
 451:/Library/DaisyToolchain/0.2.0/arm/arm-none-eabi/include/c++/10.3.1/bits/stl_algobase.h ****     __copy_move_a2(const _CharT*, const _CharT*,
 452:/Library/DaisyToolchain/0.2.0/arm/arm-none-eabi/include/c++/10.3.1/bits/stl_algobase.h **** 		   ostreambuf_iterator<_CharT, char_traits<_CharT> >);
 453:/Library/DaisyToolchain/0.2.0/arm/arm-none-eabi/include/c++/10.3.1/bits/stl_algobase.h **** 
 454:/Library/DaisyToolchain/0.2.0/arm/arm-none-eabi/include/c++/10.3.1/bits/stl_algobase.h ****   template<bool _IsMove, typename _CharT>
 455:/Library/DaisyToolchain/0.2.0/arm/arm-none-eabi/include/c++/10.3.1/bits/stl_algobase.h ****     typename __gnu_cxx::__enable_if<__is_char<_CharT>::__value,
 456:/Library/DaisyToolchain/0.2.0/arm/arm-none-eabi/include/c++/10.3.1/bits/stl_algobase.h **** 				    _CharT*>::__type
 457:/Library/DaisyToolchain/0.2.0/arm/arm-none-eabi/include/c++/10.3.1/bits/stl_algobase.h ****     __copy_move_a2(istreambuf_iterator<_CharT, char_traits<_CharT> >,
 458:/Library/DaisyToolchain/0.2.0/arm/arm-none-eabi/include/c++/10.3.1/bits/stl_algobase.h **** 		   istreambuf_iterator<_CharT, char_traits<_CharT> >, _CharT*);
 459:/Library/DaisyToolchain/0.2.0/arm/arm-none-eabi/include/c++/10.3.1/bits/stl_algobase.h **** 
 460:/Library/DaisyToolchain/0.2.0/arm/arm-none-eabi/include/c++/10.3.1/bits/stl_algobase.h ****   template<bool _IsMove, typename _II, typename _OI>
 461:/Library/DaisyToolchain/0.2.0/arm/arm-none-eabi/include/c++/10.3.1/bits/stl_algobase.h ****     _GLIBCXX20_CONSTEXPR
 462:/Library/DaisyToolchain/0.2.0/arm/arm-none-eabi/include/c++/10.3.1/bits/stl_algobase.h ****     inline _OI
 463:/Library/DaisyToolchain/0.2.0/arm/arm-none-eabi/include/c++/10.3.1/bits/stl_algobase.h ****     __copy_move_a2(_II __first, _II __last, _OI __result)
 464:/Library/DaisyToolchain/0.2.0/arm/arm-none-eabi/include/c++/10.3.1/bits/stl_algobase.h ****     {
 465:/Library/DaisyToolchain/0.2.0/arm/arm-none-eabi/include/c++/10.3.1/bits/stl_algobase.h ****       typedef typename iterator_traits<_II>::iterator_category _Category;
 466:/Library/DaisyToolchain/0.2.0/arm/arm-none-eabi/include/c++/10.3.1/bits/stl_algobase.h **** #ifdef __cpp_lib_is_constant_evaluated
 467:/Library/DaisyToolchain/0.2.0/arm/arm-none-eabi/include/c++/10.3.1/bits/stl_algobase.h ****       if (std::is_constant_evaluated())
 468:/Library/DaisyToolchain/0.2.0/arm/arm-none-eabi/include/c++/10.3.1/bits/stl_algobase.h **** 	return std::__copy_move<_IsMove, false, _Category>::
 469:/Library/DaisyToolchain/0.2.0/arm/arm-none-eabi/include/c++/10.3.1/bits/stl_algobase.h **** 	  __copy_m(__first, __last, __result);
 470:/Library/DaisyToolchain/0.2.0/arm/arm-none-eabi/include/c++/10.3.1/bits/stl_algobase.h **** #endif
 471:/Library/DaisyToolchain/0.2.0/arm/arm-none-eabi/include/c++/10.3.1/bits/stl_algobase.h ****       return std::__copy_move<_IsMove, __memcpyable<_OI, _II>::__value,
 472:/Library/DaisyToolchain/0.2.0/arm/arm-none-eabi/include/c++/10.3.1/bits/stl_algobase.h **** 			      _Category>::__copy_m(__first, __last, __result);
 473:/Library/DaisyToolchain/0.2.0/arm/arm-none-eabi/include/c++/10.3.1/bits/stl_algobase.h ****     }
 474:/Library/DaisyToolchain/0.2.0/arm/arm-none-eabi/include/c++/10.3.1/bits/stl_algobase.h **** 
 475:/Library/DaisyToolchain/0.2.0/arm/arm-none-eabi/include/c++/10.3.1/bits/stl_algobase.h **** _GLIBCXX_BEGIN_NAMESPACE_CONTAINER
 476:/Library/DaisyToolchain/0.2.0/arm/arm-none-eabi/include/c++/10.3.1/bits/stl_algobase.h **** 
 477:/Library/DaisyToolchain/0.2.0/arm/arm-none-eabi/include/c++/10.3.1/bits/stl_algobase.h ****   template<typename _Tp, typename _Ref, typename _Ptr>
 478:/Library/DaisyToolchain/0.2.0/arm/arm-none-eabi/include/c++/10.3.1/bits/stl_algobase.h ****     struct _Deque_iterator;
 479:/Library/DaisyToolchain/0.2.0/arm/arm-none-eabi/include/c++/10.3.1/bits/stl_algobase.h **** 
 480:/Library/DaisyToolchain/0.2.0/arm/arm-none-eabi/include/c++/10.3.1/bits/stl_algobase.h **** _GLIBCXX_END_NAMESPACE_CONTAINER
 481:/Library/DaisyToolchain/0.2.0/arm/arm-none-eabi/include/c++/10.3.1/bits/stl_algobase.h **** 
 482:/Library/DaisyToolchain/0.2.0/arm/arm-none-eabi/include/c++/10.3.1/bits/stl_algobase.h ****   template<bool _IsMove,
 483:/Library/DaisyToolchain/0.2.0/arm/arm-none-eabi/include/c++/10.3.1/bits/stl_algobase.h **** 	   typename _Tp, typename _Ref, typename _Ptr, typename _OI>
 484:/Library/DaisyToolchain/0.2.0/arm/arm-none-eabi/include/c++/10.3.1/bits/stl_algobase.h ****     _OI
 485:/Library/DaisyToolchain/0.2.0/arm/arm-none-eabi/include/c++/10.3.1/bits/stl_algobase.h ****     __copy_move_a1(_GLIBCXX_STD_C::_Deque_iterator<_Tp, _Ref, _Ptr>,
 486:/Library/DaisyToolchain/0.2.0/arm/arm-none-eabi/include/c++/10.3.1/bits/stl_algobase.h **** 		   _GLIBCXX_STD_C::_Deque_iterator<_Tp, _Ref, _Ptr>,
 487:/Library/DaisyToolchain/0.2.0/arm/arm-none-eabi/include/c++/10.3.1/bits/stl_algobase.h **** 		   _OI);
 488:/Library/DaisyToolchain/0.2.0/arm/arm-none-eabi/include/c++/10.3.1/bits/stl_algobase.h **** 
 489:/Library/DaisyToolchain/0.2.0/arm/arm-none-eabi/include/c++/10.3.1/bits/stl_algobase.h ****   template<bool _IsMove,
 490:/Library/DaisyToolchain/0.2.0/arm/arm-none-eabi/include/c++/10.3.1/bits/stl_algobase.h **** 	   typename _ITp, typename _IRef, typename _IPtr, typename _OTp>
 491:/Library/DaisyToolchain/0.2.0/arm/arm-none-eabi/include/c++/10.3.1/bits/stl_algobase.h ****     _GLIBCXX_STD_C::_Deque_iterator<_OTp, _OTp&, _OTp*>
 492:/Library/DaisyToolchain/0.2.0/arm/arm-none-eabi/include/c++/10.3.1/bits/stl_algobase.h ****     __copy_move_a1(_GLIBCXX_STD_C::_Deque_iterator<_ITp, _IRef, _IPtr>,
 493:/Library/DaisyToolchain/0.2.0/arm/arm-none-eabi/include/c++/10.3.1/bits/stl_algobase.h **** 		   _GLIBCXX_STD_C::_Deque_iterator<_ITp, _IRef, _IPtr>,
 494:/Library/DaisyToolchain/0.2.0/arm/arm-none-eabi/include/c++/10.3.1/bits/stl_algobase.h **** 		   _GLIBCXX_STD_C::_Deque_iterator<_OTp, _OTp&, _OTp*>);
 495:/Library/DaisyToolchain/0.2.0/arm/arm-none-eabi/include/c++/10.3.1/bits/stl_algobase.h **** 
 496:/Library/DaisyToolchain/0.2.0/arm/arm-none-eabi/include/c++/10.3.1/bits/stl_algobase.h ****   template<bool _IsMove, typename _II, typename _Tp>
 497:/Library/DaisyToolchain/0.2.0/arm/arm-none-eabi/include/c++/10.3.1/bits/stl_algobase.h ****     typename __gnu_cxx::__enable_if<
 498:/Library/DaisyToolchain/0.2.0/arm/arm-none-eabi/include/c++/10.3.1/bits/stl_algobase.h ****       __is_random_access_iter<_II>::__value,
 499:/Library/DaisyToolchain/0.2.0/arm/arm-none-eabi/include/c++/10.3.1/bits/stl_algobase.h ****       _GLIBCXX_STD_C::_Deque_iterator<_Tp, _Tp&, _Tp*> >::__type
 500:/Library/DaisyToolchain/0.2.0/arm/arm-none-eabi/include/c++/10.3.1/bits/stl_algobase.h ****     __copy_move_a1(_II, _II, _GLIBCXX_STD_C::_Deque_iterator<_Tp, _Tp&, _Tp*>);
 501:/Library/DaisyToolchain/0.2.0/arm/arm-none-eabi/include/c++/10.3.1/bits/stl_algobase.h **** 
 502:/Library/DaisyToolchain/0.2.0/arm/arm-none-eabi/include/c++/10.3.1/bits/stl_algobase.h ****   template<bool _IsMove, typename _II, typename _OI>
 503:/Library/DaisyToolchain/0.2.0/arm/arm-none-eabi/include/c++/10.3.1/bits/stl_algobase.h ****     _GLIBCXX20_CONSTEXPR
 504:/Library/DaisyToolchain/0.2.0/arm/arm-none-eabi/include/c++/10.3.1/bits/stl_algobase.h ****     inline _OI
ARM GAS  /var/folders/9k/zk1mgrrd7wg4__6zvxvr9w8m0000gn/T//ccUrAnV6.s 			page 34


 505:/Library/DaisyToolchain/0.2.0/arm/arm-none-eabi/include/c++/10.3.1/bits/stl_algobase.h ****     __copy_move_a1(_II __first, _II __last, _OI __result)
 506:/Library/DaisyToolchain/0.2.0/arm/arm-none-eabi/include/c++/10.3.1/bits/stl_algobase.h ****     { return std::__copy_move_a2<_IsMove>(__first, __last, __result); }
 507:/Library/DaisyToolchain/0.2.0/arm/arm-none-eabi/include/c++/10.3.1/bits/stl_algobase.h **** 
 508:/Library/DaisyToolchain/0.2.0/arm/arm-none-eabi/include/c++/10.3.1/bits/stl_algobase.h ****   template<bool _IsMove, typename _II, typename _OI>
 509:/Library/DaisyToolchain/0.2.0/arm/arm-none-eabi/include/c++/10.3.1/bits/stl_algobase.h ****     _GLIBCXX20_CONSTEXPR
 510:/Library/DaisyToolchain/0.2.0/arm/arm-none-eabi/include/c++/10.3.1/bits/stl_algobase.h ****     inline _OI
 511:/Library/DaisyToolchain/0.2.0/arm/arm-none-eabi/include/c++/10.3.1/bits/stl_algobase.h ****     __copy_move_a(_II __first, _II __last, _OI __result)
 512:/Library/DaisyToolchain/0.2.0/arm/arm-none-eabi/include/c++/10.3.1/bits/stl_algobase.h ****     {
 513:/Library/DaisyToolchain/0.2.0/arm/arm-none-eabi/include/c++/10.3.1/bits/stl_algobase.h ****       return std::__niter_wrap(__result,
 514:/Library/DaisyToolchain/0.2.0/arm/arm-none-eabi/include/c++/10.3.1/bits/stl_algobase.h **** 		std::__copy_move_a1<_IsMove>(std::__niter_base(__first),
 515:/Library/DaisyToolchain/0.2.0/arm/arm-none-eabi/include/c++/10.3.1/bits/stl_algobase.h **** 					     std::__niter_base(__last),
 516:/Library/DaisyToolchain/0.2.0/arm/arm-none-eabi/include/c++/10.3.1/bits/stl_algobase.h **** 					     std::__niter_base(__result)));
 517:/Library/DaisyToolchain/0.2.0/arm/arm-none-eabi/include/c++/10.3.1/bits/stl_algobase.h ****     }
 518:/Library/DaisyToolchain/0.2.0/arm/arm-none-eabi/include/c++/10.3.1/bits/stl_algobase.h **** 
 519:/Library/DaisyToolchain/0.2.0/arm/arm-none-eabi/include/c++/10.3.1/bits/stl_algobase.h ****   template<bool _IsMove,
 520:/Library/DaisyToolchain/0.2.0/arm/arm-none-eabi/include/c++/10.3.1/bits/stl_algobase.h **** 	   typename _Ite, typename _Seq, typename _Cat, typename _OI>
 521:/Library/DaisyToolchain/0.2.0/arm/arm-none-eabi/include/c++/10.3.1/bits/stl_algobase.h ****     _OI
 522:/Library/DaisyToolchain/0.2.0/arm/arm-none-eabi/include/c++/10.3.1/bits/stl_algobase.h ****     __copy_move_a(const ::__gnu_debug::_Safe_iterator<_Ite, _Seq, _Cat>&,
 523:/Library/DaisyToolchain/0.2.0/arm/arm-none-eabi/include/c++/10.3.1/bits/stl_algobase.h **** 		  const ::__gnu_debug::_Safe_iterator<_Ite, _Seq, _Cat>&,
 524:/Library/DaisyToolchain/0.2.0/arm/arm-none-eabi/include/c++/10.3.1/bits/stl_algobase.h **** 		  _OI);
 525:/Library/DaisyToolchain/0.2.0/arm/arm-none-eabi/include/c++/10.3.1/bits/stl_algobase.h **** 
 526:/Library/DaisyToolchain/0.2.0/arm/arm-none-eabi/include/c++/10.3.1/bits/stl_algobase.h ****   template<bool _IsMove,
 527:/Library/DaisyToolchain/0.2.0/arm/arm-none-eabi/include/c++/10.3.1/bits/stl_algobase.h **** 	   typename _II, typename _Ite, typename _Seq, typename _Cat>
 528:/Library/DaisyToolchain/0.2.0/arm/arm-none-eabi/include/c++/10.3.1/bits/stl_algobase.h ****     __gnu_debug::_Safe_iterator<_Ite, _Seq, _Cat>
 529:/Library/DaisyToolchain/0.2.0/arm/arm-none-eabi/include/c++/10.3.1/bits/stl_algobase.h ****     __copy_move_a(_II, _II,
 530:/Library/DaisyToolchain/0.2.0/arm/arm-none-eabi/include/c++/10.3.1/bits/stl_algobase.h **** 		  const ::__gnu_debug::_Safe_iterator<_Ite, _Seq, _Cat>&);
 531:/Library/DaisyToolchain/0.2.0/arm/arm-none-eabi/include/c++/10.3.1/bits/stl_algobase.h **** 
 532:/Library/DaisyToolchain/0.2.0/arm/arm-none-eabi/include/c++/10.3.1/bits/stl_algobase.h ****   template<bool _IsMove,
 533:/Library/DaisyToolchain/0.2.0/arm/arm-none-eabi/include/c++/10.3.1/bits/stl_algobase.h **** 	   typename _IIte, typename _ISeq, typename _ICat,
 534:/Library/DaisyToolchain/0.2.0/arm/arm-none-eabi/include/c++/10.3.1/bits/stl_algobase.h **** 	   typename _OIte, typename _OSeq, typename _OCat>
 535:/Library/DaisyToolchain/0.2.0/arm/arm-none-eabi/include/c++/10.3.1/bits/stl_algobase.h ****     ::__gnu_debug::_Safe_iterator<_OIte, _OSeq, _OCat>
 536:/Library/DaisyToolchain/0.2.0/arm/arm-none-eabi/include/c++/10.3.1/bits/stl_algobase.h ****     __copy_move_a(const ::__gnu_debug::_Safe_iterator<_IIte, _ISeq, _ICat>&,
 537:/Library/DaisyToolchain/0.2.0/arm/arm-none-eabi/include/c++/10.3.1/bits/stl_algobase.h **** 		  const ::__gnu_debug::_Safe_iterator<_IIte, _ISeq, _ICat>&,
 538:/Library/DaisyToolchain/0.2.0/arm/arm-none-eabi/include/c++/10.3.1/bits/stl_algobase.h **** 		  const ::__gnu_debug::_Safe_iterator<_OIte, _OSeq, _OCat>&);
 539:/Library/DaisyToolchain/0.2.0/arm/arm-none-eabi/include/c++/10.3.1/bits/stl_algobase.h **** 
 540:/Library/DaisyToolchain/0.2.0/arm/arm-none-eabi/include/c++/10.3.1/bits/stl_algobase.h ****   /**
 541:/Library/DaisyToolchain/0.2.0/arm/arm-none-eabi/include/c++/10.3.1/bits/stl_algobase.h ****    *  @brief Copies the range [first,last) into result.
 542:/Library/DaisyToolchain/0.2.0/arm/arm-none-eabi/include/c++/10.3.1/bits/stl_algobase.h ****    *  @ingroup mutating_algorithms
 543:/Library/DaisyToolchain/0.2.0/arm/arm-none-eabi/include/c++/10.3.1/bits/stl_algobase.h ****    *  @param  __first  An input iterator.
 544:/Library/DaisyToolchain/0.2.0/arm/arm-none-eabi/include/c++/10.3.1/bits/stl_algobase.h ****    *  @param  __last   An input iterator.
 545:/Library/DaisyToolchain/0.2.0/arm/arm-none-eabi/include/c++/10.3.1/bits/stl_algobase.h ****    *  @param  __result An output iterator.
 546:/Library/DaisyToolchain/0.2.0/arm/arm-none-eabi/include/c++/10.3.1/bits/stl_algobase.h ****    *  @return   result + (last - first)
 547:/Library/DaisyToolchain/0.2.0/arm/arm-none-eabi/include/c++/10.3.1/bits/stl_algobase.h ****    *
 548:/Library/DaisyToolchain/0.2.0/arm/arm-none-eabi/include/c++/10.3.1/bits/stl_algobase.h ****    *  This inline function will boil down to a call to @c memmove whenever
 549:/Library/DaisyToolchain/0.2.0/arm/arm-none-eabi/include/c++/10.3.1/bits/stl_algobase.h ****    *  possible.  Failing that, if random access iterators are passed, then the
 550:/Library/DaisyToolchain/0.2.0/arm/arm-none-eabi/include/c++/10.3.1/bits/stl_algobase.h ****    *  loop count will be known (and therefore a candidate for compiler
 551:/Library/DaisyToolchain/0.2.0/arm/arm-none-eabi/include/c++/10.3.1/bits/stl_algobase.h ****    *  optimizations such as unrolling).  Result may not be contained within
 552:/Library/DaisyToolchain/0.2.0/arm/arm-none-eabi/include/c++/10.3.1/bits/stl_algobase.h ****    *  [first,last); the copy_backward function should be used instead.
 553:/Library/DaisyToolchain/0.2.0/arm/arm-none-eabi/include/c++/10.3.1/bits/stl_algobase.h ****    *
 554:/Library/DaisyToolchain/0.2.0/arm/arm-none-eabi/include/c++/10.3.1/bits/stl_algobase.h ****    *  Note that the end of the output range is permitted to be contained
 555:/Library/DaisyToolchain/0.2.0/arm/arm-none-eabi/include/c++/10.3.1/bits/stl_algobase.h ****    *  within [first,last).
 556:/Library/DaisyToolchain/0.2.0/arm/arm-none-eabi/include/c++/10.3.1/bits/stl_algobase.h ****   */
 557:/Library/DaisyToolchain/0.2.0/arm/arm-none-eabi/include/c++/10.3.1/bits/stl_algobase.h ****   template<typename _II, typename _OI>
 558:/Library/DaisyToolchain/0.2.0/arm/arm-none-eabi/include/c++/10.3.1/bits/stl_algobase.h ****     _GLIBCXX20_CONSTEXPR
 559:/Library/DaisyToolchain/0.2.0/arm/arm-none-eabi/include/c++/10.3.1/bits/stl_algobase.h ****     inline _OI
 560:/Library/DaisyToolchain/0.2.0/arm/arm-none-eabi/include/c++/10.3.1/bits/stl_algobase.h ****     copy(_II __first, _II __last, _OI __result)
 561:/Library/DaisyToolchain/0.2.0/arm/arm-none-eabi/include/c++/10.3.1/bits/stl_algobase.h ****     {
ARM GAS  /var/folders/9k/zk1mgrrd7wg4__6zvxvr9w8m0000gn/T//ccUrAnV6.s 			page 35


 562:/Library/DaisyToolchain/0.2.0/arm/arm-none-eabi/include/c++/10.3.1/bits/stl_algobase.h ****       // concept requirements
 563:/Library/DaisyToolchain/0.2.0/arm/arm-none-eabi/include/c++/10.3.1/bits/stl_algobase.h ****       __glibcxx_function_requires(_InputIteratorConcept<_II>)
 564:/Library/DaisyToolchain/0.2.0/arm/arm-none-eabi/include/c++/10.3.1/bits/stl_algobase.h ****       __glibcxx_function_requires(_OutputIteratorConcept<_OI,
 565:/Library/DaisyToolchain/0.2.0/arm/arm-none-eabi/include/c++/10.3.1/bits/stl_algobase.h **** 	    typename iterator_traits<_II>::value_type>)
 566:/Library/DaisyToolchain/0.2.0/arm/arm-none-eabi/include/c++/10.3.1/bits/stl_algobase.h ****       __glibcxx_requires_can_increment_range(__first, __last, __result);
 567:/Library/DaisyToolchain/0.2.0/arm/arm-none-eabi/include/c++/10.3.1/bits/stl_algobase.h **** 
 568:/Library/DaisyToolchain/0.2.0/arm/arm-none-eabi/include/c++/10.3.1/bits/stl_algobase.h ****       return std::__copy_move_a<__is_move_iterator<_II>::__value>
 569:/Library/DaisyToolchain/0.2.0/arm/arm-none-eabi/include/c++/10.3.1/bits/stl_algobase.h **** 	     (std::__miter_base(__first), std::__miter_base(__last), __result);
 570:/Library/DaisyToolchain/0.2.0/arm/arm-none-eabi/include/c++/10.3.1/bits/stl_algobase.h ****     }
 571:/Library/DaisyToolchain/0.2.0/arm/arm-none-eabi/include/c++/10.3.1/bits/stl_algobase.h **** 
 572:/Library/DaisyToolchain/0.2.0/arm/arm-none-eabi/include/c++/10.3.1/bits/stl_algobase.h **** #if __cplusplus >= 201103L
 573:/Library/DaisyToolchain/0.2.0/arm/arm-none-eabi/include/c++/10.3.1/bits/stl_algobase.h ****   /**
 574:/Library/DaisyToolchain/0.2.0/arm/arm-none-eabi/include/c++/10.3.1/bits/stl_algobase.h ****    *  @brief Moves the range [first,last) into result.
 575:/Library/DaisyToolchain/0.2.0/arm/arm-none-eabi/include/c++/10.3.1/bits/stl_algobase.h ****    *  @ingroup mutating_algorithms
 576:/Library/DaisyToolchain/0.2.0/arm/arm-none-eabi/include/c++/10.3.1/bits/stl_algobase.h ****    *  @param  __first  An input iterator.
 577:/Library/DaisyToolchain/0.2.0/arm/arm-none-eabi/include/c++/10.3.1/bits/stl_algobase.h ****    *  @param  __last   An input iterator.
 578:/Library/DaisyToolchain/0.2.0/arm/arm-none-eabi/include/c++/10.3.1/bits/stl_algobase.h ****    *  @param  __result An output iterator.
 579:/Library/DaisyToolchain/0.2.0/arm/arm-none-eabi/include/c++/10.3.1/bits/stl_algobase.h ****    *  @return   result + (last - first)
 580:/Library/DaisyToolchain/0.2.0/arm/arm-none-eabi/include/c++/10.3.1/bits/stl_algobase.h ****    *
 581:/Library/DaisyToolchain/0.2.0/arm/arm-none-eabi/include/c++/10.3.1/bits/stl_algobase.h ****    *  This inline function will boil down to a call to @c memmove whenever
 582:/Library/DaisyToolchain/0.2.0/arm/arm-none-eabi/include/c++/10.3.1/bits/stl_algobase.h ****    *  possible.  Failing that, if random access iterators are passed, then the
 583:/Library/DaisyToolchain/0.2.0/arm/arm-none-eabi/include/c++/10.3.1/bits/stl_algobase.h ****    *  loop count will be known (and therefore a candidate for compiler
 584:/Library/DaisyToolchain/0.2.0/arm/arm-none-eabi/include/c++/10.3.1/bits/stl_algobase.h ****    *  optimizations such as unrolling).  Result may not be contained within
 585:/Library/DaisyToolchain/0.2.0/arm/arm-none-eabi/include/c++/10.3.1/bits/stl_algobase.h ****    *  [first,last); the move_backward function should be used instead.
 586:/Library/DaisyToolchain/0.2.0/arm/arm-none-eabi/include/c++/10.3.1/bits/stl_algobase.h ****    *
 587:/Library/DaisyToolchain/0.2.0/arm/arm-none-eabi/include/c++/10.3.1/bits/stl_algobase.h ****    *  Note that the end of the output range is permitted to be contained
 588:/Library/DaisyToolchain/0.2.0/arm/arm-none-eabi/include/c++/10.3.1/bits/stl_algobase.h ****    *  within [first,last).
 589:/Library/DaisyToolchain/0.2.0/arm/arm-none-eabi/include/c++/10.3.1/bits/stl_algobase.h ****   */
 590:/Library/DaisyToolchain/0.2.0/arm/arm-none-eabi/include/c++/10.3.1/bits/stl_algobase.h ****   template<typename _II, typename _OI>
 591:/Library/DaisyToolchain/0.2.0/arm/arm-none-eabi/include/c++/10.3.1/bits/stl_algobase.h ****     _GLIBCXX20_CONSTEXPR
 592:/Library/DaisyToolchain/0.2.0/arm/arm-none-eabi/include/c++/10.3.1/bits/stl_algobase.h ****     inline _OI
 593:/Library/DaisyToolchain/0.2.0/arm/arm-none-eabi/include/c++/10.3.1/bits/stl_algobase.h ****     move(_II __first, _II __last, _OI __result)
 594:/Library/DaisyToolchain/0.2.0/arm/arm-none-eabi/include/c++/10.3.1/bits/stl_algobase.h ****     {
 595:/Library/DaisyToolchain/0.2.0/arm/arm-none-eabi/include/c++/10.3.1/bits/stl_algobase.h ****       // concept requirements
 596:/Library/DaisyToolchain/0.2.0/arm/arm-none-eabi/include/c++/10.3.1/bits/stl_algobase.h ****       __glibcxx_function_requires(_InputIteratorConcept<_II>)
 597:/Library/DaisyToolchain/0.2.0/arm/arm-none-eabi/include/c++/10.3.1/bits/stl_algobase.h ****       __glibcxx_function_requires(_OutputIteratorConcept<_OI,
 598:/Library/DaisyToolchain/0.2.0/arm/arm-none-eabi/include/c++/10.3.1/bits/stl_algobase.h **** 	    typename iterator_traits<_II>::value_type>)
 599:/Library/DaisyToolchain/0.2.0/arm/arm-none-eabi/include/c++/10.3.1/bits/stl_algobase.h ****       __glibcxx_requires_can_increment_range(__first, __last, __result);
 600:/Library/DaisyToolchain/0.2.0/arm/arm-none-eabi/include/c++/10.3.1/bits/stl_algobase.h **** 
 601:/Library/DaisyToolchain/0.2.0/arm/arm-none-eabi/include/c++/10.3.1/bits/stl_algobase.h ****       return std::__copy_move_a<true>(std::__miter_base(__first),
 602:/Library/DaisyToolchain/0.2.0/arm/arm-none-eabi/include/c++/10.3.1/bits/stl_algobase.h **** 				      std::__miter_base(__last), __result);
 603:/Library/DaisyToolchain/0.2.0/arm/arm-none-eabi/include/c++/10.3.1/bits/stl_algobase.h ****     }
 604:/Library/DaisyToolchain/0.2.0/arm/arm-none-eabi/include/c++/10.3.1/bits/stl_algobase.h **** 
 605:/Library/DaisyToolchain/0.2.0/arm/arm-none-eabi/include/c++/10.3.1/bits/stl_algobase.h **** #define _GLIBCXX_MOVE3(_Tp, _Up, _Vp) std::move(_Tp, _Up, _Vp)
 606:/Library/DaisyToolchain/0.2.0/arm/arm-none-eabi/include/c++/10.3.1/bits/stl_algobase.h **** #else
 607:/Library/DaisyToolchain/0.2.0/arm/arm-none-eabi/include/c++/10.3.1/bits/stl_algobase.h **** #define _GLIBCXX_MOVE3(_Tp, _Up, _Vp) std::copy(_Tp, _Up, _Vp)
 608:/Library/DaisyToolchain/0.2.0/arm/arm-none-eabi/include/c++/10.3.1/bits/stl_algobase.h **** #endif
 609:/Library/DaisyToolchain/0.2.0/arm/arm-none-eabi/include/c++/10.3.1/bits/stl_algobase.h **** 
 610:/Library/DaisyToolchain/0.2.0/arm/arm-none-eabi/include/c++/10.3.1/bits/stl_algobase.h ****   template<bool _IsMove, bool _IsSimple, typename _Category>
 611:/Library/DaisyToolchain/0.2.0/arm/arm-none-eabi/include/c++/10.3.1/bits/stl_algobase.h ****     struct __copy_move_backward
 612:/Library/DaisyToolchain/0.2.0/arm/arm-none-eabi/include/c++/10.3.1/bits/stl_algobase.h ****     {
 613:/Library/DaisyToolchain/0.2.0/arm/arm-none-eabi/include/c++/10.3.1/bits/stl_algobase.h ****       template<typename _BI1, typename _BI2>
 614:/Library/DaisyToolchain/0.2.0/arm/arm-none-eabi/include/c++/10.3.1/bits/stl_algobase.h **** 	_GLIBCXX20_CONSTEXPR
 615:/Library/DaisyToolchain/0.2.0/arm/arm-none-eabi/include/c++/10.3.1/bits/stl_algobase.h **** 	static _BI2
 616:/Library/DaisyToolchain/0.2.0/arm/arm-none-eabi/include/c++/10.3.1/bits/stl_algobase.h **** 	__copy_move_b(_BI1 __first, _BI1 __last, _BI2 __result)
 617:/Library/DaisyToolchain/0.2.0/arm/arm-none-eabi/include/c++/10.3.1/bits/stl_algobase.h **** 	{
 618:/Library/DaisyToolchain/0.2.0/arm/arm-none-eabi/include/c++/10.3.1/bits/stl_algobase.h **** 	  while (__first != __last)
ARM GAS  /var/folders/9k/zk1mgrrd7wg4__6zvxvr9w8m0000gn/T//ccUrAnV6.s 			page 36


 619:/Library/DaisyToolchain/0.2.0/arm/arm-none-eabi/include/c++/10.3.1/bits/stl_algobase.h **** 	    *--__result = *--__last;
 620:/Library/DaisyToolchain/0.2.0/arm/arm-none-eabi/include/c++/10.3.1/bits/stl_algobase.h **** 	  return __result;
 621:/Library/DaisyToolchain/0.2.0/arm/arm-none-eabi/include/c++/10.3.1/bits/stl_algobase.h **** 	}
 622:/Library/DaisyToolchain/0.2.0/arm/arm-none-eabi/include/c++/10.3.1/bits/stl_algobase.h ****     };
 623:/Library/DaisyToolchain/0.2.0/arm/arm-none-eabi/include/c++/10.3.1/bits/stl_algobase.h **** 
 624:/Library/DaisyToolchain/0.2.0/arm/arm-none-eabi/include/c++/10.3.1/bits/stl_algobase.h **** #if __cplusplus >= 201103L
 625:/Library/DaisyToolchain/0.2.0/arm/arm-none-eabi/include/c++/10.3.1/bits/stl_algobase.h ****   template<typename _Category>
 626:/Library/DaisyToolchain/0.2.0/arm/arm-none-eabi/include/c++/10.3.1/bits/stl_algobase.h ****     struct __copy_move_backward<true, false, _Category>
 627:/Library/DaisyToolchain/0.2.0/arm/arm-none-eabi/include/c++/10.3.1/bits/stl_algobase.h ****     {
 628:/Library/DaisyToolchain/0.2.0/arm/arm-none-eabi/include/c++/10.3.1/bits/stl_algobase.h ****       template<typename _BI1, typename _BI2>
 629:/Library/DaisyToolchain/0.2.0/arm/arm-none-eabi/include/c++/10.3.1/bits/stl_algobase.h **** 	_GLIBCXX20_CONSTEXPR
 630:/Library/DaisyToolchain/0.2.0/arm/arm-none-eabi/include/c++/10.3.1/bits/stl_algobase.h **** 	static _BI2
 631:/Library/DaisyToolchain/0.2.0/arm/arm-none-eabi/include/c++/10.3.1/bits/stl_algobase.h **** 	__copy_move_b(_BI1 __first, _BI1 __last, _BI2 __result)
 632:/Library/DaisyToolchain/0.2.0/arm/arm-none-eabi/include/c++/10.3.1/bits/stl_algobase.h **** 	{
 633:/Library/DaisyToolchain/0.2.0/arm/arm-none-eabi/include/c++/10.3.1/bits/stl_algobase.h **** 	  while (__first != __last)
 634:/Library/DaisyToolchain/0.2.0/arm/arm-none-eabi/include/c++/10.3.1/bits/stl_algobase.h **** 	    *--__result = std::move(*--__last);
 635:/Library/DaisyToolchain/0.2.0/arm/arm-none-eabi/include/c++/10.3.1/bits/stl_algobase.h **** 	  return __result;
 636:/Library/DaisyToolchain/0.2.0/arm/arm-none-eabi/include/c++/10.3.1/bits/stl_algobase.h **** 	}
 637:/Library/DaisyToolchain/0.2.0/arm/arm-none-eabi/include/c++/10.3.1/bits/stl_algobase.h ****     };
 638:/Library/DaisyToolchain/0.2.0/arm/arm-none-eabi/include/c++/10.3.1/bits/stl_algobase.h **** #endif
 639:/Library/DaisyToolchain/0.2.0/arm/arm-none-eabi/include/c++/10.3.1/bits/stl_algobase.h **** 
 640:/Library/DaisyToolchain/0.2.0/arm/arm-none-eabi/include/c++/10.3.1/bits/stl_algobase.h ****   template<>
 641:/Library/DaisyToolchain/0.2.0/arm/arm-none-eabi/include/c++/10.3.1/bits/stl_algobase.h ****     struct __copy_move_backward<false, false, random_access_iterator_tag>
 642:/Library/DaisyToolchain/0.2.0/arm/arm-none-eabi/include/c++/10.3.1/bits/stl_algobase.h ****     {
 643:/Library/DaisyToolchain/0.2.0/arm/arm-none-eabi/include/c++/10.3.1/bits/stl_algobase.h ****       template<typename _BI1, typename _BI2>
 644:/Library/DaisyToolchain/0.2.0/arm/arm-none-eabi/include/c++/10.3.1/bits/stl_algobase.h **** 	_GLIBCXX20_CONSTEXPR
 645:/Library/DaisyToolchain/0.2.0/arm/arm-none-eabi/include/c++/10.3.1/bits/stl_algobase.h **** 	static _BI2
 646:/Library/DaisyToolchain/0.2.0/arm/arm-none-eabi/include/c++/10.3.1/bits/stl_algobase.h **** 	__copy_move_b(_BI1 __first, _BI1 __last, _BI2 __result)
 647:/Library/DaisyToolchain/0.2.0/arm/arm-none-eabi/include/c++/10.3.1/bits/stl_algobase.h **** 	{
 648:/Library/DaisyToolchain/0.2.0/arm/arm-none-eabi/include/c++/10.3.1/bits/stl_algobase.h **** 	  typename iterator_traits<_BI1>::difference_type
 649:/Library/DaisyToolchain/0.2.0/arm/arm-none-eabi/include/c++/10.3.1/bits/stl_algobase.h **** 	    __n = __last - __first;
 650:/Library/DaisyToolchain/0.2.0/arm/arm-none-eabi/include/c++/10.3.1/bits/stl_algobase.h **** 	  for (; __n > 0; --__n)
 651:/Library/DaisyToolchain/0.2.0/arm/arm-none-eabi/include/c++/10.3.1/bits/stl_algobase.h **** 	    *--__result = *--__last;
 652:/Library/DaisyToolchain/0.2.0/arm/arm-none-eabi/include/c++/10.3.1/bits/stl_algobase.h **** 	  return __result;
 653:/Library/DaisyToolchain/0.2.0/arm/arm-none-eabi/include/c++/10.3.1/bits/stl_algobase.h **** 	}
 654:/Library/DaisyToolchain/0.2.0/arm/arm-none-eabi/include/c++/10.3.1/bits/stl_algobase.h ****     };
 655:/Library/DaisyToolchain/0.2.0/arm/arm-none-eabi/include/c++/10.3.1/bits/stl_algobase.h **** 
 656:/Library/DaisyToolchain/0.2.0/arm/arm-none-eabi/include/c++/10.3.1/bits/stl_algobase.h **** #if __cplusplus >= 201103L
 657:/Library/DaisyToolchain/0.2.0/arm/arm-none-eabi/include/c++/10.3.1/bits/stl_algobase.h ****   template<>
 658:/Library/DaisyToolchain/0.2.0/arm/arm-none-eabi/include/c++/10.3.1/bits/stl_algobase.h ****     struct __copy_move_backward<true, false, random_access_iterator_tag>
 659:/Library/DaisyToolchain/0.2.0/arm/arm-none-eabi/include/c++/10.3.1/bits/stl_algobase.h ****     {
 660:/Library/DaisyToolchain/0.2.0/arm/arm-none-eabi/include/c++/10.3.1/bits/stl_algobase.h ****       template<typename _BI1, typename _BI2>
 661:/Library/DaisyToolchain/0.2.0/arm/arm-none-eabi/include/c++/10.3.1/bits/stl_algobase.h **** 	_GLIBCXX20_CONSTEXPR
 662:/Library/DaisyToolchain/0.2.0/arm/arm-none-eabi/include/c++/10.3.1/bits/stl_algobase.h **** 	static _BI2
 663:/Library/DaisyToolchain/0.2.0/arm/arm-none-eabi/include/c++/10.3.1/bits/stl_algobase.h **** 	__copy_move_b(_BI1 __first, _BI1 __last, _BI2 __result)
 664:/Library/DaisyToolchain/0.2.0/arm/arm-none-eabi/include/c++/10.3.1/bits/stl_algobase.h **** 	{
 665:/Library/DaisyToolchain/0.2.0/arm/arm-none-eabi/include/c++/10.3.1/bits/stl_algobase.h **** 	  typename iterator_traits<_BI1>::difference_type
 666:/Library/DaisyToolchain/0.2.0/arm/arm-none-eabi/include/c++/10.3.1/bits/stl_algobase.h **** 	    __n = __last - __first;
 667:/Library/DaisyToolchain/0.2.0/arm/arm-none-eabi/include/c++/10.3.1/bits/stl_algobase.h **** 	  for (; __n > 0; --__n)
 668:/Library/DaisyToolchain/0.2.0/arm/arm-none-eabi/include/c++/10.3.1/bits/stl_algobase.h **** 	    *--__result = std::move(*--__last);
 669:/Library/DaisyToolchain/0.2.0/arm/arm-none-eabi/include/c++/10.3.1/bits/stl_algobase.h **** 	  return __result;
 670:/Library/DaisyToolchain/0.2.0/arm/arm-none-eabi/include/c++/10.3.1/bits/stl_algobase.h **** 	}
 671:/Library/DaisyToolchain/0.2.0/arm/arm-none-eabi/include/c++/10.3.1/bits/stl_algobase.h ****     };
 672:/Library/DaisyToolchain/0.2.0/arm/arm-none-eabi/include/c++/10.3.1/bits/stl_algobase.h **** #endif
 673:/Library/DaisyToolchain/0.2.0/arm/arm-none-eabi/include/c++/10.3.1/bits/stl_algobase.h **** 
 674:/Library/DaisyToolchain/0.2.0/arm/arm-none-eabi/include/c++/10.3.1/bits/stl_algobase.h ****   template<bool _IsMove>
 675:/Library/DaisyToolchain/0.2.0/arm/arm-none-eabi/include/c++/10.3.1/bits/stl_algobase.h ****     struct __copy_move_backward<_IsMove, true, random_access_iterator_tag>
ARM GAS  /var/folders/9k/zk1mgrrd7wg4__6zvxvr9w8m0000gn/T//ccUrAnV6.s 			page 37


 676:/Library/DaisyToolchain/0.2.0/arm/arm-none-eabi/include/c++/10.3.1/bits/stl_algobase.h ****     {
 677:/Library/DaisyToolchain/0.2.0/arm/arm-none-eabi/include/c++/10.3.1/bits/stl_algobase.h ****       template<typename _Tp>
 678:/Library/DaisyToolchain/0.2.0/arm/arm-none-eabi/include/c++/10.3.1/bits/stl_algobase.h **** 	_GLIBCXX20_CONSTEXPR
 679:/Library/DaisyToolchain/0.2.0/arm/arm-none-eabi/include/c++/10.3.1/bits/stl_algobase.h **** 	static _Tp*
 680:/Library/DaisyToolchain/0.2.0/arm/arm-none-eabi/include/c++/10.3.1/bits/stl_algobase.h **** 	__copy_move_b(const _Tp* __first, const _Tp* __last, _Tp* __result)
 681:/Library/DaisyToolchain/0.2.0/arm/arm-none-eabi/include/c++/10.3.1/bits/stl_algobase.h **** 	{
 682:/Library/DaisyToolchain/0.2.0/arm/arm-none-eabi/include/c++/10.3.1/bits/stl_algobase.h **** #if __cplusplus >= 201103L
 683:/Library/DaisyToolchain/0.2.0/arm/arm-none-eabi/include/c++/10.3.1/bits/stl_algobase.h **** 	  using __assignable = conditional<_IsMove,
 684:/Library/DaisyToolchain/0.2.0/arm/arm-none-eabi/include/c++/10.3.1/bits/stl_algobase.h **** 					   is_move_assignable<_Tp>,
 685:/Library/DaisyToolchain/0.2.0/arm/arm-none-eabi/include/c++/10.3.1/bits/stl_algobase.h **** 					   is_copy_assignable<_Tp>>;
 686:/Library/DaisyToolchain/0.2.0/arm/arm-none-eabi/include/c++/10.3.1/bits/stl_algobase.h **** 	  // trivial types can have deleted assignment
 687:/Library/DaisyToolchain/0.2.0/arm/arm-none-eabi/include/c++/10.3.1/bits/stl_algobase.h **** 	  static_assert( __assignable::type::value, "type is not assignable" );
 688:/Library/DaisyToolchain/0.2.0/arm/arm-none-eabi/include/c++/10.3.1/bits/stl_algobase.h **** #endif
 689:/Library/DaisyToolchain/0.2.0/arm/arm-none-eabi/include/c++/10.3.1/bits/stl_algobase.h **** 	  const ptrdiff_t _Num = __last - __first;
 690:/Library/DaisyToolchain/0.2.0/arm/arm-none-eabi/include/c++/10.3.1/bits/stl_algobase.h **** 	  if (_Num)
 691:/Library/DaisyToolchain/0.2.0/arm/arm-none-eabi/include/c++/10.3.1/bits/stl_algobase.h **** 	    __builtin_memmove(__result - _Num, __first, sizeof(_Tp) * _Num);
 692:/Library/DaisyToolchain/0.2.0/arm/arm-none-eabi/include/c++/10.3.1/bits/stl_algobase.h **** 	  return __result - _Num;
 693:/Library/DaisyToolchain/0.2.0/arm/arm-none-eabi/include/c++/10.3.1/bits/stl_algobase.h **** 	}
 694:/Library/DaisyToolchain/0.2.0/arm/arm-none-eabi/include/c++/10.3.1/bits/stl_algobase.h ****     };
 695:/Library/DaisyToolchain/0.2.0/arm/arm-none-eabi/include/c++/10.3.1/bits/stl_algobase.h **** 
 696:/Library/DaisyToolchain/0.2.0/arm/arm-none-eabi/include/c++/10.3.1/bits/stl_algobase.h ****   template<bool _IsMove, typename _BI1, typename _BI2>
 697:/Library/DaisyToolchain/0.2.0/arm/arm-none-eabi/include/c++/10.3.1/bits/stl_algobase.h ****     _GLIBCXX20_CONSTEXPR
 698:/Library/DaisyToolchain/0.2.0/arm/arm-none-eabi/include/c++/10.3.1/bits/stl_algobase.h ****     inline _BI2
 699:/Library/DaisyToolchain/0.2.0/arm/arm-none-eabi/include/c++/10.3.1/bits/stl_algobase.h ****     __copy_move_backward_a2(_BI1 __first, _BI1 __last, _BI2 __result)
 700:/Library/DaisyToolchain/0.2.0/arm/arm-none-eabi/include/c++/10.3.1/bits/stl_algobase.h ****     {
 701:/Library/DaisyToolchain/0.2.0/arm/arm-none-eabi/include/c++/10.3.1/bits/stl_algobase.h ****       typedef typename iterator_traits<_BI1>::iterator_category _Category;
 702:/Library/DaisyToolchain/0.2.0/arm/arm-none-eabi/include/c++/10.3.1/bits/stl_algobase.h **** #ifdef __cpp_lib_is_constant_evaluated
 703:/Library/DaisyToolchain/0.2.0/arm/arm-none-eabi/include/c++/10.3.1/bits/stl_algobase.h ****       if (std::is_constant_evaluated())
 704:/Library/DaisyToolchain/0.2.0/arm/arm-none-eabi/include/c++/10.3.1/bits/stl_algobase.h **** 	return std::__copy_move_backward<_IsMove, false, _Category>::
 705:/Library/DaisyToolchain/0.2.0/arm/arm-none-eabi/include/c++/10.3.1/bits/stl_algobase.h **** 	  __copy_move_b(__first, __last, __result);
 706:/Library/DaisyToolchain/0.2.0/arm/arm-none-eabi/include/c++/10.3.1/bits/stl_algobase.h **** #endif
 707:/Library/DaisyToolchain/0.2.0/arm/arm-none-eabi/include/c++/10.3.1/bits/stl_algobase.h ****       return std::__copy_move_backward<_IsMove,
 708:/Library/DaisyToolchain/0.2.0/arm/arm-none-eabi/include/c++/10.3.1/bits/stl_algobase.h **** 				       __memcpyable<_BI2, _BI1>::__value,
 709:/Library/DaisyToolchain/0.2.0/arm/arm-none-eabi/include/c++/10.3.1/bits/stl_algobase.h **** 				       _Category>::__copy_move_b(__first,
 710:/Library/DaisyToolchain/0.2.0/arm/arm-none-eabi/include/c++/10.3.1/bits/stl_algobase.h **** 								 __last,
 711:/Library/DaisyToolchain/0.2.0/arm/arm-none-eabi/include/c++/10.3.1/bits/stl_algobase.h **** 								 __result);
 712:/Library/DaisyToolchain/0.2.0/arm/arm-none-eabi/include/c++/10.3.1/bits/stl_algobase.h ****     }
 713:/Library/DaisyToolchain/0.2.0/arm/arm-none-eabi/include/c++/10.3.1/bits/stl_algobase.h **** 
 714:/Library/DaisyToolchain/0.2.0/arm/arm-none-eabi/include/c++/10.3.1/bits/stl_algobase.h ****   template<bool _IsMove, typename _BI1, typename _BI2>
 715:/Library/DaisyToolchain/0.2.0/arm/arm-none-eabi/include/c++/10.3.1/bits/stl_algobase.h ****     _GLIBCXX20_CONSTEXPR
 716:/Library/DaisyToolchain/0.2.0/arm/arm-none-eabi/include/c++/10.3.1/bits/stl_algobase.h ****     inline _BI2
 717:/Library/DaisyToolchain/0.2.0/arm/arm-none-eabi/include/c++/10.3.1/bits/stl_algobase.h ****     __copy_move_backward_a1(_BI1 __first, _BI1 __last, _BI2 __result)
 718:/Library/DaisyToolchain/0.2.0/arm/arm-none-eabi/include/c++/10.3.1/bits/stl_algobase.h ****     { return std::__copy_move_backward_a2<_IsMove>(__first, __last, __result); }
 719:/Library/DaisyToolchain/0.2.0/arm/arm-none-eabi/include/c++/10.3.1/bits/stl_algobase.h **** 
 720:/Library/DaisyToolchain/0.2.0/arm/arm-none-eabi/include/c++/10.3.1/bits/stl_algobase.h ****   template<bool _IsMove,
 721:/Library/DaisyToolchain/0.2.0/arm/arm-none-eabi/include/c++/10.3.1/bits/stl_algobase.h **** 	   typename _Tp, typename _Ref, typename _Ptr, typename _OI>
 722:/Library/DaisyToolchain/0.2.0/arm/arm-none-eabi/include/c++/10.3.1/bits/stl_algobase.h ****     _OI
 723:/Library/DaisyToolchain/0.2.0/arm/arm-none-eabi/include/c++/10.3.1/bits/stl_algobase.h ****     __copy_move_backward_a1(_GLIBCXX_STD_C::_Deque_iterator<_Tp, _Ref, _Ptr>,
 724:/Library/DaisyToolchain/0.2.0/arm/arm-none-eabi/include/c++/10.3.1/bits/stl_algobase.h **** 			    _GLIBCXX_STD_C::_Deque_iterator<_Tp, _Ref, _Ptr>,
 725:/Library/DaisyToolchain/0.2.0/arm/arm-none-eabi/include/c++/10.3.1/bits/stl_algobase.h **** 			    _OI);
 726:/Library/DaisyToolchain/0.2.0/arm/arm-none-eabi/include/c++/10.3.1/bits/stl_algobase.h **** 
 727:/Library/DaisyToolchain/0.2.0/arm/arm-none-eabi/include/c++/10.3.1/bits/stl_algobase.h ****   template<bool _IsMove,
 728:/Library/DaisyToolchain/0.2.0/arm/arm-none-eabi/include/c++/10.3.1/bits/stl_algobase.h **** 	   typename _ITp, typename _IRef, typename _IPtr, typename _OTp>
 729:/Library/DaisyToolchain/0.2.0/arm/arm-none-eabi/include/c++/10.3.1/bits/stl_algobase.h ****     _GLIBCXX_STD_C::_Deque_iterator<_OTp, _OTp&, _OTp*>
 730:/Library/DaisyToolchain/0.2.0/arm/arm-none-eabi/include/c++/10.3.1/bits/stl_algobase.h ****     __copy_move_backward_a1(
 731:/Library/DaisyToolchain/0.2.0/arm/arm-none-eabi/include/c++/10.3.1/bits/stl_algobase.h **** 			_GLIBCXX_STD_C::_Deque_iterator<_ITp, _IRef, _IPtr>,
 732:/Library/DaisyToolchain/0.2.0/arm/arm-none-eabi/include/c++/10.3.1/bits/stl_algobase.h **** 			_GLIBCXX_STD_C::_Deque_iterator<_ITp, _IRef, _IPtr>,
ARM GAS  /var/folders/9k/zk1mgrrd7wg4__6zvxvr9w8m0000gn/T//ccUrAnV6.s 			page 38


 733:/Library/DaisyToolchain/0.2.0/arm/arm-none-eabi/include/c++/10.3.1/bits/stl_algobase.h **** 			_GLIBCXX_STD_C::_Deque_iterator<_OTp, _OTp&, _OTp*>);
 734:/Library/DaisyToolchain/0.2.0/arm/arm-none-eabi/include/c++/10.3.1/bits/stl_algobase.h **** 
 735:/Library/DaisyToolchain/0.2.0/arm/arm-none-eabi/include/c++/10.3.1/bits/stl_algobase.h ****   template<bool _IsMove, typename _II, typename _Tp>
 736:/Library/DaisyToolchain/0.2.0/arm/arm-none-eabi/include/c++/10.3.1/bits/stl_algobase.h ****     typename __gnu_cxx::__enable_if<
 737:/Library/DaisyToolchain/0.2.0/arm/arm-none-eabi/include/c++/10.3.1/bits/stl_algobase.h ****       __is_random_access_iter<_II>::__value,
 738:/Library/DaisyToolchain/0.2.0/arm/arm-none-eabi/include/c++/10.3.1/bits/stl_algobase.h ****       _GLIBCXX_STD_C::_Deque_iterator<_Tp, _Tp&, _Tp*> >::__type
 739:/Library/DaisyToolchain/0.2.0/arm/arm-none-eabi/include/c++/10.3.1/bits/stl_algobase.h ****     __copy_move_backward_a1(_II, _II,
 740:/Library/DaisyToolchain/0.2.0/arm/arm-none-eabi/include/c++/10.3.1/bits/stl_algobase.h **** 			    _GLIBCXX_STD_C::_Deque_iterator<_Tp, _Tp&, _Tp*>);
 741:/Library/DaisyToolchain/0.2.0/arm/arm-none-eabi/include/c++/10.3.1/bits/stl_algobase.h **** 
 742:/Library/DaisyToolchain/0.2.0/arm/arm-none-eabi/include/c++/10.3.1/bits/stl_algobase.h ****   template<bool _IsMove, typename _II, typename _OI>
 743:/Library/DaisyToolchain/0.2.0/arm/arm-none-eabi/include/c++/10.3.1/bits/stl_algobase.h ****     _GLIBCXX20_CONSTEXPR
 744:/Library/DaisyToolchain/0.2.0/arm/arm-none-eabi/include/c++/10.3.1/bits/stl_algobase.h ****     inline _OI
 745:/Library/DaisyToolchain/0.2.0/arm/arm-none-eabi/include/c++/10.3.1/bits/stl_algobase.h ****     __copy_move_backward_a(_II __first, _II __last, _OI __result)
 746:/Library/DaisyToolchain/0.2.0/arm/arm-none-eabi/include/c++/10.3.1/bits/stl_algobase.h ****     {
 747:/Library/DaisyToolchain/0.2.0/arm/arm-none-eabi/include/c++/10.3.1/bits/stl_algobase.h ****       return std::__niter_wrap(__result,
 748:/Library/DaisyToolchain/0.2.0/arm/arm-none-eabi/include/c++/10.3.1/bits/stl_algobase.h **** 		std::__copy_move_backward_a1<_IsMove>
 749:/Library/DaisyToolchain/0.2.0/arm/arm-none-eabi/include/c++/10.3.1/bits/stl_algobase.h **** 		  (std::__niter_base(__first), std::__niter_base(__last),
 750:/Library/DaisyToolchain/0.2.0/arm/arm-none-eabi/include/c++/10.3.1/bits/stl_algobase.h **** 		   std::__niter_base(__result)));
 751:/Library/DaisyToolchain/0.2.0/arm/arm-none-eabi/include/c++/10.3.1/bits/stl_algobase.h ****     }
 752:/Library/DaisyToolchain/0.2.0/arm/arm-none-eabi/include/c++/10.3.1/bits/stl_algobase.h **** 
 753:/Library/DaisyToolchain/0.2.0/arm/arm-none-eabi/include/c++/10.3.1/bits/stl_algobase.h ****   template<bool _IsMove,
 754:/Library/DaisyToolchain/0.2.0/arm/arm-none-eabi/include/c++/10.3.1/bits/stl_algobase.h **** 	   typename _Ite, typename _Seq, typename _Cat, typename _OI>
 755:/Library/DaisyToolchain/0.2.0/arm/arm-none-eabi/include/c++/10.3.1/bits/stl_algobase.h ****     _OI
 756:/Library/DaisyToolchain/0.2.0/arm/arm-none-eabi/include/c++/10.3.1/bits/stl_algobase.h ****     __copy_move_backward_a(
 757:/Library/DaisyToolchain/0.2.0/arm/arm-none-eabi/include/c++/10.3.1/bits/stl_algobase.h **** 		const ::__gnu_debug::_Safe_iterator<_Ite, _Seq, _Cat>&,
 758:/Library/DaisyToolchain/0.2.0/arm/arm-none-eabi/include/c++/10.3.1/bits/stl_algobase.h **** 		const ::__gnu_debug::_Safe_iterator<_Ite, _Seq, _Cat>&,
 759:/Library/DaisyToolchain/0.2.0/arm/arm-none-eabi/include/c++/10.3.1/bits/stl_algobase.h **** 		_OI);
 760:/Library/DaisyToolchain/0.2.0/arm/arm-none-eabi/include/c++/10.3.1/bits/stl_algobase.h **** 
 761:/Library/DaisyToolchain/0.2.0/arm/arm-none-eabi/include/c++/10.3.1/bits/stl_algobase.h ****   template<bool _IsMove,
 762:/Library/DaisyToolchain/0.2.0/arm/arm-none-eabi/include/c++/10.3.1/bits/stl_algobase.h **** 	   typename _II, typename _Ite, typename _Seq, typename _Cat>
 763:/Library/DaisyToolchain/0.2.0/arm/arm-none-eabi/include/c++/10.3.1/bits/stl_algobase.h ****     __gnu_debug::_Safe_iterator<_Ite, _Seq, _Cat>
 764:/Library/DaisyToolchain/0.2.0/arm/arm-none-eabi/include/c++/10.3.1/bits/stl_algobase.h ****     __copy_move_backward_a(_II, _II,
 765:/Library/DaisyToolchain/0.2.0/arm/arm-none-eabi/include/c++/10.3.1/bits/stl_algobase.h **** 		const ::__gnu_debug::_Safe_iterator<_Ite, _Seq, _Cat>&);
 766:/Library/DaisyToolchain/0.2.0/arm/arm-none-eabi/include/c++/10.3.1/bits/stl_algobase.h **** 
 767:/Library/DaisyToolchain/0.2.0/arm/arm-none-eabi/include/c++/10.3.1/bits/stl_algobase.h ****   template<bool _IsMove,
 768:/Library/DaisyToolchain/0.2.0/arm/arm-none-eabi/include/c++/10.3.1/bits/stl_algobase.h **** 	   typename _IIte, typename _ISeq, typename _ICat,
 769:/Library/DaisyToolchain/0.2.0/arm/arm-none-eabi/include/c++/10.3.1/bits/stl_algobase.h **** 	   typename _OIte, typename _OSeq, typename _OCat>
 770:/Library/DaisyToolchain/0.2.0/arm/arm-none-eabi/include/c++/10.3.1/bits/stl_algobase.h ****     ::__gnu_debug::_Safe_iterator<_OIte, _OSeq, _OCat>
 771:/Library/DaisyToolchain/0.2.0/arm/arm-none-eabi/include/c++/10.3.1/bits/stl_algobase.h ****     __copy_move_backward_a(
 772:/Library/DaisyToolchain/0.2.0/arm/arm-none-eabi/include/c++/10.3.1/bits/stl_algobase.h **** 		const ::__gnu_debug::_Safe_iterator<_IIte, _ISeq, _ICat>&,
 773:/Library/DaisyToolchain/0.2.0/arm/arm-none-eabi/include/c++/10.3.1/bits/stl_algobase.h **** 		const ::__gnu_debug::_Safe_iterator<_IIte, _ISeq, _ICat>&,
 774:/Library/DaisyToolchain/0.2.0/arm/arm-none-eabi/include/c++/10.3.1/bits/stl_algobase.h **** 		const ::__gnu_debug::_Safe_iterator<_OIte, _OSeq, _OCat>&);
 775:/Library/DaisyToolchain/0.2.0/arm/arm-none-eabi/include/c++/10.3.1/bits/stl_algobase.h **** 
 776:/Library/DaisyToolchain/0.2.0/arm/arm-none-eabi/include/c++/10.3.1/bits/stl_algobase.h ****   /**
 777:/Library/DaisyToolchain/0.2.0/arm/arm-none-eabi/include/c++/10.3.1/bits/stl_algobase.h ****    *  @brief Copies the range [first,last) into result.
 778:/Library/DaisyToolchain/0.2.0/arm/arm-none-eabi/include/c++/10.3.1/bits/stl_algobase.h ****    *  @ingroup mutating_algorithms
 779:/Library/DaisyToolchain/0.2.0/arm/arm-none-eabi/include/c++/10.3.1/bits/stl_algobase.h ****    *  @param  __first  A bidirectional iterator.
 780:/Library/DaisyToolchain/0.2.0/arm/arm-none-eabi/include/c++/10.3.1/bits/stl_algobase.h ****    *  @param  __last   A bidirectional iterator.
 781:/Library/DaisyToolchain/0.2.0/arm/arm-none-eabi/include/c++/10.3.1/bits/stl_algobase.h ****    *  @param  __result A bidirectional iterator.
 782:/Library/DaisyToolchain/0.2.0/arm/arm-none-eabi/include/c++/10.3.1/bits/stl_algobase.h ****    *  @return   result - (last - first)
 783:/Library/DaisyToolchain/0.2.0/arm/arm-none-eabi/include/c++/10.3.1/bits/stl_algobase.h ****    *
 784:/Library/DaisyToolchain/0.2.0/arm/arm-none-eabi/include/c++/10.3.1/bits/stl_algobase.h ****    *  The function has the same effect as copy, but starts at the end of the
 785:/Library/DaisyToolchain/0.2.0/arm/arm-none-eabi/include/c++/10.3.1/bits/stl_algobase.h ****    *  range and works its way to the start, returning the start of the result.
 786:/Library/DaisyToolchain/0.2.0/arm/arm-none-eabi/include/c++/10.3.1/bits/stl_algobase.h ****    *  This inline function will boil down to a call to @c memmove whenever
 787:/Library/DaisyToolchain/0.2.0/arm/arm-none-eabi/include/c++/10.3.1/bits/stl_algobase.h ****    *  possible.  Failing that, if random access iterators are passed, then the
 788:/Library/DaisyToolchain/0.2.0/arm/arm-none-eabi/include/c++/10.3.1/bits/stl_algobase.h ****    *  loop count will be known (and therefore a candidate for compiler
 789:/Library/DaisyToolchain/0.2.0/arm/arm-none-eabi/include/c++/10.3.1/bits/stl_algobase.h ****    *  optimizations such as unrolling).
ARM GAS  /var/folders/9k/zk1mgrrd7wg4__6zvxvr9w8m0000gn/T//ccUrAnV6.s 			page 39


 790:/Library/DaisyToolchain/0.2.0/arm/arm-none-eabi/include/c++/10.3.1/bits/stl_algobase.h ****    *
 791:/Library/DaisyToolchain/0.2.0/arm/arm-none-eabi/include/c++/10.3.1/bits/stl_algobase.h ****    *  Result may not be in the range (first,last].  Use copy instead.  Note
 792:/Library/DaisyToolchain/0.2.0/arm/arm-none-eabi/include/c++/10.3.1/bits/stl_algobase.h ****    *  that the start of the output range may overlap [first,last).
 793:/Library/DaisyToolchain/0.2.0/arm/arm-none-eabi/include/c++/10.3.1/bits/stl_algobase.h ****   */
 794:/Library/DaisyToolchain/0.2.0/arm/arm-none-eabi/include/c++/10.3.1/bits/stl_algobase.h ****   template<typename _BI1, typename _BI2>
 795:/Library/DaisyToolchain/0.2.0/arm/arm-none-eabi/include/c++/10.3.1/bits/stl_algobase.h ****     _GLIBCXX20_CONSTEXPR
 796:/Library/DaisyToolchain/0.2.0/arm/arm-none-eabi/include/c++/10.3.1/bits/stl_algobase.h ****     inline _BI2
 797:/Library/DaisyToolchain/0.2.0/arm/arm-none-eabi/include/c++/10.3.1/bits/stl_algobase.h ****     copy_backward(_BI1 __first, _BI1 __last, _BI2 __result)
 798:/Library/DaisyToolchain/0.2.0/arm/arm-none-eabi/include/c++/10.3.1/bits/stl_algobase.h ****     {
 799:/Library/DaisyToolchain/0.2.0/arm/arm-none-eabi/include/c++/10.3.1/bits/stl_algobase.h ****       // concept requirements
 800:/Library/DaisyToolchain/0.2.0/arm/arm-none-eabi/include/c++/10.3.1/bits/stl_algobase.h ****       __glibcxx_function_requires(_BidirectionalIteratorConcept<_BI1>)
 801:/Library/DaisyToolchain/0.2.0/arm/arm-none-eabi/include/c++/10.3.1/bits/stl_algobase.h ****       __glibcxx_function_requires(_Mutable_BidirectionalIteratorConcept<_BI2>)
 802:/Library/DaisyToolchain/0.2.0/arm/arm-none-eabi/include/c++/10.3.1/bits/stl_algobase.h ****       __glibcxx_function_requires(_ConvertibleConcept<
 803:/Library/DaisyToolchain/0.2.0/arm/arm-none-eabi/include/c++/10.3.1/bits/stl_algobase.h **** 	    typename iterator_traits<_BI1>::value_type,
 804:/Library/DaisyToolchain/0.2.0/arm/arm-none-eabi/include/c++/10.3.1/bits/stl_algobase.h **** 	    typename iterator_traits<_BI2>::value_type>)
 805:/Library/DaisyToolchain/0.2.0/arm/arm-none-eabi/include/c++/10.3.1/bits/stl_algobase.h ****       __glibcxx_requires_can_decrement_range(__first, __last, __result);
 806:/Library/DaisyToolchain/0.2.0/arm/arm-none-eabi/include/c++/10.3.1/bits/stl_algobase.h **** 
 807:/Library/DaisyToolchain/0.2.0/arm/arm-none-eabi/include/c++/10.3.1/bits/stl_algobase.h ****       return std::__copy_move_backward_a<__is_move_iterator<_BI1>::__value>
 808:/Library/DaisyToolchain/0.2.0/arm/arm-none-eabi/include/c++/10.3.1/bits/stl_algobase.h **** 	     (std::__miter_base(__first), std::__miter_base(__last), __result);
 809:/Library/DaisyToolchain/0.2.0/arm/arm-none-eabi/include/c++/10.3.1/bits/stl_algobase.h ****     }
 810:/Library/DaisyToolchain/0.2.0/arm/arm-none-eabi/include/c++/10.3.1/bits/stl_algobase.h **** 
 811:/Library/DaisyToolchain/0.2.0/arm/arm-none-eabi/include/c++/10.3.1/bits/stl_algobase.h **** #if __cplusplus >= 201103L
 812:/Library/DaisyToolchain/0.2.0/arm/arm-none-eabi/include/c++/10.3.1/bits/stl_algobase.h ****   /**
 813:/Library/DaisyToolchain/0.2.0/arm/arm-none-eabi/include/c++/10.3.1/bits/stl_algobase.h ****    *  @brief Moves the range [first,last) into result.
 814:/Library/DaisyToolchain/0.2.0/arm/arm-none-eabi/include/c++/10.3.1/bits/stl_algobase.h ****    *  @ingroup mutating_algorithms
 815:/Library/DaisyToolchain/0.2.0/arm/arm-none-eabi/include/c++/10.3.1/bits/stl_algobase.h ****    *  @param  __first  A bidirectional iterator.
 816:/Library/DaisyToolchain/0.2.0/arm/arm-none-eabi/include/c++/10.3.1/bits/stl_algobase.h ****    *  @param  __last   A bidirectional iterator.
 817:/Library/DaisyToolchain/0.2.0/arm/arm-none-eabi/include/c++/10.3.1/bits/stl_algobase.h ****    *  @param  __result A bidirectional iterator.
 818:/Library/DaisyToolchain/0.2.0/arm/arm-none-eabi/include/c++/10.3.1/bits/stl_algobase.h ****    *  @return   result - (last - first)
 819:/Library/DaisyToolchain/0.2.0/arm/arm-none-eabi/include/c++/10.3.1/bits/stl_algobase.h ****    *
 820:/Library/DaisyToolchain/0.2.0/arm/arm-none-eabi/include/c++/10.3.1/bits/stl_algobase.h ****    *  The function has the same effect as move, but starts at the end of the
 821:/Library/DaisyToolchain/0.2.0/arm/arm-none-eabi/include/c++/10.3.1/bits/stl_algobase.h ****    *  range and works its way to the start, returning the start of the result.
 822:/Library/DaisyToolchain/0.2.0/arm/arm-none-eabi/include/c++/10.3.1/bits/stl_algobase.h ****    *  This inline function will boil down to a call to @c memmove whenever
 823:/Library/DaisyToolchain/0.2.0/arm/arm-none-eabi/include/c++/10.3.1/bits/stl_algobase.h ****    *  possible.  Failing that, if random access iterators are passed, then the
 824:/Library/DaisyToolchain/0.2.0/arm/arm-none-eabi/include/c++/10.3.1/bits/stl_algobase.h ****    *  loop count will be known (and therefore a candidate for compiler
 825:/Library/DaisyToolchain/0.2.0/arm/arm-none-eabi/include/c++/10.3.1/bits/stl_algobase.h ****    *  optimizations such as unrolling).
 826:/Library/DaisyToolchain/0.2.0/arm/arm-none-eabi/include/c++/10.3.1/bits/stl_algobase.h ****    *
 827:/Library/DaisyToolchain/0.2.0/arm/arm-none-eabi/include/c++/10.3.1/bits/stl_algobase.h ****    *  Result may not be in the range (first,last].  Use move instead.  Note
 828:/Library/DaisyToolchain/0.2.0/arm/arm-none-eabi/include/c++/10.3.1/bits/stl_algobase.h ****    *  that the start of the output range may overlap [first,last).
 829:/Library/DaisyToolchain/0.2.0/arm/arm-none-eabi/include/c++/10.3.1/bits/stl_algobase.h ****   */
 830:/Library/DaisyToolchain/0.2.0/arm/arm-none-eabi/include/c++/10.3.1/bits/stl_algobase.h ****   template<typename _BI1, typename _BI2>
 831:/Library/DaisyToolchain/0.2.0/arm/arm-none-eabi/include/c++/10.3.1/bits/stl_algobase.h ****     _GLIBCXX20_CONSTEXPR
 832:/Library/DaisyToolchain/0.2.0/arm/arm-none-eabi/include/c++/10.3.1/bits/stl_algobase.h ****     inline _BI2
 833:/Library/DaisyToolchain/0.2.0/arm/arm-none-eabi/include/c++/10.3.1/bits/stl_algobase.h ****     move_backward(_BI1 __first, _BI1 __last, _BI2 __result)
 834:/Library/DaisyToolchain/0.2.0/arm/arm-none-eabi/include/c++/10.3.1/bits/stl_algobase.h ****     {
 835:/Library/DaisyToolchain/0.2.0/arm/arm-none-eabi/include/c++/10.3.1/bits/stl_algobase.h ****       // concept requirements
 836:/Library/DaisyToolchain/0.2.0/arm/arm-none-eabi/include/c++/10.3.1/bits/stl_algobase.h ****       __glibcxx_function_requires(_BidirectionalIteratorConcept<_BI1>)
 837:/Library/DaisyToolchain/0.2.0/arm/arm-none-eabi/include/c++/10.3.1/bits/stl_algobase.h ****       __glibcxx_function_requires(_Mutable_BidirectionalIteratorConcept<_BI2>)
 838:/Library/DaisyToolchain/0.2.0/arm/arm-none-eabi/include/c++/10.3.1/bits/stl_algobase.h ****       __glibcxx_function_requires(_ConvertibleConcept<
 839:/Library/DaisyToolchain/0.2.0/arm/arm-none-eabi/include/c++/10.3.1/bits/stl_algobase.h **** 	    typename iterator_traits<_BI1>::value_type,
 840:/Library/DaisyToolchain/0.2.0/arm/arm-none-eabi/include/c++/10.3.1/bits/stl_algobase.h **** 	    typename iterator_traits<_BI2>::value_type>)
 841:/Library/DaisyToolchain/0.2.0/arm/arm-none-eabi/include/c++/10.3.1/bits/stl_algobase.h ****       __glibcxx_requires_can_decrement_range(__first, __last, __result);
 842:/Library/DaisyToolchain/0.2.0/arm/arm-none-eabi/include/c++/10.3.1/bits/stl_algobase.h **** 
 843:/Library/DaisyToolchain/0.2.0/arm/arm-none-eabi/include/c++/10.3.1/bits/stl_algobase.h ****       return std::__copy_move_backward_a<true>(std::__miter_base(__first),
 844:/Library/DaisyToolchain/0.2.0/arm/arm-none-eabi/include/c++/10.3.1/bits/stl_algobase.h **** 					       std::__miter_base(__last),
 845:/Library/DaisyToolchain/0.2.0/arm/arm-none-eabi/include/c++/10.3.1/bits/stl_algobase.h **** 					       __result);
 846:/Library/DaisyToolchain/0.2.0/arm/arm-none-eabi/include/c++/10.3.1/bits/stl_algobase.h ****     }
ARM GAS  /var/folders/9k/zk1mgrrd7wg4__6zvxvr9w8m0000gn/T//ccUrAnV6.s 			page 40


 847:/Library/DaisyToolchain/0.2.0/arm/arm-none-eabi/include/c++/10.3.1/bits/stl_algobase.h **** 
 848:/Library/DaisyToolchain/0.2.0/arm/arm-none-eabi/include/c++/10.3.1/bits/stl_algobase.h **** #define _GLIBCXX_MOVE_BACKWARD3(_Tp, _Up, _Vp) std::move_backward(_Tp, _Up, _Vp)
 849:/Library/DaisyToolchain/0.2.0/arm/arm-none-eabi/include/c++/10.3.1/bits/stl_algobase.h **** #else
 850:/Library/DaisyToolchain/0.2.0/arm/arm-none-eabi/include/c++/10.3.1/bits/stl_algobase.h **** #define _GLIBCXX_MOVE_BACKWARD3(_Tp, _Up, _Vp) std::copy_backward(_Tp, _Up, _Vp)
 851:/Library/DaisyToolchain/0.2.0/arm/arm-none-eabi/include/c++/10.3.1/bits/stl_algobase.h **** #endif
 852:/Library/DaisyToolchain/0.2.0/arm/arm-none-eabi/include/c++/10.3.1/bits/stl_algobase.h **** 
 853:/Library/DaisyToolchain/0.2.0/arm/arm-none-eabi/include/c++/10.3.1/bits/stl_algobase.h ****   template<typename _ForwardIterator, typename _Tp>
 854:/Library/DaisyToolchain/0.2.0/arm/arm-none-eabi/include/c++/10.3.1/bits/stl_algobase.h ****     _GLIBCXX20_CONSTEXPR
 855:/Library/DaisyToolchain/0.2.0/arm/arm-none-eabi/include/c++/10.3.1/bits/stl_algobase.h ****     inline typename
 856:/Library/DaisyToolchain/0.2.0/arm/arm-none-eabi/include/c++/10.3.1/bits/stl_algobase.h ****     __gnu_cxx::__enable_if<!__is_scalar<_Tp>::__value, void>::__type
 857:/Library/DaisyToolchain/0.2.0/arm/arm-none-eabi/include/c++/10.3.1/bits/stl_algobase.h ****     __fill_a1(_ForwardIterator __first, _ForwardIterator __last,
 858:/Library/DaisyToolchain/0.2.0/arm/arm-none-eabi/include/c++/10.3.1/bits/stl_algobase.h **** 	      const _Tp& __value)
 859:/Library/DaisyToolchain/0.2.0/arm/arm-none-eabi/include/c++/10.3.1/bits/stl_algobase.h ****     {
 860:/Library/DaisyToolchain/0.2.0/arm/arm-none-eabi/include/c++/10.3.1/bits/stl_algobase.h ****       for (; __first != __last; ++__first)
 861:/Library/DaisyToolchain/0.2.0/arm/arm-none-eabi/include/c++/10.3.1/bits/stl_algobase.h **** 	*__first = __value;
 862:/Library/DaisyToolchain/0.2.0/arm/arm-none-eabi/include/c++/10.3.1/bits/stl_algobase.h ****     }
 863:/Library/DaisyToolchain/0.2.0/arm/arm-none-eabi/include/c++/10.3.1/bits/stl_algobase.h **** 
 864:/Library/DaisyToolchain/0.2.0/arm/arm-none-eabi/include/c++/10.3.1/bits/stl_algobase.h ****   template<typename _ForwardIterator, typename _Tp>
 865:/Library/DaisyToolchain/0.2.0/arm/arm-none-eabi/include/c++/10.3.1/bits/stl_algobase.h ****     _GLIBCXX20_CONSTEXPR
 866:/Library/DaisyToolchain/0.2.0/arm/arm-none-eabi/include/c++/10.3.1/bits/stl_algobase.h ****     inline typename
 867:/Library/DaisyToolchain/0.2.0/arm/arm-none-eabi/include/c++/10.3.1/bits/stl_algobase.h ****     __gnu_cxx::__enable_if<__is_scalar<_Tp>::__value, void>::__type
 868:/Library/DaisyToolchain/0.2.0/arm/arm-none-eabi/include/c++/10.3.1/bits/stl_algobase.h ****     __fill_a1(_ForwardIterator __first, _ForwardIterator __last,
 869:/Library/DaisyToolchain/0.2.0/arm/arm-none-eabi/include/c++/10.3.1/bits/stl_algobase.h **** 	      const _Tp& __value)
 870:/Library/DaisyToolchain/0.2.0/arm/arm-none-eabi/include/c++/10.3.1/bits/stl_algobase.h ****     {
 871:/Library/DaisyToolchain/0.2.0/arm/arm-none-eabi/include/c++/10.3.1/bits/stl_algobase.h ****       const _Tp __tmp = __value;
 872:/Library/DaisyToolchain/0.2.0/arm/arm-none-eabi/include/c++/10.3.1/bits/stl_algobase.h ****       for (; __first != __last; ++__first)
 873:/Library/DaisyToolchain/0.2.0/arm/arm-none-eabi/include/c++/10.3.1/bits/stl_algobase.h **** 	*__first = __tmp;
 874:/Library/DaisyToolchain/0.2.0/arm/arm-none-eabi/include/c++/10.3.1/bits/stl_algobase.h ****     }
 875:/Library/DaisyToolchain/0.2.0/arm/arm-none-eabi/include/c++/10.3.1/bits/stl_algobase.h **** 
 876:/Library/DaisyToolchain/0.2.0/arm/arm-none-eabi/include/c++/10.3.1/bits/stl_algobase.h ****   // Specialization: for char types we can use memset.
 877:/Library/DaisyToolchain/0.2.0/arm/arm-none-eabi/include/c++/10.3.1/bits/stl_algobase.h ****   template<typename _Tp>
 878:/Library/DaisyToolchain/0.2.0/arm/arm-none-eabi/include/c++/10.3.1/bits/stl_algobase.h ****     _GLIBCXX20_CONSTEXPR
 879:/Library/DaisyToolchain/0.2.0/arm/arm-none-eabi/include/c++/10.3.1/bits/stl_algobase.h ****     inline typename
 880:/Library/DaisyToolchain/0.2.0/arm/arm-none-eabi/include/c++/10.3.1/bits/stl_algobase.h ****     __gnu_cxx::__enable_if<__is_byte<_Tp>::__value, void>::__type
 881:/Library/DaisyToolchain/0.2.0/arm/arm-none-eabi/include/c++/10.3.1/bits/stl_algobase.h ****     __fill_a1(_Tp* __first, _Tp* __last, const _Tp& __c)
 882:/Library/DaisyToolchain/0.2.0/arm/arm-none-eabi/include/c++/10.3.1/bits/stl_algobase.h ****     {
 883:/Library/DaisyToolchain/0.2.0/arm/arm-none-eabi/include/c++/10.3.1/bits/stl_algobase.h ****       const _Tp __tmp = __c;
 884:/Library/DaisyToolchain/0.2.0/arm/arm-none-eabi/include/c++/10.3.1/bits/stl_algobase.h **** #if __cpp_lib_is_constant_evaluated
 885:/Library/DaisyToolchain/0.2.0/arm/arm-none-eabi/include/c++/10.3.1/bits/stl_algobase.h ****       if (std::is_constant_evaluated())
 886:/Library/DaisyToolchain/0.2.0/arm/arm-none-eabi/include/c++/10.3.1/bits/stl_algobase.h **** 	{
 887:/Library/DaisyToolchain/0.2.0/arm/arm-none-eabi/include/c++/10.3.1/bits/stl_algobase.h **** 	  for (; __first != __last; ++__first)
 888:/Library/DaisyToolchain/0.2.0/arm/arm-none-eabi/include/c++/10.3.1/bits/stl_algobase.h **** 	    *__first = __tmp;
 889:/Library/DaisyToolchain/0.2.0/arm/arm-none-eabi/include/c++/10.3.1/bits/stl_algobase.h **** 	  return;
 890:/Library/DaisyToolchain/0.2.0/arm/arm-none-eabi/include/c++/10.3.1/bits/stl_algobase.h **** 	}
 891:/Library/DaisyToolchain/0.2.0/arm/arm-none-eabi/include/c++/10.3.1/bits/stl_algobase.h **** #endif
 892:/Library/DaisyToolchain/0.2.0/arm/arm-none-eabi/include/c++/10.3.1/bits/stl_algobase.h ****       if (const size_t __len = __last - __first)
 893:/Library/DaisyToolchain/0.2.0/arm/arm-none-eabi/include/c++/10.3.1/bits/stl_algobase.h **** 	__builtin_memset(__first, static_cast<unsigned char>(__tmp), __len);
 894:/Library/DaisyToolchain/0.2.0/arm/arm-none-eabi/include/c++/10.3.1/bits/stl_algobase.h ****     }
 895:/Library/DaisyToolchain/0.2.0/arm/arm-none-eabi/include/c++/10.3.1/bits/stl_algobase.h **** 
 896:/Library/DaisyToolchain/0.2.0/arm/arm-none-eabi/include/c++/10.3.1/bits/stl_algobase.h ****   template<typename _Ite, typename _Cont, typename _Tp>
 897:/Library/DaisyToolchain/0.2.0/arm/arm-none-eabi/include/c++/10.3.1/bits/stl_algobase.h ****     _GLIBCXX20_CONSTEXPR
 898:/Library/DaisyToolchain/0.2.0/arm/arm-none-eabi/include/c++/10.3.1/bits/stl_algobase.h ****     inline void
 899:/Library/DaisyToolchain/0.2.0/arm/arm-none-eabi/include/c++/10.3.1/bits/stl_algobase.h ****     __fill_a1(::__gnu_cxx::__normal_iterator<_Ite, _Cont> __first,
 900:/Library/DaisyToolchain/0.2.0/arm/arm-none-eabi/include/c++/10.3.1/bits/stl_algobase.h **** 	      ::__gnu_cxx::__normal_iterator<_Ite, _Cont> __last,
 901:/Library/DaisyToolchain/0.2.0/arm/arm-none-eabi/include/c++/10.3.1/bits/stl_algobase.h **** 	      const _Tp& __value)
 902:/Library/DaisyToolchain/0.2.0/arm/arm-none-eabi/include/c++/10.3.1/bits/stl_algobase.h ****     { std::__fill_a1(__first.base(), __last.base(), __value); }
 903:/Library/DaisyToolchain/0.2.0/arm/arm-none-eabi/include/c++/10.3.1/bits/stl_algobase.h **** 
ARM GAS  /var/folders/9k/zk1mgrrd7wg4__6zvxvr9w8m0000gn/T//ccUrAnV6.s 			page 41


 904:/Library/DaisyToolchain/0.2.0/arm/arm-none-eabi/include/c++/10.3.1/bits/stl_algobase.h ****   template<typename _Tp, typename _VTp>
 905:/Library/DaisyToolchain/0.2.0/arm/arm-none-eabi/include/c++/10.3.1/bits/stl_algobase.h ****     void
 906:/Library/DaisyToolchain/0.2.0/arm/arm-none-eabi/include/c++/10.3.1/bits/stl_algobase.h ****     __fill_a1(const _GLIBCXX_STD_C::_Deque_iterator<_Tp, _Tp&, _Tp*>&,
 907:/Library/DaisyToolchain/0.2.0/arm/arm-none-eabi/include/c++/10.3.1/bits/stl_algobase.h **** 	      const _GLIBCXX_STD_C::_Deque_iterator<_Tp, _Tp&, _Tp*>&,
 908:/Library/DaisyToolchain/0.2.0/arm/arm-none-eabi/include/c++/10.3.1/bits/stl_algobase.h **** 	      const _VTp&);
 909:/Library/DaisyToolchain/0.2.0/arm/arm-none-eabi/include/c++/10.3.1/bits/stl_algobase.h **** 
 910:/Library/DaisyToolchain/0.2.0/arm/arm-none-eabi/include/c++/10.3.1/bits/stl_algobase.h ****   template<typename _FIte, typename _Tp>
 911:/Library/DaisyToolchain/0.2.0/arm/arm-none-eabi/include/c++/10.3.1/bits/stl_algobase.h ****     _GLIBCXX20_CONSTEXPR
 912:/Library/DaisyToolchain/0.2.0/arm/arm-none-eabi/include/c++/10.3.1/bits/stl_algobase.h ****     inline void
 913:/Library/DaisyToolchain/0.2.0/arm/arm-none-eabi/include/c++/10.3.1/bits/stl_algobase.h ****     __fill_a(_FIte __first, _FIte __last, const _Tp& __value)
 914:/Library/DaisyToolchain/0.2.0/arm/arm-none-eabi/include/c++/10.3.1/bits/stl_algobase.h ****     { std::__fill_a1(__first, __last, __value); }
 915:/Library/DaisyToolchain/0.2.0/arm/arm-none-eabi/include/c++/10.3.1/bits/stl_algobase.h **** 
 916:/Library/DaisyToolchain/0.2.0/arm/arm-none-eabi/include/c++/10.3.1/bits/stl_algobase.h ****   template<typename _Ite, typename _Seq, typename _Cat, typename _Tp>
 917:/Library/DaisyToolchain/0.2.0/arm/arm-none-eabi/include/c++/10.3.1/bits/stl_algobase.h ****     void
 918:/Library/DaisyToolchain/0.2.0/arm/arm-none-eabi/include/c++/10.3.1/bits/stl_algobase.h ****     __fill_a(const ::__gnu_debug::_Safe_iterator<_Ite, _Seq, _Cat>&,
 919:/Library/DaisyToolchain/0.2.0/arm/arm-none-eabi/include/c++/10.3.1/bits/stl_algobase.h **** 	     const ::__gnu_debug::_Safe_iterator<_Ite, _Seq, _Cat>&,
 920:/Library/DaisyToolchain/0.2.0/arm/arm-none-eabi/include/c++/10.3.1/bits/stl_algobase.h **** 	     const _Tp&);
 921:/Library/DaisyToolchain/0.2.0/arm/arm-none-eabi/include/c++/10.3.1/bits/stl_algobase.h **** 
 922:/Library/DaisyToolchain/0.2.0/arm/arm-none-eabi/include/c++/10.3.1/bits/stl_algobase.h ****   /**
 923:/Library/DaisyToolchain/0.2.0/arm/arm-none-eabi/include/c++/10.3.1/bits/stl_algobase.h ****    *  @brief Fills the range [first,last) with copies of value.
 924:/Library/DaisyToolchain/0.2.0/arm/arm-none-eabi/include/c++/10.3.1/bits/stl_algobase.h ****    *  @ingroup mutating_algorithms
 925:/Library/DaisyToolchain/0.2.0/arm/arm-none-eabi/include/c++/10.3.1/bits/stl_algobase.h ****    *  @param  __first  A forward iterator.
 926:/Library/DaisyToolchain/0.2.0/arm/arm-none-eabi/include/c++/10.3.1/bits/stl_algobase.h ****    *  @param  __last   A forward iterator.
 927:/Library/DaisyToolchain/0.2.0/arm/arm-none-eabi/include/c++/10.3.1/bits/stl_algobase.h ****    *  @param  __value  A reference-to-const of arbitrary type.
 928:/Library/DaisyToolchain/0.2.0/arm/arm-none-eabi/include/c++/10.3.1/bits/stl_algobase.h ****    *  @return   Nothing.
 929:/Library/DaisyToolchain/0.2.0/arm/arm-none-eabi/include/c++/10.3.1/bits/stl_algobase.h ****    *
 930:/Library/DaisyToolchain/0.2.0/arm/arm-none-eabi/include/c++/10.3.1/bits/stl_algobase.h ****    *  This function fills a range with copies of the same value.  For char
 931:/Library/DaisyToolchain/0.2.0/arm/arm-none-eabi/include/c++/10.3.1/bits/stl_algobase.h ****    *  types filling contiguous areas of memory, this becomes an inline call
 932:/Library/DaisyToolchain/0.2.0/arm/arm-none-eabi/include/c++/10.3.1/bits/stl_algobase.h ****    *  to @c memset or @c wmemset.
 933:/Library/DaisyToolchain/0.2.0/arm/arm-none-eabi/include/c++/10.3.1/bits/stl_algobase.h ****   */
 934:/Library/DaisyToolchain/0.2.0/arm/arm-none-eabi/include/c++/10.3.1/bits/stl_algobase.h ****   template<typename _ForwardIterator, typename _Tp>
 935:/Library/DaisyToolchain/0.2.0/arm/arm-none-eabi/include/c++/10.3.1/bits/stl_algobase.h ****     _GLIBCXX20_CONSTEXPR
 936:/Library/DaisyToolchain/0.2.0/arm/arm-none-eabi/include/c++/10.3.1/bits/stl_algobase.h ****     inline void
 937:/Library/DaisyToolchain/0.2.0/arm/arm-none-eabi/include/c++/10.3.1/bits/stl_algobase.h ****     fill(_ForwardIterator __first, _ForwardIterator __last, const _Tp& __value)
 757              		.loc 5 937 5 view .LVU211
 758              	.LBB181:
 759              	.LBI181:
 913:/Library/DaisyToolchain/0.2.0/arm/arm-none-eabi/include/c++/10.3.1/bits/stl_algobase.h ****     { std::__fill_a1(__first, __last, __value); }
 760              		.loc 5 913 5 view .LVU212
 761              	.LBB182:
 762              	.LBI182:
 868:/Library/DaisyToolchain/0.2.0/arm/arm-none-eabi/include/c++/10.3.1/bits/stl_algobase.h **** 	      const _Tp& __value)
 763              		.loc 5 868 5 view .LVU213
 764              	.LBB183:
 872:/Library/DaisyToolchain/0.2.0/arm/arm-none-eabi/include/c++/10.3.1/bits/stl_algobase.h **** 	*__first = __tmp;
 765              		.loc 5 872 22 view .LVU214
 766 023a 9A00     		lsls	r2, r3, #2
 767 023c 04D0     		beq	.L22
 873:/Library/DaisyToolchain/0.2.0/arm/arm-none-eabi/include/c++/10.3.1/bits/stl_algobase.h ****     }
 768              		.loc 5 873 11 is_stmt 0 view .LVU215
 769 023e 3046     		mov	r0, r6
 770 0240 0193     		str	r3, [sp, #4]
 771 0242 FFF7FEFF 		bl	memset
 772              	.LVL60:
 873:/Library/DaisyToolchain/0.2.0/arm/arm-none-eabi/include/c++/10.3.1/bits/stl_algobase.h ****     }
 773              		.loc 5 873 11 view .LVU216
 774 0246 019B     		ldr	r3, [sp, #4]
ARM GAS  /var/folders/9k/zk1mgrrd7wg4__6zvxvr9w8m0000gn/T//ccUrAnV6.s 			page 42


 775              	.LVL61:
 776              	.L22:
 873:/Library/DaisyToolchain/0.2.0/arm/arm-none-eabi/include/c++/10.3.1/bits/stl_algobase.h ****     }
 777              		.loc 5 873 11 view .LVU217
 778              	.LBE183:
 779              	.LBE182:
 780              	.LBE181:
 781              	.LBE180:
 782              	.LBE203:
 102:mi/plaits/dsp/physical_modelling/string_voice.cpp ****   for (size_t i = 0; i < size; ++i) {
 783              		.loc 1 102 3 is_stmt 1 view .LVU218
 784              	.LBB204:
 280:mi/stmlib/dsp/filter.h ****     float hp, bp, lp;
 785              		.loc 2 280 15 view .LVU219
 786              	.LBB192:
 282:mi/stmlib/dsp/filter.h ****     float state_2 = state_2_;
 787              		.loc 2 282 11 is_stmt 0 view .LVU220
 788 0248 94ED036A 		vldr.32	s12, [r4, #12]
 789              	.LVL62:
 285:mi/stmlib/dsp/filter.h ****       hp = (*in - r_ * state_1 - g_ * state_1 - state_2) * h_;
 790              		.loc 2 285 5 view .LVU221
 791 024c 5A1E     		subs	r2, r3, #1
 283:mi/stmlib/dsp/filter.h ****     
 792              		.loc 2 283 11 view .LVU222
 793 024e 94ED047A 		vldr.32	s14, [r4, #16]
 794              	.LVL63:
 285:mi/stmlib/dsp/filter.h ****       hp = (*in - r_ * state_1 - g_ * state_1 - state_2) * h_;
 795              		.loc 2 285 5 is_stmt 1 view .LVU223
 285:mi/stmlib/dsp/filter.h ****       hp = (*in - r_ * state_1 - g_ * state_1 - state_2) * h_;
 796              		.loc 2 285 5 is_stmt 0 view .LVU224
 797 0252 002B     		cmp	r3, #0
 798 0254 7FF442AF 		bne	.L19
 799              	.LVL64:
 800              	.L20:
 285:mi/stmlib/dsp/filter.h ****       hp = (*in - r_ * state_1 - g_ * state_1 - state_2) * h_;
 801              		.loc 2 285 5 view .LVU225
 802              	.LBE192:
 803              	.LBE204:
 108:mi/plaits/dsp/physical_modelling/string_voice.cpp ****       : (structure > 0.26f ? (structure - 0.26f) * 1.35135f : 0.0f);
 804              		.loc 1 108 7 view .LVU226
 805 0258 DFED427A 		vldr.32	s15, .L67+12
 806              	.LBB205:
 807              	.LBB193:
 307:mi/stmlib/dsp/filter.h ****     state_2_ = state_2;
 808              		.loc 2 307 14 view .LVU227
 809 025c 84ED036A 		vstr.32	s12, [r4, #12]
 810              	.LBE193:
 811              	.LBE205:
 108:mi/plaits/dsp/physical_modelling/string_voice.cpp ****       : (structure > 0.26f ? (structure - 0.26f) * 1.35135f : 0.0f);
 812              		.loc 1 108 7 view .LVU228
 813 0260 F4EEE79A 		vcmpe.f32	s19, s15
 814              	.LBB206:
 815              	.LBB194:
 816              		.loc 2 308 14 view .LVU229
 817 0264 84ED047A 		vstr.32	s14, [r4, #16]
 818              	.LVL65:
 819              		.loc 2 308 14 view .LVU230
ARM GAS  /var/folders/9k/zk1mgrrd7wg4__6zvxvr9w8m0000gn/T//ccUrAnV6.s 			page 43


 820              	.LBE194:
 821              	.LBE206:
 822              	.LBB207:
 103:mi/plaits/dsp/physical_modelling/string_voice.cpp ****     aux[i] += temp[i];
 823              		.loc 1 103 24 is_stmt 1 view .LVU231
 824              	.LBE207:
 107:mi/plaits/dsp/physical_modelling/string_voice.cpp ****       ? (structure - 0.24f) * 4.166f
 825              		.loc 1 107 3 view .LVU232
 108:mi/plaits/dsp/physical_modelling/string_voice.cpp ****       : (structure > 0.26f ? (structure - 0.26f) * 1.35135f : 0.0f);
 826              		.loc 1 108 7 is_stmt 0 view .LVU233
 827 0268 F1EE10FA 		vmrs	APSR_nzcv, FPSCR
 828 026c 3FF570AF 		bmi	.L66
 829              	.LVL66:
 830              	.L59:
 109:mi/plaits/dsp/physical_modelling/string_voice.cpp ****   string_.Process(f0, non_linearity, brightness, damping, temp, out, size);
 831              		.loc 1 109 28 view .LVU234
 832 0270 DFED450A 		vldr.32	s1, .L67+48
 833 0274 F4EEE09A 		vcmpe.f32	s19, s1
 834 0278 F1EE10FA 		vmrs	APSR_nzcv, FPSCR
 835 027c 5ADD     		ble	.L60
 109:mi/plaits/dsp/physical_modelling/string_voice.cpp ****   string_.Process(f0, non_linearity, brightness, damping, temp, out, size);
 836              		.loc 1 109 41 discriminator 1 view .LVU235
 837 027e 79EEE00A 		vsub.f32	s1, s19, s1
 109:mi/plaits/dsp/physical_modelling/string_voice.cpp ****   string_.Process(f0, non_linearity, brightness, damping, temp, out, size);
 838              		.loc 1 109 28 discriminator 1 view .LVU236
 839 0282 DFED429A 		vldr.32	s19, .L67+52
 840              	.LVL67:
 109:mi/plaits/dsp/physical_modelling/string_voice.cpp ****   string_.Process(f0, non_linearity, brightness, damping, temp, out, size);
 841              		.loc 1 109 28 discriminator 1 view .LVU237
 842 0286 60EEA90A 		vmul.f32	s1, s1, s19
 843 028a 67E7     		b	.L28
 844              	.LVL68:
 845              	.L11:
 846              	.LBB208:
 847              	.LBB154:
  78:mi/plaits/dsp/physical_modelling/string_voice.cpp ****     excitation_filter_.set_f_q<FREQUENCY_DIRTY>(cutoff, q);
 848              		.loc 1 78 5 is_stmt 1 view .LVU238
  78:mi/plaits/dsp/physical_modelling/string_voice.cpp ****     excitation_filter_.set_f_q<FREQUENCY_DIRTY>(cutoff, q);
 849              		.loc 1 78 57 is_stmt 0 view .LVU239
 850 028c B7EE007A 		vmov.f32	s14, #1.0e+0
 851              	.LBB146:
 852              	.LBB136:
 224:mi/stmlib/dsp/filter.h ****     r_ = 1.0f / resonance;
 853              		.loc 2 224 8 view .LVU240
 854 0290 C4ED007A 		vstr.32	s15, [r4]
 855              	.LBE136:
 856              	.LBE146:
 857              	.LBE154:
 858              	.LBE208:
  65:mi/plaits/dsp/physical_modelling/string_voice.cpp **** 
 859              		.loc 1 65 15 view .LVU241
 860 0294 61EEA11A 		vmul.f32	s3, s3, s3
 861              	.LVL69:
 862              	.LBB209:
  83:mi/plaits/dsp/physical_modelling/string_voice.cpp ****     for (size_t i = 0; i < size; ++i) {
 863              		.loc 1 83 46 view .LVU242
 864 0298 DFED3D5A 		vldr.32	s11, .L67+56
ARM GAS  /var/folders/9k/zk1mgrrd7wg4__6zvxvr9w8m0000gn/T//ccUrAnV6.s 			page 44


  83:mi/plaits/dsp/physical_modelling/string_voice.cpp ****     for (size_t i = 0; i < size; ++i) {
 865              		.loc 1 83 17 view .LVU243
 866 029c 9FED3D6A 		vldr.32	s12, .L67+60
 867              	.LBE209:
 868              	.LBB231:
 869              	.LBB155:
 870              	.LBB147:
 871              	.LBB137:
 226:mi/stmlib/dsp/filter.h ****   }
 872              		.loc 2 226 23 view .LVU244
 873 02a0 77EE877A 		vadd.f32	s15, s15, s14
 225:mi/stmlib/dsp/filter.h ****     h_ = 1.0f / (1.0f + r_ * g_ + g_ * g_);
 874              		.loc 2 225 8 view .LVU245
 875 02a4 84ED017A 		vstr.32	s14, [r4, #4]
 876              	.LBE137:
 877              	.LBE147:
 878              	.LBE155:
 879              	.LBE231:
 880              	.LBB232:
  83:mi/plaits/dsp/physical_modelling/string_voice.cpp ****     for (size_t i = 0; i < size; ++i) {
 881              		.loc 1 83 46 view .LVU246
 882 02a8 61EEA55A 		vmul.f32	s11, s3, s11
 883              	.LBE232:
 884              	.LBB233:
 885              	.LBB156:
  78:mi/plaits/dsp/physical_modelling/string_voice.cpp ****     excitation_filter_.set_f_q<FREQUENCY_DIRTY>(cutoff, q);
 886              		.loc 1 78 57 view .LVU247
 887 02ac C7EE086A 		vdiv.f32	s13, s14, s16
 888              	.LBB148:
 889              	.LBB138:
 226:mi/stmlib/dsp/filter.h ****   }
 890              		.loc 2 226 33 view .LVU248
 891 02b0 77EE857A 		vadd.f32	s15, s15, s10
 892              	.LBE138:
 893              	.LBE148:
 894              	.LBE156:
 895              	.LBE233:
 896              	.LBB234:
  83:mi/plaits/dsp/physical_modelling/string_voice.cpp ****     for (size_t i = 0; i < size; ++i) {
 897              		.loc 1 83 17 view .LVU249
 898 02b4 A5EEA16A 		vfma.f32	s12, s11, s3
 899              	.LBE234:
 900              	.LBB235:
 901              	.LBB157:
 902              	.LBB149:
 903              	.LBB139:
 226:mi/stmlib/dsp/filter.h ****   }
 904              		.loc 2 226 15 view .LVU250
 905 02b8 C7EE275A 		vdiv.f32	s11, s14, s15
 906              	.LBE139:
 907              	.LBE149:
  78:mi/plaits/dsp/physical_modelling/string_voice.cpp ****     excitation_filter_.set_f_q<FREQUENCY_DIRTY>(cutoff, q);
 908              		.loc 1 78 32 view .LVU251
 909 02bc FCEEE66A 		vcvt.u32.f32	s13, s13
 910 02c0 C4ED176A 		vstr.32	s13, [r4, #92]	@ int
  79:mi/plaits/dsp/physical_modelling/string_voice.cpp ****   }
 911              		.loc 1 79 5 is_stmt 1 view .LVU252
ARM GAS  /var/folders/9k/zk1mgrrd7wg4__6zvxvr9w8m0000gn/T//ccUrAnV6.s 			page 45


 912              	.LVL70:
 913              	.LBB150:
 223:mi/stmlib/dsp/filter.h ****     g_ = OnePole::tan<approximation>(f);
 914              		.loc 2 223 15 view .LVU253
 915              	.LBB140:
 916              	.LBB131:
 107:mi/stmlib/dsp/filter.h ****     if (approximation == FREQUENCY_EXACT) {
 917              		.loc 2 107 23 view .LVU254
 107:mi/stmlib/dsp/filter.h ****     if (approximation == FREQUENCY_EXACT) {
 918              		.loc 2 107 23 is_stmt 0 view .LVU255
 919              	.LBE131:
 920              	.LBE140:
 921              	.LBE150:
 922              	.LBE157:
 923              	.LBE235:
  82:mi/plaits/dsp/physical_modelling/string_voice.cpp ****     const float dust_f = 0.00005f + 0.99995f * density * density;
 924              		.loc 1 82 3 is_stmt 1 view .LVU256
 925              	.LBB236:
  83:mi/plaits/dsp/physical_modelling/string_voice.cpp ****     for (size_t i = 0; i < size; ++i) {
 926              		.loc 1 83 5 view .LVU257
  84:mi/plaits/dsp/physical_modelling/string_voice.cpp ****       temp[i] = Dust(dust_f) * (8.0f - dust_f * 6.0f) * accent;
 927              		.loc 1 84 5 view .LVU258
 928              	.LBB210:
  84:mi/plaits/dsp/physical_modelling/string_voice.cpp ****       temp[i] = Dust(dust_f) * (8.0f - dust_f * 6.0f) * accent;
 929              		.loc 1 84 26 view .LVU259
 930              	.LBE210:
 931              	.LBE236:
 932              	.LBB237:
 933              	.LBB158:
 934              	.LBB151:
 935              	.LBB141:
 226:mi/stmlib/dsp/filter.h ****   }
 936              		.loc 2 226 8 is_stmt 0 view .LVU260
 937 02c4 C4ED025A 		vstr.32	s11, [r4, #8]
 938              	.LBE141:
 939              	.LBE151:
 940              	.LBE158:
 941              	.LBE237:
 942              	.LBB238:
 943              	.LBB229:
  84:mi/plaits/dsp/physical_modelling/string_voice.cpp ****       temp[i] = Dust(dust_f) * (8.0f - dust_f * 6.0f) * accent;
 944              		.loc 1 84 26 view .LVU261
 945 02c8 E3B3     		cbz	r3, .L61
 946              	.LBB211:
 947              	.LBB212:
 948              		.file 6 "mi/plaits/dsp/noise/dust.h"
   1:mi/plaits/dsp/noise/dust.h **** // Copyright 2016 Emilie Gillet.
   2:mi/plaits/dsp/noise/dust.h **** //
   3:mi/plaits/dsp/noise/dust.h **** // Author: Emilie Gillet (emilie.o.gillet@gmail.com)
   4:mi/plaits/dsp/noise/dust.h **** //
   5:mi/plaits/dsp/noise/dust.h **** // Permission is hereby granted, free of charge, to any person obtaining a copy
   6:mi/plaits/dsp/noise/dust.h **** // of this software and associated documentation files (the "Software"), to deal
   7:mi/plaits/dsp/noise/dust.h **** // in the Software without restriction, including without limitation the rights
   8:mi/plaits/dsp/noise/dust.h **** // to use, copy, modify, merge, publish, distribute, sublicense, and/or sell
   9:mi/plaits/dsp/noise/dust.h **** // copies of the Software, and to permit persons to whom the Software is
  10:mi/plaits/dsp/noise/dust.h **** // furnished to do so, subject to the following conditions:
  11:mi/plaits/dsp/noise/dust.h **** // 
ARM GAS  /var/folders/9k/zk1mgrrd7wg4__6zvxvr9w8m0000gn/T//ccUrAnV6.s 			page 46


  12:mi/plaits/dsp/noise/dust.h **** // The above copyright notice and this permission notice shall be included in
  13:mi/plaits/dsp/noise/dust.h **** // all copies or substantial portions of the Software.
  14:mi/plaits/dsp/noise/dust.h **** // 
  15:mi/plaits/dsp/noise/dust.h **** // THE SOFTWARE IS PROVIDED "AS IS", WITHOUT WARRANTY OF ANY KIND, EXPRESS OR
  16:mi/plaits/dsp/noise/dust.h **** // IMPLIED, INCLUDING BUT NOT LIMITED TO THE WARRANTIES OF MERCHANTABILITY,
  17:mi/plaits/dsp/noise/dust.h **** // FITNESS FOR A PARTICULAR PURPOSE AND NONINFRINGEMENT. IN NO EVENT SHALL THE
  18:mi/plaits/dsp/noise/dust.h **** // AUTHORS OR COPYRIGHT HOLDERS BE LIABLE FOR ANY CLAIM, DAMAGES OR OTHER
  19:mi/plaits/dsp/noise/dust.h **** // LIABILITY, WHETHER IN AN ACTION OF CONTRACT, TORT OR OTHERWISE, ARISING FROM,
  20:mi/plaits/dsp/noise/dust.h **** // OUT OF OR IN CONNECTION WITH THE SOFTWARE OR THE USE OR OTHER DEALINGS IN
  21:mi/plaits/dsp/noise/dust.h **** // THE SOFTWARE.
  22:mi/plaits/dsp/noise/dust.h **** // 
  23:mi/plaits/dsp/noise/dust.h **** // See http://creativecommons.org/licenses/MIT/ for more information.
  24:mi/plaits/dsp/noise/dust.h **** //
  25:mi/plaits/dsp/noise/dust.h **** // -----------------------------------------------------------------------------
  26:mi/plaits/dsp/noise/dust.h **** //
  27:mi/plaits/dsp/noise/dust.h **** // Randomly clocked samples.
  28:mi/plaits/dsp/noise/dust.h **** 
  29:mi/plaits/dsp/noise/dust.h **** #ifndef PLAITS_DSP_NOISE_DUST_H_
  30:mi/plaits/dsp/noise/dust.h **** #define PLAITS_DSP_NOISE_DUST_H_
  31:mi/plaits/dsp/noise/dust.h **** 
  32:mi/plaits/dsp/noise/dust.h **** #include "stmlib/utils/random.h"
  33:mi/plaits/dsp/noise/dust.h **** 
  34:mi/plaits/dsp/noise/dust.h **** namespace plaits {
  35:mi/plaits/dsp/noise/dust.h **** 
  36:mi/plaits/dsp/noise/dust.h **** inline float Dust(float frequency) {
  37:mi/plaits/dsp/noise/dust.h ****   float inv_frequency = 1.0f / frequency;
 949              		.loc 6 37 9 view .LVU262
 950 02ca 87EE065A 		vdiv.f32	s10, s14, s12
 951 02ce DFF8D480 		ldr	r8, .L67+76
 952 02d2 3146     		mov	r1, r6
 953              	.LVL71:
 954              		.loc 6 37 9 view .LVU263
 955 02d4 06EB830E 		add	lr, r6, r3, lsl #2
 956 02d8 D8F80020 		ldr	r2, [r8]
 957              	.LBE212:
 958              	.LBE211:
  85:mi/plaits/dsp/physical_modelling/string_voice.cpp ****     }
 959              		.loc 1 85 38 view .LVU264
 960 02dc F1EE087A 		vmov.f32	s15, #6.0e+0
 961 02e0 F2EE005A 		vmov.f32	s11, #8.0e+0
 962 02e4 E6EE675A 		vfms.f32	s11, s12, s15
 963              	.LVL72:
 964              	.L15:
  85:mi/plaits/dsp/physical_modelling/string_voice.cpp ****     }
 965              		.loc 1 85 7 is_stmt 1 view .LVU265
 966              	.LBB227:
 967              	.LBI211:
  36:mi/plaits/dsp/noise/dust.h ****   float inv_frequency = 1.0f / frequency;
 968              		.loc 6 36 14 view .LVU266
 969              	.LBB225:
 970              		.loc 6 37 3 view .LVU267
  38:mi/plaits/dsp/noise/dust.h ****   float u = stmlib::Random::GetFloat();
 971              		.loc 6 38 3 view .LVU268
 972              	.LBB213:
 973              	.LBI213:
  53:mi/stmlib/utils/random.h ****     return static_cast<float>(GetWord()) / 4294967296.0f;
 974              		.loc 3 53 23 view .LVU269
ARM GAS  /var/folders/9k/zk1mgrrd7wg4__6zvxvr9w8m0000gn/T//ccUrAnV6.s 			page 47


 975              	.LBB214:
 976              		.loc 3 54 5 view .LVU270
 977              	.LBB215:
 978              	.LBI215:
  44:mi/stmlib/utils/random.h ****     rng_state_ = rng_state_ * 1664525L + 1013904223L;
 979              		.loc 3 44 26 view .LVU271
 980              	.LBB216:
  45:mi/stmlib/utils/random.h ****     return state();
 981              		.loc 3 45 5 view .LVU272
 982              	.LBE216:
 983              	.LBE215:
 984              	.LBE214:
 985              	.LBE213:
  39:mi/plaits/dsp/noise/dust.h ****   if (u < frequency) {
  40:mi/plaits/dsp/noise/dust.h ****     return u * inv_frequency;
 986              		.loc 6 40 5 view .LVU273
 987              	.LBB223:
 988              	.LBB221:
 989              	.LBB219:
 990              	.LBB217:
  45:mi/stmlib/utils/random.h ****     return state();
 991              		.loc 3 45 29 is_stmt 0 view .LVU274
 992 02e8 DFF86CC0 		ldr	ip, .L67
  45:mi/stmlib/utils/random.h ****     return state();
 993              		.loc 3 45 40 view .LVU275
 994 02ec 1B48     		ldr	r0, .L67+4
 995              	.LBE217:
 996              	.LBE219:
 997              		.loc 3 54 44 view .LVU276
 998 02ee DFED1C6A 		vldr.32	s13, .L67+8
 999              	.LBB220:
 1000              	.LBB218:
  45:mi/stmlib/utils/random.h ****     return state();
 1001              		.loc 3 45 40 view .LVU277
 1002 02f2 0CFB0202 		mla	r2, ip, r2, r0
  46:mi/stmlib/utils/random.h ****   }
 1003              		.loc 3 46 5 is_stmt 1 view .LVU278
 1004              	.LBE218:
 1005              	.LBE220:
 1006              	.LBE221:
 1007              	.LBE223:
 1008              	.LBE225:
 1009              	.LBE227:
 1010              	.LBE229:
 1011              	.LBE238:
  38:mi/stmlib/utils/random.h **** 
 1012              		.loc 3 38 36 view .LVU279
 1013              	.LBB239:
 1014              	.LBB230:
 1015              	.LBB228:
 1016              	.LBB226:
  41:mi/plaits/dsp/noise/dust.h ****   } else {
  42:mi/plaits/dsp/noise/dust.h ****     return 0.0f;
 1017              		.loc 6 42 12 is_stmt 0 view .LVU280
 1018 02f6 DFED287A 		vldr.32	s15, .L67+64
 1019              	.LBB224:
 1020              	.LBB222:
ARM GAS  /var/folders/9k/zk1mgrrd7wg4__6zvxvr9w8m0000gn/T//ccUrAnV6.s 			page 48


 1021              		.loc 3 54 12 view .LVU281
 1022 02fa 07EE102A 		vmov	s14, r2	@ int
 1023 02fe B8EE477A 		vcvt.f32.u32	s14, s14
 1024              		.loc 3 54 44 view .LVU282
 1025 0302 27EE267A 		vmul.f32	s14, s14, s13
 1026              	.LVL73:
 1027              		.loc 3 54 44 view .LVU283
 1028              	.LBE222:
 1029              	.LBE224:
  39:mi/plaits/dsp/noise/dust.h ****     return u * inv_frequency;
 1030              		.loc 6 39 3 is_stmt 1 view .LVU284
 1031 0306 B4EEC76A 		vcmpe.f32	s12, s14
 1032 030a F1EE10FA 		vmrs	APSR_nzcv, FPSCR
  40:mi/plaits/dsp/noise/dust.h ****   } else {
 1033              		.loc 6 40 16 is_stmt 0 view .LVU285
 1034 030e C8BF     		it	gt
 1035 0310 65EE077A 		vmulgt.f32	s15, s10, s14
 1036              	.LVL74:
  40:mi/plaits/dsp/noise/dust.h ****   } else {
 1037              		.loc 6 40 16 view .LVU286
 1038              	.LBE226:
 1039              	.LBE228:
  85:mi/plaits/dsp/physical_modelling/string_voice.cpp ****     }
 1040              		.loc 1 85 30 view .LVU287
 1041 0314 65EEA77A 		vmul.f32	s15, s11, s15
  85:mi/plaits/dsp/physical_modelling/string_voice.cpp ****     }
 1042              		.loc 1 85 55 view .LVU288
 1043 0318 67EE807A 		vmul.f32	s15, s15, s0
  85:mi/plaits/dsp/physical_modelling/string_voice.cpp ****     }
 1044              		.loc 1 85 15 view .LVU289
 1045 031c E1EC017A 		vstmia.32	r1!, {s15}
  84:mi/plaits/dsp/physical_modelling/string_voice.cpp ****       temp[i] = Dust(dust_f) * (8.0f - dust_f * 6.0f) * accent;
 1046              		.loc 1 84 5 is_stmt 1 view .LVU290
  84:mi/plaits/dsp/physical_modelling/string_voice.cpp ****       temp[i] = Dust(dust_f) * (8.0f - dust_f * 6.0f) * accent;
 1047              		.loc 1 84 26 view .LVU291
 1048 0320 8E45     		cmp	lr, r1
 1049 0322 E1D1     		bne	.L15
 1050 0324 C8F80020 		str	r2, [r8]
 1051              	.LBE230:
 1052              	.LBE239:
 102:mi/plaits/dsp/physical_modelling/string_voice.cpp ****   for (size_t i = 0; i < size; ++i) {
 1053              		.loc 1 102 3 view .LVU292
 1054              	.LVL75:
 1055              	.LBB240:
 280:mi/stmlib/dsp/filter.h ****     float hp, bp, lp;
 1056              		.loc 2 280 15 view .LVU293
 1057              	.LBB195:
 285:mi/stmlib/dsp/filter.h ****       hp = (*in - r_ * state_1 - g_ * state_1 - state_2) * h_;
 1058              		.loc 2 285 5 is_stmt 0 view .LVU294
 1059 0328 5A1E     		subs	r2, r3, #1
 282:mi/stmlib/dsp/filter.h ****     float state_2 = state_2_;
 1060              		.loc 2 282 11 view .LVU295
 1061 032a 94ED036A 		vldr.32	s12, [r4, #12]
 1062              	.LVL76:
 283:mi/stmlib/dsp/filter.h ****     
 1063              		.loc 2 283 11 view .LVU296
 1064 032e 94ED047A 		vldr.32	s14, [r4, #16]
ARM GAS  /var/folders/9k/zk1mgrrd7wg4__6zvxvr9w8m0000gn/T//ccUrAnV6.s 			page 49


 1065              	.LVL77:
 285:mi/stmlib/dsp/filter.h ****       hp = (*in - r_ * state_1 - g_ * state_1 - state_2) * h_;
 1066              		.loc 2 285 5 is_stmt 1 view .LVU297
 285:mi/stmlib/dsp/filter.h ****       hp = (*in - r_ * state_1 - g_ * state_1 - state_2) * h_;
 1067              		.loc 2 285 5 is_stmt 0 view .LVU298
 1068 0332 D3E6     		b	.L19
 1069              	.LVL78:
 1070              	.L60:
 285:mi/stmlib/dsp/filter.h ****       hp = (*in - r_ * state_1 - g_ * state_1 - state_2) * h_;
 1071              		.loc 2 285 5 view .LVU299
 1072              	.LBE195:
 1073              	.LBE240:
 109:mi/plaits/dsp/physical_modelling/string_voice.cpp ****   string_.Process(f0, non_linearity, brightness, damping, temp, out, size);
 1074              		.loc 1 109 28 view .LVU300
 1075 0334 DFED180A 		vldr.32	s1, .L67+64
 1076 0338 10E7     		b	.L28
 1077              	.LVL79:
 1078              	.L35:
 1079              	.LBB241:
 1080              	.LBB159:
 1081              	.LBB152:
 1082              	.LBB123:
 109:mi/plaits/dsp/physical_modelling/string_voice.cpp ****   string_.Process(f0, non_linearity, brightness, damping, temp, out, size);
 1083              		.loc 1 109 28 view .LVU301
 1084 033a 9FED185A 		vldr.32	s10, .L67+68
 1085 033e DFED187A 		vldr.32	s15, .L67+72
 1086 0342 5CE7     		b	.L10
 1087              	.LVL80:
 1088              	.L61:
 109:mi/plaits/dsp/physical_modelling/string_voice.cpp ****   string_.Process(f0, non_linearity, brightness, damping, temp, out, size);
 1089              		.loc 1 109 28 view .LVU302
 1090              	.LBE123:
 1091              	.LBE152:
 1092              	.LBE159:
 1093              	.LBE241:
 102:mi/plaits/dsp/physical_modelling/string_voice.cpp ****   for (size_t i = 0; i < size; ++i) {
 1094              		.loc 1 102 3 is_stmt 1 view .LVU303
 1095              	.LBB242:
 280:mi/stmlib/dsp/filter.h ****     float hp, bp, lp;
 1096              		.loc 2 280 15 view .LVU304
 1097              	.LBB196:
 282:mi/stmlib/dsp/filter.h ****     float state_2 = state_2_;
 1098              		.loc 2 282 11 is_stmt 0 view .LVU305
 1099 0344 94ED036A 		vldr.32	s12, [r4, #12]
 1100              	.LVL81:
 283:mi/stmlib/dsp/filter.h ****     
 1101              		.loc 2 283 11 view .LVU306
 1102 0348 94ED047A 		vldr.32	s14, [r4, #16]
 1103              	.LVL82:
 285:mi/stmlib/dsp/filter.h ****       hp = (*in - r_ * state_1 - g_ * state_1 - state_2) * h_;
 1104              		.loc 2 285 5 is_stmt 1 view .LVU307
 285:mi/stmlib/dsp/filter.h ****       hp = (*in - r_ * state_1 - g_ * state_1 - state_2) * h_;
 1105              		.loc 2 285 5 is_stmt 0 view .LVU308
 1106 034c 84E7     		b	.L20
 1107              	.LVL83:
 1108              	.L64:
 285:mi/stmlib/dsp/filter.h ****       hp = (*in - r_ * state_1 - g_ * state_1 - state_2) * h_;
ARM GAS  /var/folders/9k/zk1mgrrd7wg4__6zvxvr9w8m0000gn/T//ccUrAnV6.s 			page 50


 1109              		.loc 2 285 5 view .LVU309
 1110              	.LBE196:
 1111              	.LBE242:
 1112              	.LBB243:
 1113              	.LBB184:
  95:mi/plaits/dsp/physical_modelling/string_voice.cpp ****       *start++ = 0.0f;
 1114              		.loc 1 95 5 is_stmt 1 view .LVU310
  95:mi/plaits/dsp/physical_modelling/string_voice.cpp ****       *start++ = 0.0f;
 1115              		.loc 1 95 16 view .LVU311
  95:mi/plaits/dsp/physical_modelling/string_voice.cpp ****       *start++ = 0.0f;
 1116              		.loc 1 95 16 is_stmt 0 view .LVU312
 1117 034e BAF1000F 		cmp	r10, #0
 1118 0352 F7D0     		beq	.L61
  91:mi/plaits/dsp/physical_modelling/string_voice.cpp ****     while (noise_samples--) {
 1119              		.loc 1 91 12 view .LVU313
 1120 0354 3046     		mov	r0, r6
 1121 0356 B2E6     		b	.L31
 1122              	.L68:
 1123              		.align	2
 1124              	.L67:
 1125 0358 0D661900 		.word	1664525
 1126 035c 5FF36E3C 		.word	1013904223
 1127 0360 0000802F 		.word	796917760
 1128 0364 8FC2753E 		.word	1047904911
 1129 0368 DF4F8540 		.word	1082478559
 1130 036c 00009042 		.word	1116733440
 1131 0370 00000043 		.word	1124073472
 1132 0374 00000000 		.word	_ZN6stmlib20lut_pitch_ratio_highE
 1133 0378 00000000 		.word	_ZN6stmlib19lut_pitch_ratio_lowE
 1134 037c EE7CFF3E 		.word	1056931054
 1135 0380 D7573941 		.word	1094277079
 1136 0384 DB0F4940 		.word	1078530011
 1137 0388 B81E853E 		.word	1048911544
 1138 038c 09F9AC3F 		.word	1068300553
 1139 0390 B9FC7F3F 		.word	1065352377
 1140 0394 17B75138 		.word	944879383
 1141 0398 00000000 		.word	0
 1142 039c ADAB1041 		.word	1091611565
 1143 03a0 51724040 		.word	1077965393
 1144 03a4 00000000 		.word	_ZN6stmlib6Random10rng_state_E
 1145              	.LBE184:
 1146              	.LBE243:
 1147              		.cfi_endproc
 1148              	.LFE1539:
 1150              		.text
 1151              	.Letext0:
 1152              		.file 7 "/Library/DaisyToolchain/0.2.0/arm/arm-none-eabi/include/machine/_default_types.h"
 1153              		.file 8 "/Library/DaisyToolchain/0.2.0/arm/arm-none-eabi/include/sys/_stdint.h"
 1154              		.file 9 "/Library/DaisyToolchain/0.2.0/arm/lib/gcc/arm-none-eabi/10.3.1/include/stddef.h"
 1155              		.file 10 "/Library/DaisyToolchain/0.2.0/arm/arm-none-eabi/include/c++/10.3.1/cmath"
 1156              		.file 11 "/Library/DaisyToolchain/0.2.0/arm/arm-none-eabi/include/c++/10.3.1/bits/std_abs.h"
 1157              		.file 12 "/Library/DaisyToolchain/0.2.0/arm/arm-none-eabi/include/c++/10.3.1/type_traits"
 1158              		.file 13 "/Library/DaisyToolchain/0.2.0/arm/arm-none-eabi/include/c++/10.3.1/debug/debug.h"
 1159              		.file 14 "/Library/DaisyToolchain/0.2.0/arm/arm-none-eabi/include/c++/10.3.1/cstdlib"
 1160              		.file 15 "/Library/DaisyToolchain/0.2.0/arm/arm-none-eabi/include/c++/10.3.1/arm-none-eabi/thumb/v
 1161              		.file 16 "/Library/DaisyToolchain/0.2.0/arm/arm-none-eabi/include/c++/10.3.1/bits/algorithmfwd.h"
 1162              		.file 17 "/Library/DaisyToolchain/0.2.0/arm/arm-none-eabi/include/c++/10.3.1/bits/stl_pair.h"
ARM GAS  /var/folders/9k/zk1mgrrd7wg4__6zvxvr9w8m0000gn/T//ccUrAnV6.s 			page 51


 1163              		.file 18 "/Library/DaisyToolchain/0.2.0/arm/arm-none-eabi/include/c++/10.3.1/bits/exception_ptr.h"
 1164              		.file 19 "/Library/DaisyToolchain/0.2.0/arm/arm-none-eabi/include/c++/10.3.1/bits/predefined_ops.h
 1165              		.file 20 "/Library/DaisyToolchain/0.2.0/arm/arm-none-eabi/include/math.h"
 1166              		.file 21 "/Library/DaisyToolchain/0.2.0/arm/arm-none-eabi/include/stdlib.h"
 1167              		.file 22 "/Library/DaisyToolchain/0.2.0/arm/arm-none-eabi/include/c++/10.3.1/math.h"
 1168              		.file 23 "mi/stmlib/stmlib.h"
 1169              		.file 24 "mi/stmlib/utils/buffer_allocator.h"
 1170              		.file 25 "mi/plaits/dsp/physical_modelling/delay_line.h"
 1171              		.file 26 "mi/plaits/dsp/physical_modelling/string.h"
 1172              		.file 27 "mi/plaits/dsp/physical_modelling/string_voice.h"
 1173              		.file 28 "<built-in>"
ARM GAS  /var/folders/9k/zk1mgrrd7wg4__6zvxvr9w8m0000gn/T//ccUrAnV6.s 			page 52

