ARM GAS  /var/folders/9k/zk1mgrrd7wg4__6zvxvr9w8m0000gn/T//ccaaKoMx.s 			page 1


   1              		.cpu cortex-m7
   2              		.arch armv7e-m
   3              		.fpu fpv5-d16
   4              		.eabi_attribute 28, 1
   5              		.eabi_attribute 20, 1
   6              		.eabi_attribute 21, 1
   7              		.eabi_attribute 23, 3
   8              		.eabi_attribute 24, 1
   9              		.eabi_attribute 25, 1
  10              		.eabi_attribute 26, 1
  11              		.eabi_attribute 30, 2
  12              		.eabi_attribute 34, 1
  13              		.eabi_attribute 18, 4
  14              		.file	"virtual_analog_engine.cpp"
  15              		.text
  16              	.Ltext0:
  17              		.cfi_sections	.debug_frame
  18              		.section	.text._ZN6plaits19VirtualAnalogEngine12LoadUserDataEPKh,"axG",%progbits,_ZN6plaits19Virtu
  19              		.align	1
  20              		.p2align 2,,3
  21              		.weak	_ZN6plaits19VirtualAnalogEngine12LoadUserDataEPKh
  22              		.syntax unified
  23              		.thumb
  24              		.thumb_func
  26              	_ZN6plaits19VirtualAnalogEngine12LoadUserDataEPKh:
  27              	.LVL0:
  28              	.LFB1498:
  29              		.file 1 "mi/plaits/dsp/engine/virtual_analog_engine.h"
   1:mi/plaits/dsp/engine/virtual_analog_engine.h **** // Copyright 2016 Emilie Gillet.
   2:mi/plaits/dsp/engine/virtual_analog_engine.h **** //
   3:mi/plaits/dsp/engine/virtual_analog_engine.h **** // Author: Emilie Gillet (emilie.o.gillet@gmail.com)
   4:mi/plaits/dsp/engine/virtual_analog_engine.h **** //
   5:mi/plaits/dsp/engine/virtual_analog_engine.h **** // Permission is hereby granted, free of charge, to any person obtaining a copy
   6:mi/plaits/dsp/engine/virtual_analog_engine.h **** // of this software and associated documentation files (the "Software"), to deal
   7:mi/plaits/dsp/engine/virtual_analog_engine.h **** // in the Software without restriction, including without limitation the rights
   8:mi/plaits/dsp/engine/virtual_analog_engine.h **** // to use, copy, modify, merge, publish, distribute, sublicense, and/or sell
   9:mi/plaits/dsp/engine/virtual_analog_engine.h **** // copies of the Software, and to permit persons to whom the Software is
  10:mi/plaits/dsp/engine/virtual_analog_engine.h **** // furnished to do so, subject to the following conditions:
  11:mi/plaits/dsp/engine/virtual_analog_engine.h **** // 
  12:mi/plaits/dsp/engine/virtual_analog_engine.h **** // The above copyright notice and this permission notice shall be included in
  13:mi/plaits/dsp/engine/virtual_analog_engine.h **** // all copies or substantial portions of the Software.
  14:mi/plaits/dsp/engine/virtual_analog_engine.h **** // 
  15:mi/plaits/dsp/engine/virtual_analog_engine.h **** // THE SOFTWARE IS PROVIDED "AS IS", WITHOUT WARRANTY OF ANY KIND, EXPRESS OR
  16:mi/plaits/dsp/engine/virtual_analog_engine.h **** // IMPLIED, INCLUDING BUT NOT LIMITED TO THE WARRANTIES OF MERCHANTABILITY,
  17:mi/plaits/dsp/engine/virtual_analog_engine.h **** // FITNESS FOR A PARTICULAR PURPOSE AND NONINFRINGEMENT. IN NO EVENT SHALL THE
  18:mi/plaits/dsp/engine/virtual_analog_engine.h **** // AUTHORS OR COPYRIGHT HOLDERS BE LIABLE FOR ANY CLAIM, DAMAGES OR OTHER
  19:mi/plaits/dsp/engine/virtual_analog_engine.h **** // LIABILITY, WHETHER IN AN ACTION OF CONTRACT, TORT OR OTHERWISE, ARISING FROM,
  20:mi/plaits/dsp/engine/virtual_analog_engine.h **** // OUT OF OR IN CONNECTION WITH THE SOFTWARE OR THE USE OR OTHER DEALINGS IN
  21:mi/plaits/dsp/engine/virtual_analog_engine.h **** // THE SOFTWARE.
  22:mi/plaits/dsp/engine/virtual_analog_engine.h **** // 
  23:mi/plaits/dsp/engine/virtual_analog_engine.h **** // See http://creativecommons.org/licenses/MIT/ for more information.
  24:mi/plaits/dsp/engine/virtual_analog_engine.h **** //
  25:mi/plaits/dsp/engine/virtual_analog_engine.h **** // -----------------------------------------------------------------------------
  26:mi/plaits/dsp/engine/virtual_analog_engine.h **** //
  27:mi/plaits/dsp/engine/virtual_analog_engine.h **** // 2 variable shape oscillators with sync and crossfading.
  28:mi/plaits/dsp/engine/virtual_analog_engine.h **** 
  29:mi/plaits/dsp/engine/virtual_analog_engine.h **** #ifndef PLAITS_DSP_ENGINE_VIRTUAL_ANALOG_ENGINE_H_
ARM GAS  /var/folders/9k/zk1mgrrd7wg4__6zvxvr9w8m0000gn/T//ccaaKoMx.s 			page 2


  30:mi/plaits/dsp/engine/virtual_analog_engine.h **** #define PLAITS_DSP_ENGINE_VIRTUAL_ANALOG_ENGINE_H_
  31:mi/plaits/dsp/engine/virtual_analog_engine.h **** 
  32:mi/plaits/dsp/engine/virtual_analog_engine.h **** #include "plaits/dsp/engine/engine.h"
  33:mi/plaits/dsp/engine/virtual_analog_engine.h **** #include "plaits/dsp/oscillator/variable_saw_oscillator.h"
  34:mi/plaits/dsp/engine/virtual_analog_engine.h **** #include "plaits/dsp/oscillator/variable_shape_oscillator.h"
  35:mi/plaits/dsp/engine/virtual_analog_engine.h **** 
  36:mi/plaits/dsp/engine/virtual_analog_engine.h **** #define VA_VARIANT 2
  37:mi/plaits/dsp/engine/virtual_analog_engine.h **** 
  38:mi/plaits/dsp/engine/virtual_analog_engine.h **** namespace plaits {
  39:mi/plaits/dsp/engine/virtual_analog_engine.h ****   
  40:mi/plaits/dsp/engine/virtual_analog_engine.h **** class VirtualAnalogEngine : public Engine {
  41:mi/plaits/dsp/engine/virtual_analog_engine.h ****  public:
  42:mi/plaits/dsp/engine/virtual_analog_engine.h ****   VirtualAnalogEngine() { }
  43:mi/plaits/dsp/engine/virtual_analog_engine.h ****   ~VirtualAnalogEngine() { }
  44:mi/plaits/dsp/engine/virtual_analog_engine.h ****   
  45:mi/plaits/dsp/engine/virtual_analog_engine.h ****   virtual void Init(stmlib::BufferAllocator* allocator);
  46:mi/plaits/dsp/engine/virtual_analog_engine.h ****   virtual void Reset();
  47:mi/plaits/dsp/engine/virtual_analog_engine.h ****   virtual void LoadUserData(const uint8_t* user_data) { }
  30              		.loc 1 47 16 view -0
  31              		.cfi_startproc
  32              		@ args = 0, pretend = 0, frame = 0
  33              		@ frame_needed = 0, uses_anonymous_args = 0
  34              		@ link register save eliminated.
  35              		.loc 1 47 57 is_stmt 0 view .LVU1
  36 0000 7047     		bx	lr
  37              		.cfi_endproc
  38              	.LFE1498:
  40 0002 00BF     		.section	.text._ZN6plaits19VirtualAnalogEngine4InitEPN6stmlib15BufferAllocatorE,"ax",%progbits
  41              		.align	1
  42              		.p2align 2,,3
  43              		.global	_ZN6plaits19VirtualAnalogEngine4InitEPN6stmlib15BufferAllocatorE
  44              		.syntax unified
  45              		.thumb
  46              		.thumb_func
  48              	_ZN6plaits19VirtualAnalogEngine4InitEPN6stmlib15BufferAllocatorE:
  49              	.LVL1:
  50              	.LFB1499:
  51              		.file 2 "mi/plaits/dsp/engine/virtual_analog_engine.cpp"
   1:mi/plaits/dsp/engine/virtual_analog_engine.cpp **** // Copyright 2016 Emilie Gillet.
   2:mi/plaits/dsp/engine/virtual_analog_engine.cpp **** //
   3:mi/plaits/dsp/engine/virtual_analog_engine.cpp **** // Author: Emilie Gillet (emilie.o.gillet@gmail.com)
   4:mi/plaits/dsp/engine/virtual_analog_engine.cpp **** //
   5:mi/plaits/dsp/engine/virtual_analog_engine.cpp **** // Permission is hereby granted, free of charge, to any person obtaining a copy
   6:mi/plaits/dsp/engine/virtual_analog_engine.cpp **** // of this software and associated documentation files (the "Software"), to deal
   7:mi/plaits/dsp/engine/virtual_analog_engine.cpp **** // in the Software without restriction, including without limitation the rights
   8:mi/plaits/dsp/engine/virtual_analog_engine.cpp **** // to use, copy, modify, merge, publish, distribute, sublicense, and/or sell
   9:mi/plaits/dsp/engine/virtual_analog_engine.cpp **** // copies of the Software, and to permit persons to whom the Software is
  10:mi/plaits/dsp/engine/virtual_analog_engine.cpp **** // furnished to do so, subject to the following conditions:
  11:mi/plaits/dsp/engine/virtual_analog_engine.cpp **** // 
  12:mi/plaits/dsp/engine/virtual_analog_engine.cpp **** // The above copyright notice and this permission notice shall be included in
  13:mi/plaits/dsp/engine/virtual_analog_engine.cpp **** // all copies or substantial portions of the Software.
  14:mi/plaits/dsp/engine/virtual_analog_engine.cpp **** // 
  15:mi/plaits/dsp/engine/virtual_analog_engine.cpp **** // THE SOFTWARE IS PROVIDED "AS IS", WITHOUT WARRANTY OF ANY KIND, EXPRESS OR
  16:mi/plaits/dsp/engine/virtual_analog_engine.cpp **** // IMPLIED, INCLUDING BUT NOT LIMITED TO THE WARRANTIES OF MERCHANTABILITY,
  17:mi/plaits/dsp/engine/virtual_analog_engine.cpp **** // FITNESS FOR A PARTICULAR PURPOSE AND NONINFRINGEMENT. IN NO EVENT SHALL THE
  18:mi/plaits/dsp/engine/virtual_analog_engine.cpp **** // AUTHORS OR COPYRIGHT HOLDERS BE LIABLE FOR ANY CLAIM, DAMAGES OR OTHER
  19:mi/plaits/dsp/engine/virtual_analog_engine.cpp **** // LIABILITY, WHETHER IN AN ACTION OF CONTRACT, TORT OR OTHERWISE, ARISING FROM,
ARM GAS  /var/folders/9k/zk1mgrrd7wg4__6zvxvr9w8m0000gn/T//ccaaKoMx.s 			page 3


  20:mi/plaits/dsp/engine/virtual_analog_engine.cpp **** // OUT OF OR IN CONNECTION WITH THE SOFTWARE OR THE USE OR OTHER DEALINGS IN
  21:mi/plaits/dsp/engine/virtual_analog_engine.cpp **** // THE SOFTWARE.
  22:mi/plaits/dsp/engine/virtual_analog_engine.cpp **** // 
  23:mi/plaits/dsp/engine/virtual_analog_engine.cpp **** // See http://creativecommons.org/licenses/MIT/ for more information.
  24:mi/plaits/dsp/engine/virtual_analog_engine.cpp **** //
  25:mi/plaits/dsp/engine/virtual_analog_engine.cpp **** // -----------------------------------------------------------------------------
  26:mi/plaits/dsp/engine/virtual_analog_engine.cpp **** //
  27:mi/plaits/dsp/engine/virtual_analog_engine.cpp **** // 2 variable shape oscillators with sync, FM and crossfading.
  28:mi/plaits/dsp/engine/virtual_analog_engine.cpp **** 
  29:mi/plaits/dsp/engine/virtual_analog_engine.cpp **** #include "plaits/dsp/engine/virtual_analog_engine.h"
  30:mi/plaits/dsp/engine/virtual_analog_engine.cpp **** 
  31:mi/plaits/dsp/engine/virtual_analog_engine.cpp **** #include <algorithm>
  32:mi/plaits/dsp/engine/virtual_analog_engine.cpp **** 
  33:mi/plaits/dsp/engine/virtual_analog_engine.cpp **** #include "stmlib/dsp/parameter_interpolator.h"
  34:mi/plaits/dsp/engine/virtual_analog_engine.cpp **** 
  35:mi/plaits/dsp/engine/virtual_analog_engine.cpp **** namespace plaits {
  36:mi/plaits/dsp/engine/virtual_analog_engine.cpp **** 
  37:mi/plaits/dsp/engine/virtual_analog_engine.cpp **** using namespace std;
  38:mi/plaits/dsp/engine/virtual_analog_engine.cpp **** using namespace stmlib;
  39:mi/plaits/dsp/engine/virtual_analog_engine.cpp **** 
  40:mi/plaits/dsp/engine/virtual_analog_engine.cpp **** void VirtualAnalogEngine::Init(BufferAllocator* allocator) {
  52              		.loc 2 40 60 is_stmt 1 view -0
  53              		.cfi_startproc
  54              		@ args = 0, pretend = 0, frame = 0
  55              		@ frame_needed = 0, uses_anonymous_args = 0
  41:mi/plaits/dsp/engine/virtual_analog_engine.cpp ****   primary_.Init();
  56              		.loc 2 41 3 view .LVU3
  40:mi/plaits/dsp/engine/virtual_analog_engine.cpp ****   primary_.Init();
  57              		.loc 2 40 60 is_stmt 0 view .LVU4
  58 0000 10B5     		push	{r4, lr}
  59              		.cfi_def_cfa_offset 8
  60              		.cfi_offset 4, -8
  61              		.cfi_offset 14, -4
  62              	.LBB193:
  63              	.LBB194:
  64              		.file 3 "mi/plaits/dsp/oscillator/variable_shape_oscillator.h"
   1:mi/plaits/dsp/oscillator/variable_shape_oscillator.h **** // Copyright 2016 Emilie Gillet.
   2:mi/plaits/dsp/oscillator/variable_shape_oscillator.h **** //
   3:mi/plaits/dsp/oscillator/variable_shape_oscillator.h **** // Author: Emilie Gillet (emilie.o.gillet@gmail.com)
   4:mi/plaits/dsp/oscillator/variable_shape_oscillator.h **** //
   5:mi/plaits/dsp/oscillator/variable_shape_oscillator.h **** // Permission is hereby granted, free of charge, to any person obtaining a copy
   6:mi/plaits/dsp/oscillator/variable_shape_oscillator.h **** // of this software and associated documentation files (the "Software"), to deal
   7:mi/plaits/dsp/oscillator/variable_shape_oscillator.h **** // in the Software without restriction, including without limitation the rights
   8:mi/plaits/dsp/oscillator/variable_shape_oscillator.h **** // to use, copy, modify, merge, publish, distribute, sublicense, and/or sell
   9:mi/plaits/dsp/oscillator/variable_shape_oscillator.h **** // copies of the Software, and to permit persons to whom the Software is
  10:mi/plaits/dsp/oscillator/variable_shape_oscillator.h **** // furnished to do so, subject to the following conditions:
  11:mi/plaits/dsp/oscillator/variable_shape_oscillator.h **** // 
  12:mi/plaits/dsp/oscillator/variable_shape_oscillator.h **** // The above copyright notice and this permission notice shall be included in
  13:mi/plaits/dsp/oscillator/variable_shape_oscillator.h **** // all copies or substantial portions of the Software.
  14:mi/plaits/dsp/oscillator/variable_shape_oscillator.h **** // 
  15:mi/plaits/dsp/oscillator/variable_shape_oscillator.h **** // THE SOFTWARE IS PROVIDED "AS IS", WITHOUT WARRANTY OF ANY KIND, EXPRESS OR
  16:mi/plaits/dsp/oscillator/variable_shape_oscillator.h **** // IMPLIED, INCLUDING BUT NOT LIMITED TO THE WARRANTIES OF MERCHANTABILITY,
  17:mi/plaits/dsp/oscillator/variable_shape_oscillator.h **** // FITNESS FOR A PARTICULAR PURPOSE AND NONINFRINGEMENT. IN NO EVENT SHALL THE
  18:mi/plaits/dsp/oscillator/variable_shape_oscillator.h **** // AUTHORS OR COPYRIGHT HOLDERS BE LIABLE FOR ANY CLAIM, DAMAGES OR OTHER
  19:mi/plaits/dsp/oscillator/variable_shape_oscillator.h **** // LIABILITY, WHETHER IN AN ACTION OF CONTRACT, TORT OR OTHERWISE, ARISING FROM,
  20:mi/plaits/dsp/oscillator/variable_shape_oscillator.h **** // OUT OF OR IN CONNECTION WITH THE SOFTWARE OR THE USE OR OTHER DEALINGS IN
  21:mi/plaits/dsp/oscillator/variable_shape_oscillator.h **** // THE SOFTWARE.
ARM GAS  /var/folders/9k/zk1mgrrd7wg4__6zvxvr9w8m0000gn/T//ccaaKoMx.s 			page 4


  22:mi/plaits/dsp/oscillator/variable_shape_oscillator.h **** // 
  23:mi/plaits/dsp/oscillator/variable_shape_oscillator.h **** // See http://creativecommons.org/licenses/MIT/ for more information.
  24:mi/plaits/dsp/oscillator/variable_shape_oscillator.h **** //
  25:mi/plaits/dsp/oscillator/variable_shape_oscillator.h **** // -----------------------------------------------------------------------------
  26:mi/plaits/dsp/oscillator/variable_shape_oscillator.h **** //
  27:mi/plaits/dsp/oscillator/variable_shape_oscillator.h **** // Continuously variable waveform: triangle > saw > square. Both square and
  28:mi/plaits/dsp/oscillator/variable_shape_oscillator.h **** // triangle have variable slope / pulse-width. Additionally, the phase resets
  29:mi/plaits/dsp/oscillator/variable_shape_oscillator.h **** // can be locked to a master frequency.
  30:mi/plaits/dsp/oscillator/variable_shape_oscillator.h **** //
  31:mi/plaits/dsp/oscillator/variable_shape_oscillator.h **** // A template parameter allows the generation of a master + slave signal,
  32:mi/plaits/dsp/oscillator/variable_shape_oscillator.h **** // which can be used as the phase for phase distortion or modulation synthesis.
  33:mi/plaits/dsp/oscillator/variable_shape_oscillator.h **** 
  34:mi/plaits/dsp/oscillator/variable_shape_oscillator.h **** #ifndef PLAITS_DSP_OSCILLATOR_VARIABLE_SHAPE_OSCILLATOR_H_
  35:mi/plaits/dsp/oscillator/variable_shape_oscillator.h **** #define PLAITS_DSP_OSCILLATOR_VARIABLE_SHAPE_OSCILLATOR_H_
  36:mi/plaits/dsp/oscillator/variable_shape_oscillator.h **** 
  37:mi/plaits/dsp/oscillator/variable_shape_oscillator.h **** #include "stmlib/dsp/dsp.h"
  38:mi/plaits/dsp/oscillator/variable_shape_oscillator.h **** #include "stmlib/dsp/parameter_interpolator.h"
  39:mi/plaits/dsp/oscillator/variable_shape_oscillator.h **** #include "stmlib/dsp/polyblep.h"
  40:mi/plaits/dsp/oscillator/variable_shape_oscillator.h **** 
  41:mi/plaits/dsp/oscillator/variable_shape_oscillator.h **** #include "plaits/dsp/oscillator/oscillator.h"
  42:mi/plaits/dsp/oscillator/variable_shape_oscillator.h **** 
  43:mi/plaits/dsp/oscillator/variable_shape_oscillator.h **** #include <algorithm>
  44:mi/plaits/dsp/oscillator/variable_shape_oscillator.h **** 
  45:mi/plaits/dsp/oscillator/variable_shape_oscillator.h **** namespace plaits {
  46:mi/plaits/dsp/oscillator/variable_shape_oscillator.h **** 
  47:mi/plaits/dsp/oscillator/variable_shape_oscillator.h **** class VariableShapeOscillator {
  48:mi/plaits/dsp/oscillator/variable_shape_oscillator.h ****  public:
  49:mi/plaits/dsp/oscillator/variable_shape_oscillator.h ****   VariableShapeOscillator() { }
  50:mi/plaits/dsp/oscillator/variable_shape_oscillator.h ****   ~VariableShapeOscillator() { }
  51:mi/plaits/dsp/oscillator/variable_shape_oscillator.h **** 
  52:mi/plaits/dsp/oscillator/variable_shape_oscillator.h ****   void Init() {
  53:mi/plaits/dsp/oscillator/variable_shape_oscillator.h ****     master_phase_ = 0.0f;
  54:mi/plaits/dsp/oscillator/variable_shape_oscillator.h ****     slave_phase_ = 0.0f;
  55:mi/plaits/dsp/oscillator/variable_shape_oscillator.h ****     next_sample_ = 0.0f;
  56:mi/plaits/dsp/oscillator/variable_shape_oscillator.h ****     previous_pw_ = 0.5f;
  57:mi/plaits/dsp/oscillator/variable_shape_oscillator.h ****     high_ = false;
  58:mi/plaits/dsp/oscillator/variable_shape_oscillator.h ****   
  59:mi/plaits/dsp/oscillator/variable_shape_oscillator.h ****     master_frequency_ = 0.0f;
  60:mi/plaits/dsp/oscillator/variable_shape_oscillator.h ****     slave_frequency_ = 0.01f;
  61:mi/plaits/dsp/oscillator/variable_shape_oscillator.h ****     pw_ = 0.5f;
  62:mi/plaits/dsp/oscillator/variable_shape_oscillator.h ****     waveshape_ = 0.0f;
  63:mi/plaits/dsp/oscillator/variable_shape_oscillator.h ****     phase_modulation_ = 0.0f;
  64:mi/plaits/dsp/oscillator/variable_shape_oscillator.h ****   }
  65:mi/plaits/dsp/oscillator/variable_shape_oscillator.h **** 
  66:mi/plaits/dsp/oscillator/variable_shape_oscillator.h ****   void Render(
  67:mi/plaits/dsp/oscillator/variable_shape_oscillator.h ****       float frequency,
  68:mi/plaits/dsp/oscillator/variable_shape_oscillator.h ****       float pw,
  69:mi/plaits/dsp/oscillator/variable_shape_oscillator.h ****       float waveshape,
  70:mi/plaits/dsp/oscillator/variable_shape_oscillator.h ****       float* out,
  71:mi/plaits/dsp/oscillator/variable_shape_oscillator.h ****       size_t size) {
  72:mi/plaits/dsp/oscillator/variable_shape_oscillator.h ****     Render<false, false>(0.0f, frequency, pw, waveshape, 0.0f, out, size);
  73:mi/plaits/dsp/oscillator/variable_shape_oscillator.h ****   }
  74:mi/plaits/dsp/oscillator/variable_shape_oscillator.h ****   
  75:mi/plaits/dsp/oscillator/variable_shape_oscillator.h ****   void Render(
  76:mi/plaits/dsp/oscillator/variable_shape_oscillator.h ****       float master_frequency,
  77:mi/plaits/dsp/oscillator/variable_shape_oscillator.h ****       float frequency,
  78:mi/plaits/dsp/oscillator/variable_shape_oscillator.h ****       float pw,
ARM GAS  /var/folders/9k/zk1mgrrd7wg4__6zvxvr9w8m0000gn/T//ccaaKoMx.s 			page 5


  79:mi/plaits/dsp/oscillator/variable_shape_oscillator.h ****       float waveshape,
  80:mi/plaits/dsp/oscillator/variable_shape_oscillator.h ****       float* out,
  81:mi/plaits/dsp/oscillator/variable_shape_oscillator.h ****       size_t size) {
  82:mi/plaits/dsp/oscillator/variable_shape_oscillator.h ****     Render<true, false>(
  83:mi/plaits/dsp/oscillator/variable_shape_oscillator.h ****         master_frequency,
  84:mi/plaits/dsp/oscillator/variable_shape_oscillator.h ****         frequency,
  85:mi/plaits/dsp/oscillator/variable_shape_oscillator.h ****         pw,
  86:mi/plaits/dsp/oscillator/variable_shape_oscillator.h ****         waveshape,
  87:mi/plaits/dsp/oscillator/variable_shape_oscillator.h ****         0.0f,
  88:mi/plaits/dsp/oscillator/variable_shape_oscillator.h ****         out, size);
  89:mi/plaits/dsp/oscillator/variable_shape_oscillator.h ****   }
  90:mi/plaits/dsp/oscillator/variable_shape_oscillator.h ****   
  91:mi/plaits/dsp/oscillator/variable_shape_oscillator.h ****   template<bool enable_sync, bool output_phase>
  92:mi/plaits/dsp/oscillator/variable_shape_oscillator.h ****   void Render(
  93:mi/plaits/dsp/oscillator/variable_shape_oscillator.h ****       float master_frequency,
  94:mi/plaits/dsp/oscillator/variable_shape_oscillator.h ****       float frequency,
  95:mi/plaits/dsp/oscillator/variable_shape_oscillator.h ****       float pw,
  96:mi/plaits/dsp/oscillator/variable_shape_oscillator.h ****       float waveshape,
  97:mi/plaits/dsp/oscillator/variable_shape_oscillator.h ****       float phase_modulation_amount,
  98:mi/plaits/dsp/oscillator/variable_shape_oscillator.h ****       float* out,
  99:mi/plaits/dsp/oscillator/variable_shape_oscillator.h ****       size_t size) {
 100:mi/plaits/dsp/oscillator/variable_shape_oscillator.h ****     if (master_frequency >= kMaxFrequency) {
 101:mi/plaits/dsp/oscillator/variable_shape_oscillator.h ****       master_frequency = kMaxFrequency;
 102:mi/plaits/dsp/oscillator/variable_shape_oscillator.h ****     }
 103:mi/plaits/dsp/oscillator/variable_shape_oscillator.h ****     if (frequency >= kMaxFrequency) {
 104:mi/plaits/dsp/oscillator/variable_shape_oscillator.h ****       frequency = kMaxFrequency;
 105:mi/plaits/dsp/oscillator/variable_shape_oscillator.h ****     }
 106:mi/plaits/dsp/oscillator/variable_shape_oscillator.h ****     
 107:mi/plaits/dsp/oscillator/variable_shape_oscillator.h ****     if (frequency >= 0.25f) {
 108:mi/plaits/dsp/oscillator/variable_shape_oscillator.h ****       pw = 0.5f;
 109:mi/plaits/dsp/oscillator/variable_shape_oscillator.h ****     } else {
 110:mi/plaits/dsp/oscillator/variable_shape_oscillator.h ****       CONSTRAIN(pw, frequency * 2.0f, 1.0f - 2.0f * frequency);
 111:mi/plaits/dsp/oscillator/variable_shape_oscillator.h ****     }
 112:mi/plaits/dsp/oscillator/variable_shape_oscillator.h ****     
 113:mi/plaits/dsp/oscillator/variable_shape_oscillator.h ****     stmlib::ParameterInterpolator master_fm(
 114:mi/plaits/dsp/oscillator/variable_shape_oscillator.h ****         &master_frequency_, master_frequency, size);
 115:mi/plaits/dsp/oscillator/variable_shape_oscillator.h ****     stmlib::ParameterInterpolator fm(&slave_frequency_, frequency, size);
 116:mi/plaits/dsp/oscillator/variable_shape_oscillator.h ****     stmlib::ParameterInterpolator pwm(&pw_, pw, size);
 117:mi/plaits/dsp/oscillator/variable_shape_oscillator.h ****     stmlib::ParameterInterpolator waveshape_modulation(
 118:mi/plaits/dsp/oscillator/variable_shape_oscillator.h ****         &waveshape_, waveshape, size);
 119:mi/plaits/dsp/oscillator/variable_shape_oscillator.h ****     stmlib::ParameterInterpolator phase_modulation(
 120:mi/plaits/dsp/oscillator/variable_shape_oscillator.h ****         &phase_modulation_, phase_modulation_amount, size);
 121:mi/plaits/dsp/oscillator/variable_shape_oscillator.h **** 
 122:mi/plaits/dsp/oscillator/variable_shape_oscillator.h ****     float next_sample = next_sample_;
 123:mi/plaits/dsp/oscillator/variable_shape_oscillator.h ****     
 124:mi/plaits/dsp/oscillator/variable_shape_oscillator.h ****     while (size--) {
 125:mi/plaits/dsp/oscillator/variable_shape_oscillator.h ****       bool reset = false;
 126:mi/plaits/dsp/oscillator/variable_shape_oscillator.h ****       bool transition_during_reset = false;
 127:mi/plaits/dsp/oscillator/variable_shape_oscillator.h ****       float reset_time = 0.0f;
 128:mi/plaits/dsp/oscillator/variable_shape_oscillator.h **** 
 129:mi/plaits/dsp/oscillator/variable_shape_oscillator.h ****       float this_sample = next_sample;
 130:mi/plaits/dsp/oscillator/variable_shape_oscillator.h ****       next_sample = 0.0f;
 131:mi/plaits/dsp/oscillator/variable_shape_oscillator.h ****     
 132:mi/plaits/dsp/oscillator/variable_shape_oscillator.h ****       const float master_frequency = master_fm.Next();
 133:mi/plaits/dsp/oscillator/variable_shape_oscillator.h ****       const float slave_frequency = fm.Next();
 134:mi/plaits/dsp/oscillator/variable_shape_oscillator.h ****       const float pw = pwm.Next();
 135:mi/plaits/dsp/oscillator/variable_shape_oscillator.h ****       const float waveshape = waveshape_modulation.Next();
ARM GAS  /var/folders/9k/zk1mgrrd7wg4__6zvxvr9w8m0000gn/T//ccaaKoMx.s 			page 6


 136:mi/plaits/dsp/oscillator/variable_shape_oscillator.h ****       
 137:mi/plaits/dsp/oscillator/variable_shape_oscillator.h ****       const float square_amount = std::max(waveshape - 0.5f, 0.0f) * 2.0f;
 138:mi/plaits/dsp/oscillator/variable_shape_oscillator.h ****       const float triangle_amount = std::max(1.0f - waveshape * 2.0f, 0.0f);
 139:mi/plaits/dsp/oscillator/variable_shape_oscillator.h ****       
 140:mi/plaits/dsp/oscillator/variable_shape_oscillator.h ****       const float slope_up = 1.0f / (pw);
 141:mi/plaits/dsp/oscillator/variable_shape_oscillator.h ****       const float slope_down = 1.0f / (1.0f - pw);
 142:mi/plaits/dsp/oscillator/variable_shape_oscillator.h **** 
 143:mi/plaits/dsp/oscillator/variable_shape_oscillator.h ****       if (enable_sync) {
 144:mi/plaits/dsp/oscillator/variable_shape_oscillator.h ****         master_phase_ += master_frequency;
 145:mi/plaits/dsp/oscillator/variable_shape_oscillator.h ****         if (master_phase_ >= 1.0f) {
 146:mi/plaits/dsp/oscillator/variable_shape_oscillator.h ****           master_phase_ -= 1.0f;
 147:mi/plaits/dsp/oscillator/variable_shape_oscillator.h ****           reset_time = master_phase_ / master_frequency;
 148:mi/plaits/dsp/oscillator/variable_shape_oscillator.h ****       
 149:mi/plaits/dsp/oscillator/variable_shape_oscillator.h ****           float slave_phase_at_reset = slave_phase_ + \
 150:mi/plaits/dsp/oscillator/variable_shape_oscillator.h ****               (1.0f - reset_time) * slave_frequency;
 151:mi/plaits/dsp/oscillator/variable_shape_oscillator.h ****           reset = true;
 152:mi/plaits/dsp/oscillator/variable_shape_oscillator.h ****           if (slave_phase_at_reset >= 1.0f) {
 153:mi/plaits/dsp/oscillator/variable_shape_oscillator.h ****             slave_phase_at_reset -= 1.0f;
 154:mi/plaits/dsp/oscillator/variable_shape_oscillator.h ****             transition_during_reset = true;
 155:mi/plaits/dsp/oscillator/variable_shape_oscillator.h ****           }
 156:mi/plaits/dsp/oscillator/variable_shape_oscillator.h ****           if (!high_ && slave_phase_at_reset >= pw) {
 157:mi/plaits/dsp/oscillator/variable_shape_oscillator.h ****             transition_during_reset = true;
 158:mi/plaits/dsp/oscillator/variable_shape_oscillator.h ****           }
 159:mi/plaits/dsp/oscillator/variable_shape_oscillator.h ****           float value = ComputeNaiveSample(
 160:mi/plaits/dsp/oscillator/variable_shape_oscillator.h ****               slave_phase_at_reset,
 161:mi/plaits/dsp/oscillator/variable_shape_oscillator.h ****               pw,
 162:mi/plaits/dsp/oscillator/variable_shape_oscillator.h ****               slope_up,
 163:mi/plaits/dsp/oscillator/variable_shape_oscillator.h ****               slope_down,
 164:mi/plaits/dsp/oscillator/variable_shape_oscillator.h ****               triangle_amount,
 165:mi/plaits/dsp/oscillator/variable_shape_oscillator.h ****               square_amount);
 166:mi/plaits/dsp/oscillator/variable_shape_oscillator.h ****           this_sample -= value * stmlib::ThisBlepSample(reset_time);
 167:mi/plaits/dsp/oscillator/variable_shape_oscillator.h ****           next_sample -= value * stmlib::NextBlepSample(reset_time);
 168:mi/plaits/dsp/oscillator/variable_shape_oscillator.h ****         }
 169:mi/plaits/dsp/oscillator/variable_shape_oscillator.h ****       } else if (output_phase) {
 170:mi/plaits/dsp/oscillator/variable_shape_oscillator.h ****         master_phase_ += master_frequency;
 171:mi/plaits/dsp/oscillator/variable_shape_oscillator.h ****         if (master_phase_ >= 1.0f) {
 172:mi/plaits/dsp/oscillator/variable_shape_oscillator.h ****           master_phase_ -= 1.0f;
 173:mi/plaits/dsp/oscillator/variable_shape_oscillator.h ****         }
 174:mi/plaits/dsp/oscillator/variable_shape_oscillator.h ****       }
 175:mi/plaits/dsp/oscillator/variable_shape_oscillator.h ****       
 176:mi/plaits/dsp/oscillator/variable_shape_oscillator.h ****       slave_phase_ += slave_frequency;
 177:mi/plaits/dsp/oscillator/variable_shape_oscillator.h ****       while (transition_during_reset || !reset) {
 178:mi/plaits/dsp/oscillator/variable_shape_oscillator.h ****         if (!high_) {
 179:mi/plaits/dsp/oscillator/variable_shape_oscillator.h ****           if (slave_phase_ < pw) {
 180:mi/plaits/dsp/oscillator/variable_shape_oscillator.h ****             break;
 181:mi/plaits/dsp/oscillator/variable_shape_oscillator.h ****           }
 182:mi/plaits/dsp/oscillator/variable_shape_oscillator.h ****           float t = (slave_phase_ - pw) / (previous_pw_ - pw + slave_frequency);
 183:mi/plaits/dsp/oscillator/variable_shape_oscillator.h ****           float triangle_step = (slope_up + slope_down) * slave_frequency;
 184:mi/plaits/dsp/oscillator/variable_shape_oscillator.h ****           triangle_step *= triangle_amount;
 185:mi/plaits/dsp/oscillator/variable_shape_oscillator.h ****           
 186:mi/plaits/dsp/oscillator/variable_shape_oscillator.h ****           this_sample += square_amount * stmlib::ThisBlepSample(t);
 187:mi/plaits/dsp/oscillator/variable_shape_oscillator.h ****           next_sample += square_amount * stmlib::NextBlepSample(t);
 188:mi/plaits/dsp/oscillator/variable_shape_oscillator.h ****           this_sample -= triangle_step * stmlib::ThisIntegratedBlepSample(t);
 189:mi/plaits/dsp/oscillator/variable_shape_oscillator.h ****           next_sample -= triangle_step * stmlib::NextIntegratedBlepSample(t);
 190:mi/plaits/dsp/oscillator/variable_shape_oscillator.h ****           high_ = true;
 191:mi/plaits/dsp/oscillator/variable_shape_oscillator.h ****         }
 192:mi/plaits/dsp/oscillator/variable_shape_oscillator.h ****       
ARM GAS  /var/folders/9k/zk1mgrrd7wg4__6zvxvr9w8m0000gn/T//ccaaKoMx.s 			page 7


 193:mi/plaits/dsp/oscillator/variable_shape_oscillator.h ****         if (high_) {
 194:mi/plaits/dsp/oscillator/variable_shape_oscillator.h ****           if (slave_phase_ < 1.0f) {
 195:mi/plaits/dsp/oscillator/variable_shape_oscillator.h ****             break;
 196:mi/plaits/dsp/oscillator/variable_shape_oscillator.h ****           }
 197:mi/plaits/dsp/oscillator/variable_shape_oscillator.h ****           slave_phase_ -= 1.0f;
 198:mi/plaits/dsp/oscillator/variable_shape_oscillator.h ****           float t = slave_phase_ / slave_frequency;
 199:mi/plaits/dsp/oscillator/variable_shape_oscillator.h ****           float triangle_step = (slope_up + slope_down) * slave_frequency;
 200:mi/plaits/dsp/oscillator/variable_shape_oscillator.h ****           triangle_step *= triangle_amount;
 201:mi/plaits/dsp/oscillator/variable_shape_oscillator.h **** 
 202:mi/plaits/dsp/oscillator/variable_shape_oscillator.h ****           this_sample -= (1.0f - triangle_amount) * stmlib::ThisBlepSample(t);
 203:mi/plaits/dsp/oscillator/variable_shape_oscillator.h ****           next_sample -= (1.0f - triangle_amount) * stmlib::NextBlepSample(t);
 204:mi/plaits/dsp/oscillator/variable_shape_oscillator.h ****           this_sample += triangle_step * stmlib::ThisIntegratedBlepSample(t);
 205:mi/plaits/dsp/oscillator/variable_shape_oscillator.h ****           next_sample += triangle_step * stmlib::NextIntegratedBlepSample(t);
 206:mi/plaits/dsp/oscillator/variable_shape_oscillator.h ****           high_ = false;
 207:mi/plaits/dsp/oscillator/variable_shape_oscillator.h ****         }
 208:mi/plaits/dsp/oscillator/variable_shape_oscillator.h ****       }
 209:mi/plaits/dsp/oscillator/variable_shape_oscillator.h ****     
 210:mi/plaits/dsp/oscillator/variable_shape_oscillator.h ****       if (enable_sync && reset) {
 211:mi/plaits/dsp/oscillator/variable_shape_oscillator.h ****         slave_phase_ = reset_time * slave_frequency;
 212:mi/plaits/dsp/oscillator/variable_shape_oscillator.h ****         high_ = false;
 213:mi/plaits/dsp/oscillator/variable_shape_oscillator.h ****       }
 214:mi/plaits/dsp/oscillator/variable_shape_oscillator.h ****     
 215:mi/plaits/dsp/oscillator/variable_shape_oscillator.h ****       next_sample += ComputeNaiveSample(
 216:mi/plaits/dsp/oscillator/variable_shape_oscillator.h ****           slave_phase_,
 217:mi/plaits/dsp/oscillator/variable_shape_oscillator.h ****           pw,
 218:mi/plaits/dsp/oscillator/variable_shape_oscillator.h ****           slope_up,
 219:mi/plaits/dsp/oscillator/variable_shape_oscillator.h ****           slope_down,
 220:mi/plaits/dsp/oscillator/variable_shape_oscillator.h ****           triangle_amount,
 221:mi/plaits/dsp/oscillator/variable_shape_oscillator.h ****           square_amount);
 222:mi/plaits/dsp/oscillator/variable_shape_oscillator.h ****       previous_pw_ = pw;
 223:mi/plaits/dsp/oscillator/variable_shape_oscillator.h ****       
 224:mi/plaits/dsp/oscillator/variable_shape_oscillator.h ****       if (output_phase) {
 225:mi/plaits/dsp/oscillator/variable_shape_oscillator.h ****         float phasor = master_phase_;
 226:mi/plaits/dsp/oscillator/variable_shape_oscillator.h ****         if (enable_sync) {
 227:mi/plaits/dsp/oscillator/variable_shape_oscillator.h ****           // A trick to prevent discontinuities when the phase wraps around.
 228:mi/plaits/dsp/oscillator/variable_shape_oscillator.h ****           const float w = 4.0f * (1.0f - master_phase_) * master_phase_;
 229:mi/plaits/dsp/oscillator/variable_shape_oscillator.h ****           this_sample *= w * (2.0f - w);
 230:mi/plaits/dsp/oscillator/variable_shape_oscillator.h ****           
 231:mi/plaits/dsp/oscillator/variable_shape_oscillator.h ****           // Apply some asymmetry on the main phasor too.
 232:mi/plaits/dsp/oscillator/variable_shape_oscillator.h ****           const float p2 = phasor * phasor;
 233:mi/plaits/dsp/oscillator/variable_shape_oscillator.h ****           phasor += (p2 * p2 - phasor) * fabsf(pw - 0.5f) * 2.0f;
 234:mi/plaits/dsp/oscillator/variable_shape_oscillator.h ****         }
 235:mi/plaits/dsp/oscillator/variable_shape_oscillator.h ****         *out++ = phasor + phase_modulation.Next() * this_sample;
 236:mi/plaits/dsp/oscillator/variable_shape_oscillator.h ****       } else {
 237:mi/plaits/dsp/oscillator/variable_shape_oscillator.h ****         *out++ = (2.0f * this_sample - 1.0f);
 238:mi/plaits/dsp/oscillator/variable_shape_oscillator.h ****       }
 239:mi/plaits/dsp/oscillator/variable_shape_oscillator.h ****     }
 240:mi/plaits/dsp/oscillator/variable_shape_oscillator.h ****     
 241:mi/plaits/dsp/oscillator/variable_shape_oscillator.h ****     next_sample_ = next_sample;
 242:mi/plaits/dsp/oscillator/variable_shape_oscillator.h ****   }
 243:mi/plaits/dsp/oscillator/variable_shape_oscillator.h ****   
 244:mi/plaits/dsp/oscillator/variable_shape_oscillator.h ****   inline void set_master_phase(float master_phase) {
 245:mi/plaits/dsp/oscillator/variable_shape_oscillator.h ****     master_phase_ = master_phase;
  65              		.loc 3 245 19 view .LVU5
  66 0002 4FF07A5E 		mov	lr, #1048576000
  67              	.LBE194:
  68              	.LBE193:
ARM GAS  /var/folders/9k/zk1mgrrd7wg4__6zvxvr9w8m0000gn/T//ccaaKoMx.s 			page 8


  69              	.LBB197:
  70              	.LBB198:
  53:mi/plaits/dsp/oscillator/variable_shape_oscillator.h ****     slave_phase_ = 0.0f;
  71              		.loc 3 53 19 view .LVU6
  72 0006 0023     		movs	r3, #0
  73              	.LVL2:
  53:mi/plaits/dsp/oscillator/variable_shape_oscillator.h ****     slave_phase_ = 0.0f;
  74              		.loc 3 53 19 view .LVU7
  75              	.LBE198:
  76              	.LBI197:
  52:mi/plaits/dsp/oscillator/variable_shape_oscillator.h ****     master_phase_ = 0.0f;
  77              		.loc 3 52 8 is_stmt 1 view .LVU8
  78              	.LBB199:
  53:mi/plaits/dsp/oscillator/variable_shape_oscillator.h ****     slave_phase_ = 0.0f;
  79              		.loc 3 53 5 view .LVU9
  56:mi/plaits/dsp/oscillator/variable_shape_oscillator.h ****     high_ = false;
  80              		.loc 3 56 18 is_stmt 0 view .LVU10
  81 0008 4FF07C52 		mov	r2, #1056964608
  57:mi/plaits/dsp/oscillator/variable_shape_oscillator.h ****   
  82              		.loc 3 57 11 view .LVU11
  83 000c 4FF0000C 		mov	ip, #0
  84              	.LBE199:
  85              	.LBE197:
  86              	.LBB203:
  87              	.LBB195:
  88              		.loc 3 245 19 view .LVU12
  89 0010 C0F838E0 		str	lr, [r0, #56]	@ float
  90              	.LBE195:
  91              	.LBE203:
  92              	.LBB204:
  93              	.LBB200:
  60:mi/plaits/dsp/oscillator/variable_shape_oscillator.h ****     pw_ = 0.5f;
  94              		.loc 3 60 22 view .LVU13
  95 0014 DFF890E0 		ldr	lr, .L7
  56:mi/plaits/dsp/oscillator/variable_shape_oscillator.h ****     high_ = false;
  96              		.loc 3 56 18 view .LVU14
  97 0018 C261     		str	r2, [r0, #28]	@ float
  61:mi/plaits/dsp/oscillator/variable_shape_oscillator.h ****     waveshape_ = 0.0f;
  98              		.loc 3 61 9 view .LVU15
  99 001a C262     		str	r2, [r0, #44]	@ float
 100              	.LBE200:
 101              	.LBE204:
 102              	.LBB205:
 103              	.LBB206:
  56:mi/plaits/dsp/oscillator/variable_shape_oscillator.h ****     high_ = false;
 104              		.loc 3 56 18 view .LVU16
 105 001c 4264     		str	r2, [r0, #68]	@ float
  61:mi/plaits/dsp/oscillator/variable_shape_oscillator.h ****     waveshape_ = 0.0f;
 106              		.loc 3 61 9 view .LVU17
 107 001e 4265     		str	r2, [r0, #84]	@ float
 108              	.LBE206:
 109              	.LBE205:
 110              	.LBB209:
 111              	.LBB210:
  56:mi/plaits/dsp/oscillator/variable_shape_oscillator.h ****     high_ = false;
 112              		.loc 3 56 18 view .LVU18
 113 0020 C266     		str	r2, [r0, #108]	@ float
ARM GAS  /var/folders/9k/zk1mgrrd7wg4__6zvxvr9w8m0000gn/T//ccaaKoMx.s 			page 9


  61:mi/plaits/dsp/oscillator/variable_shape_oscillator.h ****     waveshape_ = 0.0f;
 114              		.loc 3 61 9 view .LVU19
 115 0022 C267     		str	r2, [r0, #124]	@ float
 116              	.LBE210:
 117              	.LBE209:
 118              	.LBB213:
 119              	.LBB201:
  53:mi/plaits/dsp/oscillator/variable_shape_oscillator.h ****     slave_phase_ = 0.0f;
 120              		.loc 3 53 19 view .LVU20
 121 0024 0361     		str	r3, [r0, #16]	@ float
  54:mi/plaits/dsp/oscillator/variable_shape_oscillator.h ****     next_sample_ = 0.0f;
 122              		.loc 3 54 5 is_stmt 1 view .LVU21
  54:mi/plaits/dsp/oscillator/variable_shape_oscillator.h ****     next_sample_ = 0.0f;
 123              		.loc 3 54 18 is_stmt 0 view .LVU22
 124 0026 4361     		str	r3, [r0, #20]	@ float
  55:mi/plaits/dsp/oscillator/variable_shape_oscillator.h ****     previous_pw_ = 0.5f;
 125              		.loc 3 55 5 is_stmt 1 view .LVU23
  55:mi/plaits/dsp/oscillator/variable_shape_oscillator.h ****     previous_pw_ = 0.5f;
 126              		.loc 3 55 18 is_stmt 0 view .LVU24
 127 0028 8361     		str	r3, [r0, #24]	@ float
  56:mi/plaits/dsp/oscillator/variable_shape_oscillator.h ****     high_ = false;
 128              		.loc 3 56 5 is_stmt 1 view .LVU25
  57:mi/plaits/dsp/oscillator/variable_shape_oscillator.h ****   
 129              		.loc 3 57 5 view .LVU26
  57:mi/plaits/dsp/oscillator/variable_shape_oscillator.h ****   
 130              		.loc 3 57 11 is_stmt 0 view .LVU27
 131 002a 80F820C0 		strb	ip, [r0, #32]
  59:mi/plaits/dsp/oscillator/variable_shape_oscillator.h ****     slave_frequency_ = 0.01f;
 132              		.loc 3 59 5 is_stmt 1 view .LVU28
  59:mi/plaits/dsp/oscillator/variable_shape_oscillator.h ****     slave_frequency_ = 0.01f;
 133              		.loc 3 59 23 is_stmt 0 view .LVU29
 134 002e 4362     		str	r3, [r0, #36]	@ float
  60:mi/plaits/dsp/oscillator/variable_shape_oscillator.h ****     pw_ = 0.5f;
 135              		.loc 3 60 5 is_stmt 1 view .LVU30
  62:mi/plaits/dsp/oscillator/variable_shape_oscillator.h ****     phase_modulation_ = 0.0f;
 136              		.loc 3 62 16 is_stmt 0 view .LVU31
 137 0030 0363     		str	r3, [r0, #48]	@ float
  63:mi/plaits/dsp/oscillator/variable_shape_oscillator.h ****   }
 138              		.loc 3 63 23 view .LVU32
 139 0032 4363     		str	r3, [r0, #52]	@ float
 140              	.LBE201:
 141              	.LBE213:
 142              	.LBB214:
 143              	.LBB207:
  54:mi/plaits/dsp/oscillator/variable_shape_oscillator.h ****     next_sample_ = 0.0f;
 144              		.loc 3 54 18 view .LVU33
 145 0034 C363     		str	r3, [r0, #60]	@ float
  55:mi/plaits/dsp/oscillator/variable_shape_oscillator.h ****     previous_pw_ = 0.5f;
 146              		.loc 3 55 18 view .LVU34
 147 0036 0364     		str	r3, [r0, #64]	@ float
  57:mi/plaits/dsp/oscillator/variable_shape_oscillator.h ****   
 148              		.loc 3 57 11 view .LVU35
 149 0038 80F848C0 		strb	ip, [r0, #72]
  59:mi/plaits/dsp/oscillator/variable_shape_oscillator.h ****     slave_frequency_ = 0.01f;
 150              		.loc 3 59 23 view .LVU36
 151 003c C364     		str	r3, [r0, #76]	@ float
  62:mi/plaits/dsp/oscillator/variable_shape_oscillator.h ****     phase_modulation_ = 0.0f;
ARM GAS  /var/folders/9k/zk1mgrrd7wg4__6zvxvr9w8m0000gn/T//ccaaKoMx.s 			page 10


 152              		.loc 3 62 16 view .LVU37
 153 003e 8365     		str	r3, [r0, #88]	@ float
  63:mi/plaits/dsp/oscillator/variable_shape_oscillator.h ****   }
 154              		.loc 3 63 23 view .LVU38
 155 0040 C365     		str	r3, [r0, #92]	@ float
 156              	.LBE207:
 157              	.LBE214:
 158              	.LBB215:
 159              	.LBB211:
  53:mi/plaits/dsp/oscillator/variable_shape_oscillator.h ****     slave_phase_ = 0.0f;
 160              		.loc 3 53 19 view .LVU39
 161 0042 0366     		str	r3, [r0, #96]	@ float
  54:mi/plaits/dsp/oscillator/variable_shape_oscillator.h ****     next_sample_ = 0.0f;
 162              		.loc 3 54 18 view .LVU40
 163 0044 4366     		str	r3, [r0, #100]	@ float
  55:mi/plaits/dsp/oscillator/variable_shape_oscillator.h ****     previous_pw_ = 0.5f;
 164              		.loc 3 55 18 view .LVU41
 165 0046 8366     		str	r3, [r0, #104]	@ float
  57:mi/plaits/dsp/oscillator/variable_shape_oscillator.h ****   
 166              		.loc 3 57 11 view .LVU42
 167 0048 80F870C0 		strb	ip, [r0, #112]
  59:mi/plaits/dsp/oscillator/variable_shape_oscillator.h ****     slave_frequency_ = 0.01f;
 168              		.loc 3 59 23 view .LVU43
 169 004c 4367     		str	r3, [r0, #116]	@ float
  62:mi/plaits/dsp/oscillator/variable_shape_oscillator.h ****     phase_modulation_ = 0.0f;
 170              		.loc 3 62 16 view .LVU44
 171 004e C0F88030 		str	r3, [r0, #128]	@ float
  63:mi/plaits/dsp/oscillator/variable_shape_oscillator.h ****   }
 172              		.loc 3 63 23 view .LVU45
 173 0052 C0F88430 		str	r3, [r0, #132]	@ float
 174              	.LBE211:
 175              	.LBE215:
 176              	.LBB216:
 177              	.LBB217:
 178              		.file 4 "mi/plaits/dsp/oscillator/variable_saw_oscillator.h"
   1:mi/plaits/dsp/oscillator/variable_saw_oscillator.h **** // Copyright 2016 Emilie Gillet.
   2:mi/plaits/dsp/oscillator/variable_saw_oscillator.h **** //
   3:mi/plaits/dsp/oscillator/variable_saw_oscillator.h **** // Author: Emilie Gillet (emilie.o.gillet@gmail.com)
   4:mi/plaits/dsp/oscillator/variable_saw_oscillator.h **** //
   5:mi/plaits/dsp/oscillator/variable_saw_oscillator.h **** // Permission is hereby granted, free of charge, to any person obtaining a copy
   6:mi/plaits/dsp/oscillator/variable_saw_oscillator.h **** // of this software and associated documentation files (the "Software"), to deal
   7:mi/plaits/dsp/oscillator/variable_saw_oscillator.h **** // in the Software without restriction, including without limitation the rights
   8:mi/plaits/dsp/oscillator/variable_saw_oscillator.h **** // to use, copy, modify, merge, publish, distribute, sublicense, and/or sell
   9:mi/plaits/dsp/oscillator/variable_saw_oscillator.h **** // copies of the Software, and to permit persons to whom the Software is
  10:mi/plaits/dsp/oscillator/variable_saw_oscillator.h **** // furnished to do so, subject to the following conditions:
  11:mi/plaits/dsp/oscillator/variable_saw_oscillator.h **** // 
  12:mi/plaits/dsp/oscillator/variable_saw_oscillator.h **** // The above copyright notice and this permission notice shall be included in
  13:mi/plaits/dsp/oscillator/variable_saw_oscillator.h **** // all copies or substantial portions of the Software.
  14:mi/plaits/dsp/oscillator/variable_saw_oscillator.h **** // 
  15:mi/plaits/dsp/oscillator/variable_saw_oscillator.h **** // THE SOFTWARE IS PROVIDED "AS IS", WITHOUT WARRANTY OF ANY KIND, EXPRESS OR
  16:mi/plaits/dsp/oscillator/variable_saw_oscillator.h **** // IMPLIED, INCLUDING BUT NOT LIMITED TO THE WARRANTIES OF MERCHANTABILITY,
  17:mi/plaits/dsp/oscillator/variable_saw_oscillator.h **** // FITNESS FOR A PARTICULAR PURPOSE AND NONINFRINGEMENT. IN NO EVENT SHALL THE
  18:mi/plaits/dsp/oscillator/variable_saw_oscillator.h **** // AUTHORS OR COPYRIGHT HOLDERS BE LIABLE FOR ANY CLAIM, DAMAGES OR OTHER
  19:mi/plaits/dsp/oscillator/variable_saw_oscillator.h **** // LIABILITY, WHETHER IN AN ACTION OF CONTRACT, TORT OR OTHERWISE, ARISING FROM,
  20:mi/plaits/dsp/oscillator/variable_saw_oscillator.h **** // OUT OF OR IN CONNECTION WITH THE SOFTWARE OR THE USE OR OTHER DEALINGS IN
  21:mi/plaits/dsp/oscillator/variable_saw_oscillator.h **** // THE SOFTWARE.
  22:mi/plaits/dsp/oscillator/variable_saw_oscillator.h **** // 
ARM GAS  /var/folders/9k/zk1mgrrd7wg4__6zvxvr9w8m0000gn/T//ccaaKoMx.s 			page 11


  23:mi/plaits/dsp/oscillator/variable_saw_oscillator.h **** // See http://creativecommons.org/licenses/MIT/ for more information.
  24:mi/plaits/dsp/oscillator/variable_saw_oscillator.h **** //
  25:mi/plaits/dsp/oscillator/variable_saw_oscillator.h **** // -----------------------------------------------------------------------------
  26:mi/plaits/dsp/oscillator/variable_saw_oscillator.h **** //
  27:mi/plaits/dsp/oscillator/variable_saw_oscillator.h **** // Saw with variable slope or notch
  28:mi/plaits/dsp/oscillator/variable_saw_oscillator.h **** 
  29:mi/plaits/dsp/oscillator/variable_saw_oscillator.h **** #ifndef PLAITS_DSP_OSCILLATOR_VARIABLE_SAW_OSCILLATOR_H_
  30:mi/plaits/dsp/oscillator/variable_saw_oscillator.h **** #define PLAITS_DSP_OSCILLATOR_VARIABLE_SAW_OSCILLATOR_H_
  31:mi/plaits/dsp/oscillator/variable_saw_oscillator.h **** 
  32:mi/plaits/dsp/oscillator/variable_saw_oscillator.h **** #include "stmlib/dsp/dsp.h"
  33:mi/plaits/dsp/oscillator/variable_saw_oscillator.h **** #include "stmlib/dsp/parameter_interpolator.h"
  34:mi/plaits/dsp/oscillator/variable_saw_oscillator.h **** #include "stmlib/dsp/polyblep.h"
  35:mi/plaits/dsp/oscillator/variable_saw_oscillator.h **** 
  36:mi/plaits/dsp/oscillator/variable_saw_oscillator.h **** #include <algorithm>
  37:mi/plaits/dsp/oscillator/variable_saw_oscillator.h **** 
  38:mi/plaits/dsp/oscillator/variable_saw_oscillator.h **** #include "plaits/dsp/oscillator/oscillator.h"
  39:mi/plaits/dsp/oscillator/variable_saw_oscillator.h **** 
  40:mi/plaits/dsp/oscillator/variable_saw_oscillator.h **** namespace plaits {
  41:mi/plaits/dsp/oscillator/variable_saw_oscillator.h **** 
  42:mi/plaits/dsp/oscillator/variable_saw_oscillator.h **** const float kVariableSawNotchDepth = 0.2f;
  43:mi/plaits/dsp/oscillator/variable_saw_oscillator.h **** 
  44:mi/plaits/dsp/oscillator/variable_saw_oscillator.h **** class VariableSawOscillator {
  45:mi/plaits/dsp/oscillator/variable_saw_oscillator.h ****  public:
  46:mi/plaits/dsp/oscillator/variable_saw_oscillator.h ****   VariableSawOscillator() { }
  47:mi/plaits/dsp/oscillator/variable_saw_oscillator.h ****   ~VariableSawOscillator() { }
  48:mi/plaits/dsp/oscillator/variable_saw_oscillator.h **** 
  49:mi/plaits/dsp/oscillator/variable_saw_oscillator.h ****   void Init() {
  50:mi/plaits/dsp/oscillator/variable_saw_oscillator.h ****     phase_ = 0.0f;
 179              		.loc 4 50 12 view .LVU46
 180 0056 C0F88830 		str	r3, [r0, #136]	@ float
  51:mi/plaits/dsp/oscillator/variable_saw_oscillator.h ****     next_sample_ = 0.0f;
 181              		.loc 4 51 18 view .LVU47
 182 005a C0F88C30 		str	r3, [r0, #140]	@ float
 183              	.LBE217:
 184              	.LBE216:
 185              	.LBB221:
 186              	.LBB202:
  60:mi/plaits/dsp/oscillator/variable_shape_oscillator.h ****     pw_ = 0.5f;
 187              		.loc 3 60 22 view .LVU48
 188 005e C0F828E0 		str	lr, [r0, #40]	@ float
  61:mi/plaits/dsp/oscillator/variable_shape_oscillator.h ****     waveshape_ = 0.0f;
 189              		.loc 3 61 5 is_stmt 1 view .LVU49
  62:mi/plaits/dsp/oscillator/variable_shape_oscillator.h ****     phase_modulation_ = 0.0f;
 190              		.loc 3 62 5 view .LVU50
  63:mi/plaits/dsp/oscillator/variable_shape_oscillator.h ****   }
 191              		.loc 3 63 5 view .LVU51
 192              	.LVL3:
  63:mi/plaits/dsp/oscillator/variable_shape_oscillator.h ****   }
 193              		.loc 3 63 5 is_stmt 0 view .LVU52
 194              	.LBE202:
 195              	.LBE221:
  42:mi/plaits/dsp/engine/virtual_analog_engine.cpp ****   auxiliary_.Init();
 196              		.loc 2 42 3 is_stmt 1 view .LVU53
 197              	.LBB222:
 198              	.LBI205:
  52:mi/plaits/dsp/oscillator/variable_shape_oscillator.h ****     master_phase_ = 0.0f;
 199              		.loc 3 52 8 view .LVU54
ARM GAS  /var/folders/9k/zk1mgrrd7wg4__6zvxvr9w8m0000gn/T//ccaaKoMx.s 			page 12


 200              	.LBB208:
  53:mi/plaits/dsp/oscillator/variable_shape_oscillator.h ****     slave_phase_ = 0.0f;
 201              		.loc 3 53 5 view .LVU55
  54:mi/plaits/dsp/oscillator/variable_shape_oscillator.h ****     next_sample_ = 0.0f;
 202              		.loc 3 54 5 view .LVU56
  55:mi/plaits/dsp/oscillator/variable_shape_oscillator.h ****     previous_pw_ = 0.5f;
 203              		.loc 3 55 5 view .LVU57
  56:mi/plaits/dsp/oscillator/variable_shape_oscillator.h ****     high_ = false;
 204              		.loc 3 56 5 view .LVU58
  57:mi/plaits/dsp/oscillator/variable_shape_oscillator.h ****   
 205              		.loc 3 57 5 view .LVU59
  59:mi/plaits/dsp/oscillator/variable_shape_oscillator.h ****     slave_frequency_ = 0.01f;
 206              		.loc 3 59 5 view .LVU60
  60:mi/plaits/dsp/oscillator/variable_shape_oscillator.h ****     pw_ = 0.5f;
 207              		.loc 3 60 5 view .LVU61
  60:mi/plaits/dsp/oscillator/variable_shape_oscillator.h ****     pw_ = 0.5f;
 208              		.loc 3 60 22 is_stmt 0 view .LVU62
 209 0062 C0F850E0 		str	lr, [r0, #80]	@ float
  61:mi/plaits/dsp/oscillator/variable_shape_oscillator.h ****     waveshape_ = 0.0f;
 210              		.loc 3 61 5 is_stmt 1 view .LVU63
  62:mi/plaits/dsp/oscillator/variable_shape_oscillator.h ****     phase_modulation_ = 0.0f;
 211              		.loc 3 62 5 view .LVU64
  63:mi/plaits/dsp/oscillator/variable_shape_oscillator.h ****   }
 212              		.loc 3 63 5 view .LVU65
 213              	.LVL4:
  63:mi/plaits/dsp/oscillator/variable_shape_oscillator.h ****   }
 214              		.loc 3 63 5 is_stmt 0 view .LVU66
 215              	.LBE208:
 216              	.LBE222:
  43:mi/plaits/dsp/engine/virtual_analog_engine.cpp ****   auxiliary_.set_master_phase(0.25f);
 217              		.loc 2 43 3 is_stmt 1 view .LVU67
 218              	.LBB223:
 219              	.LBI193:
 244:mi/plaits/dsp/oscillator/variable_shape_oscillator.h ****     master_phase_ = master_phase;
 220              		.loc 3 244 15 view .LVU68
 221              	.LBB196:
 222              		.loc 3 245 5 view .LVU69
 223              		.loc 3 245 5 is_stmt 0 view .LVU70
 224              	.LBE196:
 225              	.LBE223:
  44:mi/plaits/dsp/engine/virtual_analog_engine.cpp ****   sync_.Init();
 226              		.loc 2 44 3 is_stmt 1 view .LVU71
 227              	.LBB224:
 228              	.LBI209:
  52:mi/plaits/dsp/oscillator/variable_shape_oscillator.h ****     master_phase_ = 0.0f;
 229              		.loc 3 52 8 view .LVU72
 230              	.LBB212:
  53:mi/plaits/dsp/oscillator/variable_shape_oscillator.h ****     slave_phase_ = 0.0f;
 231              		.loc 3 53 5 view .LVU73
  54:mi/plaits/dsp/oscillator/variable_shape_oscillator.h ****     next_sample_ = 0.0f;
 232              		.loc 3 54 5 view .LVU74
  55:mi/plaits/dsp/oscillator/variable_shape_oscillator.h ****     previous_pw_ = 0.5f;
 233              		.loc 3 55 5 view .LVU75
  56:mi/plaits/dsp/oscillator/variable_shape_oscillator.h ****     high_ = false;
 234              		.loc 3 56 5 view .LVU76
  57:mi/plaits/dsp/oscillator/variable_shape_oscillator.h ****   
 235              		.loc 3 57 5 view .LVU77
ARM GAS  /var/folders/9k/zk1mgrrd7wg4__6zvxvr9w8m0000gn/T//ccaaKoMx.s 			page 13


  59:mi/plaits/dsp/oscillator/variable_shape_oscillator.h ****     slave_frequency_ = 0.01f;
 236              		.loc 3 59 5 view .LVU78
  60:mi/plaits/dsp/oscillator/variable_shape_oscillator.h ****     pw_ = 0.5f;
 237              		.loc 3 60 5 view .LVU79
  60:mi/plaits/dsp/oscillator/variable_shape_oscillator.h ****     pw_ = 0.5f;
 238              		.loc 3 60 22 is_stmt 0 view .LVU80
 239 0066 C0F878E0 		str	lr, [r0, #120]	@ float
  61:mi/plaits/dsp/oscillator/variable_shape_oscillator.h ****     waveshape_ = 0.0f;
 240              		.loc 3 61 5 is_stmt 1 view .LVU81
  62:mi/plaits/dsp/oscillator/variable_shape_oscillator.h ****     phase_modulation_ = 0.0f;
 241              		.loc 3 62 5 view .LVU82
  63:mi/plaits/dsp/oscillator/variable_shape_oscillator.h ****   }
 242              		.loc 3 63 5 view .LVU83
 243              	.LVL5:
  63:mi/plaits/dsp/oscillator/variable_shape_oscillator.h ****   }
 244              		.loc 3 63 5 is_stmt 0 view .LVU84
 245              	.LBE212:
 246              	.LBE224:
  45:mi/plaits/dsp/engine/virtual_analog_engine.cpp ****   variable_saw_.Init();
 247              		.loc 2 45 3 is_stmt 1 view .LVU85
 248              	.LBB225:
 249              	.LBI216:
  49:mi/plaits/dsp/oscillator/variable_saw_oscillator.h ****     phase_ = 0.0f;
 250              		.loc 4 49 8 view .LVU86
 251              	.LBB218:
  50:mi/plaits/dsp/oscillator/variable_saw_oscillator.h ****     next_sample_ = 0.0f;
 252              		.loc 4 50 5 view .LVU87
 253              		.loc 4 51 5 view .LVU88
  52:mi/plaits/dsp/oscillator/variable_saw_oscillator.h ****     previous_pw_ = 0.5f;
 254              		.loc 4 52 5 view .LVU89
 255              		.loc 4 52 18 is_stmt 0 view .LVU90
 256 006a C0F89020 		str	r2, [r0, #144]	@ float
  53:mi/plaits/dsp/oscillator/variable_saw_oscillator.h ****     high_ = false;
 257              		.loc 4 53 5 is_stmt 1 view .LVU91
  54:mi/plaits/dsp/oscillator/variable_saw_oscillator.h ****   
  55:mi/plaits/dsp/oscillator/variable_saw_oscillator.h ****     frequency_ = 0.01f;
  56:mi/plaits/dsp/oscillator/variable_saw_oscillator.h ****     pw_ = 0.5f;
 258              		.loc 4 56 9 is_stmt 0 view .LVU92
 259 006e C0F89C20 		str	r2, [r0, #156]	@ float
 260              	.LBE218:
 261              	.LBE225:
 262              	.LBB226:
 263              	.LBB227:
 264              	.LBB228:
 265              		.file 5 "mi/stmlib/utils/buffer_allocator.h"
   1:mi/stmlib/utils/buffer_allocator.h **** // Copyright 2014 Emilie Gillet.
   2:mi/stmlib/utils/buffer_allocator.h **** //
   3:mi/stmlib/utils/buffer_allocator.h **** // Author: Emilie Gillet (emilie.o.gillet@gmail.com)
   4:mi/stmlib/utils/buffer_allocator.h **** //
   5:mi/stmlib/utils/buffer_allocator.h **** // Permission is hereby granted, free of charge, to any person obtaining a copy
   6:mi/stmlib/utils/buffer_allocator.h **** // of this software and associated documentation files (the "Software"), to deal
   7:mi/stmlib/utils/buffer_allocator.h **** // in the Software without restriction, including without limitation the rights
   8:mi/stmlib/utils/buffer_allocator.h **** // to use, copy, modify, merge, publish, distribute, sublicense, and/or sell
   9:mi/stmlib/utils/buffer_allocator.h **** // copies of the Software, and to permit persons to whom the Software is
  10:mi/stmlib/utils/buffer_allocator.h **** // furnished to do so, subject to the following conditions:
  11:mi/stmlib/utils/buffer_allocator.h **** // 
  12:mi/stmlib/utils/buffer_allocator.h **** // The above copyright notice and this permission notice shall be included in
ARM GAS  /var/folders/9k/zk1mgrrd7wg4__6zvxvr9w8m0000gn/T//ccaaKoMx.s 			page 14


  13:mi/stmlib/utils/buffer_allocator.h **** // all copies or substantial portions of the Software.
  14:mi/stmlib/utils/buffer_allocator.h **** // 
  15:mi/stmlib/utils/buffer_allocator.h **** // THE SOFTWARE IS PROVIDED "AS IS", WITHOUT WARRANTY OF ANY KIND, EXPRESS OR
  16:mi/stmlib/utils/buffer_allocator.h **** // IMPLIED, INCLUDING BUT NOT LIMITED TO THE WARRANTIES OF MERCHANTABILITY,
  17:mi/stmlib/utils/buffer_allocator.h **** // FITNESS FOR A PARTICULAR PURPOSE AND NONINFRINGEMENT. IN NO EVENT SHALL THE
  18:mi/stmlib/utils/buffer_allocator.h **** // AUTHORS OR COPYRIGHT HOLDERS BE LIABLE FOR ANY CLAIM, DAMAGES OR OTHER
  19:mi/stmlib/utils/buffer_allocator.h **** // LIABILITY, WHETHER IN AN ACTION OF CONTRACT, TORT OR OTHERWISE, ARISING FROM,
  20:mi/stmlib/utils/buffer_allocator.h **** // OUT OF OR IN CONNECTION WITH THE SOFTWARE OR THE USE OR OTHER DEALINGS IN
  21:mi/stmlib/utils/buffer_allocator.h **** // THE SOFTWARE.
  22:mi/stmlib/utils/buffer_allocator.h **** // 
  23:mi/stmlib/utils/buffer_allocator.h **** // See http://creativecommons.org/licenses/MIT/ for more information.
  24:mi/stmlib/utils/buffer_allocator.h **** //
  25:mi/stmlib/utils/buffer_allocator.h **** // -----------------------------------------------------------------------------
  26:mi/stmlib/utils/buffer_allocator.h **** //
  27:mi/stmlib/utils/buffer_allocator.h **** // Stream buffer for serialization.
  28:mi/stmlib/utils/buffer_allocator.h **** 
  29:mi/stmlib/utils/buffer_allocator.h **** #ifndef STMLIB_UTILS_BUFFER_ALLOCATOR_H_
  30:mi/stmlib/utils/buffer_allocator.h **** #define STMLIB_UTILS_BUFFER_ALLOCATOR_H_
  31:mi/stmlib/utils/buffer_allocator.h **** 
  32:mi/stmlib/utils/buffer_allocator.h **** #include "stmlib/stmlib.h"
  33:mi/stmlib/utils/buffer_allocator.h **** 
  34:mi/stmlib/utils/buffer_allocator.h **** namespace stmlib {
  35:mi/stmlib/utils/buffer_allocator.h **** 
  36:mi/stmlib/utils/buffer_allocator.h **** class BufferAllocator {
  37:mi/stmlib/utils/buffer_allocator.h ****  public:
  38:mi/stmlib/utils/buffer_allocator.h ****   BufferAllocator() { }
  39:mi/stmlib/utils/buffer_allocator.h ****   ~BufferAllocator() { }
  40:mi/stmlib/utils/buffer_allocator.h ****   
  41:mi/stmlib/utils/buffer_allocator.h ****   BufferAllocator(void* buffer, size_t size) {
  42:mi/stmlib/utils/buffer_allocator.h ****     Init(buffer, size);
  43:mi/stmlib/utils/buffer_allocator.h ****   }
  44:mi/stmlib/utils/buffer_allocator.h ****   
  45:mi/stmlib/utils/buffer_allocator.h ****   inline void Init(void* buffer, size_t size) {
  46:mi/stmlib/utils/buffer_allocator.h ****     buffer_ = static_cast<uint8_t*>(buffer);
  47:mi/stmlib/utils/buffer_allocator.h ****     size_ = size;
  48:mi/stmlib/utils/buffer_allocator.h ****     Free();
  49:mi/stmlib/utils/buffer_allocator.h ****   }
  50:mi/stmlib/utils/buffer_allocator.h **** 
  51:mi/stmlib/utils/buffer_allocator.h ****   template<typename T>
  52:mi/stmlib/utils/buffer_allocator.h ****   inline T* Allocate() {
  53:mi/stmlib/utils/buffer_allocator.h ****     return Allocate<T>(1);
  54:mi/stmlib/utils/buffer_allocator.h ****   }
  55:mi/stmlib/utils/buffer_allocator.h ****   
  56:mi/stmlib/utils/buffer_allocator.h ****   template<typename T>
  57:mi/stmlib/utils/buffer_allocator.h ****   inline T* Allocate(size_t size) {
  58:mi/stmlib/utils/buffer_allocator.h ****     size_t size_bytes = sizeof(T) * size;
  59:mi/stmlib/utils/buffer_allocator.h ****     if (size_bytes <= free_) {
 266              		.loc 5 59 23 view .LVU93
 267 0072 8A68     		ldr	r2, [r1, #8]
 268              	.LBE228:
 269              	.LBE227:
 270              	.LBE226:
 271              	.LBB236:
 272              	.LBB219:
  53:mi/plaits/dsp/oscillator/variable_saw_oscillator.h ****   
 273              		.loc 4 53 11 view .LVU94
 274 0074 80F894C0 		strb	ip, [r0, #148]
ARM GAS  /var/folders/9k/zk1mgrrd7wg4__6zvxvr9w8m0000gn/T//ccaaKoMx.s 			page 15


  55:mi/plaits/dsp/oscillator/variable_saw_oscillator.h ****     pw_ = 0.5f;
 275              		.loc 4 55 5 is_stmt 1 view .LVU95
 276              	.LBE219:
 277              	.LBE236:
 278              	.LBB237:
 279              	.LBB233:
 280              	.LBB230:
 281              		.loc 5 59 5 is_stmt 0 view .LVU96
 282 0078 5F2A     		cmp	r2, #95
 283              	.LBE230:
 284              	.LBE233:
 285              	.LBE237:
 286              	.LBB238:
 287              	.LBB220:
  55:mi/plaits/dsp/oscillator/variable_saw_oscillator.h ****     pw_ = 0.5f;
 288              		.loc 4 55 16 view .LVU97
 289 007a C0F898E0 		str	lr, [r0, #152]	@ float
 290              		.loc 4 56 5 is_stmt 1 view .LVU98
  57:mi/plaits/dsp/oscillator/variable_saw_oscillator.h ****     waveshape_ = 0.0f;
 291              		.loc 4 57 5 view .LVU99
 292              		.loc 4 57 16 is_stmt 0 view .LVU100
 293 007e C0F8A030 		str	r3, [r0, #160]	@ float
 294              	.LVL6:
 295              		.loc 4 57 16 view .LVU101
 296              	.LBE220:
 297              	.LBE238:
  46:mi/plaits/dsp/engine/virtual_analog_engine.cpp ****   
  47:mi/plaits/dsp/engine/virtual_analog_engine.cpp ****   auxiliary_amount_ = 0.0f;
 298              		.loc 2 47 3 is_stmt 1 view .LVU102
 299              		.loc 2 47 21 is_stmt 0 view .LVU103
 300 0082 C0F8A430 		str	r3, [r0, #164]	@ float
  48:mi/plaits/dsp/engine/virtual_analog_engine.cpp ****   xmod_amount_ = 0.0f;
 301              		.loc 2 48 3 is_stmt 1 view .LVU104
 302              		.loc 2 48 16 is_stmt 0 view .LVU105
 303 0086 C0F8A830 		str	r3, [r0, #168]	@ float
  49:mi/plaits/dsp/engine/virtual_analog_engine.cpp ****   
  50:mi/plaits/dsp/engine/virtual_analog_engine.cpp ****   temp_buffer_ = allocator->Allocate<float>(kMaxBlockSize);
 304              		.loc 2 50 3 is_stmt 1 view .LVU106
 305              	.LVL7:
 306              	.LBB239:
 307              	.LBI226:
  57:mi/stmlib/utils/buffer_allocator.h ****     size_t size_bytes = sizeof(T) * size;
 308              		.loc 5 57 13 view .LVU107
 309              	.LBB234:
 310              	.LBB231:
 311              		.loc 5 59 5 is_stmt 0 view .LVU108
 312 008a 08D9     		bls	.L5
 313              	.LBB229:
  60:mi/stmlib/utils/buffer_allocator.h ****       T* start = static_cast<T*>(static_cast<void*>(next_));
 314              		.loc 5 60 10 view .LVU109
 315 008c 0B68     		ldr	r3, [r1]
 316              	.LVL8:
  61:mi/stmlib/utils/buffer_allocator.h ****       next_ += size_bytes;
  62:mi/stmlib/utils/buffer_allocator.h ****       free_ -= size_bytes;
 317              		.loc 5 62 13 view .LVU110
 318 008e 603A     		subs	r2, r2, #96
  61:mi/stmlib/utils/buffer_allocator.h ****       next_ += size_bytes;
ARM GAS  /var/folders/9k/zk1mgrrd7wg4__6zvxvr9w8m0000gn/T//ccaaKoMx.s 			page 16


 319              		.loc 5 61 13 view .LVU111
 320 0090 03F16004 		add	r4, r3, #96
 321              		.loc 5 62 13 view .LVU112
 322 0094 8A60     		str	r2, [r1, #8]
  61:mi/stmlib/utils/buffer_allocator.h ****       next_ += size_bytes;
 323              		.loc 5 61 13 view .LVU113
 324 0096 0C60     		str	r4, [r1]
 325              	.LVL9:
  61:mi/stmlib/utils/buffer_allocator.h ****       next_ += size_bytes;
 326              		.loc 5 61 13 view .LVU114
 327              	.LBE229:
 328              	.LBE231:
 329              	.LBE234:
 330              	.LBE239:
 331              		.loc 2 50 16 view .LVU115
 332 0098 C0F8AC30 		str	r3, [r0, #172]
  51:mi/plaits/dsp/engine/virtual_analog_engine.cpp **** }
 333              		.loc 2 51 1 view .LVU116
 334 009c 10BD     		pop	{r4, pc}
 335              	.LVL10:
 336              	.L5:
 337              	.LBB240:
 338              	.LBB235:
 339              	.LBB232:
  63:mi/stmlib/utils/buffer_allocator.h ****       return start;
  64:mi/stmlib/utils/buffer_allocator.h ****     } else {
  65:mi/stmlib/utils/buffer_allocator.h ****       return NULL;
 340              		.loc 5 65 14 view .LVU117
 341 009e 6346     		mov	r3, ip
 342              	.LVL11:
 343              		.loc 5 65 14 view .LVU118
 344              	.LBE232:
 345              	.LBE235:
 346              	.LBE240:
  50:mi/plaits/dsp/engine/virtual_analog_engine.cpp **** }
 347              		.loc 2 50 16 view .LVU119
 348 00a0 C0F8AC30 		str	r3, [r0, #172]
 349              		.loc 2 51 1 view .LVU120
 350 00a4 10BD     		pop	{r4, pc}
 351              	.L8:
 352 00a6 00BF     		.align	2
 353              	.L7:
 354 00a8 0AD7233C 		.word	1008981770
 355              		.cfi_endproc
 356              	.LFE1499:
 358              		.section	.text._ZN6plaits19VirtualAnalogEngine5ResetEv,"ax",%progbits
 359              		.align	1
 360              		.p2align 2,,3
 361              		.global	_ZN6plaits19VirtualAnalogEngine5ResetEv
 362              		.syntax unified
 363              		.thumb
 364              		.thumb_func
 366              	_ZN6plaits19VirtualAnalogEngine5ResetEv:
 367              	.LVL12:
 368              	.LFB1500:
  52:mi/plaits/dsp/engine/virtual_analog_engine.cpp **** 
  53:mi/plaits/dsp/engine/virtual_analog_engine.cpp **** void VirtualAnalogEngine::Reset() {
ARM GAS  /var/folders/9k/zk1mgrrd7wg4__6zvxvr9w8m0000gn/T//ccaaKoMx.s 			page 17


 369              		.loc 2 53 35 is_stmt 1 view -0
 370              		.cfi_startproc
 371              		@ args = 0, pretend = 0, frame = 0
 372              		@ frame_needed = 0, uses_anonymous_args = 0
 373              		@ link register save eliminated.
  54:mi/plaits/dsp/engine/virtual_analog_engine.cpp ****   
  55:mi/plaits/dsp/engine/virtual_analog_engine.cpp **** }
 374              		.loc 2 55 1 is_stmt 0 view .LVU122
 375 0000 7047     		bx	lr
 376              		.cfi_endproc
 377              	.LFE1500:
 379 0002 00BF     		.section	.text._ZN6plaits21VariableSawOscillator6RenderEfffPfj,"axG",%progbits,_ZN6plaits21Variabl
 380              		.align	1
 381              		.p2align 2,,3
 382              		.weak	_ZN6plaits21VariableSawOscillator6RenderEfffPfj
 383              		.syntax unified
 384              		.thumb
 385              		.thumb_func
 387              	_ZN6plaits21VariableSawOscillator6RenderEfffPfj:
 388              	.LVL13:
 389              	.LFB1478:
  58:mi/plaits/dsp/oscillator/variable_saw_oscillator.h ****   }
  59:mi/plaits/dsp/oscillator/variable_saw_oscillator.h ****   
  60:mi/plaits/dsp/oscillator/variable_saw_oscillator.h ****   void Render(
 390              		.loc 4 60 8 is_stmt 1 view -0
 391              		.cfi_startproc
 392              		@ args = 0, pretend = 0, frame = 0
 393              		@ frame_needed = 0, uses_anonymous_args = 0
 394              		@ link register save eliminated.
  61:mi/plaits/dsp/oscillator/variable_saw_oscillator.h ****       float frequency,
  62:mi/plaits/dsp/oscillator/variable_saw_oscillator.h ****       float pw,
  63:mi/plaits/dsp/oscillator/variable_saw_oscillator.h ****       float waveshape,
  64:mi/plaits/dsp/oscillator/variable_saw_oscillator.h ****       float* out,
  65:mi/plaits/dsp/oscillator/variable_saw_oscillator.h ****       size_t size) {
  66:mi/plaits/dsp/oscillator/variable_saw_oscillator.h ****     if (frequency >= kMaxFrequency) {
 395              		.loc 4 66 5 view .LVU124
 396 0000 B5EE007A 		vmov.f32	s14, #2.5e-1
 397 0004 B4EEC70A 		vcmpe.f32	s0, s14
 398 0008 F1EE10FA 		vmrs	APSR_nzcv, FPSCR
 399 000c 80F21481 		bge	.L22
  67:mi/plaits/dsp/oscillator/variable_saw_oscillator.h ****       frequency = kMaxFrequency;
  68:mi/plaits/dsp/oscillator/variable_saw_oscillator.h ****     }
  69:mi/plaits/dsp/oscillator/variable_saw_oscillator.h ****     
  70:mi/plaits/dsp/oscillator/variable_saw_oscillator.h ****     if (frequency >= 0.25f) {
 400              		.loc 4 70 5 view .LVU125
  71:mi/plaits/dsp/oscillator/variable_saw_oscillator.h ****       pw = 0.5f;
  72:mi/plaits/dsp/oscillator/variable_saw_oscillator.h ****     } else {
  73:mi/plaits/dsp/oscillator/variable_saw_oscillator.h ****       CONSTRAIN(pw, frequency * 2.0f, 1.0f - 2.0f * frequency);
 401              		.loc 4 73 7 view .LVU126
 402 0010 70EE007A 		vadd.f32	s15, s0, s0
 403 0014 F4EEE07A 		vcmpe.f32	s15, s1
 404 0018 F1EE10FA 		vmrs	APSR_nzcv, FPSCR
 405 001c 40F31181 		ble	.L37
 406              	.LVL14:
 407              	.L11:
 408              		.loc 4 73 63 discriminator 6 view .LVU127
  74:mi/plaits/dsp/oscillator/variable_saw_oscillator.h ****     }
ARM GAS  /var/folders/9k/zk1mgrrd7wg4__6zvxvr9w8m0000gn/T//ccaaKoMx.s 			page 18


  75:mi/plaits/dsp/oscillator/variable_saw_oscillator.h **** 
  76:mi/plaits/dsp/oscillator/variable_saw_oscillator.h ****     stmlib::ParameterInterpolator fm(&frequency_, frequency, size);
 409              		.loc 4 76 5 discriminator 6 view .LVU128
 410              	.LBB241:
 411              	.LBI241:
 412              		.file 6 "mi/stmlib/dsp/parameter_interpolator.h"
   1:mi/stmlib/dsp/parameter_interpolator.h **** // Copyright 2015 Emilie Gillet.
   2:mi/stmlib/dsp/parameter_interpolator.h **** //
   3:mi/stmlib/dsp/parameter_interpolator.h **** // Author: Emilie Gillet (emilie.o.gillet@gmail.com)
   4:mi/stmlib/dsp/parameter_interpolator.h **** //
   5:mi/stmlib/dsp/parameter_interpolator.h **** // Permission is hereby granted, free of charge, to any person obtaining a copy
   6:mi/stmlib/dsp/parameter_interpolator.h **** // of this software and associated documentation files (the "Software"), to deal
   7:mi/stmlib/dsp/parameter_interpolator.h **** // in the Software without restriction, including without limitation the rights
   8:mi/stmlib/dsp/parameter_interpolator.h **** // to use, copy, modify, merge, publish, distribute, sublicense, and/or sell
   9:mi/stmlib/dsp/parameter_interpolator.h **** // copies of the Software, and to permit persons to whom the Software is
  10:mi/stmlib/dsp/parameter_interpolator.h **** // furnished to do so, subject to the following conditions:
  11:mi/stmlib/dsp/parameter_interpolator.h **** // 
  12:mi/stmlib/dsp/parameter_interpolator.h **** // The above copyright notice and this permission notice shall be included in
  13:mi/stmlib/dsp/parameter_interpolator.h **** // all copies or substantial portions of the Software.
  14:mi/stmlib/dsp/parameter_interpolator.h **** // 
  15:mi/stmlib/dsp/parameter_interpolator.h **** // THE SOFTWARE IS PROVIDED "AS IS", WITHOUT WARRANTY OF ANY KIND, EXPRESS OR
  16:mi/stmlib/dsp/parameter_interpolator.h **** // IMPLIED, INCLUDING BUT NOT LIMITED TO THE WARRANTIES OF MERCHANTABILITY,
  17:mi/stmlib/dsp/parameter_interpolator.h **** // FITNESS FOR A PARTICULAR PURPOSE AND NONINFRINGEMENT. IN NO EVENT SHALL THE
  18:mi/stmlib/dsp/parameter_interpolator.h **** // AUTHORS OR COPYRIGHT HOLDERS BE LIABLE FOR ANY CLAIM, DAMAGES OR OTHER
  19:mi/stmlib/dsp/parameter_interpolator.h **** // LIABILITY, WHETHER IN AN ACTION OF CONTRACT, TORT OR OTHERWISE, ARISING FROM,
  20:mi/stmlib/dsp/parameter_interpolator.h **** // OUT OF OR IN CONNECTION WITH THE SOFTWARE OR THE USE OR OTHER DEALINGS IN
  21:mi/stmlib/dsp/parameter_interpolator.h **** // THE SOFTWARE.
  22:mi/stmlib/dsp/parameter_interpolator.h **** // 
  23:mi/stmlib/dsp/parameter_interpolator.h **** // See http://creativecommons.org/licenses/MIT/ for more information.
  24:mi/stmlib/dsp/parameter_interpolator.h **** //
  25:mi/stmlib/dsp/parameter_interpolator.h **** // -----------------------------------------------------------------------------
  26:mi/stmlib/dsp/parameter_interpolator.h **** //
  27:mi/stmlib/dsp/parameter_interpolator.h **** // Linear interpolation of parameters in rendering loops.
  28:mi/stmlib/dsp/parameter_interpolator.h **** 
  29:mi/stmlib/dsp/parameter_interpolator.h **** #ifndef STMLIB_DSP_PARAMETER_INTERPOLATOR_H_
  30:mi/stmlib/dsp/parameter_interpolator.h **** #define STMLIB_DSP_PARAMETER_INTERPOLATOR_H_
  31:mi/stmlib/dsp/parameter_interpolator.h **** 
  32:mi/stmlib/dsp/parameter_interpolator.h **** #include "stmlib/stmlib.h"
  33:mi/stmlib/dsp/parameter_interpolator.h **** 
  34:mi/stmlib/dsp/parameter_interpolator.h **** namespace stmlib {
  35:mi/stmlib/dsp/parameter_interpolator.h **** 
  36:mi/stmlib/dsp/parameter_interpolator.h **** class ParameterInterpolator {
  37:mi/stmlib/dsp/parameter_interpolator.h ****  public:
  38:mi/stmlib/dsp/parameter_interpolator.h ****   ParameterInterpolator() { }
  39:mi/stmlib/dsp/parameter_interpolator.h ****   ParameterInterpolator(float* state, float new_value, size_t size) {
 413              		.loc 6 39 3 discriminator 6 view .LVU129
 414              	.LBE241:
  40:mi/stmlib/dsp/parameter_interpolator.h ****     Init(state, new_value, size);
 415              		.loc 6 40 5 discriminator 6 view .LVU130
 416              	.LBB248:
 417              	.LBB242:
 418              	.LBI242:
  41:mi/stmlib/dsp/parameter_interpolator.h ****   }
  42:mi/stmlib/dsp/parameter_interpolator.h **** 
  43:mi/stmlib/dsp/parameter_interpolator.h ****   ParameterInterpolator(float* state, float new_value, float step) {
  44:mi/stmlib/dsp/parameter_interpolator.h ****     state_ = state;
  45:mi/stmlib/dsp/parameter_interpolator.h ****     value_ = *state;
ARM GAS  /var/folders/9k/zk1mgrrd7wg4__6zvxvr9w8m0000gn/T//ccaaKoMx.s 			page 19


  46:mi/stmlib/dsp/parameter_interpolator.h ****     increment_ = (new_value - *state) * step;
  47:mi/stmlib/dsp/parameter_interpolator.h ****   }
  48:mi/stmlib/dsp/parameter_interpolator.h **** 
  49:mi/stmlib/dsp/parameter_interpolator.h ****   ~ParameterInterpolator() {
  50:mi/stmlib/dsp/parameter_interpolator.h ****     *state_ = value_;
  51:mi/stmlib/dsp/parameter_interpolator.h ****   }
  52:mi/stmlib/dsp/parameter_interpolator.h ****   
  53:mi/stmlib/dsp/parameter_interpolator.h ****   inline void Init(float* state, float new_value, size_t size) {
 419              		.loc 6 53 15 discriminator 6 view .LVU131
 420              	.LBB243:
  54:mi/stmlib/dsp/parameter_interpolator.h ****     state_ = state;
 421              		.loc 6 54 5 discriminator 6 view .LVU132
  55:mi/stmlib/dsp/parameter_interpolator.h ****     value_ = *state;
 422              		.loc 6 55 5 discriminator 6 view .LVU133
 423              		.loc 6 55 14 is_stmt 0 discriminator 6 view .LVU134
 424 0020 D0ED043A 		vldr.32	s7, [r0, #16]
 425              	.LVL15:
  56:mi/stmlib/dsp/parameter_interpolator.h ****     increment_ = (new_value - *state) / static_cast<float>(size);
 426              		.loc 6 56 5 is_stmt 1 discriminator 6 view .LVU135
 427              		.loc 6 56 41 is_stmt 0 discriminator 6 view .LVU136
 428 0024 07EE102A 		vmov	s14, r2	@ int
 429              	.LBE243:
 430              	.LBE242:
 431              	.LBE248:
 432              	.LBB249:
 433              	.LBB250:
 434              	.LBB251:
  55:mi/stmlib/dsp/parameter_interpolator.h ****     value_ = *state;
 435              		.loc 6 55 14 discriminator 6 view .LVU137
 436 0028 D0ED056A 		vldr.32	s13, [r0, #20]
 437              	.LBE251:
 438              	.LBE250:
 439              	.LBE249:
  77:mi/plaits/dsp/oscillator/variable_saw_oscillator.h ****     stmlib::ParameterInterpolator pwm(&pw_, pw, size);
  78:mi/plaits/dsp/oscillator/variable_saw_oscillator.h ****     stmlib::ParameterInterpolator waveshape_modulation(
  79:mi/plaits/dsp/oscillator/variable_saw_oscillator.h ****         &waveshape_, waveshape, size);
  80:mi/plaits/dsp/oscillator/variable_saw_oscillator.h **** 
  81:mi/plaits/dsp/oscillator/variable_saw_oscillator.h ****     float next_sample = next_sample_;
  82:mi/plaits/dsp/oscillator/variable_saw_oscillator.h ****     
  83:mi/plaits/dsp/oscillator/variable_saw_oscillator.h ****     while (size--) {
 440              		.loc 4 83 16 discriminator 6 view .LVU138
 441 002c 531E     		subs	r3, r2, #1
 442              	.LBB256:
 443              	.LBB257:
 444              	.LBB258:
  55:mi/stmlib/dsp/parameter_interpolator.h ****     increment_ = (new_value - *state) / static_cast<float>(size);
 445              		.loc 6 55 14 discriminator 6 view .LVU139
 446 002e 90ED064A 		vldr.32	s8, [r0, #24]
 447              	.LBE258:
 448              	.LBE257:
 449              	.LBE256:
 450              	.LBB263:
 451              	.LBB246:
 452              	.LBB244:
 453              		.loc 6 56 41 discriminator 6 view .LVU140
 454 0032 B8EE477A 		vcvt.f32.u32	s14, s14
 455              		.loc 6 56 29 discriminator 6 view .LVU141
ARM GAS  /var/folders/9k/zk1mgrrd7wg4__6zvxvr9w8m0000gn/T//ccaaKoMx.s 			page 20


 456 0036 30EE630A 		vsub.f32	s0, s0, s7
 457              	.LVL16:
 458              		.loc 6 56 29 discriminator 6 view .LVU142
 459              	.LBE244:
 460              	.LBE246:
 461              	.LBE263:
  81:mi/plaits/dsp/oscillator/variable_saw_oscillator.h ****     
 462              		.loc 4 81 11 discriminator 6 view .LVU143
 463 003a D0ED015A 		vldr.32	s11, [r0, #4]
 464              	.LBB264:
 465              	.LBB254:
 466              	.LBB252:
 467              		.loc 6 56 29 discriminator 6 view .LVU144
 468 003e 77EEE67A 		vsub.f32	s15, s15, s13
 469              	.LVL17:
 470              		.loc 6 56 29 discriminator 6 view .LVU145
 471              	.LBE252:
 472              	.LBE254:
 473              	.LBE264:
 474              	.LBB265:
 475              	.LBB261:
 476              	.LBB259:
 477 0042 31EE441A 		vsub.f32	s2, s2, s8
 478              	.LVL18:
 479              		.loc 6 56 29 discriminator 6 view .LVU146
 480              	.LBE259:
 481              	.LBE261:
 482              	.LBE265:
 483              	.LBB266:
 484              	.LBB247:
 485              	.LBB245:
 486              		.loc 6 56 39 discriminator 6 view .LVU147
 487 0046 C0EE071A 		vdiv.f32	s3, s0, s14
 488              	.LVL19:
 489              		.loc 6 56 39 discriminator 6 view .LVU148
 490              	.LBE245:
 491              	.LBE247:
 492              	.LBE266:
  77:mi/plaits/dsp/oscillator/variable_saw_oscillator.h ****     stmlib::ParameterInterpolator pwm(&pw_, pw, size);
 493              		.loc 4 77 5 is_stmt 1 discriminator 6 view .LVU149
 494              	.LBB267:
 495              	.LBI249:
  39:mi/stmlib/dsp/parameter_interpolator.h ****     Init(state, new_value, size);
 496              		.loc 6 39 3 discriminator 6 view .LVU150
 497              	.LBE267:
  40:mi/stmlib/dsp/parameter_interpolator.h ****   }
 498              		.loc 6 40 5 discriminator 6 view .LVU151
 499              	.LBB268:
 500              	.LBB255:
 501              	.LBI250:
  53:mi/stmlib/dsp/parameter_interpolator.h ****     state_ = state;
 502              		.loc 6 53 15 discriminator 6 view .LVU152
 503              	.LBB253:
  54:mi/stmlib/dsp/parameter_interpolator.h ****     value_ = *state;
 504              		.loc 6 54 5 discriminator 6 view .LVU153
  55:mi/stmlib/dsp/parameter_interpolator.h ****     increment_ = (new_value - *state) / static_cast<float>(size);
 505              		.loc 6 55 5 discriminator 6 view .LVU154
ARM GAS  /var/folders/9k/zk1mgrrd7wg4__6zvxvr9w8m0000gn/T//ccaaKoMx.s 			page 21


 506              		.loc 6 56 5 discriminator 6 view .LVU155
 507              		.loc 6 56 39 is_stmt 0 discriminator 6 view .LVU156
 508 004a 87EE872A 		vdiv.f32	s4, s15, s14
 509              	.LVL20:
 510              		.loc 6 56 39 discriminator 6 view .LVU157
 511              	.LBE253:
 512              	.LBE255:
 513              	.LBE268:
  78:mi/plaits/dsp/oscillator/variable_saw_oscillator.h ****         &waveshape_, waveshape, size);
 514              		.loc 4 78 5 is_stmt 1 discriminator 6 view .LVU158
 515              	.LBB269:
 516              	.LBI256:
  39:mi/stmlib/dsp/parameter_interpolator.h ****     Init(state, new_value, size);
 517              		.loc 6 39 3 discriminator 6 view .LVU159
 518              	.LBE269:
  40:mi/stmlib/dsp/parameter_interpolator.h ****   }
 519              		.loc 6 40 5 discriminator 6 view .LVU160
 520              	.LBB270:
 521              	.LBB262:
 522              	.LBI257:
  53:mi/stmlib/dsp/parameter_interpolator.h ****     state_ = state;
 523              		.loc 6 53 15 discriminator 6 view .LVU161
 524              	.LBB260:
  54:mi/stmlib/dsp/parameter_interpolator.h ****     value_ = *state;
 525              		.loc 6 54 5 discriminator 6 view .LVU162
  55:mi/stmlib/dsp/parameter_interpolator.h ****     increment_ = (new_value - *state) / static_cast<float>(size);
 526              		.loc 6 55 5 discriminator 6 view .LVU163
 527              		.loc 6 56 5 discriminator 6 view .LVU164
 528              		.loc 6 56 39 is_stmt 0 discriminator 6 view .LVU165
 529 004e C1EE072A 		vdiv.f32	s5, s2, s14
 530              	.LVL21:
 531              		.loc 6 56 39 discriminator 6 view .LVU166
 532              	.LBE260:
 533              	.LBE262:
 534              	.LBE270:
  81:mi/plaits/dsp/oscillator/variable_saw_oscillator.h ****     
 535              		.loc 4 81 5 is_stmt 1 discriminator 6 view .LVU167
 536              		.loc 4 83 5 discriminator 6 view .LVU168
 537              		.loc 4 83 16 discriminator 6 view .LVU169
 538              		.loc 4 83 16 is_stmt 0 discriminator 6 view .LVU170
 539 0052 002A     		cmp	r2, #0
 540 0054 00F00181 		beq	.L35
  60:mi/plaits/dsp/oscillator/variable_saw_oscillator.h ****       float frequency,
 541              		.loc 4 60 8 view .LVU171
 542 0058 2DED088B 		vpush.64	{d8, d9, d10, d11}
 543              		.cfi_def_cfa_offset 32
 544              		.cfi_offset 80, -32
 545              		.cfi_offset 81, -28
 546              		.cfi_offset 82, -24
 547              		.cfi_offset 83, -20
 548              		.cfi_offset 84, -16
 549              		.cfi_offset 85, -12
 550              		.cfi_offset 86, -8
 551              		.cfi_offset 87, -4
 552 005c 19E0     		b	.L21
 553              	.LVL22:
 554              	.L39:
ARM GAS  /var/folders/9k/zk1mgrrd7wg4__6zvxvr9w8m0000gn/T//ccaaKoMx.s 			page 22


 555              	.LBB271:
 556              	.LBB272:
 557              	.LBB273:
  84:mi/plaits/dsp/oscillator/variable_saw_oscillator.h ****       float this_sample = next_sample;
  85:mi/plaits/dsp/oscillator/variable_saw_oscillator.h ****       next_sample = 0.0f;
  86:mi/plaits/dsp/oscillator/variable_saw_oscillator.h ****     
  87:mi/plaits/dsp/oscillator/variable_saw_oscillator.h ****       const float frequency = fm.Next();
  88:mi/plaits/dsp/oscillator/variable_saw_oscillator.h ****       const float pw = pwm.Next();
  89:mi/plaits/dsp/oscillator/variable_saw_oscillator.h ****       const float waveshape = waveshape_modulation.Next();
  90:mi/plaits/dsp/oscillator/variable_saw_oscillator.h ****       const float triangle_amount = waveshape;
  91:mi/plaits/dsp/oscillator/variable_saw_oscillator.h ****       const float notch_amount = 1.0f - waveshape;
  92:mi/plaits/dsp/oscillator/variable_saw_oscillator.h ****       const float slope_up = 1.0f / (pw);
  93:mi/plaits/dsp/oscillator/variable_saw_oscillator.h ****       const float slope_down = 1.0f / (1.0f - pw);
  94:mi/plaits/dsp/oscillator/variable_saw_oscillator.h **** 
  95:mi/plaits/dsp/oscillator/variable_saw_oscillator.h ****       phase_ += frequency;
  96:mi/plaits/dsp/oscillator/variable_saw_oscillator.h ****       
  97:mi/plaits/dsp/oscillator/variable_saw_oscillator.h ****       if (!high_ && phase_ >= pw) {
  98:mi/plaits/dsp/oscillator/variable_saw_oscillator.h ****         const float triangle_step = (slope_up + slope_down) * frequency * triangle_amount;
  99:mi/plaits/dsp/oscillator/variable_saw_oscillator.h ****         const float notch = (kVariableSawNotchDepth + 1.0f - pw) * notch_amount;
 100:mi/plaits/dsp/oscillator/variable_saw_oscillator.h ****         const float t = (phase_ - pw) / (previous_pw_ - pw + frequency);
 101:mi/plaits/dsp/oscillator/variable_saw_oscillator.h ****         this_sample += notch * stmlib::ThisBlepSample(t);
 102:mi/plaits/dsp/oscillator/variable_saw_oscillator.h ****         next_sample += notch * stmlib::NextBlepSample(t);
 103:mi/plaits/dsp/oscillator/variable_saw_oscillator.h ****         this_sample -= triangle_step * stmlib::ThisIntegratedBlepSample(t);
 104:mi/plaits/dsp/oscillator/variable_saw_oscillator.h ****         next_sample -= triangle_step * stmlib::NextIntegratedBlepSample(t);
 105:mi/plaits/dsp/oscillator/variable_saw_oscillator.h ****         high_ = true;
 106:mi/plaits/dsp/oscillator/variable_saw_oscillator.h ****       } else if (phase_ >= 1.0f) {
 107:mi/plaits/dsp/oscillator/variable_saw_oscillator.h ****         phase_ -= 1.0f;
 108:mi/plaits/dsp/oscillator/variable_saw_oscillator.h ****         const float triangle_step = (slope_up + slope_down) * frequency * triangle_amount;
 109:mi/plaits/dsp/oscillator/variable_saw_oscillator.h ****         const float notch = (kVariableSawNotchDepth + 1.0f) * notch_amount;
 110:mi/plaits/dsp/oscillator/variable_saw_oscillator.h ****         const float t = phase_ / frequency;
 111:mi/plaits/dsp/oscillator/variable_saw_oscillator.h ****         this_sample -= notch * stmlib::ThisBlepSample(t);
 112:mi/plaits/dsp/oscillator/variable_saw_oscillator.h ****         next_sample -= notch * stmlib::NextBlepSample(t);
 113:mi/plaits/dsp/oscillator/variable_saw_oscillator.h ****         this_sample += triangle_step * stmlib::ThisIntegratedBlepSample(t);
 114:mi/plaits/dsp/oscillator/variable_saw_oscillator.h ****         next_sample += triangle_step * stmlib::NextIntegratedBlepSample(t);
 115:mi/plaits/dsp/oscillator/variable_saw_oscillator.h ****         high_ = false;
 116:mi/plaits/dsp/oscillator/variable_saw_oscillator.h ****       }
 117:mi/plaits/dsp/oscillator/variable_saw_oscillator.h ****     
 118:mi/plaits/dsp/oscillator/variable_saw_oscillator.h ****       next_sample += ComputeNaiveSample(
 119:mi/plaits/dsp/oscillator/variable_saw_oscillator.h ****           phase_,
 120:mi/plaits/dsp/oscillator/variable_saw_oscillator.h ****           pw,
 121:mi/plaits/dsp/oscillator/variable_saw_oscillator.h ****           slope_up,
 122:mi/plaits/dsp/oscillator/variable_saw_oscillator.h ****           slope_down,
 123:mi/plaits/dsp/oscillator/variable_saw_oscillator.h ****           triangle_amount,
 124:mi/plaits/dsp/oscillator/variable_saw_oscillator.h ****           notch_amount);
 125:mi/plaits/dsp/oscillator/variable_saw_oscillator.h ****       previous_pw_ = pw;
 126:mi/plaits/dsp/oscillator/variable_saw_oscillator.h **** 
 127:mi/plaits/dsp/oscillator/variable_saw_oscillator.h ****       *out++ = (2.0f * this_sample - 1.0f) / (1.0f + kVariableSawNotchDepth);
 128:mi/plaits/dsp/oscillator/variable_saw_oscillator.h ****     }
 129:mi/plaits/dsp/oscillator/variable_saw_oscillator.h ****     
 130:mi/plaits/dsp/oscillator/variable_saw_oscillator.h ****     next_sample_ = next_sample;
 131:mi/plaits/dsp/oscillator/variable_saw_oscillator.h ****   }
 132:mi/plaits/dsp/oscillator/variable_saw_oscillator.h **** 
 133:mi/plaits/dsp/oscillator/variable_saw_oscillator.h **** 
 134:mi/plaits/dsp/oscillator/variable_saw_oscillator.h ****  private:
 135:mi/plaits/dsp/oscillator/variable_saw_oscillator.h ****   inline float ComputeNaiveSample(
 136:mi/plaits/dsp/oscillator/variable_saw_oscillator.h ****       float phase,
 137:mi/plaits/dsp/oscillator/variable_saw_oscillator.h ****       float pw,
ARM GAS  /var/folders/9k/zk1mgrrd7wg4__6zvxvr9w8m0000gn/T//ccaaKoMx.s 			page 23


 138:mi/plaits/dsp/oscillator/variable_saw_oscillator.h ****       float slope_up,
 139:mi/plaits/dsp/oscillator/variable_saw_oscillator.h ****       float slope_down,
 140:mi/plaits/dsp/oscillator/variable_saw_oscillator.h ****       float triangle_amount,
 141:mi/plaits/dsp/oscillator/variable_saw_oscillator.h ****       float notch_amount) const {
 142:mi/plaits/dsp/oscillator/variable_saw_oscillator.h ****     float notch_saw = phase < pw ? phase : 1.0f + kVariableSawNotchDepth;
 143:mi/plaits/dsp/oscillator/variable_saw_oscillator.h ****     float triangle = phase < pw
 144:mi/plaits/dsp/oscillator/variable_saw_oscillator.h ****         ? phase * slope_up
 558              		.loc 4 144 9 view .LVU172
 559 005e 27EE277A 		vmul.f32	s14, s14, s15
 560              	.LVL23:
 561              	.L20:
 145:mi/plaits/dsp/oscillator/variable_saw_oscillator.h ****         : 1.0f - (phase - pw) * slope_down;
 146:mi/plaits/dsp/oscillator/variable_saw_oscillator.h ****     return notch_saw * notch_amount + triangle * triangle_amount;
 562              		.loc 4 146 5 is_stmt 1 view .LVU173
 563              	.LBE273:
 564              	.LBE272:
 127:mi/plaits/dsp/oscillator/variable_saw_oscillator.h ****     }
 565              		.loc 4 127 36 is_stmt 0 view .LVU174
 566 0062 B0EE001A 		vmov.f32	s2, #2.0e+0
 127:mi/plaits/dsp/oscillator/variable_saw_oscillator.h ****     }
 567              		.loc 4 127 44 view .LVU175
 568 0066 DFED814A 		vldr.32	s9, .L40
 127:mi/plaits/dsp/oscillator/variable_saw_oscillator.h ****     }
 569              		.loc 4 127 36 view .LVU176
 570 006a BFEE005A 		vmov.f32	s10, #-1.0e+0
 571              	.LBE271:
  83:mi/plaits/dsp/oscillator/variable_saw_oscillator.h ****       float this_sample = next_sample;
 572              		.loc 4 83 16 view .LVU177
 573 006e 013B     		subs	r3, r3, #1
 574              	.LVL24:
 575              	.LBB400:
 576              	.LBB277:
 577              	.LBB274:
 578              		.loc 4 146 48 view .LVU178
 579 0070 24EE077A 		vmul.f32	s14, s8, s14
 580              	.LVL25:
 581              		.loc 4 146 48 view .LVU179
 582              	.LBE274:
 583              	.LBE277:
 125:mi/plaits/dsp/oscillator/variable_saw_oscillator.h **** 
 584              		.loc 4 125 20 view .LVU180
 585 0074 C0ED026A 		vstr.32	s13, [r0, #8]
 586              	.LBE400:
  83:mi/plaits/dsp/oscillator/variable_saw_oscillator.h ****       float this_sample = next_sample;
 587              		.loc 4 83 16 view .LVU181
 588 0078 5A1C     		adds	r2, r3, #1
 589              	.LBB401:
 127:mi/plaits/dsp/oscillator/variable_saw_oscillator.h ****     }
 590              		.loc 4 127 36 view .LVU182
 591 007a A5EE815A 		vfma.f32	s10, s11, s2
 592              	.LBB278:
 593              	.LBB275:
 594              		.loc 4 146 50 view .LVU183
 595 007e A7EE837A 		vfma.f32	s14, s15, s6
 596              	.LVL26:
 597              		.loc 4 146 50 view .LVU184
 598              	.LBE275:
ARM GAS  /var/folders/9k/zk1mgrrd7wg4__6zvxvr9w8m0000gn/T//ccaaKoMx.s 			page 24


 599              	.LBE278:
 127:mi/plaits/dsp/oscillator/variable_saw_oscillator.h ****     }
 600              		.loc 4 127 44 view .LVU185
 601 0082 C5EE247A 		vdiv.f32	s15, s10, s9
 118:mi/plaits/dsp/oscillator/variable_saw_oscillator.h ****           phase_,
 602              		.loc 4 118 19 view .LVU186
 603 0086 76EE075A 		vadd.f32	s11, s12, s14
 604              	.LVL27:
 125:mi/plaits/dsp/oscillator/variable_saw_oscillator.h **** 
 605              		.loc 4 125 7 is_stmt 1 view .LVU187
 127:mi/plaits/dsp/oscillator/variable_saw_oscillator.h ****     }
 606              		.loc 4 127 7 view .LVU188
 127:mi/plaits/dsp/oscillator/variable_saw_oscillator.h ****     }
 607              		.loc 4 127 14 is_stmt 0 view .LVU189
 608 008a E1EC017A 		vstmia.32	r1!, {s15}
 609              	.LVL28:
 127:mi/plaits/dsp/oscillator/variable_saw_oscillator.h ****     }
 610              		.loc 4 127 14 view .LVU190
 611              	.LBE401:
  83:mi/plaits/dsp/oscillator/variable_saw_oscillator.h ****       float this_sample = next_sample;
 612              		.loc 4 83 5 is_stmt 1 view .LVU191
  83:mi/plaits/dsp/oscillator/variable_saw_oscillator.h ****       float this_sample = next_sample;
 613              		.loc 4 83 16 view .LVU192
  83:mi/plaits/dsp/oscillator/variable_saw_oscillator.h ****       float this_sample = next_sample;
 614              		.loc 4 83 16 is_stmt 0 view .LVU193
 615 008e 00F0C880 		beq	.L38
 616              	.LVL29:
 617              	.L21:
 618              	.LBB402:
  84:mi/plaits/dsp/oscillator/variable_saw_oscillator.h ****       next_sample = 0.0f;
 619              		.loc 4 84 7 is_stmt 1 view .LVU194
  85:mi/plaits/dsp/oscillator/variable_saw_oscillator.h ****     
 620              		.loc 4 85 7 view .LVU195
  87:mi/plaits/dsp/oscillator/variable_saw_oscillator.h ****       const float pw = pwm.Next();
 621              		.loc 4 87 7 view .LVU196
 622              	.LBB279:
 623              	.LBI279:
  57:mi/stmlib/dsp/parameter_interpolator.h ****   }
  58:mi/stmlib/dsp/parameter_interpolator.h **** 
  59:mi/stmlib/dsp/parameter_interpolator.h ****   inline float Next() {
 624              		.loc 6 59 16 view .LVU197
 625              	.LBB280:
  60:mi/stmlib/dsp/parameter_interpolator.h ****     value_ += increment_;
 626              		.loc 6 60 5 view .LVU198
 627              	.LBE280:
 628              	.LBE279:
  91:mi/plaits/dsp/oscillator/variable_saw_oscillator.h ****       const float slope_up = 1.0f / (pw);
 629              		.loc 4 91 19 is_stmt 0 view .LVU199
 630 0092 B7EE006A 		vmov.f32	s12, #1.0e+0
  95:mi/plaits/dsp/oscillator/variable_saw_oscillator.h ****       
 631              		.loc 4 95 14 view .LVU200
 632 0096 D0ED007A 		vldr.32	s15, [r0]
 633              	.LBB282:
 634              	.LBB283:
 635              		.loc 6 60 12 view .LVU201
 636 009a 76EE826A 		vadd.f32	s13, s13, s4
 637              	.LVL30:
ARM GAS  /var/folders/9k/zk1mgrrd7wg4__6zvxvr9w8m0000gn/T//ccaaKoMx.s 			page 25


 638              		.loc 6 60 12 view .LVU202
 639              	.LBE283:
 640              	.LBE282:
 641              	.LBB285:
  97:mi/plaits/dsp/oscillator/variable_saw_oscillator.h ****         const float triangle_step = (slope_up + slope_down) * frequency * triangle_amount;
 642              		.loc 4 97 7 view .LVU203
 643 009e 027B     		ldrb	r2, [r0, #12]	@ zero_extendqisi2
 644              	.LBE285:
 645              	.LBB391:
 646              	.LBB281:
 647              		.loc 6 60 12 view .LVU204
 648 00a0 73EEA13A 		vadd.f32	s7, s7, s3
 649              	.LVL31:
  61:mi/stmlib/dsp/parameter_interpolator.h ****     return value_;
 650              		.loc 6 61 5 is_stmt 1 view .LVU205
 651              		.loc 6 61 5 is_stmt 0 view .LVU206
 652              	.LBE281:
 653              	.LBE391:
  88:mi/plaits/dsp/oscillator/variable_saw_oscillator.h ****       const float waveshape = waveshape_modulation.Next();
 654              		.loc 4 88 7 is_stmt 1 view .LVU207
 655              	.LBB392:
 656              	.LBI282:
  59:mi/stmlib/dsp/parameter_interpolator.h ****     value_ += increment_;
 657              		.loc 6 59 16 view .LVU208
 658              	.LBB284:
  60:mi/stmlib/dsp/parameter_interpolator.h ****     return value_;
 659              		.loc 6 60 5 view .LVU209
 660              		.loc 6 61 5 view .LVU210
 661              		.loc 6 61 5 is_stmt 0 view .LVU211
 662              	.LBE284:
 663              	.LBE392:
  89:mi/plaits/dsp/oscillator/variable_saw_oscillator.h ****       const float triangle_amount = waveshape;
 664              		.loc 4 89 7 is_stmt 1 view .LVU212
 665              	.LBB393:
 666              	.LBI393:
  59:mi/stmlib/dsp/parameter_interpolator.h ****     value_ += increment_;
 667              		.loc 6 59 16 view .LVU213
 668              	.LBB394:
  60:mi/stmlib/dsp/parameter_interpolator.h ****     return value_;
 669              		.loc 6 60 5 view .LVU214
  60:mi/stmlib/dsp/parameter_interpolator.h ****     return value_;
 670              		.loc 6 60 12 is_stmt 0 view .LVU215
 671 00a4 34EE224A 		vadd.f32	s8, s8, s5
 672              	.LVL32:
 673              		.loc 6 61 5 is_stmt 1 view .LVU216
 674              		.loc 6 61 5 is_stmt 0 view .LVU217
 675              	.LBE394:
 676              	.LBE393:
  90:mi/plaits/dsp/oscillator/variable_saw_oscillator.h ****       const float notch_amount = 1.0f - waveshape;
 677              		.loc 4 90 7 is_stmt 1 view .LVU218
  91:mi/plaits/dsp/oscillator/variable_saw_oscillator.h ****       const float slope_up = 1.0f / (pw);
 678              		.loc 4 91 7 view .LVU219
  93:mi/plaits/dsp/oscillator/variable_saw_oscillator.h **** 
 679              		.loc 4 93 45 is_stmt 0 view .LVU220
 680 00a8 36EE665A 		vsub.f32	s10, s12, s13
  95:mi/plaits/dsp/oscillator/variable_saw_oscillator.h ****       
 681              		.loc 4 95 14 view .LVU221
ARM GAS  /var/folders/9k/zk1mgrrd7wg4__6zvxvr9w8m0000gn/T//ccaaKoMx.s 			page 26


 682 00ac 73EEA77A 		vadd.f32	s15, s7, s15
  92:mi/plaits/dsp/oscillator/variable_saw_oscillator.h ****       const float slope_down = 1.0f / (1.0f - pw);
 683              		.loc 4 92 19 view .LVU222
 684 00b0 86EE267A 		vdiv.f32	s14, s12, s13
  95:mi/plaits/dsp/oscillator/variable_saw_oscillator.h ****       
 685              		.loc 4 95 14 view .LVU223
 686 00b4 C0ED007A 		vstr.32	s15, [r0]
  93:mi/plaits/dsp/oscillator/variable_saw_oscillator.h **** 
 687              		.loc 4 93 19 view .LVU224
 688 00b8 86EE050A 		vdiv.f32	s0, s12, s10
  91:mi/plaits/dsp/oscillator/variable_saw_oscillator.h ****       const float slope_up = 1.0f / (pw);
 689              		.loc 4 91 19 view .LVU225
 690 00bc 36EE443A 		vsub.f32	s6, s12, s8
 691              	.LVL33:
  92:mi/plaits/dsp/oscillator/variable_saw_oscillator.h ****       const float slope_down = 1.0f / (1.0f - pw);
 692              		.loc 4 92 7 is_stmt 1 view .LVU226
  93:mi/plaits/dsp/oscillator/variable_saw_oscillator.h **** 
 693              		.loc 4 93 7 view .LVU227
  95:mi/plaits/dsp/oscillator/variable_saw_oscillator.h ****       
 694              		.loc 4 95 7 view .LVU228
  97:mi/plaits/dsp/oscillator/variable_saw_oscillator.h ****         const float triangle_step = (slope_up + slope_down) * frequency * triangle_amount;
 695              		.loc 4 97 7 view .LVU229
 696              	.LBB395:
 697 00c0 002A     		cmp	r2, #0
 698 00c2 5FD1     		bne	.L14
  97:mi/plaits/dsp/oscillator/variable_saw_oscillator.h ****         const float triangle_step = (slope_up + slope_down) * frequency * triangle_amount;
 699              		.loc 4 97 18 is_stmt 0 discriminator 1 view .LVU230
 700 00c4 F4EEE67A 		vcmpe.f32	s15, s13
 701 00c8 F1EE10FA 		vmrs	APSR_nzcv, FPSCR
 702 00cc 5ADB     		blt	.L14
 703              	.LBB286:
  98:mi/plaits/dsp/oscillator/variable_saw_oscillator.h ****         const float notch = (kVariableSawNotchDepth + 1.0f - pw) * notch_amount;
 704              		.loc 4 98 9 is_stmt 1 view .LVU231
 100:mi/plaits/dsp/oscillator/variable_saw_oscillator.h ****         this_sample += notch * stmlib::ThisBlepSample(t);
 705              		.loc 4 100 55 is_stmt 0 view .LVU232
 706 00ce D0ED028A 		vldr.32	s17, [r0, #8]
 100:mi/plaits/dsp/oscillator/variable_saw_oscillator.h ****         this_sample += notch * stmlib::ThisBlepSample(t);
 707              		.loc 4 100 33 view .LVU233
 708 00d2 77EEE6AA 		vsub.f32	s21, s15, s13
 709              	.LBB287:
 710              	.LBB288:
 711              		.file 7 "mi/stmlib/dsp/polyblep.h"
   1:mi/stmlib/dsp/polyblep.h **** // Copyright 2017 Emilie Gillet.
   2:mi/stmlib/dsp/polyblep.h **** //
   3:mi/stmlib/dsp/polyblep.h **** // Author: Emilie Gillet (emilie.o.gillet@gmail.com)
   4:mi/stmlib/dsp/polyblep.h **** //
   5:mi/stmlib/dsp/polyblep.h **** // Permission is hereby granted, free of charge, to any person obtaining a copy
   6:mi/stmlib/dsp/polyblep.h **** // of this software and associated documentation files (the "Software"), to deal
   7:mi/stmlib/dsp/polyblep.h **** // in the Software without restriction, including without limitation the rights
   8:mi/stmlib/dsp/polyblep.h **** // to use, copy, modify, merge, publish, distribute, sublicense, and/or sell
   9:mi/stmlib/dsp/polyblep.h **** // copies of the Software, and to permit persons to whom the Software is
  10:mi/stmlib/dsp/polyblep.h **** // furnished to do so, subject to the following conditions:
  11:mi/stmlib/dsp/polyblep.h **** // 
  12:mi/stmlib/dsp/polyblep.h **** // The above copyright notice and this permission notice shall be included in
  13:mi/stmlib/dsp/polyblep.h **** // all copies or substantial portions of the Software.
  14:mi/stmlib/dsp/polyblep.h **** // 
  15:mi/stmlib/dsp/polyblep.h **** // THE SOFTWARE IS PROVIDED "AS IS", WITHOUT WARRANTY OF ANY KIND, EXPRESS OR
ARM GAS  /var/folders/9k/zk1mgrrd7wg4__6zvxvr9w8m0000gn/T//ccaaKoMx.s 			page 27


  16:mi/stmlib/dsp/polyblep.h **** // IMPLIED, INCLUDING BUT NOT LIMITED TO THE WARRANTIES OF MERCHANTABILITY,
  17:mi/stmlib/dsp/polyblep.h **** // FITNESS FOR A PARTICULAR PURPOSE AND NONINFRINGEMENT. IN NO EVENT SHALL THE
  18:mi/stmlib/dsp/polyblep.h **** // AUTHORS OR COPYRIGHT HOLDERS BE LIABLE FOR ANY CLAIM, DAMAGES OR OTHER
  19:mi/stmlib/dsp/polyblep.h **** // LIABILITY, WHETHER IN AN ACTION OF CONTRACT, TORT OR OTHERWISE, ARISING FROM,
  20:mi/stmlib/dsp/polyblep.h **** // OUT OF OR IN CONNECTION WITH THE SOFTWARE OR THE USE OR OTHER DEALINGS IN
  21:mi/stmlib/dsp/polyblep.h **** // THE SOFTWARE.
  22:mi/stmlib/dsp/polyblep.h **** // 
  23:mi/stmlib/dsp/polyblep.h **** // See http://creativecommons.org/licenses/MIT/ for more information.
  24:mi/stmlib/dsp/polyblep.h **** //
  25:mi/stmlib/dsp/polyblep.h **** // -----------------------------------------------------------------------------
  26:mi/stmlib/dsp/polyblep.h **** //
  27:mi/stmlib/dsp/polyblep.h **** // Polynomial approximation of band-limited step for band-limited waveform
  28:mi/stmlib/dsp/polyblep.h **** // synthesis.
  29:mi/stmlib/dsp/polyblep.h **** 
  30:mi/stmlib/dsp/polyblep.h **** #ifndef STMLIB_DSP_POLYBLEP_H_
  31:mi/stmlib/dsp/polyblep.h **** #define STMLIB_DSP_POLYBLEP_H_
  32:mi/stmlib/dsp/polyblep.h **** 
  33:mi/stmlib/dsp/polyblep.h **** #include "stmlib/stmlib.h"
  34:mi/stmlib/dsp/polyblep.h **** 
  35:mi/stmlib/dsp/polyblep.h **** namespace stmlib {
  36:mi/stmlib/dsp/polyblep.h **** 
  37:mi/stmlib/dsp/polyblep.h **** inline float ThisBlepSample(float t) {
  38:mi/stmlib/dsp/polyblep.h ****   return 0.5f * t * t;
 712              		.loc 7 38 15 view .LVU234
 713 00d6 B6EE008A 		vmov.f32	s16, #5.0e-1
 714              	.LBE288:
 715              	.LBE287:
  99:mi/plaits/dsp/oscillator/variable_saw_oscillator.h ****         const float t = (phase_ - pw) / (previous_pw_ - pw + frequency);
 716              		.loc 4 99 60 view .LVU235
 717 00da DFED640A 		vldr.32	s1, .L40
 100:mi/plaits/dsp/oscillator/variable_saw_oscillator.h ****         this_sample += notch * stmlib::ThisBlepSample(t);
 718              		.loc 4 100 55 view .LVU236
 719 00de 78EEE68A 		vsub.f32	s17, s17, s13
 102:mi/plaits/dsp/oscillator/variable_saw_oscillator.h ****         this_sample -= triangle_step * stmlib::ThisIntegratedBlepSample(t);
 720              		.loc 4 102 21 view .LVU237
 721 00e2 9FED635A 		vldr.32	s10, .L40+4
 722              	.LBB292:
 723              	.LBB293:
 724              	.LBB294:
  39:mi/stmlib/dsp/polyblep.h **** }
  40:mi/stmlib/dsp/polyblep.h **** 
  41:mi/stmlib/dsp/polyblep.h **** inline float NextBlepSample(float t) {
  42:mi/stmlib/dsp/polyblep.h ****   t = 1.0f - t;
  43:mi/stmlib/dsp/polyblep.h ****   return -0.5f * t * t;
  44:mi/stmlib/dsp/polyblep.h **** }
  45:mi/stmlib/dsp/polyblep.h **** 
  46:mi/stmlib/dsp/polyblep.h **** inline float NextIntegratedBlepSample(float t) {
  47:mi/stmlib/dsp/polyblep.h ****   const float t1 = 0.5f * t;
  48:mi/stmlib/dsp/polyblep.h ****   const float t2 = t1 * t1;
  49:mi/stmlib/dsp/polyblep.h ****   const float t4 = t2 * t2;
  50:mi/stmlib/dsp/polyblep.h ****   return 0.1875f - t1 + 1.5f * t2 - t4;
 725              		.loc 7 50 18 view .LVU238
 726 00e6 F4EE084A 		vmov.f32	s9, #1.875e-1
 727              	.LBE294:
 728              	.LBE293:
 729              	.LBE292:
 105:mi/plaits/dsp/oscillator/variable_saw_oscillator.h ****       } else if (phase_ >= 1.0f) {
ARM GAS  /var/folders/9k/zk1mgrrd7wg4__6zvxvr9w8m0000gn/T//ccaaKoMx.s 			page 28


 730              		.loc 4 105 15 view .LVU239
 731 00ea 0122     		movs	r2, #1
 732              	.LBB307:
 733              	.LBB301:
 734              	.LBB295:
 735              		.loc 7 50 23 view .LVU240
 736 00ec B7EE08AA 		vmov.f32	s20, #1.5e+0
 737              	.LBE295:
 738              	.LBE301:
 739              	.LBE307:
 100:mi/plaits/dsp/oscillator/variable_saw_oscillator.h ****         this_sample += notch * stmlib::ThisBlepSample(t);
 740              		.loc 4 100 60 view .LVU241
 741 00f0 78EEA38A 		vadd.f32	s17, s17, s7
 105:mi/plaits/dsp/oscillator/variable_saw_oscillator.h ****       } else if (phase_ >= 1.0f) {
 742              		.loc 4 105 15 view .LVU242
 743 00f4 0273     		strb	r2, [r0, #12]
 744              	.LBB308:
 745              	.LBB309:
  43:mi/stmlib/dsp/polyblep.h **** }
 746              		.loc 7 43 16 view .LVU243
 747 00f6 BEEE009A 		vmov.f32	s18, #-5.0e-1
 748              	.LBE309:
 749              	.LBE308:
  99:mi/plaits/dsp/oscillator/variable_saw_oscillator.h ****         const float t = (phase_ - pw) / (previous_pw_ - pw + frequency);
 750              		.loc 4 99 60 view .LVU244
 751 00fa 70EEE60A 		vsub.f32	s1, s1, s13
 100:mi/plaits/dsp/oscillator/variable_saw_oscillator.h ****         this_sample += notch * stmlib::ThisBlepSample(t);
 752              		.loc 4 100 21 view .LVU245
 753 00fe CAEEA89A 		vdiv.f32	s19, s21, s17
  99:mi/plaits/dsp/oscillator/variable_saw_oscillator.h ****         const float t = (phase_ - pw) / (previous_pw_ - pw + frequency);
 754              		.loc 4 99 21 view .LVU246
 755 0102 60EE830A 		vmul.f32	s1, s1, s6
  98:mi/plaits/dsp/oscillator/variable_saw_oscillator.h ****         const float notch = (kVariableSawNotchDepth + 1.0f - pw) * notch_amount;
 756              		.loc 4 98 47 view .LVU247
 757 0106 37EE001A 		vadd.f32	s2, s14, s0
  98:mi/plaits/dsp/oscillator/variable_saw_oscillator.h ****         const float notch = (kVariableSawNotchDepth + 1.0f - pw) * notch_amount;
 758              		.loc 4 98 61 view .LVU248
 759 010a 21EE231A 		vmul.f32	s2, s2, s7
 760              	.LVL34:
  99:mi/plaits/dsp/oscillator/variable_saw_oscillator.h ****         const float t = (phase_ - pw) / (previous_pw_ - pw + frequency);
 761              		.loc 4 99 9 is_stmt 1 view .LVU249
 100:mi/plaits/dsp/oscillator/variable_saw_oscillator.h ****         this_sample += notch * stmlib::ThisBlepSample(t);
 762              		.loc 4 100 9 view .LVU250
 101:mi/plaits/dsp/oscillator/variable_saw_oscillator.h ****         next_sample += notch * stmlib::NextBlepSample(t);
 763              		.loc 4 101 9 view .LVU251
 764              	.LBB314:
 765              	.LBI287:
  37:mi/stmlib/dsp/polyblep.h ****   return 0.5f * t * t;
 766              		.loc 7 37 14 view .LVU252
 767              	.LBB289:
  38:mi/stmlib/dsp/polyblep.h **** }
 768              		.loc 7 38 3 view .LVU253
 769              	.LBE289:
 770              	.LBE314:
 103:mi/plaits/dsp/oscillator/variable_saw_oscillator.h ****         next_sample -= triangle_step * stmlib::NextIntegratedBlepSample(t);
 771              		.loc 4 103 21 is_stmt 0 view .LVU254
 772 010e 24EE411A 		vnmul.f32	s2, s8, s2
ARM GAS  /var/folders/9k/zk1mgrrd7wg4__6zvxvr9w8m0000gn/T//ccaaKoMx.s 			page 29


 773              	.LVL35:
 774              	.LBB315:
 775              	.LBB310:
  42:mi/stmlib/dsp/polyblep.h ****   return -0.5f * t * t;
 776              		.loc 7 42 5 view .LVU255
 777 0112 36EE696A 		vsub.f32	s12, s12, s19
 778              	.LBE310:
 779              	.LBE315:
 780              	.LBB316:
 781              	.LBB290:
  38:mi/stmlib/dsp/polyblep.h **** }
 782              		.loc 7 38 15 view .LVU256
 783 0116 69EE88AA 		vmul.f32	s21, s19, s16
 784              	.LVL36:
  38:mi/stmlib/dsp/polyblep.h **** }
 785              		.loc 7 38 15 view .LVU257
 786              	.LBE290:
 787              	.LBE316:
 788              	.LBB317:
 789              	.LBB302:
 790              	.LBB296:
  47:mi/stmlib/dsp/polyblep.h ****   const float t2 = t1 * t1;
 791              		.loc 7 47 15 view .LVU258
 792 011a 26EE088A 		vmul.f32	s16, s12, s16
 793              	.LBE296:
 794              	.LBE302:
 795              	.LBE317:
 796              	.LBB318:
 797              	.LBB319:
 798              		.loc 7 50 18 view .LVU259
 799 011e 74EEEA8A 		vsub.f32	s17, s9, s21
  48:mi/stmlib/dsp/polyblep.h ****   const float t4 = t2 * t2;
 800              		.loc 7 48 15 view .LVU260
 801 0122 2AEEAABA 		vmul.f32	s22, s21, s21
 802              	.LBE319:
 803              	.LBE318:
 804              	.LBB325:
 805              	.LBB291:
  38:mi/stmlib/dsp/polyblep.h **** }
 806              		.loc 7 38 21 view .LVU261
 807 0126 69EEAA9A 		vmul.f32	s19, s19, s21
 808              	.LVL37:
  38:mi/stmlib/dsp/polyblep.h **** }
 809              		.loc 7 38 21 view .LVU262
 810              	.LBE291:
 811              	.LBE325:
 812              	.LBB326:
 813              	.LBB303:
 814              	.LBB297:
 815              		.loc 7 50 18 view .LVU263
 816 012a 74EEC84A 		vsub.f32	s9, s9, s16
  48:mi/stmlib/dsp/polyblep.h ****   const float t4 = t2 * t2;
 817              		.loc 7 48 15 view .LVU264
 818 012e 68EE08AA 		vmul.f32	s21, s16, s16
 819              	.LBE297:
 820              	.LBE303:
 821              	.LBE326:
ARM GAS  /var/folders/9k/zk1mgrrd7wg4__6zvxvr9w8m0000gn/T//ccaaKoMx.s 			page 30


 822              	.LBB327:
 823              	.LBB320:
 824              		.loc 7 50 23 view .LVU265
 825 0132 B0EE688A 		vmov.f32	s16, s17
 826              	.LBE320:
 827              	.LBE327:
 828              	.LBB328:
 829              	.LBB311:
  43:mi/stmlib/dsp/polyblep.h **** }
 830              		.loc 7 43 16 view .LVU266
 831 0136 26EE099A 		vmul.f32	s18, s12, s18
 832              	.LBE311:
 833              	.LBE328:
 834              	.LBB329:
 835              	.LBB304:
 836              	.LBB298:
 837              		.loc 7 50 23 view .LVU267
 838 013a EAEE8A4A 		vfma.f32	s9, s21, s20
 839              	.LBE298:
 840              	.LBE304:
 841              	.LBE329:
 842              	.LBB330:
 843              	.LBB321:
 844 013e ABEE0A8A 		vfma.f32	s16, s22, s20
 845              	.LBE321:
 846              	.LBE330:
 847              	.LBB331:
 848              	.LBB312:
  43:mi/stmlib/dsp/polyblep.h **** }
 849              		.loc 7 43 22 view .LVU268
 850 0142 69EE068A 		vmul.f32	s17, s18, s12
 851              	.LBE312:
 852              	.LBE331:
 102:mi/plaits/dsp/oscillator/variable_saw_oscillator.h ****         this_sample -= triangle_step * stmlib::ThisIntegratedBlepSample(t);
 853              		.loc 4 102 21 view .LVU269
 854 0146 B0EE456A 		vmov.f32	s12, s10
 101:mi/plaits/dsp/oscillator/variable_saw_oscillator.h ****         next_sample += notch * stmlib::NextBlepSample(t);
 855              		.loc 4 101 21 view .LVU270
 856 014a E0EEA95A 		vfma.f32	s11, s1, s19
 857              	.LVL38:
 102:mi/plaits/dsp/oscillator/variable_saw_oscillator.h ****         this_sample -= triangle_step * stmlib::ThisIntegratedBlepSample(t);
 858              		.loc 4 102 9 is_stmt 1 view .LVU271
 859              	.LBB332:
 860              	.LBI308:
  41:mi/stmlib/dsp/polyblep.h ****   t = 1.0f - t;
 861              		.loc 7 41 14 view .LVU272
 862              	.LBB313:
  42:mi/stmlib/dsp/polyblep.h ****   return -0.5f * t * t;
 863              		.loc 7 42 3 view .LVU273
  43:mi/stmlib/dsp/polyblep.h **** }
 864              		.loc 7 43 3 view .LVU274
  43:mi/stmlib/dsp/polyblep.h **** }
 865              		.loc 7 43 3 is_stmt 0 view .LVU275
 866              	.LBE313:
 867              	.LBE332:
 102:mi/plaits/dsp/oscillator/variable_saw_oscillator.h ****         this_sample -= triangle_step * stmlib::ThisIntegratedBlepSample(t);
 868              		.loc 4 102 21 view .LVU276
ARM GAS  /var/folders/9k/zk1mgrrd7wg4__6zvxvr9w8m0000gn/T//ccaaKoMx.s 			page 31


 869 014e A0EEA86A 		vfma.f32	s12, s1, s17
 870              	.LVL39:
 103:mi/plaits/dsp/oscillator/variable_saw_oscillator.h ****         next_sample -= triangle_step * stmlib::NextIntegratedBlepSample(t);
 871              		.loc 4 103 9 is_stmt 1 view .LVU277
 872              	.LBB333:
 873              	.LBI292:
  51:mi/stmlib/dsp/polyblep.h **** }
  52:mi/stmlib/dsp/polyblep.h **** 
  53:mi/stmlib/dsp/polyblep.h **** inline float ThisIntegratedBlepSample(float t) {
 874              		.loc 7 53 14 view .LVU278
 875              	.LBE333:
 876              	.LBE286:
 877              	.LBE395:
 878              	.LBE402:
  54:mi/stmlib/dsp/polyblep.h ****   return NextIntegratedBlepSample(1.0f - t);
 879              		.loc 7 54 3 view .LVU279
 880              	.LBB403:
 881              	.LBB396:
 882              	.LBB339:
 883              	.LBB334:
 884              	.LBB305:
 885              	.LBI293:
  46:mi/stmlib/dsp/polyblep.h ****   const float t1 = 0.5f * t;
 886              		.loc 7 46 14 view .LVU280
 887              	.LBB299:
  47:mi/stmlib/dsp/polyblep.h ****   const float t2 = t1 * t1;
 888              		.loc 7 47 3 view .LVU281
  48:mi/stmlib/dsp/polyblep.h ****   const float t4 = t2 * t2;
 889              		.loc 7 48 3 view .LVU282
  49:mi/stmlib/dsp/polyblep.h ****   return 0.1875f - t1 + 1.5f * t2 - t4;
 890              		.loc 7 49 3 view .LVU283
  50:mi/stmlib/dsp/polyblep.h **** }
 891              		.loc 7 50 3 view .LVU284
 892              	.LBE299:
 893              	.LBE305:
 894              	.LBE334:
 895              	.LBB335:
 896              	.LBB322:
  50:mi/stmlib/dsp/polyblep.h **** }
 897              		.loc 7 50 37 is_stmt 0 view .LVU285
 898 0152 B0EE485A 		vmov.f32	s10, s16
 899              	.LBE322:
 900              	.LBE335:
 901              	.LBB336:
 902              	.LBB306:
 903              	.LBB300:
 904 0156 EAEEEA4A 		vfms.f32	s9, s21, s21
 905              	.LVL40:
  50:mi/stmlib/dsp/polyblep.h **** }
 906              		.loc 7 50 37 view .LVU286
 907              	.LBE300:
 908              	.LBE306:
 909              	.LBE336:
 910              	.LBB337:
 911              	.LBB323:
 912 015a ABEE4B5A 		vfms.f32	s10, s22, s22
 913              	.LBE323:
ARM GAS  /var/folders/9k/zk1mgrrd7wg4__6zvxvr9w8m0000gn/T//ccaaKoMx.s 			page 32


 914              	.LBE337:
 103:mi/plaits/dsp/oscillator/variable_saw_oscillator.h ****         next_sample -= triangle_step * stmlib::NextIntegratedBlepSample(t);
 915              		.loc 4 103 21 view .LVU287
 916 015e E1EE245A 		vfma.f32	s11, s2, s9
 917              	.LVL41:
 104:mi/plaits/dsp/oscillator/variable_saw_oscillator.h ****         high_ = true;
 918              		.loc 4 104 9 is_stmt 1 view .LVU288
 919              	.LBB338:
 920              	.LBI318:
  46:mi/stmlib/dsp/polyblep.h ****   const float t1 = 0.5f * t;
 921              		.loc 7 46 14 view .LVU289
 922              	.LBB324:
  47:mi/stmlib/dsp/polyblep.h ****   const float t2 = t1 * t1;
 923              		.loc 7 47 3 view .LVU290
  48:mi/stmlib/dsp/polyblep.h ****   const float t4 = t2 * t2;
 924              		.loc 7 48 3 view .LVU291
  49:mi/stmlib/dsp/polyblep.h ****   return 0.1875f - t1 + 1.5f * t2 - t4;
 925              		.loc 7 49 3 view .LVU292
  50:mi/stmlib/dsp/polyblep.h **** }
 926              		.loc 7 50 3 view .LVU293
  50:mi/stmlib/dsp/polyblep.h **** }
 927              		.loc 7 50 3 is_stmt 0 view .LVU294
 928              	.LBE324:
 929              	.LBE338:
 104:mi/plaits/dsp/oscillator/variable_saw_oscillator.h ****         high_ = true;
 930              		.loc 4 104 21 view .LVU295
 931 0162 A1EE056A 		vfma.f32	s12, s2, s10
 932              	.LVL42:
 105:mi/plaits/dsp/oscillator/variable_saw_oscillator.h ****       } else if (phase_ >= 1.0f) {
 933              		.loc 4 105 9 is_stmt 1 view .LVU296
 934              	.L16:
 105:mi/plaits/dsp/oscillator/variable_saw_oscillator.h ****       } else if (phase_ >= 1.0f) {
 935              		.loc 4 105 9 is_stmt 0 view .LVU297
 936              	.LBE339:
 937              	.LBE396:
 118:mi/plaits/dsp/oscillator/variable_saw_oscillator.h ****           phase_,
 938              		.loc 4 118 7 is_stmt 1 view .LVU298
 939              	.LBB397:
 940              	.LBI272:
 135:mi/plaits/dsp/oscillator/variable_saw_oscillator.h ****       float phase,
 941              		.loc 4 135 16 view .LVU299
 942              	.LBB276:
 142:mi/plaits/dsp/oscillator/variable_saw_oscillator.h ****     float triangle = phase < pw
 943              		.loc 4 142 5 view .LVU300
 142:mi/plaits/dsp/oscillator/variable_saw_oscillator.h ****     float triangle = phase < pw
 944              		.loc 4 142 34 is_stmt 0 view .LVU301
 945 0166 F4EEE76A 		vcmpe.f32	s13, s15
 946 016a F1EE10FA 		vmrs	APSR_nzcv, FPSCR
 947 016e 3FF776AF 		bgt	.L39
 948              	.LVL43:
 143:mi/plaits/dsp/oscillator/variable_saw_oscillator.h ****         ? phase * slope_up
 949              		.loc 4 143 5 is_stmt 1 view .LVU302
 145:mi/plaits/dsp/oscillator/variable_saw_oscillator.h ****     return notch_saw * notch_amount + triangle * triangle_amount;
 950              		.loc 4 145 25 is_stmt 0 view .LVU303
 951 0172 37EEE65A 		vsub.f32	s10, s15, s13
 142:mi/plaits/dsp/oscillator/variable_saw_oscillator.h ****     float triangle = phase < pw
 952              		.loc 4 142 34 view .LVU304
ARM GAS  /var/folders/9k/zk1mgrrd7wg4__6zvxvr9w8m0000gn/T//ccaaKoMx.s 			page 33


 953 0176 DFED3D7A 		vldr.32	s15, .L40
 144:mi/plaits/dsp/oscillator/variable_saw_oscillator.h ****         : 1.0f - (phase - pw) * slope_down;
 954              		.loc 4 144 9 view .LVU305
 955 017a B7EE007A 		vmov.f32	s14, #1.0e+0
 956              	.LVL44:
 144:mi/plaits/dsp/oscillator/variable_saw_oscillator.h ****         : 1.0f - (phase - pw) * slope_down;
 957              		.loc 4 144 9 view .LVU306
 958 017e A0EE457A 		vfms.f32	s14, s0, s10
 959              	.LVL45:
 144:mi/plaits/dsp/oscillator/variable_saw_oscillator.h ****         : 1.0f - (phase - pw) * slope_down;
 960              		.loc 4 144 9 view .LVU307
 961 0182 6EE7     		b	.L20
 962              	.LVL46:
 963              	.L14:
 144:mi/plaits/dsp/oscillator/variable_saw_oscillator.h ****         : 1.0f - (phase - pw) * slope_down;
 964              		.loc 4 144 9 view .LVU308
 965              	.LBE276:
 966              	.LBE397:
 967              	.LBE403:
 106:mi/plaits/dsp/oscillator/variable_saw_oscillator.h ****         phase_ -= 1.0f;
 968              		.loc 4 106 14 is_stmt 1 view .LVU309
 969              	.LBB404:
 970              	.LBB398:
 971              	.LBB340:
 972 0184 B7EE005A 		vmov.f32	s10, #1.0e+0
 973 0188 F4EEC57A 		vcmpe.f32	s15, s10
 974 018c F1EE10FA 		vmrs	APSR_nzcv, FPSCR
 975 0190 44DB     		blt	.L32
 976              	.LBB341:
 107:mi/plaits/dsp/oscillator/variable_saw_oscillator.h ****         const float triangle_step = (slope_up + slope_down) * frequency * triangle_amount;
 977              		.loc 4 107 9 view .LVU310
 107:mi/plaits/dsp/oscillator/variable_saw_oscillator.h ****         const float triangle_step = (slope_up + slope_down) * frequency * triangle_amount;
 978              		.loc 4 107 16 is_stmt 0 view .LVU311
 979 0192 77EEC57A 		vsub.f32	s15, s15, s10
 109:mi/plaits/dsp/oscillator/variable_saw_oscillator.h ****         const float t = phase_ / frequency;
 980              		.loc 4 109 21 view .LVU312
 981 0196 DFED359A 		vldr.32	s19, .L40
 982              	.LBB342:
 983              	.LBB343:
  38:mi/stmlib/dsp/polyblep.h **** }
 984              		.loc 7 38 15 view .LVU313
 985 019a F6EE000A 		vmov.f32	s1, #5.0e-1
 986              	.LBE343:
 987              	.LBE342:
 112:mi/plaits/dsp/oscillator/variable_saw_oscillator.h ****         this_sample += triangle_step * stmlib::ThisIntegratedBlepSample(t);
 988              		.loc 4 112 21 view .LVU314
 989 019e 9FED346A 		vldr.32	s12, .L40+4
 990              	.LBB346:
 991              	.LBB347:
 992              	.LBB348:
  50:mi/stmlib/dsp/polyblep.h **** }
 993              		.loc 7 50 18 view .LVU315
 994 01a2 F4EE084A 		vmov.f32	s9, #1.875e-1
 995              	.LBE348:
 996              	.LBE347:
 997              	.LBE346:
 115:mi/plaits/dsp/oscillator/variable_saw_oscillator.h ****       }
ARM GAS  /var/folders/9k/zk1mgrrd7wg4__6zvxvr9w8m0000gn/T//ccaaKoMx.s 			page 34


 998              		.loc 4 115 15 view .LVU316
 999 01a6 0022     		movs	r2, #0
 110:mi/plaits/dsp/oscillator/variable_saw_oscillator.h ****         this_sample -= notch * stmlib::ThisBlepSample(t);
 1000              		.loc 4 110 21 view .LVU317
 1001 01a8 87EEA39A 		vdiv.f32	s18, s15, s7
 107:mi/plaits/dsp/oscillator/variable_saw_oscillator.h ****         const float triangle_step = (slope_up + slope_down) * frequency * triangle_amount;
 1002              		.loc 4 107 16 view .LVU318
 1003 01ac C0ED007A 		vstr.32	s15, [r0]
 115:mi/plaits/dsp/oscillator/variable_saw_oscillator.h ****       }
 1004              		.loc 4 115 15 view .LVU319
 1005 01b0 0273     		strb	r2, [r0, #12]
 1006              	.LBB359:
 1007              	.LBB354:
 1008              	.LBB349:
  50:mi/stmlib/dsp/polyblep.h **** }
 1009              		.loc 7 50 23 view .LVU320
 1010 01b2 B7EE08AA 		vmov.f32	s20, #1.5e+0
 1011              	.LBE349:
 1012              	.LBE354:
 1013              	.LBE359:
 1014              	.LBB360:
 1015              	.LBB361:
  43:mi/stmlib/dsp/polyblep.h **** }
 1016              		.loc 7 43 16 view .LVU321
 1017 01b6 FEEE008A 		vmov.f32	s17, #-5.0e-1
 1018              	.LBE361:
 1019              	.LBE360:
 111:mi/plaits/dsp/oscillator/variable_saw_oscillator.h ****         next_sample -= notch * stmlib::NextBlepSample(t);
 1020              		.loc 4 111 21 view .LVU322
 1021 01ba 69EEC39A 		vnmul.f32	s19, s19, s6
 108:mi/plaits/dsp/oscillator/variable_saw_oscillator.h ****         const float notch = (kVariableSawNotchDepth + 1.0f) * notch_amount;
 1022              		.loc 4 108 47 view .LVU323
 1023 01be 37EE001A 		vadd.f32	s2, s14, s0
 108:mi/plaits/dsp/oscillator/variable_saw_oscillator.h ****         const float notch = (kVariableSawNotchDepth + 1.0f) * notch_amount;
 1024              		.loc 4 108 9 is_stmt 1 view .LVU324
 108:mi/plaits/dsp/oscillator/variable_saw_oscillator.h ****         const float notch = (kVariableSawNotchDepth + 1.0f) * notch_amount;
 1025              		.loc 4 108 61 is_stmt 0 view .LVU325
 1026 01c2 21EE231A 		vmul.f32	s2, s2, s7
 108:mi/plaits/dsp/oscillator/variable_saw_oscillator.h ****         const float notch = (kVariableSawNotchDepth + 1.0f) * notch_amount;
 1027              		.loc 4 108 21 view .LVU326
 1028 01c6 21EE041A 		vmul.f32	s2, s2, s8
 1029              	.LVL47:
 109:mi/plaits/dsp/oscillator/variable_saw_oscillator.h ****         const float t = phase_ / frequency;
 1030              		.loc 4 109 9 is_stmt 1 view .LVU327
 110:mi/plaits/dsp/oscillator/variable_saw_oscillator.h ****         this_sample -= notch * stmlib::ThisBlepSample(t);
 1031              		.loc 4 110 9 view .LVU328
 111:mi/plaits/dsp/oscillator/variable_saw_oscillator.h ****         next_sample -= notch * stmlib::NextBlepSample(t);
 1032              		.loc 4 111 9 view .LVU329
 1033              	.LBB366:
 1034              	.LBI342:
  37:mi/stmlib/dsp/polyblep.h ****   return 0.5f * t * t;
 1035              		.loc 7 37 14 view .LVU330
 1036              	.LBB344:
  38:mi/stmlib/dsp/polyblep.h **** }
 1037              		.loc 7 38 3 view .LVU331
  38:mi/stmlib/dsp/polyblep.h **** }
 1038              		.loc 7 38 15 is_stmt 0 view .LVU332
ARM GAS  /var/folders/9k/zk1mgrrd7wg4__6zvxvr9w8m0000gn/T//ccaaKoMx.s 			page 35


 1039 01ca 69EE20AA 		vmul.f32	s21, s18, s1
 1040              	.LVL48:
  38:mi/stmlib/dsp/polyblep.h **** }
 1041              		.loc 7 38 15 view .LVU333
 1042              	.LBE344:
 1043              	.LBE366:
 1044              	.LBB367:
 1045              	.LBB362:
  42:mi/stmlib/dsp/polyblep.h ****   return -0.5f * t * t;
 1046              		.loc 7 42 5 view .LVU334
 1047 01ce 35EE495A 		vsub.f32	s10, s10, s18
 1048              	.LBE362:
 1049              	.LBE367:
 1050              	.LBB368:
 1051              	.LBB369:
  50:mi/stmlib/dsp/polyblep.h **** }
 1052              		.loc 7 50 18 view .LVU335
 1053 01d2 34EEEA8A 		vsub.f32	s16, s9, s21
 1054              	.LBE369:
 1055              	.LBE368:
 1056              	.LBB375:
 1057              	.LBB355:
 1058              	.LBB350:
  47:mi/stmlib/dsp/polyblep.h ****   const float t2 = t1 * t1;
 1059              		.loc 7 47 15 view .LVU336
 1060 01d6 65EE200A 		vmul.f32	s1, s10, s1
 1061              	.LBE350:
 1062              	.LBE355:
 1063              	.LBE375:
 1064              	.LBB376:
 1065              	.LBB370:
  48:mi/stmlib/dsp/polyblep.h ****   const float t4 = t2 * t2;
 1066              		.loc 7 48 15 view .LVU337
 1067 01da 2AEEAABA 		vmul.f32	s22, s21, s21
 1068              	.LBE370:
 1069              	.LBE376:
 1070              	.LBB377:
 1071              	.LBB345:
  38:mi/stmlib/dsp/polyblep.h **** }
 1072              		.loc 7 38 21 view .LVU338
 1073 01de 29EE2A9A 		vmul.f32	s18, s18, s21
 1074              	.LVL49:
  38:mi/stmlib/dsp/polyblep.h **** }
 1075              		.loc 7 38 21 view .LVU339
 1076              	.LBE345:
 1077              	.LBE377:
 1078              	.LBB378:
 1079              	.LBB356:
 1080              	.LBB351:
  50:mi/stmlib/dsp/polyblep.h **** }
 1081              		.loc 7 50 18 view .LVU340
 1082 01e2 74EEE04A 		vsub.f32	s9, s9, s1
  48:mi/stmlib/dsp/polyblep.h ****   const float t4 = t2 * t2;
 1083              		.loc 7 48 15 view .LVU341
 1084 01e6 60EEA0AA 		vmul.f32	s21, s1, s1
 1085              	.LBE351:
 1086              	.LBE356:
ARM GAS  /var/folders/9k/zk1mgrrd7wg4__6zvxvr9w8m0000gn/T//ccaaKoMx.s 			page 36


 1087              	.LBE378:
 1088              	.LBB379:
 1089              	.LBB371:
  50:mi/stmlib/dsp/polyblep.h **** }
 1090              		.loc 7 50 23 view .LVU342
 1091 01ea F0EE480A 		vmov.f32	s1, s16
 1092              	.LBE371:
 1093              	.LBE379:
 1094              	.LBB380:
 1095              	.LBB363:
  43:mi/stmlib/dsp/polyblep.h **** }
 1096              		.loc 7 43 16 view .LVU343
 1097 01ee 65EE288A 		vmul.f32	s17, s10, s17
 1098              	.LBE363:
 1099              	.LBE380:
 1100              	.LBB381:
 1101              	.LBB357:
 1102              	.LBB352:
  50:mi/stmlib/dsp/polyblep.h **** }
 1103              		.loc 7 50 23 view .LVU344
 1104 01f2 EAEE8A4A 		vfma.f32	s9, s21, s20
 1105              	.LBE352:
 1106              	.LBE357:
 1107              	.LBE381:
 1108              	.LBB382:
 1109              	.LBB372:
 1110 01f6 EBEE0A0A 		vfma.f32	s1, s22, s20
 1111              	.LBE372:
 1112              	.LBE382:
 1113              	.LBB383:
 1114              	.LBB364:
  43:mi/stmlib/dsp/polyblep.h **** }
 1115              		.loc 7 43 22 view .LVU345
 1116 01fa 28EE855A 		vmul.f32	s10, s17, s10
 1117              	.LBE364:
 1118              	.LBE383:
 111:mi/plaits/dsp/oscillator/variable_saw_oscillator.h ****         next_sample -= notch * stmlib::NextBlepSample(t);
 1119              		.loc 4 111 21 view .LVU346
 1120 01fe E9EE895A 		vfma.f32	s11, s19, s18
 1121              	.LVL50:
 112:mi/plaits/dsp/oscillator/variable_saw_oscillator.h ****         this_sample += triangle_step * stmlib::ThisIntegratedBlepSample(t);
 1122              		.loc 4 112 9 is_stmt 1 view .LVU347
 1123              	.LBB384:
 1124              	.LBI360:
  41:mi/stmlib/dsp/polyblep.h ****   t = 1.0f - t;
 1125              		.loc 7 41 14 view .LVU348
 1126              	.LBB365:
  42:mi/stmlib/dsp/polyblep.h ****   return -0.5f * t * t;
 1127              		.loc 7 42 3 view .LVU349
  43:mi/stmlib/dsp/polyblep.h **** }
 1128              		.loc 7 43 3 view .LVU350
  43:mi/stmlib/dsp/polyblep.h **** }
 1129              		.loc 7 43 3 is_stmt 0 view .LVU351
 1130              	.LBE365:
 1131              	.LBE384:
 112:mi/plaits/dsp/oscillator/variable_saw_oscillator.h ****         this_sample += triangle_step * stmlib::ThisIntegratedBlepSample(t);
 1132              		.loc 4 112 21 view .LVU352
ARM GAS  /var/folders/9k/zk1mgrrd7wg4__6zvxvr9w8m0000gn/T//ccaaKoMx.s 			page 37


 1133 0202 A9EE856A 		vfma.f32	s12, s19, s10
 1134              	.LVL51:
 113:mi/plaits/dsp/oscillator/variable_saw_oscillator.h ****         next_sample += triangle_step * stmlib::NextIntegratedBlepSample(t);
 1135              		.loc 4 113 9 is_stmt 1 view .LVU353
 1136              	.LBB385:
 1137              	.LBI346:
  53:mi/stmlib/dsp/polyblep.h ****   return NextIntegratedBlepSample(1.0f - t);
 1138              		.loc 7 53 14 view .LVU354
 1139              	.LBE385:
 1140              	.LBE341:
 1141              	.LBE340:
 1142              	.LBE398:
 1143              	.LBE404:
 1144              		.loc 7 54 3 view .LVU355
 1145              	.LBB405:
 1146              	.LBB399:
 1147              	.LBB390:
 1148              	.LBB389:
 1149              	.LBB386:
 1150              	.LBB358:
 1151              	.LBI347:
  46:mi/stmlib/dsp/polyblep.h ****   const float t1 = 0.5f * t;
 1152              		.loc 7 46 14 view .LVU356
 1153              	.LBB353:
  47:mi/stmlib/dsp/polyblep.h ****   const float t2 = t1 * t1;
 1154              		.loc 7 47 3 view .LVU357
  48:mi/stmlib/dsp/polyblep.h ****   const float t4 = t2 * t2;
 1155              		.loc 7 48 3 view .LVU358
  49:mi/stmlib/dsp/polyblep.h ****   return 0.1875f - t1 + 1.5f * t2 - t4;
 1156              		.loc 7 49 3 view .LVU359
  50:mi/stmlib/dsp/polyblep.h **** }
 1157              		.loc 7 50 3 view .LVU360
  50:mi/stmlib/dsp/polyblep.h **** }
 1158              		.loc 7 50 37 is_stmt 0 view .LVU361
 1159 0206 EAEEEA4A 		vfms.f32	s9, s21, s21
 1160              	.LVL52:
  50:mi/stmlib/dsp/polyblep.h **** }
 1161              		.loc 7 50 37 view .LVU362
 1162              	.LBE353:
 1163              	.LBE358:
 1164              	.LBE386:
 1165              	.LBB387:
 1166              	.LBB373:
 1167 020a B0EE605A 		vmov.f32	s10, s1
 1168 020e ABEE4B5A 		vfms.f32	s10, s22, s22
 1169              	.LBE373:
 1170              	.LBE387:
 113:mi/plaits/dsp/oscillator/variable_saw_oscillator.h ****         next_sample += triangle_step * stmlib::NextIntegratedBlepSample(t);
 1171              		.loc 4 113 21 view .LVU363
 1172 0212 E1EE245A 		vfma.f32	s11, s2, s9
 1173              	.LVL53:
 114:mi/plaits/dsp/oscillator/variable_saw_oscillator.h ****         high_ = false;
 1174              		.loc 4 114 9 is_stmt 1 view .LVU364
 1175              	.LBB388:
 1176              	.LBI368:
  46:mi/stmlib/dsp/polyblep.h ****   const float t1 = 0.5f * t;
 1177              		.loc 7 46 14 view .LVU365
ARM GAS  /var/folders/9k/zk1mgrrd7wg4__6zvxvr9w8m0000gn/T//ccaaKoMx.s 			page 38


 1178              	.LBB374:
  47:mi/stmlib/dsp/polyblep.h ****   const float t2 = t1 * t1;
 1179              		.loc 7 47 3 view .LVU366
  48:mi/stmlib/dsp/polyblep.h ****   const float t4 = t2 * t2;
 1180              		.loc 7 48 3 view .LVU367
  49:mi/stmlib/dsp/polyblep.h ****   return 0.1875f - t1 + 1.5f * t2 - t4;
 1181              		.loc 7 49 3 view .LVU368
  50:mi/stmlib/dsp/polyblep.h **** }
 1182              		.loc 7 50 3 view .LVU369
  50:mi/stmlib/dsp/polyblep.h **** }
 1183              		.loc 7 50 3 is_stmt 0 view .LVU370
 1184              	.LBE374:
 1185              	.LBE388:
 114:mi/plaits/dsp/oscillator/variable_saw_oscillator.h ****         high_ = false;
 1186              		.loc 4 114 21 view .LVU371
 1187 0216 A1EE056A 		vfma.f32	s12, s2, s10
 1188              	.LVL54:
 115:mi/plaits/dsp/oscillator/variable_saw_oscillator.h ****       }
 1189              		.loc 4 115 9 is_stmt 1 view .LVU372
 1190              	.LBE389:
 1191 021a A4E7     		b	.L16
 1192              	.LVL55:
 1193              	.L32:
 115:mi/plaits/dsp/oscillator/variable_saw_oscillator.h ****       }
 1194              		.loc 4 115 9 is_stmt 0 view .LVU373
 1195              	.LBE390:
 1196              	.LBE399:
  85:mi/plaits/dsp/oscillator/variable_saw_oscillator.h ****     
 1197              		.loc 4 85 19 view .LVU374
 1198 021c 9FED146A 		vldr.32	s12, .L40+4
 1199 0220 A1E7     		b	.L16
 1200              	.LVL56:
 1201              	.L38:
  85:mi/plaits/dsp/oscillator/variable_saw_oscillator.h ****     
 1202              		.loc 4 85 19 view .LVU375
 1203              	.LBE405:
 130:mi/plaits/dsp/oscillator/variable_saw_oscillator.h ****   }
 1204              		.loc 4 130 5 is_stmt 1 view .LVU376
 131:mi/plaits/dsp/oscillator/variable_saw_oscillator.h **** 
 1205              		.loc 4 131 3 is_stmt 0 view .LVU377
 1206 0222 BDEC088B 		vldm	sp!, {d8-d11}
 1207              		.cfi_restore 86
 1208              		.cfi_restore 87
 1209              		.cfi_restore 84
 1210              		.cfi_restore 85
 1211              		.cfi_restore 82
 1212              		.cfi_restore 83
 1213              		.cfi_restore 80
 1214              		.cfi_restore 81
 1215              		.cfi_def_cfa_offset 0
 130:mi/plaits/dsp/oscillator/variable_saw_oscillator.h ****   }
 1216              		.loc 4 130 18 view .LVU378
 1217 0226 C0ED015A 		vstr.32	s11, [r0, #4]
 1218              	.LVL57:
 1219              	.LBB406:
 1220              	.LBI406:
  49:mi/stmlib/dsp/parameter_interpolator.h ****     *state_ = value_;
ARM GAS  /var/folders/9k/zk1mgrrd7wg4__6zvxvr9w8m0000gn/T//ccaaKoMx.s 			page 39


 1221              		.loc 6 49 3 is_stmt 1 view .LVU379
 1222              	.LBB407:
  50:mi/stmlib/dsp/parameter_interpolator.h ****   }
 1223              		.loc 6 50 5 view .LVU380
  50:mi/stmlib/dsp/parameter_interpolator.h ****   }
 1224              		.loc 6 50 13 is_stmt 0 view .LVU381
 1225 022a 80ED064A 		vstr.32	s8, [r0, #24]
 1226              	.LVL58:
  50:mi/stmlib/dsp/parameter_interpolator.h ****   }
 1227              		.loc 6 50 13 view .LVU382
 1228              	.LBE407:
 1229              	.LBE406:
 1230              	.LBB409:
 1231              	.LBI409:
  49:mi/stmlib/dsp/parameter_interpolator.h ****     *state_ = value_;
 1232              		.loc 6 49 3 is_stmt 1 view .LVU383
 1233              	.LBB410:
  50:mi/stmlib/dsp/parameter_interpolator.h ****   }
 1234              		.loc 6 50 5 view .LVU384
  50:mi/stmlib/dsp/parameter_interpolator.h ****   }
 1235              		.loc 6 50 13 is_stmt 0 view .LVU385
 1236 022e C0ED056A 		vstr.32	s13, [r0, #20]
 1237              	.LVL59:
  50:mi/stmlib/dsp/parameter_interpolator.h ****   }
 1238              		.loc 6 50 13 view .LVU386
 1239              	.LBE410:
 1240              	.LBE409:
 1241              	.LBB412:
 1242              	.LBI412:
  49:mi/stmlib/dsp/parameter_interpolator.h ****     *state_ = value_;
 1243              		.loc 6 49 3 is_stmt 1 view .LVU387
 1244              	.LBB413:
  50:mi/stmlib/dsp/parameter_interpolator.h ****   }
 1245              		.loc 6 50 5 view .LVU388
  50:mi/stmlib/dsp/parameter_interpolator.h ****   }
 1246              		.loc 6 50 13 is_stmt 0 view .LVU389
 1247 0232 C0ED043A 		vstr.32	s7, [r0, #16]
 1248              	.LVL60:
  50:mi/stmlib/dsp/parameter_interpolator.h ****   }
 1249              		.loc 6 50 13 view .LVU390
 1250              	.LBE413:
 1251              	.LBE412:
 131:mi/plaits/dsp/oscillator/variable_saw_oscillator.h **** 
 1252              		.loc 4 131 3 view .LVU391
 1253 0236 7047     		bx	lr
 1254              	.LVL61:
 1255              	.L22:
  71:mi/plaits/dsp/oscillator/variable_saw_oscillator.h ****     } else {
 1256              		.loc 4 71 10 view .LVU392
 1257 0238 F6EE007A 		vmov.f32	s15, #5.0e-1
  67:mi/plaits/dsp/oscillator/variable_saw_oscillator.h ****     }
 1258              		.loc 4 67 17 view .LVU393
 1259 023c B0EE470A 		vmov.f32	s0, s14
 1260              	.LVL62:
  67:mi/plaits/dsp/oscillator/variable_saw_oscillator.h ****     }
 1261              		.loc 4 67 17 view .LVU394
 1262 0240 EEE6     		b	.L11
ARM GAS  /var/folders/9k/zk1mgrrd7wg4__6zvxvr9w8m0000gn/T//ccaaKoMx.s 			page 40


 1263              	.LVL63:
 1264              	.L37:
  73:mi/plaits/dsp/oscillator/variable_saw_oscillator.h ****     }
 1265              		.loc 4 73 7 is_stmt 1 discriminator 2 view .LVU395
 1266 0242 B7EE007A 		vmov.f32	s14, #1.0e+0
 1267 0246 77EE677A 		vsub.f32	s15, s14, s15
 1268 024a F4EEE07A 		vcmpe.f32	s15, s1
 1269 024e F1EE10FA 		vmrs	APSR_nzcv, FPSCR
 1270 0252 58BF     		it	pl
 1271 0254 F0EE607A 		vmovpl.f32	s15, s1
 1272 0258 E2E6     		b	.L11
 1273              	.LVL64:
 1274              	.L35:
 130:mi/plaits/dsp/oscillator/variable_saw_oscillator.h ****   }
 1275              		.loc 4 130 5 view .LVU396
 130:mi/plaits/dsp/oscillator/variable_saw_oscillator.h ****   }
 1276              		.loc 4 130 18 is_stmt 0 view .LVU397
 1277 025a C0ED015A 		vstr.32	s11, [r0, #4]
 1278              	.LVL65:
 1279              	.LBB415:
  49:mi/stmlib/dsp/parameter_interpolator.h ****     *state_ = value_;
 1280              		.loc 6 49 3 is_stmt 1 view .LVU398
 1281              	.LBB408:
  50:mi/stmlib/dsp/parameter_interpolator.h ****   }
 1282              		.loc 6 50 5 view .LVU399
  50:mi/stmlib/dsp/parameter_interpolator.h ****   }
 1283              		.loc 6 50 13 is_stmt 0 view .LVU400
 1284 025e 80ED064A 		vstr.32	s8, [r0, #24]
 1285              	.LVL66:
  50:mi/stmlib/dsp/parameter_interpolator.h ****   }
 1286              		.loc 6 50 13 view .LVU401
 1287              	.LBE408:
 1288              	.LBE415:
 1289              	.LBB416:
  49:mi/stmlib/dsp/parameter_interpolator.h ****     *state_ = value_;
 1290              		.loc 6 49 3 is_stmt 1 view .LVU402
 1291              	.LBB411:
  50:mi/stmlib/dsp/parameter_interpolator.h ****   }
 1292              		.loc 6 50 5 view .LVU403
  50:mi/stmlib/dsp/parameter_interpolator.h ****   }
 1293              		.loc 6 50 13 is_stmt 0 view .LVU404
 1294 0262 C0ED056A 		vstr.32	s13, [r0, #20]
 1295              	.LVL67:
  50:mi/stmlib/dsp/parameter_interpolator.h ****   }
 1296              		.loc 6 50 13 view .LVU405
 1297              	.LBE411:
 1298              	.LBE416:
 1299              	.LBB417:
  49:mi/stmlib/dsp/parameter_interpolator.h ****     *state_ = value_;
 1300              		.loc 6 49 3 is_stmt 1 view .LVU406
 1301              	.LBB414:
  50:mi/stmlib/dsp/parameter_interpolator.h ****   }
 1302              		.loc 6 50 5 view .LVU407
  50:mi/stmlib/dsp/parameter_interpolator.h ****   }
 1303              		.loc 6 50 13 is_stmt 0 view .LVU408
 1304 0266 C0ED043A 		vstr.32	s7, [r0, #16]
 1305              	.LVL68:
ARM GAS  /var/folders/9k/zk1mgrrd7wg4__6zvxvr9w8m0000gn/T//ccaaKoMx.s 			page 41


  50:mi/stmlib/dsp/parameter_interpolator.h ****   }
 1306              		.loc 6 50 13 view .LVU409
 1307 026a 7047     		bx	lr
 1308              	.L41:
 1309              		.align	2
 1310              	.L40:
 1311 026c 9A99993F 		.word	1067030938
 1312 0270 00000000 		.word	0
 1313              	.LBE414:
 1314              	.LBE417:
 1315              		.cfi_endproc
 1316              	.LFE1478:
 1318              		.section	.text._ZNK6plaits19VirtualAnalogEngine15ComputeDetuningEf,"ax",%progbits
 1319              		.align	1
 1320              		.p2align 2,,3
 1321              		.global	_ZNK6plaits19VirtualAnalogEngine15ComputeDetuningEf
 1322              		.syntax unified
 1323              		.thumb
 1324              		.thumb_func
 1326              	_ZNK6plaits19VirtualAnalogEngine15ComputeDetuningEf:
 1327              	.LVL69:
 1328              	.LFB1502:
  56:mi/plaits/dsp/engine/virtual_analog_engine.cpp **** 
  57:mi/plaits/dsp/engine/virtual_analog_engine.cpp **** const float intervals[5] = {
  58:mi/plaits/dsp/engine/virtual_analog_engine.cpp ****   0.0f, 7.01f, 12.01f, 19.01f, 24.01f
  59:mi/plaits/dsp/engine/virtual_analog_engine.cpp **** };
  60:mi/plaits/dsp/engine/virtual_analog_engine.cpp **** 
  61:mi/plaits/dsp/engine/virtual_analog_engine.cpp **** inline float Squash(float x) {
  62:mi/plaits/dsp/engine/virtual_analog_engine.cpp ****   return x * x * (3.0f - 2.0f * x);
  63:mi/plaits/dsp/engine/virtual_analog_engine.cpp **** }
  64:mi/plaits/dsp/engine/virtual_analog_engine.cpp **** 
  65:mi/plaits/dsp/engine/virtual_analog_engine.cpp **** float VirtualAnalogEngine::ComputeDetuning(float detune) const {
 1329              		.loc 2 65 64 is_stmt 1 view -0
 1330              		.cfi_startproc
 1331              		@ args = 0, pretend = 0, frame = 0
 1332              		@ frame_needed = 0, uses_anonymous_args = 0
 1333              		@ link register save eliminated.
  66:mi/plaits/dsp/engine/virtual_analog_engine.cpp ****   detune = 2.05f * detune - 1.025f;
 1334              		.loc 2 66 3 view .LVU411
 1335              		.loc 2 66 10 is_stmt 0 view .LVU412
 1336 0000 DFED3A6A 		vldr.32	s13, .L52
  67:mi/plaits/dsp/engine/virtual_analog_engine.cpp ****   CONSTRAIN(detune, -1.0f, 1.0f);
 1337              		.loc 2 67 3 view .LVU413
 1338 0004 BFEE007A 		vmov.f32	s14, #-1.0e+0
  66:mi/plaits/dsp/engine/virtual_analog_engine.cpp ****   detune = 2.05f * detune - 1.025f;
 1339              		.loc 2 66 10 view .LVU414
 1340 0008 DFED397A 		vldr.32	s15, .L52+4
 1341 000c E0EE267A 		vfma.f32	s15, s0, s13
 1342              	.LVL70:
 1343              		.loc 2 67 3 is_stmt 1 view .LVU415
 1344 0010 F4EEC77A 		vcmpe.f32	s15, s14
 1345 0014 F1EE10FA 		vmrs	APSR_nzcv, FPSCR
 1346 0018 38D4     		bmi	.L46
 1347              		.loc 2 67 3 discriminator 2 view .LVU416
 1348 001a B7EE007A 		vmov.f32	s14, #1.0e+0
 1349 001e F4EEC77A 		vcmpe.f32	s15, s14
 1350 0022 F1EE10FA 		vmrs	APSR_nzcv, FPSCR
ARM GAS  /var/folders/9k/zk1mgrrd7wg4__6zvxvr9w8m0000gn/T//ccaaKoMx.s 			page 42


 1351 0026 02DD     		ble	.L50
 1352 0028 9FED320A 		vldr.32	s0, .L52+8
 1353              	.LVL71:
  68:mi/plaits/dsp/engine/virtual_analog_engine.cpp ****   
  69:mi/plaits/dsp/engine/virtual_analog_engine.cpp ****   float sign = detune < 0.0f ? -1.0f : 1.0f;
  70:mi/plaits/dsp/engine/virtual_analog_engine.cpp ****   detune = detune * sign * 3.9999f;
 1354              		.loc 2 70 3 view .LVU417
  71:mi/plaits/dsp/engine/virtual_analog_engine.cpp ****   MAKE_INTEGRAL_FRACTIONAL(detune);
 1355              		.loc 2 71 3 view .LVU418
 1356              		.loc 2 71 3 view .LVU419
 1357              		.loc 2 71 35 view .LVU420
  72:mi/plaits/dsp/engine/virtual_analog_engine.cpp ****   
  73:mi/plaits/dsp/engine/virtual_analog_engine.cpp ****   float a = intervals[detune_integral];
 1358              		.loc 2 73 3 view .LVU421
  74:mi/plaits/dsp/engine/virtual_analog_engine.cpp ****   float b = intervals[detune_integral + 1];
 1359              		.loc 2 74 3 view .LVU422
  75:mi/plaits/dsp/engine/virtual_analog_engine.cpp ****   return (a + (b - a) * Squash(Squash(detune_fractional))) * sign;
 1360              		.loc 2 75 3 view .LVU423
 1361              	.LBB418:
 1362              	.LBI418:
  61:mi/plaits/dsp/engine/virtual_analog_engine.cpp ****   return x * x * (3.0f - 2.0f * x);
 1363              		.loc 2 61 14 view .LVU424
 1364              	.LBB419:
  62:mi/plaits/dsp/engine/virtual_analog_engine.cpp **** }
 1365              		.loc 2 62 3 view .LVU425
  62:mi/plaits/dsp/engine/virtual_analog_engine.cpp **** }
 1366              		.loc 2 62 3 is_stmt 0 view .LVU426
 1367              	.LBE419:
 1368              	.LBE418:
 1369              	.LBB428:
 1370              	.LBI428:
  61:mi/plaits/dsp/engine/virtual_analog_engine.cpp ****   return x * x * (3.0f - 2.0f * x);
 1371              		.loc 2 61 14 is_stmt 1 view .LVU427
 1372              	.LBB429:
  62:mi/plaits/dsp/engine/virtual_analog_engine.cpp **** }
 1373              		.loc 2 62 3 view .LVU428
  62:mi/plaits/dsp/engine/virtual_analog_engine.cpp **** }
 1374              		.loc 2 62 3 is_stmt 0 view .LVU429
 1375              	.LBE429:
 1376              	.LBE428:
  76:mi/plaits/dsp/engine/virtual_analog_engine.cpp **** }
 1377              		.loc 2 76 1 view .LVU430
 1378 002c 7047     		bx	lr
 1379              	.LVL72:
 1380              	.L50:
  67:mi/plaits/dsp/engine/virtual_analog_engine.cpp ****   
 1381              		.loc 2 67 33 is_stmt 1 discriminator 6 view .LVU431
  69:mi/plaits/dsp/engine/virtual_analog_engine.cpp ****   detune = detune * sign * 3.9999f;
 1382              		.loc 2 69 3 discriminator 6 view .LVU432
  69:mi/plaits/dsp/engine/virtual_analog_engine.cpp ****   detune = detune * sign * 3.9999f;
 1383              		.loc 2 69 30 is_stmt 0 discriminator 6 view .LVU433
 1384 002e F5EEC07A 		vcmpe.f32	s15, #0
 1385 0032 F1EE10FA 		vmrs	APSR_nzcv, FPSCR
 1386 0036 2CD4     		bmi	.L51
  70:mi/plaits/dsp/engine/virtual_analog_engine.cpp ****   MAKE_INTEGRAL_FRACTIONAL(detune);
 1387              		.loc 2 70 10 discriminator 2 view .LVU434
 1388 0038 DFED2F6A 		vldr.32	s13, .L52+12
ARM GAS  /var/folders/9k/zk1mgrrd7wg4__6zvxvr9w8m0000gn/T//ccaaKoMx.s 			page 43


 1389              	.LBB432:
 1390              	.LBB420:
  62:mi/plaits/dsp/engine/virtual_analog_engine.cpp **** }
 1391              		.loc 2 62 24 discriminator 2 view .LVU435
 1392 003c B0EE087A 		vmov.f32	s14, #3.0e+0
 1393 0040 B0EE006A 		vmov.f32	s12, #2.0e+0
 1394              	.LBE420:
 1395              	.LBE432:
  73:mi/plaits/dsp/engine/virtual_analog_engine.cpp ****   float b = intervals[detune_integral + 1];
 1396              		.loc 2 73 9 discriminator 2 view .LVU436
 1397 0044 2D4B     		ldr	r3, .L52+16
  70:mi/plaits/dsp/engine/virtual_analog_engine.cpp ****   MAKE_INTEGRAL_FRACTIONAL(detune);
 1398              		.loc 2 70 10 discriminator 2 view .LVU437
 1399 0046 67EEA67A 		vmul.f32	s15, s15, s13
 1400              	.LVL73:
 1401              	.LBB433:
 1402              	.LBB421:
  62:mi/plaits/dsp/engine/virtual_analog_engine.cpp **** }
 1403              		.loc 2 62 24 discriminator 2 view .LVU438
 1404 004a F0EE475A 		vmov.f32	s11, s14
 1405              	.LBE421:
 1406              	.LBE433:
  71:mi/plaits/dsp/engine/virtual_analog_engine.cpp ****   
 1407              		.loc 2 71 3 discriminator 2 view .LVU439
 1408 004e FDEEE76A 		vcvt.s32.f32	s13, s15
 1409 0052 16EE902A 		vmov	r2, s13	@ int
 1410 0056 F8EEE66A 		vcvt.f32.s32	s13, s13
  73:mi/plaits/dsp/engine/virtual_analog_engine.cpp ****   float b = intervals[detune_integral + 1];
 1411              		.loc 2 73 9 discriminator 2 view .LVU440
 1412 005a 03EB8201 		add	r1, r3, r2, lsl #2
  71:mi/plaits/dsp/engine/virtual_analog_engine.cpp ****   
 1413              		.loc 2 71 3 discriminator 2 view .LVU441
 1414 005e 77EEE67A 		vsub.f32	s15, s15, s13
  73:mi/plaits/dsp/engine/virtual_analog_engine.cpp ****   float b = intervals[detune_integral + 1];
 1415              		.loc 2 73 9 discriminator 2 view .LVU442
 1416 0062 91ED000A 		vldr.32	s0, [r1]
 1417              	.LVL74:
  75:mi/plaits/dsp/engine/virtual_analog_engine.cpp **** }
 1418              		.loc 2 75 18 discriminator 2 view .LVU443
 1419 0066 D1ED016A 		vldr.32	s13, [r1, #4]
 1420              	.LBB434:
 1421              	.LBB422:
  62:mi/plaits/dsp/engine/virtual_analog_engine.cpp **** }
 1422              		.loc 2 62 24 discriminator 2 view .LVU444
 1423 006a E7EEC65A 		vfms.f32	s11, s15, s12
  62:mi/plaits/dsp/engine/virtual_analog_engine.cpp **** }
 1424              		.loc 2 62 12 discriminator 2 view .LVU445
 1425 006e 67EEA77A 		vmul.f32	s15, s15, s15
 1426              	.LBE422:
 1427              	.LBE434:
  75:mi/plaits/dsp/engine/virtual_analog_engine.cpp **** }
 1428              		.loc 2 75 18 discriminator 2 view .LVU446
 1429 0072 76EEC06A 		vsub.f32	s13, s13, s0
 1430              	.LBB435:
 1431              	.LBB423:
  62:mi/plaits/dsp/engine/virtual_analog_engine.cpp **** }
 1432              		.loc 2 62 34 discriminator 2 view .LVU447
ARM GAS  /var/folders/9k/zk1mgrrd7wg4__6zvxvr9w8m0000gn/T//ccaaKoMx.s 			page 44


 1433 0076 67EEA57A 		vmul.f32	s15, s15, s11
 1434              	.LBE423:
 1435              	.LBE435:
 1436              	.LBB436:
 1437              	.LBB430:
  62:mi/plaits/dsp/engine/virtual_analog_engine.cpp **** }
 1438              		.loc 2 62 24 discriminator 2 view .LVU448
 1439 007a A7EEC67A 		vfms.f32	s14, s15, s12
  62:mi/plaits/dsp/engine/virtual_analog_engine.cpp **** }
 1440              		.loc 2 62 12 discriminator 2 view .LVU449
 1441 007e 67EEA77A 		vmul.f32	s15, s15, s15
  62:mi/plaits/dsp/engine/virtual_analog_engine.cpp **** }
 1442              		.loc 2 62 34 discriminator 2 view .LVU450
 1443 0082 67EE877A 		vmul.f32	s15, s15, s14
 1444              	.LBE430:
 1445              	.LBE436:
  75:mi/plaits/dsp/engine/virtual_analog_engine.cpp **** }
 1446              		.loc 2 75 13 discriminator 2 view .LVU451
 1447 0086 A6EEA70A 		vfma.f32	s0, s13, s15
 1448 008a 7047     		bx	lr
 1449              	.LVL75:
 1450              	.L46:
  75:mi/plaits/dsp/engine/virtual_analog_engine.cpp **** }
 1451              		.loc 2 75 13 discriminator 2 view .LVU452
 1452 008c 9FED1C0A 		vldr.32	s0, .L52+20
 1453 0090 7047     		bx	lr
 1454              	.L51:
  70:mi/plaits/dsp/engine/virtual_analog_engine.cpp ****   MAKE_INTEGRAL_FRACTIONAL(detune);
 1455              		.loc 2 70 10 view .LVU453
 1456 0092 9FED197A 		vldr.32	s14, .L52+12
 1457              	.LBB437:
 1458              	.LBB424:
  62:mi/plaits/dsp/engine/virtual_analog_engine.cpp **** }
 1459              		.loc 2 62 24 view .LVU454
 1460 0096 F0EE086A 		vmov.f32	s13, #3.0e+0
 1461 009a F0EE005A 		vmov.f32	s11, #2.0e+0
 1462              	.LBE424:
 1463              	.LBE437:
  73:mi/plaits/dsp/engine/virtual_analog_engine.cpp ****   float b = intervals[detune_integral + 1];
 1464              		.loc 2 73 9 view .LVU455
 1465 009e 174B     		ldr	r3, .L52+16
  70:mi/plaits/dsp/engine/virtual_analog_engine.cpp ****   MAKE_INTEGRAL_FRACTIONAL(detune);
 1466              		.loc 2 70 10 view .LVU456
 1467 00a0 67EEC77A 		vnmul.f32	s15, s15, s14
 1468              	.LVL76:
 1469              	.LBB438:
 1470              	.LBB425:
  62:mi/plaits/dsp/engine/virtual_analog_engine.cpp **** }
 1471              		.loc 2 62 24 view .LVU457
 1472 00a4 B0EE665A 		vmov.f32	s10, s13
 1473              	.LBE425:
 1474              	.LBE438:
  71:mi/plaits/dsp/engine/virtual_analog_engine.cpp ****   
 1475              		.loc 2 71 3 view .LVU458
 1476 00a8 BDEEE77A 		vcvt.s32.f32	s14, s15
 1477 00ac B8EEC76A 		vcvt.f32.s32	s12, s14
 1478 00b0 17EE102A 		vmov	r2, s14	@ int
ARM GAS  /var/folders/9k/zk1mgrrd7wg4__6zvxvr9w8m0000gn/T//ccaaKoMx.s 			page 45


  73:mi/plaits/dsp/engine/virtual_analog_engine.cpp ****   float b = intervals[detune_integral + 1];
 1479              		.loc 2 73 9 view .LVU459
 1480 00b4 03EB8201 		add	r1, r3, r2, lsl #2
  71:mi/plaits/dsp/engine/virtual_analog_engine.cpp ****   
 1481              		.loc 2 71 3 view .LVU460
 1482 00b8 77EEC67A 		vsub.f32	s15, s15, s12
  73:mi/plaits/dsp/engine/virtual_analog_engine.cpp ****   float b = intervals[detune_integral + 1];
 1483              		.loc 2 73 9 view .LVU461
 1484 00bc 91ED007A 		vldr.32	s14, [r1]
  75:mi/plaits/dsp/engine/virtual_analog_engine.cpp **** }
 1485              		.loc 2 75 18 view .LVU462
 1486 00c0 91ED016A 		vldr.32	s12, [r1, #4]
 1487              	.LBB439:
 1488              	.LBB426:
  62:mi/plaits/dsp/engine/virtual_analog_engine.cpp **** }
 1489              		.loc 2 62 24 view .LVU463
 1490 00c4 A7EEE55A 		vfms.f32	s10, s15, s11
  62:mi/plaits/dsp/engine/virtual_analog_engine.cpp **** }
 1491              		.loc 2 62 12 view .LVU464
 1492 00c8 67EEA77A 		vmul.f32	s15, s15, s15
 1493              	.LBE426:
 1494              	.LBE439:
  75:mi/plaits/dsp/engine/virtual_analog_engine.cpp **** }
 1495              		.loc 2 75 18 view .LVU465
 1496 00cc 36EE476A 		vsub.f32	s12, s12, s14
 1497              	.LBB440:
 1498              	.LBB427:
  62:mi/plaits/dsp/engine/virtual_analog_engine.cpp **** }
 1499              		.loc 2 62 34 view .LVU466
 1500 00d0 67EE857A 		vmul.f32	s15, s15, s10
 1501              	.LBE427:
 1502              	.LBE440:
 1503              	.LBB441:
 1504              	.LBB431:
  62:mi/plaits/dsp/engine/virtual_analog_engine.cpp **** }
 1505              		.loc 2 62 24 view .LVU467
 1506 00d4 E7EEE56A 		vfms.f32	s13, s15, s11
  62:mi/plaits/dsp/engine/virtual_analog_engine.cpp **** }
 1507              		.loc 2 62 12 view .LVU468
 1508 00d8 67EEA77A 		vmul.f32	s15, s15, s15
  62:mi/plaits/dsp/engine/virtual_analog_engine.cpp **** }
 1509              		.loc 2 62 34 view .LVU469
 1510 00dc 67EEA67A 		vmul.f32	s15, s15, s13
 1511              	.LBE431:
 1512              	.LBE441:
  75:mi/plaits/dsp/engine/virtual_analog_engine.cpp **** }
 1513              		.loc 2 75 13 view .LVU470
 1514 00e0 A6EE277A 		vfma.f32	s14, s12, s15
 1515 00e4 B1EE470A 		vneg.f32	s0, s14
 1516              	.LVL77:
  75:mi/plaits/dsp/engine/virtual_analog_engine.cpp **** }
 1517              		.loc 2 75 13 view .LVU471
 1518 00e8 7047     		bx	lr
 1519              	.L53:
 1520 00ea 00BF     		.align	2
 1521              	.L52:
 1522 00ec 33330340 		.word	1073951539
ARM GAS  /var/folders/9k/zk1mgrrd7wg4__6zvxvr9w8m0000gn/T//ccaaKoMx.s 			page 46


 1523 00f0 333383BF 		.word	-1081920717
 1524 00f4 7B14C041 		.word	1103107195
 1525 00f8 5DFE7F40 		.word	1082130013
 1526 00fc 00000000 		.word	.LANCHOR0
 1527 0100 7B14C0C1 		.word	-1044376453
 1528              		.cfi_endproc
 1529              	.LFE1502:
 1531              		.section	.text._ZN6plaits23VariableShapeOscillator6RenderILb1ELb0EEEvfffffPfj,"axG",%progbits,_ZN6
 1532              		.align	1
 1533              		.p2align 2,,3
 1534              		.weak	_ZN6plaits23VariableShapeOscillator6RenderILb1ELb0EEEvfffffPfj
 1535              		.syntax unified
 1536              		.thumb
 1537              		.thumb_func
 1539              	_ZN6plaits23VariableShapeOscillator6RenderILb1ELb0EEEvfffffPfj:
 1540              	.LVL78:
 1541              	.LFB1507:
  92:mi/plaits/dsp/oscillator/variable_shape_oscillator.h ****       float master_frequency,
 1542              		.loc 3 92 8 is_stmt 1 view -0
 1543              		.cfi_startproc
 1544              		@ args = 0, pretend = 0, frame = 0
 1545              		@ frame_needed = 0, uses_anonymous_args = 0
 100:mi/plaits/dsp/oscillator/variable_shape_oscillator.h ****       master_frequency = kMaxFrequency;
 1546              		.loc 3 100 5 is_stmt 0 view .LVU473
 1547 0000 B5EE007A 		vmov.f32	s14, #2.5e-1
  92:mi/plaits/dsp/oscillator/variable_shape_oscillator.h ****       float master_frequency,
 1548              		.loc 3 92 8 view .LVU474
 1549 0004 10B5     		push	{r4, lr}
 1550              		.cfi_def_cfa_offset 8
 1551              		.cfi_offset 4, -8
 1552              		.cfi_offset 14, -4
 101:mi/plaits/dsp/oscillator/variable_shape_oscillator.h ****     }
 1553              		.loc 3 101 24 view .LVU475
 1554 0006 B4EE470A 		vcmp.f32	s0, s14
  92:mi/plaits/dsp/oscillator/variable_shape_oscillator.h ****       float master_frequency,
 1555              		.loc 3 92 8 view .LVU476
 1556 000a 2DED0A8B 		vpush.64	{d8, d9, d10, d11, d12}
 1557              		.cfi_def_cfa_offset 48
 1558              		.cfi_offset 80, -48
 1559              		.cfi_offset 81, -44
 1560              		.cfi_offset 82, -40
 1561              		.cfi_offset 83, -36
 1562              		.cfi_offset 84, -32
 1563              		.cfi_offset 85, -28
 1564              		.cfi_offset 86, -24
 1565              		.cfi_offset 87, -20
 1566              		.cfi_offset 88, -16
 1567              		.cfi_offset 89, -12
 101:mi/plaits/dsp/oscillator/variable_shape_oscillator.h ****     }
 1568              		.loc 3 101 24 view .LVU477
 1569 000e F1EE10FA 		vmrs	APSR_nzcv, FPSCR
 103:mi/plaits/dsp/oscillator/variable_shape_oscillator.h ****       frequency = kMaxFrequency;
 1570              		.loc 3 103 5 view .LVU478
 1571 0012 F4EEC70A 		vcmpe.f32	s1, s14
 101:mi/plaits/dsp/oscillator/variable_shape_oscillator.h ****     }
 1572              		.loc 3 101 24 view .LVU479
 1573 0016 27FE000A 		vselge.f32	s0, s14, s0
ARM GAS  /var/folders/9k/zk1mgrrd7wg4__6zvxvr9w8m0000gn/T//ccaaKoMx.s 			page 47


 1574              	.LVL79:
 103:mi/plaits/dsp/oscillator/variable_shape_oscillator.h ****       frequency = kMaxFrequency;
 1575              		.loc 3 103 5 view .LVU480
 1576 001a F1EE10FA 		vmrs	APSR_nzcv, FPSCR
 1577 001e 80F29A81 		bge	.L82
 110:mi/plaits/dsp/oscillator/variable_shape_oscillator.h ****     }
 1578              		.loc 3 110 7 view .LVU481
 1579 0022 70EEA07A 		vadd.f32	s15, s1, s1
 1580 0026 F4EEC17A 		vcmpe.f32	s15, s2
 1581 002a F1EE10FA 		vmrs	APSR_nzcv, FPSCR
 1582 002e 40F39781 		ble	.L103
 1583              	.LVL80:
 1584              	.L57:
 1585              	.LBB442:
 1586              	.LBI442:
  39:mi/stmlib/dsp/parameter_interpolator.h ****     Init(state, new_value, size);
 1587              		.loc 6 39 3 is_stmt 1 view .LVU482
 1588              	.LBE442:
  40:mi/stmlib/dsp/parameter_interpolator.h ****   }
 1589              		.loc 6 40 5 view .LVU483
 1590              	.LBB451:
 1591              	.LBB443:
 1592              	.LBI443:
  53:mi/stmlib/dsp/parameter_interpolator.h ****     state_ = state;
 1593              		.loc 6 53 15 view .LVU484
 1594              	.LBB444:
  54:mi/stmlib/dsp/parameter_interpolator.h ****     value_ = *state;
 1595              		.loc 6 54 5 view .LVU485
  55:mi/stmlib/dsp/parameter_interpolator.h ****     increment_ = (new_value - *state) / static_cast<float>(size);
 1596              		.loc 6 55 5 view .LVU486
  56:mi/stmlib/dsp/parameter_interpolator.h ****   }
 1597              		.loc 6 56 41 is_stmt 0 view .LVU487
 1598 0032 07EE102A 		vmov	s14, r2	@ int
  55:mi/stmlib/dsp/parameter_interpolator.h ****     increment_ = (new_value - *state) / static_cast<float>(size);
 1599              		.loc 6 55 14 view .LVU488
 1600 0036 D0ED058A 		vldr.32	s17, [r0, #20]
 1601              	.LVL81:
  56:mi/stmlib/dsp/parameter_interpolator.h ****   }
 1602              		.loc 6 56 5 is_stmt 1 view .LVU489
 1603              	.LBE444:
 1604              	.LBE443:
 1605              	.LBE451:
 1606              	.LBB452:
 1607              	.LBB453:
 1608              	.LBB454:
  55:mi/stmlib/dsp/parameter_interpolator.h ****     increment_ = (new_value - *state) / static_cast<float>(size);
 1609              		.loc 6 55 14 is_stmt 0 view .LVU490
 1610 003a 90ED062A 		vldr.32	s4, [r0, #24]
 1611              	.LVL82:
  55:mi/stmlib/dsp/parameter_interpolator.h ****     increment_ = (new_value - *state) / static_cast<float>(size);
 1612              		.loc 6 55 14 view .LVU491
 1613              	.LBE454:
 1614              	.LBE453:
 1615              	.LBE452:
 124:mi/plaits/dsp/oscillator/variable_shape_oscillator.h ****       bool reset = false;
 1616              		.loc 3 124 5 view .LVU492
 1617 003e 02F1FF3C 		add	ip, r2, #-1
ARM GAS  /var/folders/9k/zk1mgrrd7wg4__6zvxvr9w8m0000gn/T//ccaaKoMx.s 			page 48


 1618              	.LBB459:
 1619              	.LBB460:
 1620              	.LBB461:
  55:mi/stmlib/dsp/parameter_interpolator.h ****     increment_ = (new_value - *state) / static_cast<float>(size);
 1621              		.loc 6 55 14 view .LVU493
 1622 0042 90ED073A 		vldr.32	s6, [r0, #28]
 1623              	.LBE461:
 1624              	.LBE460:
 1625              	.LBE459:
 1626              	.LBB466:
 1627              	.LBB448:
 1628              	.LBB445:
  56:mi/stmlib/dsp/parameter_interpolator.h ****   }
 1629              		.loc 6 56 41 view .LVU494
 1630 0046 F8EE476A 		vcvt.f32.u32	s13, s14
 1631              	.LBE445:
 1632              	.LBE448:
 1633              	.LBE466:
 1634              	.LBB467:
 1635              	.LBB468:
 1636              	.LBB469:
  55:mi/stmlib/dsp/parameter_interpolator.h ****     increment_ = (new_value - *state) / static_cast<float>(size);
 1637              		.loc 6 55 14 view .LVU495
 1638 004a 90ED088A 		vldr.32	s16, [r0, #32]
 1639              	.LBE469:
 1640              	.LBE468:
 1641              	.LBE467:
 1642              	.LBB474:
 1643              	.LBB449:
 1644              	.LBB446:
  56:mi/stmlib/dsp/parameter_interpolator.h ****   }
 1645              		.loc 6 56 29 view .LVU496
 1646 004e 30EE680A 		vsub.f32	s0, s0, s17
 1647              	.LVL83:
  56:mi/stmlib/dsp/parameter_interpolator.h ****   }
 1648              		.loc 6 56 29 view .LVU497
 1649              	.LBE446:
 1650              	.LBE449:
 1651              	.LBE474:
 1652              	.LBB475:
 1653              	.LBB464:
 1654              	.LBB462:
 1655 0052 37EEC37A 		vsub.f32	s14, s15, s6
 1656              	.LBE462:
 1657              	.LBE464:
 1658              	.LBE475:
 1659              	.LBB476:
 1660              	.LBB477:
 1661              	.LBB478:
  55:mi/stmlib/dsp/parameter_interpolator.h ****     increment_ = (new_value - *state) / static_cast<float>(size);
 1662              		.loc 6 55 14 view .LVU498
 1663 0056 D0F824E0 		ldr	lr, [r0, #36]	@ float
 1664              	.LBE478:
 1665              	.LBE477:
 1666              	.LBE476:
 1667              	.LBB481:
 1668              	.LBB457:
ARM GAS  /var/folders/9k/zk1mgrrd7wg4__6zvxvr9w8m0000gn/T//ccaaKoMx.s 			page 49


 1669              	.LBB455:
  56:mi/stmlib/dsp/parameter_interpolator.h ****   }
 1670              		.loc 6 56 29 view .LVU499
 1671 005a 70EEC20A 		vsub.f32	s1, s1, s4
 1672              	.LBE455:
 1673              	.LBE457:
 1674              	.LBE481:
 122:mi/plaits/dsp/oscillator/variable_shape_oscillator.h ****     
 1675              		.loc 3 122 11 view .LVU500
 1676 005e 90ED02BA 		vldr.32	s22, [r0, #8]
 1677              	.LBB482:
 1678              	.LBB472:
 1679              	.LBB470:
  56:mi/stmlib/dsp/parameter_interpolator.h ****   }
 1680              		.loc 6 56 29 view .LVU501
 1681 0062 71EEC87A 		vsub.f32	s15, s3, s16
 1682              	.LVL84:
  56:mi/stmlib/dsp/parameter_interpolator.h ****   }
 1683              		.loc 6 56 29 view .LVU502
 1684              	.LBE470:
 1685              	.LBE472:
 1686              	.LBE482:
 1687              	.LBB483:
 1688              	.LBB450:
 1689              	.LBB447:
  56:mi/stmlib/dsp/parameter_interpolator.h ****   }
 1690              		.loc 6 56 39 view .LVU503
 1691 0066 C0EE26AA 		vdiv.f32	s21, s0, s13
 1692              	.LVL85:
  56:mi/stmlib/dsp/parameter_interpolator.h ****   }
 1693              		.loc 6 56 39 view .LVU504
 1694              	.LBE447:
 1695              	.LBE450:
 1696              	.LBE483:
 1697              	.LBB484:
 1698              	.LBI452:
  39:mi/stmlib/dsp/parameter_interpolator.h ****     Init(state, new_value, size);
 1699              		.loc 6 39 3 is_stmt 1 view .LVU505
 1700              	.LBE484:
  40:mi/stmlib/dsp/parameter_interpolator.h ****   }
 1701              		.loc 6 40 5 view .LVU506
 1702              	.LBB485:
 1703              	.LBB458:
 1704              	.LBI453:
  53:mi/stmlib/dsp/parameter_interpolator.h ****     state_ = state;
 1705              		.loc 6 53 15 view .LVU507
 1706              	.LBB456:
  54:mi/stmlib/dsp/parameter_interpolator.h ****     value_ = *state;
 1707              		.loc 6 54 5 view .LVU508
  55:mi/stmlib/dsp/parameter_interpolator.h ****     increment_ = (new_value - *state) / static_cast<float>(size);
 1708              		.loc 6 55 5 view .LVU509
  56:mi/stmlib/dsp/parameter_interpolator.h ****   }
 1709              		.loc 6 56 5 view .LVU510
  56:mi/stmlib/dsp/parameter_interpolator.h ****   }
 1710              		.loc 6 56 39 is_stmt 0 view .LVU511
 1711 006a 80EEA6AA 		vdiv.f32	s20, s1, s13
 1712              	.LVL86:
ARM GAS  /var/folders/9k/zk1mgrrd7wg4__6zvxvr9w8m0000gn/T//ccaaKoMx.s 			page 50


  56:mi/stmlib/dsp/parameter_interpolator.h ****   }
 1713              		.loc 6 56 39 view .LVU512
 1714              	.LBE456:
 1715              	.LBE458:
 1716              	.LBE485:
 1717              	.LBB486:
 1718              	.LBI459:
  39:mi/stmlib/dsp/parameter_interpolator.h ****     Init(state, new_value, size);
 1719              		.loc 6 39 3 is_stmt 1 view .LVU513
 1720              	.LBE486:
  40:mi/stmlib/dsp/parameter_interpolator.h ****   }
 1721              		.loc 6 40 5 view .LVU514
 1722              	.LBB487:
 1723              	.LBB465:
 1724              	.LBI460:
  53:mi/stmlib/dsp/parameter_interpolator.h ****     state_ = state;
 1725              		.loc 6 53 15 view .LVU515
 1726              	.LBB463:
  54:mi/stmlib/dsp/parameter_interpolator.h ****     value_ = *state;
 1727              		.loc 6 54 5 view .LVU516
  55:mi/stmlib/dsp/parameter_interpolator.h ****     increment_ = (new_value - *state) / static_cast<float>(size);
 1728              		.loc 6 55 5 view .LVU517
  56:mi/stmlib/dsp/parameter_interpolator.h ****   }
 1729              		.loc 6 56 5 view .LVU518
  56:mi/stmlib/dsp/parameter_interpolator.h ****   }
 1730              		.loc 6 56 39 is_stmt 0 view .LVU519
 1731 006e C7EE269A 		vdiv.f32	s19, s14, s13
 1732              	.LVL87:
  56:mi/stmlib/dsp/parameter_interpolator.h ****   }
 1733              		.loc 6 56 39 view .LVU520
 1734              	.LBE463:
 1735              	.LBE465:
 1736              	.LBE487:
 1737              	.LBB488:
 1738              	.LBI467:
  39:mi/stmlib/dsp/parameter_interpolator.h ****     Init(state, new_value, size);
 1739              		.loc 6 39 3 is_stmt 1 view .LVU521
 1740              	.LBE488:
  40:mi/stmlib/dsp/parameter_interpolator.h ****   }
 1741              		.loc 6 40 5 view .LVU522
 1742              	.LBB489:
 1743              	.LBB473:
 1744              	.LBI468:
  53:mi/stmlib/dsp/parameter_interpolator.h ****     state_ = state;
 1745              		.loc 6 53 15 view .LVU523
 1746              	.LBB471:
  54:mi/stmlib/dsp/parameter_interpolator.h ****     value_ = *state;
 1747              		.loc 6 54 5 view .LVU524
  55:mi/stmlib/dsp/parameter_interpolator.h ****     increment_ = (new_value - *state) / static_cast<float>(size);
 1748              		.loc 6 55 5 view .LVU525
  56:mi/stmlib/dsp/parameter_interpolator.h ****   }
 1749              		.loc 6 56 5 view .LVU526
  56:mi/stmlib/dsp/parameter_interpolator.h ****   }
 1750              		.loc 6 56 39 is_stmt 0 view .LVU527
 1751 0072 87EEA69A 		vdiv.f32	s18, s15, s13
 1752              	.LVL88:
  56:mi/stmlib/dsp/parameter_interpolator.h ****   }
ARM GAS  /var/folders/9k/zk1mgrrd7wg4__6zvxvr9w8m0000gn/T//ccaaKoMx.s 			page 51


 1753              		.loc 6 56 39 view .LVU528
 1754              	.LBE471:
 1755              	.LBE473:
 1756              	.LBE489:
 1757              	.LBB490:
 1758              	.LBI476:
  39:mi/stmlib/dsp/parameter_interpolator.h ****     Init(state, new_value, size);
 1759              		.loc 6 39 3 is_stmt 1 view .LVU529
 1760              	.LBE490:
  40:mi/stmlib/dsp/parameter_interpolator.h ****   }
 1761              		.loc 6 40 5 view .LVU530
 1762              	.LBB491:
 1763              	.LBB480:
 1764              	.LBI477:
  53:mi/stmlib/dsp/parameter_interpolator.h ****     state_ = state;
 1765              		.loc 6 53 15 view .LVU531
 1766              	.LBB479:
  54:mi/stmlib/dsp/parameter_interpolator.h ****     value_ = *state;
 1767              		.loc 6 54 5 view .LVU532
  55:mi/stmlib/dsp/parameter_interpolator.h ****     increment_ = (new_value - *state) / static_cast<float>(size);
 1768              		.loc 6 55 5 view .LVU533
  56:mi/stmlib/dsp/parameter_interpolator.h ****   }
 1769              		.loc 6 56 5 view .LVU534
  56:mi/stmlib/dsp/parameter_interpolator.h ****   }
 1770              		.loc 6 56 5 is_stmt 0 view .LVU535
 1771              	.LBE479:
 1772              	.LBE480:
 1773              	.LBE491:
 124:mi/plaits/dsp/oscillator/variable_shape_oscillator.h ****       bool reset = false;
 1774              		.loc 3 124 5 is_stmt 1 view .LVU536
 124:mi/plaits/dsp/oscillator/variable_shape_oscillator.h ****       bool reset = false;
 1775              		.loc 3 124 5 is_stmt 0 view .LVU537
 1776 0076 002A     		cmp	r2, #0
 1777 0078 00F04181 		beq	.L59
 1778              	.LVL89:
 1779              	.L80:
 1780              	.LBB492:
 1781              	.LBB493:
 1782              	.LBI493:
  59:mi/stmlib/dsp/parameter_interpolator.h ****     value_ += increment_;
 1783              		.loc 6 59 16 is_stmt 1 view .LVU538
 1784              	.LBB494:
  60:mi/stmlib/dsp/parameter_interpolator.h ****     return value_;
 1785              		.loc 6 60 5 view .LVU539
 1786              	.LBE494:
 1787              	.LBE493:
 1788              	.LBB496:
 1789              	.LBB497:
  60:mi/stmlib/dsp/parameter_interpolator.h ****     return value_;
 1790              		.loc 6 60 12 is_stmt 0 view .LVU540
 1791 007c 38EE098A 		vadd.f32	s16, s16, s18
 1792              	.LVL90:
  60:mi/stmlib/dsp/parameter_interpolator.h ****     return value_;
 1793              		.loc 6 60 12 view .LVU541
 1794              	.LBE497:
 1795              	.LBE496:
 138:mi/plaits/dsp/oscillator/variable_shape_oscillator.h ****       
ARM GAS  /var/folders/9k/zk1mgrrd7wg4__6zvxvr9w8m0000gn/T//ccaaKoMx.s 			page 52


 1796              		.loc 3 138 51 view .LVU542
 1797 0080 F0EE007A 		vmov.f32	s15, #2.0e+0
 137:mi/plaits/dsp/oscillator/variable_shape_oscillator.h ****       const float triangle_amount = std::max(1.0f - waveshape * 2.0f, 0.0f);
 1798              		.loc 3 137 54 view .LVU543
 1799 0084 F6EE002A 		vmov.f32	s5, #5.0e-1
 138:mi/plaits/dsp/oscillator/variable_shape_oscillator.h ****       
 1800              		.loc 3 138 51 view .LVU544
 1801 0088 F7EE001A 		vmov.f32	s3, #1.0e+0
 1802              	.LBB499:
 1803              	.LBB495:
  60:mi/stmlib/dsp/parameter_interpolator.h ****     return value_;
 1804              		.loc 6 60 12 view .LVU545
 1805 008c 78EEAA8A 		vadd.f32	s17, s17, s21
 1806              	.LVL91:
 1807              		.loc 6 61 5 is_stmt 1 view .LVU546
 1808              		.loc 6 61 5 is_stmt 0 view .LVU547
 1809              	.LBE495:
 1810              	.LBE499:
 1811              	.LBB500:
 1812              	.LBI500:
  59:mi/stmlib/dsp/parameter_interpolator.h ****     value_ += increment_;
 1813              		.loc 6 59 16 is_stmt 1 view .LVU548
 1814              	.LBB501:
  60:mi/stmlib/dsp/parameter_interpolator.h ****     return value_;
 1815              		.loc 6 60 5 view .LVU549
 1816              	.LBE501:
 1817              	.LBE500:
 137:mi/plaits/dsp/oscillator/variable_shape_oscillator.h ****       const float triangle_amount = std::max(1.0f - waveshape * 2.0f, 0.0f);
 1818              		.loc 3 137 54 is_stmt 0 view .LVU550
 1819 0090 78EE622A 		vsub.f32	s5, s16, s5
 138:mi/plaits/dsp/oscillator/variable_shape_oscillator.h ****       
 1820              		.loc 3 138 51 view .LVU551
 1821 0094 E8EE671A 		vfms.f32	s3, s16, s15
 1822              	.LBB503:
 144:mi/plaits/dsp/oscillator/variable_shape_oscillator.h ****         if (master_phase_ >= 1.0f) {
 1823              		.loc 3 144 23 view .LVU552
 1824 0098 D0ED007A 		vldr.32	s15, [r0]
 1825              	.LBE503:
 140:mi/plaits/dsp/oscillator/variable_shape_oscillator.h ****       const float slope_down = 1.0f / (1.0f - pw);
 1826              		.loc 3 140 19 view .LVU553
 1827 009c B7EE007A 		vmov.f32	s14, #1.0e+0
 1828              	.LBB536:
 1829              	.LBB537:
 1830              		.file 8 "/Library/DaisyToolchain/0.2.0/arm/arm-none-eabi/include/c++/10.3.1/bits/stl_algobase.h"
   1:/Library/DaisyToolchain/0.2.0/arm/arm-none-eabi/include/c++/10.3.1/bits/stl_algobase.h **** // Core algorithmic facilities -*- C++ -*-
   2:/Library/DaisyToolchain/0.2.0/arm/arm-none-eabi/include/c++/10.3.1/bits/stl_algobase.h **** 
   3:/Library/DaisyToolchain/0.2.0/arm/arm-none-eabi/include/c++/10.3.1/bits/stl_algobase.h **** // Copyright (C) 2001-2020 Free Software Foundation, Inc.
   4:/Library/DaisyToolchain/0.2.0/arm/arm-none-eabi/include/c++/10.3.1/bits/stl_algobase.h **** //
   5:/Library/DaisyToolchain/0.2.0/arm/arm-none-eabi/include/c++/10.3.1/bits/stl_algobase.h **** // This file is part of the GNU ISO C++ Library.  This library is free
   6:/Library/DaisyToolchain/0.2.0/arm/arm-none-eabi/include/c++/10.3.1/bits/stl_algobase.h **** // software; you can redistribute it and/or modify it under the
   7:/Library/DaisyToolchain/0.2.0/arm/arm-none-eabi/include/c++/10.3.1/bits/stl_algobase.h **** // terms of the GNU General Public License as published by the
   8:/Library/DaisyToolchain/0.2.0/arm/arm-none-eabi/include/c++/10.3.1/bits/stl_algobase.h **** // Free Software Foundation; either version 3, or (at your option)
   9:/Library/DaisyToolchain/0.2.0/arm/arm-none-eabi/include/c++/10.3.1/bits/stl_algobase.h **** // any later version.
  10:/Library/DaisyToolchain/0.2.0/arm/arm-none-eabi/include/c++/10.3.1/bits/stl_algobase.h **** 
  11:/Library/DaisyToolchain/0.2.0/arm/arm-none-eabi/include/c++/10.3.1/bits/stl_algobase.h **** // This library is distributed in the hope that it will be useful,
  12:/Library/DaisyToolchain/0.2.0/arm/arm-none-eabi/include/c++/10.3.1/bits/stl_algobase.h **** // but WITHOUT ANY WARRANTY; without even the implied warranty of
  13:/Library/DaisyToolchain/0.2.0/arm/arm-none-eabi/include/c++/10.3.1/bits/stl_algobase.h **** // MERCHANTABILITY or FITNESS FOR A PARTICULAR PURPOSE.  See the
ARM GAS  /var/folders/9k/zk1mgrrd7wg4__6zvxvr9w8m0000gn/T//ccaaKoMx.s 			page 53


  14:/Library/DaisyToolchain/0.2.0/arm/arm-none-eabi/include/c++/10.3.1/bits/stl_algobase.h **** // GNU General Public License for more details.
  15:/Library/DaisyToolchain/0.2.0/arm/arm-none-eabi/include/c++/10.3.1/bits/stl_algobase.h **** 
  16:/Library/DaisyToolchain/0.2.0/arm/arm-none-eabi/include/c++/10.3.1/bits/stl_algobase.h **** // Under Section 7 of GPL version 3, you are granted additional
  17:/Library/DaisyToolchain/0.2.0/arm/arm-none-eabi/include/c++/10.3.1/bits/stl_algobase.h **** // permissions described in the GCC Runtime Library Exception, version
  18:/Library/DaisyToolchain/0.2.0/arm/arm-none-eabi/include/c++/10.3.1/bits/stl_algobase.h **** // 3.1, as published by the Free Software Foundation.
  19:/Library/DaisyToolchain/0.2.0/arm/arm-none-eabi/include/c++/10.3.1/bits/stl_algobase.h **** 
  20:/Library/DaisyToolchain/0.2.0/arm/arm-none-eabi/include/c++/10.3.1/bits/stl_algobase.h **** // You should have received a copy of the GNU General Public License and
  21:/Library/DaisyToolchain/0.2.0/arm/arm-none-eabi/include/c++/10.3.1/bits/stl_algobase.h **** // a copy of the GCC Runtime Library Exception along with this program;
  22:/Library/DaisyToolchain/0.2.0/arm/arm-none-eabi/include/c++/10.3.1/bits/stl_algobase.h **** // see the files COPYING3 and COPYING.RUNTIME respectively.  If not, see
  23:/Library/DaisyToolchain/0.2.0/arm/arm-none-eabi/include/c++/10.3.1/bits/stl_algobase.h **** // <http://www.gnu.org/licenses/>.
  24:/Library/DaisyToolchain/0.2.0/arm/arm-none-eabi/include/c++/10.3.1/bits/stl_algobase.h **** 
  25:/Library/DaisyToolchain/0.2.0/arm/arm-none-eabi/include/c++/10.3.1/bits/stl_algobase.h **** /*
  26:/Library/DaisyToolchain/0.2.0/arm/arm-none-eabi/include/c++/10.3.1/bits/stl_algobase.h ****  *
  27:/Library/DaisyToolchain/0.2.0/arm/arm-none-eabi/include/c++/10.3.1/bits/stl_algobase.h ****  * Copyright (c) 1994
  28:/Library/DaisyToolchain/0.2.0/arm/arm-none-eabi/include/c++/10.3.1/bits/stl_algobase.h ****  * Hewlett-Packard Company
  29:/Library/DaisyToolchain/0.2.0/arm/arm-none-eabi/include/c++/10.3.1/bits/stl_algobase.h ****  *
  30:/Library/DaisyToolchain/0.2.0/arm/arm-none-eabi/include/c++/10.3.1/bits/stl_algobase.h ****  * Permission to use, copy, modify, distribute and sell this software
  31:/Library/DaisyToolchain/0.2.0/arm/arm-none-eabi/include/c++/10.3.1/bits/stl_algobase.h ****  * and its documentation for any purpose is hereby granted without fee,
  32:/Library/DaisyToolchain/0.2.0/arm/arm-none-eabi/include/c++/10.3.1/bits/stl_algobase.h ****  * provided that the above copyright notice appear in all copies and
  33:/Library/DaisyToolchain/0.2.0/arm/arm-none-eabi/include/c++/10.3.1/bits/stl_algobase.h ****  * that both that copyright notice and this permission notice appear
  34:/Library/DaisyToolchain/0.2.0/arm/arm-none-eabi/include/c++/10.3.1/bits/stl_algobase.h ****  * in supporting documentation.  Hewlett-Packard Company makes no
  35:/Library/DaisyToolchain/0.2.0/arm/arm-none-eabi/include/c++/10.3.1/bits/stl_algobase.h ****  * representations about the suitability of this software for any
  36:/Library/DaisyToolchain/0.2.0/arm/arm-none-eabi/include/c++/10.3.1/bits/stl_algobase.h ****  * purpose.  It is provided "as is" without express or implied warranty.
  37:/Library/DaisyToolchain/0.2.0/arm/arm-none-eabi/include/c++/10.3.1/bits/stl_algobase.h ****  *
  38:/Library/DaisyToolchain/0.2.0/arm/arm-none-eabi/include/c++/10.3.1/bits/stl_algobase.h ****  *
  39:/Library/DaisyToolchain/0.2.0/arm/arm-none-eabi/include/c++/10.3.1/bits/stl_algobase.h ****  * Copyright (c) 1996-1998
  40:/Library/DaisyToolchain/0.2.0/arm/arm-none-eabi/include/c++/10.3.1/bits/stl_algobase.h ****  * Silicon Graphics Computer Systems, Inc.
  41:/Library/DaisyToolchain/0.2.0/arm/arm-none-eabi/include/c++/10.3.1/bits/stl_algobase.h ****  *
  42:/Library/DaisyToolchain/0.2.0/arm/arm-none-eabi/include/c++/10.3.1/bits/stl_algobase.h ****  * Permission to use, copy, modify, distribute and sell this software
  43:/Library/DaisyToolchain/0.2.0/arm/arm-none-eabi/include/c++/10.3.1/bits/stl_algobase.h ****  * and its documentation for any purpose is hereby granted without fee,
  44:/Library/DaisyToolchain/0.2.0/arm/arm-none-eabi/include/c++/10.3.1/bits/stl_algobase.h ****  * provided that the above copyright notice appear in all copies and
  45:/Library/DaisyToolchain/0.2.0/arm/arm-none-eabi/include/c++/10.3.1/bits/stl_algobase.h ****  * that both that copyright notice and this permission notice appear
  46:/Library/DaisyToolchain/0.2.0/arm/arm-none-eabi/include/c++/10.3.1/bits/stl_algobase.h ****  * in supporting documentation.  Silicon Graphics makes no
  47:/Library/DaisyToolchain/0.2.0/arm/arm-none-eabi/include/c++/10.3.1/bits/stl_algobase.h ****  * representations about the suitability of this software for any
  48:/Library/DaisyToolchain/0.2.0/arm/arm-none-eabi/include/c++/10.3.1/bits/stl_algobase.h ****  * purpose.  It is provided "as is" without express or implied warranty.
  49:/Library/DaisyToolchain/0.2.0/arm/arm-none-eabi/include/c++/10.3.1/bits/stl_algobase.h ****  */
  50:/Library/DaisyToolchain/0.2.0/arm/arm-none-eabi/include/c++/10.3.1/bits/stl_algobase.h **** 
  51:/Library/DaisyToolchain/0.2.0/arm/arm-none-eabi/include/c++/10.3.1/bits/stl_algobase.h **** /** @file bits/stl_algobase.h
  52:/Library/DaisyToolchain/0.2.0/arm/arm-none-eabi/include/c++/10.3.1/bits/stl_algobase.h ****  *  This is an internal header file, included by other library headers.
  53:/Library/DaisyToolchain/0.2.0/arm/arm-none-eabi/include/c++/10.3.1/bits/stl_algobase.h ****  *  Do not attempt to use it directly. @headername{algorithm}
  54:/Library/DaisyToolchain/0.2.0/arm/arm-none-eabi/include/c++/10.3.1/bits/stl_algobase.h ****  */
  55:/Library/DaisyToolchain/0.2.0/arm/arm-none-eabi/include/c++/10.3.1/bits/stl_algobase.h **** 
  56:/Library/DaisyToolchain/0.2.0/arm/arm-none-eabi/include/c++/10.3.1/bits/stl_algobase.h **** #ifndef _STL_ALGOBASE_H
  57:/Library/DaisyToolchain/0.2.0/arm/arm-none-eabi/include/c++/10.3.1/bits/stl_algobase.h **** #define _STL_ALGOBASE_H 1
  58:/Library/DaisyToolchain/0.2.0/arm/arm-none-eabi/include/c++/10.3.1/bits/stl_algobase.h **** 
  59:/Library/DaisyToolchain/0.2.0/arm/arm-none-eabi/include/c++/10.3.1/bits/stl_algobase.h **** #include <bits/c++config.h>
  60:/Library/DaisyToolchain/0.2.0/arm/arm-none-eabi/include/c++/10.3.1/bits/stl_algobase.h **** #include <bits/functexcept.h>
  61:/Library/DaisyToolchain/0.2.0/arm/arm-none-eabi/include/c++/10.3.1/bits/stl_algobase.h **** #include <bits/cpp_type_traits.h>
  62:/Library/DaisyToolchain/0.2.0/arm/arm-none-eabi/include/c++/10.3.1/bits/stl_algobase.h **** #include <ext/type_traits.h>
  63:/Library/DaisyToolchain/0.2.0/arm/arm-none-eabi/include/c++/10.3.1/bits/stl_algobase.h **** #include <ext/numeric_traits.h>
  64:/Library/DaisyToolchain/0.2.0/arm/arm-none-eabi/include/c++/10.3.1/bits/stl_algobase.h **** #include <bits/stl_pair.h>
  65:/Library/DaisyToolchain/0.2.0/arm/arm-none-eabi/include/c++/10.3.1/bits/stl_algobase.h **** #include <bits/stl_iterator_base_types.h>
  66:/Library/DaisyToolchain/0.2.0/arm/arm-none-eabi/include/c++/10.3.1/bits/stl_algobase.h **** #include <bits/stl_iterator_base_funcs.h>
  67:/Library/DaisyToolchain/0.2.0/arm/arm-none-eabi/include/c++/10.3.1/bits/stl_algobase.h **** #include <bits/stl_iterator.h>
  68:/Library/DaisyToolchain/0.2.0/arm/arm-none-eabi/include/c++/10.3.1/bits/stl_algobase.h **** #include <bits/concept_check.h>
  69:/Library/DaisyToolchain/0.2.0/arm/arm-none-eabi/include/c++/10.3.1/bits/stl_algobase.h **** #include <debug/debug.h>
  70:/Library/DaisyToolchain/0.2.0/arm/arm-none-eabi/include/c++/10.3.1/bits/stl_algobase.h **** #include <bits/move.h> // For std::swap
ARM GAS  /var/folders/9k/zk1mgrrd7wg4__6zvxvr9w8m0000gn/T//ccaaKoMx.s 			page 54


  71:/Library/DaisyToolchain/0.2.0/arm/arm-none-eabi/include/c++/10.3.1/bits/stl_algobase.h **** #include <bits/predefined_ops.h>
  72:/Library/DaisyToolchain/0.2.0/arm/arm-none-eabi/include/c++/10.3.1/bits/stl_algobase.h **** #if __cplusplus >= 201103L
  73:/Library/DaisyToolchain/0.2.0/arm/arm-none-eabi/include/c++/10.3.1/bits/stl_algobase.h **** # include <type_traits>
  74:/Library/DaisyToolchain/0.2.0/arm/arm-none-eabi/include/c++/10.3.1/bits/stl_algobase.h **** #endif
  75:/Library/DaisyToolchain/0.2.0/arm/arm-none-eabi/include/c++/10.3.1/bits/stl_algobase.h **** #if __cplusplus > 201703L
  76:/Library/DaisyToolchain/0.2.0/arm/arm-none-eabi/include/c++/10.3.1/bits/stl_algobase.h **** # include <compare>
  77:/Library/DaisyToolchain/0.2.0/arm/arm-none-eabi/include/c++/10.3.1/bits/stl_algobase.h **** #endif
  78:/Library/DaisyToolchain/0.2.0/arm/arm-none-eabi/include/c++/10.3.1/bits/stl_algobase.h **** 
  79:/Library/DaisyToolchain/0.2.0/arm/arm-none-eabi/include/c++/10.3.1/bits/stl_algobase.h **** namespace std _GLIBCXX_VISIBILITY(default)
  80:/Library/DaisyToolchain/0.2.0/arm/arm-none-eabi/include/c++/10.3.1/bits/stl_algobase.h **** {
  81:/Library/DaisyToolchain/0.2.0/arm/arm-none-eabi/include/c++/10.3.1/bits/stl_algobase.h **** _GLIBCXX_BEGIN_NAMESPACE_VERSION
  82:/Library/DaisyToolchain/0.2.0/arm/arm-none-eabi/include/c++/10.3.1/bits/stl_algobase.h **** 
  83:/Library/DaisyToolchain/0.2.0/arm/arm-none-eabi/include/c++/10.3.1/bits/stl_algobase.h ****   /*
  84:/Library/DaisyToolchain/0.2.0/arm/arm-none-eabi/include/c++/10.3.1/bits/stl_algobase.h ****    * A constexpr wrapper for __builtin_memcmp.
  85:/Library/DaisyToolchain/0.2.0/arm/arm-none-eabi/include/c++/10.3.1/bits/stl_algobase.h ****    * @param __num The number of elements of type _Tp (not bytes).
  86:/Library/DaisyToolchain/0.2.0/arm/arm-none-eabi/include/c++/10.3.1/bits/stl_algobase.h ****    */
  87:/Library/DaisyToolchain/0.2.0/arm/arm-none-eabi/include/c++/10.3.1/bits/stl_algobase.h ****   template<typename _Tp, typename _Up>
  88:/Library/DaisyToolchain/0.2.0/arm/arm-none-eabi/include/c++/10.3.1/bits/stl_algobase.h ****     _GLIBCXX14_CONSTEXPR
  89:/Library/DaisyToolchain/0.2.0/arm/arm-none-eabi/include/c++/10.3.1/bits/stl_algobase.h ****     inline int
  90:/Library/DaisyToolchain/0.2.0/arm/arm-none-eabi/include/c++/10.3.1/bits/stl_algobase.h ****     __memcmp(const _Tp* __first1, const _Up* __first2, size_t __num)
  91:/Library/DaisyToolchain/0.2.0/arm/arm-none-eabi/include/c++/10.3.1/bits/stl_algobase.h ****     {
  92:/Library/DaisyToolchain/0.2.0/arm/arm-none-eabi/include/c++/10.3.1/bits/stl_algobase.h **** #if __cplusplus >= 201103L
  93:/Library/DaisyToolchain/0.2.0/arm/arm-none-eabi/include/c++/10.3.1/bits/stl_algobase.h ****       static_assert(sizeof(_Tp) == sizeof(_Up), "can be compared with memcmp");
  94:/Library/DaisyToolchain/0.2.0/arm/arm-none-eabi/include/c++/10.3.1/bits/stl_algobase.h **** #endif
  95:/Library/DaisyToolchain/0.2.0/arm/arm-none-eabi/include/c++/10.3.1/bits/stl_algobase.h **** #ifdef __cpp_lib_is_constant_evaluated
  96:/Library/DaisyToolchain/0.2.0/arm/arm-none-eabi/include/c++/10.3.1/bits/stl_algobase.h ****       if (std::is_constant_evaluated())
  97:/Library/DaisyToolchain/0.2.0/arm/arm-none-eabi/include/c++/10.3.1/bits/stl_algobase.h **** 	{
  98:/Library/DaisyToolchain/0.2.0/arm/arm-none-eabi/include/c++/10.3.1/bits/stl_algobase.h **** 	  for(; __num > 0; ++__first1, ++__first2, --__num)
  99:/Library/DaisyToolchain/0.2.0/arm/arm-none-eabi/include/c++/10.3.1/bits/stl_algobase.h **** 	    if (*__first1 != *__first2)
 100:/Library/DaisyToolchain/0.2.0/arm/arm-none-eabi/include/c++/10.3.1/bits/stl_algobase.h **** 	      return *__first1 < *__first2 ? -1 : 1;
 101:/Library/DaisyToolchain/0.2.0/arm/arm-none-eabi/include/c++/10.3.1/bits/stl_algobase.h **** 	  return 0;
 102:/Library/DaisyToolchain/0.2.0/arm/arm-none-eabi/include/c++/10.3.1/bits/stl_algobase.h **** 	}
 103:/Library/DaisyToolchain/0.2.0/arm/arm-none-eabi/include/c++/10.3.1/bits/stl_algobase.h ****       else
 104:/Library/DaisyToolchain/0.2.0/arm/arm-none-eabi/include/c++/10.3.1/bits/stl_algobase.h **** #endif
 105:/Library/DaisyToolchain/0.2.0/arm/arm-none-eabi/include/c++/10.3.1/bits/stl_algobase.h **** 	return __builtin_memcmp(__first1, __first2, sizeof(_Tp) * __num);
 106:/Library/DaisyToolchain/0.2.0/arm/arm-none-eabi/include/c++/10.3.1/bits/stl_algobase.h ****     }
 107:/Library/DaisyToolchain/0.2.0/arm/arm-none-eabi/include/c++/10.3.1/bits/stl_algobase.h **** 
 108:/Library/DaisyToolchain/0.2.0/arm/arm-none-eabi/include/c++/10.3.1/bits/stl_algobase.h **** #if __cplusplus < 201103L
 109:/Library/DaisyToolchain/0.2.0/arm/arm-none-eabi/include/c++/10.3.1/bits/stl_algobase.h ****   // See http://gcc.gnu.org/ml/libstdc++/2004-08/msg00167.html: in a
 110:/Library/DaisyToolchain/0.2.0/arm/arm-none-eabi/include/c++/10.3.1/bits/stl_algobase.h ****   // nutshell, we are partially implementing the resolution of DR 187,
 111:/Library/DaisyToolchain/0.2.0/arm/arm-none-eabi/include/c++/10.3.1/bits/stl_algobase.h ****   // when it's safe, i.e., the value_types are equal.
 112:/Library/DaisyToolchain/0.2.0/arm/arm-none-eabi/include/c++/10.3.1/bits/stl_algobase.h ****   template<bool _BoolType>
 113:/Library/DaisyToolchain/0.2.0/arm/arm-none-eabi/include/c++/10.3.1/bits/stl_algobase.h ****     struct __iter_swap
 114:/Library/DaisyToolchain/0.2.0/arm/arm-none-eabi/include/c++/10.3.1/bits/stl_algobase.h ****     {
 115:/Library/DaisyToolchain/0.2.0/arm/arm-none-eabi/include/c++/10.3.1/bits/stl_algobase.h ****       template<typename _ForwardIterator1, typename _ForwardIterator2>
 116:/Library/DaisyToolchain/0.2.0/arm/arm-none-eabi/include/c++/10.3.1/bits/stl_algobase.h **** 	static void
 117:/Library/DaisyToolchain/0.2.0/arm/arm-none-eabi/include/c++/10.3.1/bits/stl_algobase.h **** 	iter_swap(_ForwardIterator1 __a, _ForwardIterator2 __b)
 118:/Library/DaisyToolchain/0.2.0/arm/arm-none-eabi/include/c++/10.3.1/bits/stl_algobase.h **** 	{
 119:/Library/DaisyToolchain/0.2.0/arm/arm-none-eabi/include/c++/10.3.1/bits/stl_algobase.h **** 	  typedef typename iterator_traits<_ForwardIterator1>::value_type
 120:/Library/DaisyToolchain/0.2.0/arm/arm-none-eabi/include/c++/10.3.1/bits/stl_algobase.h **** 	    _ValueType1;
 121:/Library/DaisyToolchain/0.2.0/arm/arm-none-eabi/include/c++/10.3.1/bits/stl_algobase.h **** 	  _ValueType1 __tmp = *__a;
 122:/Library/DaisyToolchain/0.2.0/arm/arm-none-eabi/include/c++/10.3.1/bits/stl_algobase.h **** 	  *__a = *__b;
 123:/Library/DaisyToolchain/0.2.0/arm/arm-none-eabi/include/c++/10.3.1/bits/stl_algobase.h **** 	  *__b = __tmp;
 124:/Library/DaisyToolchain/0.2.0/arm/arm-none-eabi/include/c++/10.3.1/bits/stl_algobase.h **** 	}
 125:/Library/DaisyToolchain/0.2.0/arm/arm-none-eabi/include/c++/10.3.1/bits/stl_algobase.h ****     };
 126:/Library/DaisyToolchain/0.2.0/arm/arm-none-eabi/include/c++/10.3.1/bits/stl_algobase.h **** 
 127:/Library/DaisyToolchain/0.2.0/arm/arm-none-eabi/include/c++/10.3.1/bits/stl_algobase.h ****   template<>
ARM GAS  /var/folders/9k/zk1mgrrd7wg4__6zvxvr9w8m0000gn/T//ccaaKoMx.s 			page 55


 128:/Library/DaisyToolchain/0.2.0/arm/arm-none-eabi/include/c++/10.3.1/bits/stl_algobase.h ****     struct __iter_swap<true>
 129:/Library/DaisyToolchain/0.2.0/arm/arm-none-eabi/include/c++/10.3.1/bits/stl_algobase.h ****     {
 130:/Library/DaisyToolchain/0.2.0/arm/arm-none-eabi/include/c++/10.3.1/bits/stl_algobase.h ****       template<typename _ForwardIterator1, typename _ForwardIterator2>
 131:/Library/DaisyToolchain/0.2.0/arm/arm-none-eabi/include/c++/10.3.1/bits/stl_algobase.h **** 	static void
 132:/Library/DaisyToolchain/0.2.0/arm/arm-none-eabi/include/c++/10.3.1/bits/stl_algobase.h **** 	iter_swap(_ForwardIterator1 __a, _ForwardIterator2 __b)
 133:/Library/DaisyToolchain/0.2.0/arm/arm-none-eabi/include/c++/10.3.1/bits/stl_algobase.h **** 	{
 134:/Library/DaisyToolchain/0.2.0/arm/arm-none-eabi/include/c++/10.3.1/bits/stl_algobase.h **** 	  swap(*__a, *__b);
 135:/Library/DaisyToolchain/0.2.0/arm/arm-none-eabi/include/c++/10.3.1/bits/stl_algobase.h **** 	}
 136:/Library/DaisyToolchain/0.2.0/arm/arm-none-eabi/include/c++/10.3.1/bits/stl_algobase.h ****     };
 137:/Library/DaisyToolchain/0.2.0/arm/arm-none-eabi/include/c++/10.3.1/bits/stl_algobase.h **** #endif // C++03
 138:/Library/DaisyToolchain/0.2.0/arm/arm-none-eabi/include/c++/10.3.1/bits/stl_algobase.h **** 
 139:/Library/DaisyToolchain/0.2.0/arm/arm-none-eabi/include/c++/10.3.1/bits/stl_algobase.h ****   /**
 140:/Library/DaisyToolchain/0.2.0/arm/arm-none-eabi/include/c++/10.3.1/bits/stl_algobase.h ****    *  @brief Swaps the contents of two iterators.
 141:/Library/DaisyToolchain/0.2.0/arm/arm-none-eabi/include/c++/10.3.1/bits/stl_algobase.h ****    *  @ingroup mutating_algorithms
 142:/Library/DaisyToolchain/0.2.0/arm/arm-none-eabi/include/c++/10.3.1/bits/stl_algobase.h ****    *  @param  __a  An iterator.
 143:/Library/DaisyToolchain/0.2.0/arm/arm-none-eabi/include/c++/10.3.1/bits/stl_algobase.h ****    *  @param  __b  Another iterator.
 144:/Library/DaisyToolchain/0.2.0/arm/arm-none-eabi/include/c++/10.3.1/bits/stl_algobase.h ****    *  @return   Nothing.
 145:/Library/DaisyToolchain/0.2.0/arm/arm-none-eabi/include/c++/10.3.1/bits/stl_algobase.h ****    *
 146:/Library/DaisyToolchain/0.2.0/arm/arm-none-eabi/include/c++/10.3.1/bits/stl_algobase.h ****    *  This function swaps the values pointed to by two iterators, not the
 147:/Library/DaisyToolchain/0.2.0/arm/arm-none-eabi/include/c++/10.3.1/bits/stl_algobase.h ****    *  iterators themselves.
 148:/Library/DaisyToolchain/0.2.0/arm/arm-none-eabi/include/c++/10.3.1/bits/stl_algobase.h ****   */
 149:/Library/DaisyToolchain/0.2.0/arm/arm-none-eabi/include/c++/10.3.1/bits/stl_algobase.h ****   template<typename _ForwardIterator1, typename _ForwardIterator2>
 150:/Library/DaisyToolchain/0.2.0/arm/arm-none-eabi/include/c++/10.3.1/bits/stl_algobase.h ****     _GLIBCXX20_CONSTEXPR
 151:/Library/DaisyToolchain/0.2.0/arm/arm-none-eabi/include/c++/10.3.1/bits/stl_algobase.h ****     inline void
 152:/Library/DaisyToolchain/0.2.0/arm/arm-none-eabi/include/c++/10.3.1/bits/stl_algobase.h ****     iter_swap(_ForwardIterator1 __a, _ForwardIterator2 __b)
 153:/Library/DaisyToolchain/0.2.0/arm/arm-none-eabi/include/c++/10.3.1/bits/stl_algobase.h ****     {
 154:/Library/DaisyToolchain/0.2.0/arm/arm-none-eabi/include/c++/10.3.1/bits/stl_algobase.h ****       // concept requirements
 155:/Library/DaisyToolchain/0.2.0/arm/arm-none-eabi/include/c++/10.3.1/bits/stl_algobase.h ****       __glibcxx_function_requires(_Mutable_ForwardIteratorConcept<
 156:/Library/DaisyToolchain/0.2.0/arm/arm-none-eabi/include/c++/10.3.1/bits/stl_algobase.h **** 				  _ForwardIterator1>)
 157:/Library/DaisyToolchain/0.2.0/arm/arm-none-eabi/include/c++/10.3.1/bits/stl_algobase.h ****       __glibcxx_function_requires(_Mutable_ForwardIteratorConcept<
 158:/Library/DaisyToolchain/0.2.0/arm/arm-none-eabi/include/c++/10.3.1/bits/stl_algobase.h **** 				  _ForwardIterator2>)
 159:/Library/DaisyToolchain/0.2.0/arm/arm-none-eabi/include/c++/10.3.1/bits/stl_algobase.h **** 
 160:/Library/DaisyToolchain/0.2.0/arm/arm-none-eabi/include/c++/10.3.1/bits/stl_algobase.h **** #if __cplusplus < 201103L
 161:/Library/DaisyToolchain/0.2.0/arm/arm-none-eabi/include/c++/10.3.1/bits/stl_algobase.h ****       typedef typename iterator_traits<_ForwardIterator1>::value_type
 162:/Library/DaisyToolchain/0.2.0/arm/arm-none-eabi/include/c++/10.3.1/bits/stl_algobase.h **** 	_ValueType1;
 163:/Library/DaisyToolchain/0.2.0/arm/arm-none-eabi/include/c++/10.3.1/bits/stl_algobase.h ****       typedef typename iterator_traits<_ForwardIterator2>::value_type
 164:/Library/DaisyToolchain/0.2.0/arm/arm-none-eabi/include/c++/10.3.1/bits/stl_algobase.h **** 	_ValueType2;
 165:/Library/DaisyToolchain/0.2.0/arm/arm-none-eabi/include/c++/10.3.1/bits/stl_algobase.h **** 
 166:/Library/DaisyToolchain/0.2.0/arm/arm-none-eabi/include/c++/10.3.1/bits/stl_algobase.h ****       __glibcxx_function_requires(_ConvertibleConcept<_ValueType1,
 167:/Library/DaisyToolchain/0.2.0/arm/arm-none-eabi/include/c++/10.3.1/bits/stl_algobase.h **** 				  _ValueType2>)
 168:/Library/DaisyToolchain/0.2.0/arm/arm-none-eabi/include/c++/10.3.1/bits/stl_algobase.h ****       __glibcxx_function_requires(_ConvertibleConcept<_ValueType2,
 169:/Library/DaisyToolchain/0.2.0/arm/arm-none-eabi/include/c++/10.3.1/bits/stl_algobase.h **** 				  _ValueType1>)
 170:/Library/DaisyToolchain/0.2.0/arm/arm-none-eabi/include/c++/10.3.1/bits/stl_algobase.h **** 
 171:/Library/DaisyToolchain/0.2.0/arm/arm-none-eabi/include/c++/10.3.1/bits/stl_algobase.h ****       typedef typename iterator_traits<_ForwardIterator1>::reference
 172:/Library/DaisyToolchain/0.2.0/arm/arm-none-eabi/include/c++/10.3.1/bits/stl_algobase.h **** 	_ReferenceType1;
 173:/Library/DaisyToolchain/0.2.0/arm/arm-none-eabi/include/c++/10.3.1/bits/stl_algobase.h ****       typedef typename iterator_traits<_ForwardIterator2>::reference
 174:/Library/DaisyToolchain/0.2.0/arm/arm-none-eabi/include/c++/10.3.1/bits/stl_algobase.h **** 	_ReferenceType2;
 175:/Library/DaisyToolchain/0.2.0/arm/arm-none-eabi/include/c++/10.3.1/bits/stl_algobase.h ****       std::__iter_swap<__are_same<_ValueType1, _ValueType2>::__value
 176:/Library/DaisyToolchain/0.2.0/arm/arm-none-eabi/include/c++/10.3.1/bits/stl_algobase.h **** 	&& __are_same<_ValueType1&, _ReferenceType1>::__value
 177:/Library/DaisyToolchain/0.2.0/arm/arm-none-eabi/include/c++/10.3.1/bits/stl_algobase.h **** 	&& __are_same<_ValueType2&, _ReferenceType2>::__value>::
 178:/Library/DaisyToolchain/0.2.0/arm/arm-none-eabi/include/c++/10.3.1/bits/stl_algobase.h **** 	iter_swap(__a, __b);
 179:/Library/DaisyToolchain/0.2.0/arm/arm-none-eabi/include/c++/10.3.1/bits/stl_algobase.h **** #else
 180:/Library/DaisyToolchain/0.2.0/arm/arm-none-eabi/include/c++/10.3.1/bits/stl_algobase.h ****       // _GLIBCXX_RESOLVE_LIB_DEFECTS
 181:/Library/DaisyToolchain/0.2.0/arm/arm-none-eabi/include/c++/10.3.1/bits/stl_algobase.h ****       // 187. iter_swap underspecified
 182:/Library/DaisyToolchain/0.2.0/arm/arm-none-eabi/include/c++/10.3.1/bits/stl_algobase.h ****       swap(*__a, *__b);
 183:/Library/DaisyToolchain/0.2.0/arm/arm-none-eabi/include/c++/10.3.1/bits/stl_algobase.h **** #endif
 184:/Library/DaisyToolchain/0.2.0/arm/arm-none-eabi/include/c++/10.3.1/bits/stl_algobase.h ****     }
ARM GAS  /var/folders/9k/zk1mgrrd7wg4__6zvxvr9w8m0000gn/T//ccaaKoMx.s 			page 56


 185:/Library/DaisyToolchain/0.2.0/arm/arm-none-eabi/include/c++/10.3.1/bits/stl_algobase.h **** 
 186:/Library/DaisyToolchain/0.2.0/arm/arm-none-eabi/include/c++/10.3.1/bits/stl_algobase.h ****   /**
 187:/Library/DaisyToolchain/0.2.0/arm/arm-none-eabi/include/c++/10.3.1/bits/stl_algobase.h ****    *  @brief Swap the elements of two sequences.
 188:/Library/DaisyToolchain/0.2.0/arm/arm-none-eabi/include/c++/10.3.1/bits/stl_algobase.h ****    *  @ingroup mutating_algorithms
 189:/Library/DaisyToolchain/0.2.0/arm/arm-none-eabi/include/c++/10.3.1/bits/stl_algobase.h ****    *  @param  __first1  A forward iterator.
 190:/Library/DaisyToolchain/0.2.0/arm/arm-none-eabi/include/c++/10.3.1/bits/stl_algobase.h ****    *  @param  __last1   A forward iterator.
 191:/Library/DaisyToolchain/0.2.0/arm/arm-none-eabi/include/c++/10.3.1/bits/stl_algobase.h ****    *  @param  __first2  A forward iterator.
 192:/Library/DaisyToolchain/0.2.0/arm/arm-none-eabi/include/c++/10.3.1/bits/stl_algobase.h ****    *  @return   An iterator equal to @p first2+(last1-first1).
 193:/Library/DaisyToolchain/0.2.0/arm/arm-none-eabi/include/c++/10.3.1/bits/stl_algobase.h ****    *
 194:/Library/DaisyToolchain/0.2.0/arm/arm-none-eabi/include/c++/10.3.1/bits/stl_algobase.h ****    *  Swaps each element in the range @p [first1,last1) with the
 195:/Library/DaisyToolchain/0.2.0/arm/arm-none-eabi/include/c++/10.3.1/bits/stl_algobase.h ****    *  corresponding element in the range @p [first2,(last1-first1)).
 196:/Library/DaisyToolchain/0.2.0/arm/arm-none-eabi/include/c++/10.3.1/bits/stl_algobase.h ****    *  The ranges must not overlap.
 197:/Library/DaisyToolchain/0.2.0/arm/arm-none-eabi/include/c++/10.3.1/bits/stl_algobase.h ****   */
 198:/Library/DaisyToolchain/0.2.0/arm/arm-none-eabi/include/c++/10.3.1/bits/stl_algobase.h ****   template<typename _ForwardIterator1, typename _ForwardIterator2>
 199:/Library/DaisyToolchain/0.2.0/arm/arm-none-eabi/include/c++/10.3.1/bits/stl_algobase.h ****     _GLIBCXX20_CONSTEXPR
 200:/Library/DaisyToolchain/0.2.0/arm/arm-none-eabi/include/c++/10.3.1/bits/stl_algobase.h ****     _ForwardIterator2
 201:/Library/DaisyToolchain/0.2.0/arm/arm-none-eabi/include/c++/10.3.1/bits/stl_algobase.h ****     swap_ranges(_ForwardIterator1 __first1, _ForwardIterator1 __last1,
 202:/Library/DaisyToolchain/0.2.0/arm/arm-none-eabi/include/c++/10.3.1/bits/stl_algobase.h **** 		_ForwardIterator2 __first2)
 203:/Library/DaisyToolchain/0.2.0/arm/arm-none-eabi/include/c++/10.3.1/bits/stl_algobase.h ****     {
 204:/Library/DaisyToolchain/0.2.0/arm/arm-none-eabi/include/c++/10.3.1/bits/stl_algobase.h ****       // concept requirements
 205:/Library/DaisyToolchain/0.2.0/arm/arm-none-eabi/include/c++/10.3.1/bits/stl_algobase.h ****       __glibcxx_function_requires(_Mutable_ForwardIteratorConcept<
 206:/Library/DaisyToolchain/0.2.0/arm/arm-none-eabi/include/c++/10.3.1/bits/stl_algobase.h **** 				  _ForwardIterator1>)
 207:/Library/DaisyToolchain/0.2.0/arm/arm-none-eabi/include/c++/10.3.1/bits/stl_algobase.h ****       __glibcxx_function_requires(_Mutable_ForwardIteratorConcept<
 208:/Library/DaisyToolchain/0.2.0/arm/arm-none-eabi/include/c++/10.3.1/bits/stl_algobase.h **** 				  _ForwardIterator2>)
 209:/Library/DaisyToolchain/0.2.0/arm/arm-none-eabi/include/c++/10.3.1/bits/stl_algobase.h ****       __glibcxx_requires_valid_range(__first1, __last1);
 210:/Library/DaisyToolchain/0.2.0/arm/arm-none-eabi/include/c++/10.3.1/bits/stl_algobase.h **** 
 211:/Library/DaisyToolchain/0.2.0/arm/arm-none-eabi/include/c++/10.3.1/bits/stl_algobase.h ****       for (; __first1 != __last1; ++__first1, (void)++__first2)
 212:/Library/DaisyToolchain/0.2.0/arm/arm-none-eabi/include/c++/10.3.1/bits/stl_algobase.h **** 	std::iter_swap(__first1, __first2);
 213:/Library/DaisyToolchain/0.2.0/arm/arm-none-eabi/include/c++/10.3.1/bits/stl_algobase.h ****       return __first2;
 214:/Library/DaisyToolchain/0.2.0/arm/arm-none-eabi/include/c++/10.3.1/bits/stl_algobase.h ****     }
 215:/Library/DaisyToolchain/0.2.0/arm/arm-none-eabi/include/c++/10.3.1/bits/stl_algobase.h **** 
 216:/Library/DaisyToolchain/0.2.0/arm/arm-none-eabi/include/c++/10.3.1/bits/stl_algobase.h ****   /**
 217:/Library/DaisyToolchain/0.2.0/arm/arm-none-eabi/include/c++/10.3.1/bits/stl_algobase.h ****    *  @brief This does what you think it does.
 218:/Library/DaisyToolchain/0.2.0/arm/arm-none-eabi/include/c++/10.3.1/bits/stl_algobase.h ****    *  @ingroup sorting_algorithms
 219:/Library/DaisyToolchain/0.2.0/arm/arm-none-eabi/include/c++/10.3.1/bits/stl_algobase.h ****    *  @param  __a  A thing of arbitrary type.
 220:/Library/DaisyToolchain/0.2.0/arm/arm-none-eabi/include/c++/10.3.1/bits/stl_algobase.h ****    *  @param  __b  Another thing of arbitrary type.
 221:/Library/DaisyToolchain/0.2.0/arm/arm-none-eabi/include/c++/10.3.1/bits/stl_algobase.h ****    *  @return   The lesser of the parameters.
 222:/Library/DaisyToolchain/0.2.0/arm/arm-none-eabi/include/c++/10.3.1/bits/stl_algobase.h ****    *
 223:/Library/DaisyToolchain/0.2.0/arm/arm-none-eabi/include/c++/10.3.1/bits/stl_algobase.h ****    *  This is the simple classic generic implementation.  It will work on
 224:/Library/DaisyToolchain/0.2.0/arm/arm-none-eabi/include/c++/10.3.1/bits/stl_algobase.h ****    *  temporary expressions, since they are only evaluated once, unlike a
 225:/Library/DaisyToolchain/0.2.0/arm/arm-none-eabi/include/c++/10.3.1/bits/stl_algobase.h ****    *  preprocessor macro.
 226:/Library/DaisyToolchain/0.2.0/arm/arm-none-eabi/include/c++/10.3.1/bits/stl_algobase.h ****   */
 227:/Library/DaisyToolchain/0.2.0/arm/arm-none-eabi/include/c++/10.3.1/bits/stl_algobase.h ****   template<typename _Tp>
 228:/Library/DaisyToolchain/0.2.0/arm/arm-none-eabi/include/c++/10.3.1/bits/stl_algobase.h ****     _GLIBCXX14_CONSTEXPR
 229:/Library/DaisyToolchain/0.2.0/arm/arm-none-eabi/include/c++/10.3.1/bits/stl_algobase.h ****     inline const _Tp&
 230:/Library/DaisyToolchain/0.2.0/arm/arm-none-eabi/include/c++/10.3.1/bits/stl_algobase.h ****     min(const _Tp& __a, const _Tp& __b)
 231:/Library/DaisyToolchain/0.2.0/arm/arm-none-eabi/include/c++/10.3.1/bits/stl_algobase.h ****     {
 232:/Library/DaisyToolchain/0.2.0/arm/arm-none-eabi/include/c++/10.3.1/bits/stl_algobase.h ****       // concept requirements
 233:/Library/DaisyToolchain/0.2.0/arm/arm-none-eabi/include/c++/10.3.1/bits/stl_algobase.h ****       __glibcxx_function_requires(_LessThanComparableConcept<_Tp>)
 234:/Library/DaisyToolchain/0.2.0/arm/arm-none-eabi/include/c++/10.3.1/bits/stl_algobase.h ****       //return __b < __a ? __b : __a;
 235:/Library/DaisyToolchain/0.2.0/arm/arm-none-eabi/include/c++/10.3.1/bits/stl_algobase.h ****       if (__b < __a)
 236:/Library/DaisyToolchain/0.2.0/arm/arm-none-eabi/include/c++/10.3.1/bits/stl_algobase.h **** 	return __b;
 237:/Library/DaisyToolchain/0.2.0/arm/arm-none-eabi/include/c++/10.3.1/bits/stl_algobase.h ****       return __a;
 238:/Library/DaisyToolchain/0.2.0/arm/arm-none-eabi/include/c++/10.3.1/bits/stl_algobase.h ****     }
 239:/Library/DaisyToolchain/0.2.0/arm/arm-none-eabi/include/c++/10.3.1/bits/stl_algobase.h **** 
 240:/Library/DaisyToolchain/0.2.0/arm/arm-none-eabi/include/c++/10.3.1/bits/stl_algobase.h ****   /**
 241:/Library/DaisyToolchain/0.2.0/arm/arm-none-eabi/include/c++/10.3.1/bits/stl_algobase.h ****    *  @brief This does what you think it does.
ARM GAS  /var/folders/9k/zk1mgrrd7wg4__6zvxvr9w8m0000gn/T//ccaaKoMx.s 			page 57


 242:/Library/DaisyToolchain/0.2.0/arm/arm-none-eabi/include/c++/10.3.1/bits/stl_algobase.h ****    *  @ingroup sorting_algorithms
 243:/Library/DaisyToolchain/0.2.0/arm/arm-none-eabi/include/c++/10.3.1/bits/stl_algobase.h ****    *  @param  __a  A thing of arbitrary type.
 244:/Library/DaisyToolchain/0.2.0/arm/arm-none-eabi/include/c++/10.3.1/bits/stl_algobase.h ****    *  @param  __b  Another thing of arbitrary type.
 245:/Library/DaisyToolchain/0.2.0/arm/arm-none-eabi/include/c++/10.3.1/bits/stl_algobase.h ****    *  @return   The greater of the parameters.
 246:/Library/DaisyToolchain/0.2.0/arm/arm-none-eabi/include/c++/10.3.1/bits/stl_algobase.h ****    *
 247:/Library/DaisyToolchain/0.2.0/arm/arm-none-eabi/include/c++/10.3.1/bits/stl_algobase.h ****    *  This is the simple classic generic implementation.  It will work on
 248:/Library/DaisyToolchain/0.2.0/arm/arm-none-eabi/include/c++/10.3.1/bits/stl_algobase.h ****    *  temporary expressions, since they are only evaluated once, unlike a
 249:/Library/DaisyToolchain/0.2.0/arm/arm-none-eabi/include/c++/10.3.1/bits/stl_algobase.h ****    *  preprocessor macro.
 250:/Library/DaisyToolchain/0.2.0/arm/arm-none-eabi/include/c++/10.3.1/bits/stl_algobase.h ****   */
 251:/Library/DaisyToolchain/0.2.0/arm/arm-none-eabi/include/c++/10.3.1/bits/stl_algobase.h ****   template<typename _Tp>
 252:/Library/DaisyToolchain/0.2.0/arm/arm-none-eabi/include/c++/10.3.1/bits/stl_algobase.h ****     _GLIBCXX14_CONSTEXPR
 253:/Library/DaisyToolchain/0.2.0/arm/arm-none-eabi/include/c++/10.3.1/bits/stl_algobase.h ****     inline const _Tp&
 254:/Library/DaisyToolchain/0.2.0/arm/arm-none-eabi/include/c++/10.3.1/bits/stl_algobase.h ****     max(const _Tp& __a, const _Tp& __b)
 255:/Library/DaisyToolchain/0.2.0/arm/arm-none-eabi/include/c++/10.3.1/bits/stl_algobase.h ****     {
 256:/Library/DaisyToolchain/0.2.0/arm/arm-none-eabi/include/c++/10.3.1/bits/stl_algobase.h ****       // concept requirements
 257:/Library/DaisyToolchain/0.2.0/arm/arm-none-eabi/include/c++/10.3.1/bits/stl_algobase.h ****       __glibcxx_function_requires(_LessThanComparableConcept<_Tp>)
 258:/Library/DaisyToolchain/0.2.0/arm/arm-none-eabi/include/c++/10.3.1/bits/stl_algobase.h ****       //return  __a < __b ? __b : __a;
 259:/Library/DaisyToolchain/0.2.0/arm/arm-none-eabi/include/c++/10.3.1/bits/stl_algobase.h ****       if (__a < __b)
 1831              		.loc 8 259 7 view .LVU554
 1832 00a0 F5EEC02A 		vcmpe.f32	s5, #0
 1833              	.LBE537:
 1834              	.LBE536:
 1835              	.LBB540:
 144:mi/plaits/dsp/oscillator/variable_shape_oscillator.h ****         if (master_phase_ >= 1.0f) {
 1836              		.loc 3 144 23 view .LVU555
 1837 00a4 78EEA77A 		vadd.f32	s15, s17, s15
 1838              	.LBE540:
 1839              	.LBB541:
 1840              	.LBB542:
  60:mi/stmlib/dsp/parameter_interpolator.h ****     return value_;
 1841              		.loc 6 60 12 view .LVU556
 1842 00a8 33EE293A 		vadd.f32	s6, s6, s19
 1843              	.LVL92:
  60:mi/stmlib/dsp/parameter_interpolator.h ****     return value_;
 1844              		.loc 6 60 12 view .LVU557
 1845              	.LBE542:
 1846              	.LBE541:
 1847              	.LBB544:
 1848              	.LBB538:
 1849              		.loc 8 259 7 view .LVU558
 1850 00ac F1EE10FA 		vmrs	APSR_nzcv, FPSCR
 1851              	.LBE538:
 1852              	.LBE544:
 1853              	.LBB545:
 1854              	.LBB546:
 1855 00b0 F5EEC01A 		vcmpe.f32	s3, #0
 1856              	.LBE546:
 1857              	.LBE545:
 1858              	.LBB549:
 144:mi/plaits/dsp/oscillator/variable_shape_oscillator.h ****         if (master_phase_ >= 1.0f) {
 1859              		.loc 3 144 23 view .LVU559
 1860 00b4 C0ED007A 		vstr.32	s15, [r0]
 1861              	.LBE549:
 141:mi/plaits/dsp/oscillator/variable_shape_oscillator.h **** 
 1862              		.loc 3 141 45 view .LVU560
 1863 00b8 77EE436A 		vsub.f32	s13, s14, s6
 137:mi/plaits/dsp/oscillator/variable_shape_oscillator.h ****       const float triangle_amount = std::max(1.0f - waveshape * 2.0f, 0.0f);
ARM GAS  /var/folders/9k/zk1mgrrd7wg4__6zvxvr9w8m0000gn/T//ccaaKoMx.s 			page 58


 1864              		.loc 3 137 19 view .LVU561
 1865 00bc 54BF     		ite	pl
 1866 00be 72EEA22A 		vaddpl.f32	s5, s5, s5
 1867              	.LBB550:
 1868              	.LBB539:
 1869 00c2 DFEDAD2A 		vldrmi.32	s5, .L106
 1870              	.LBE539:
 1871              	.LBE550:
 1872              	.LBB551:
 1873              	.LBB547:
 1874              		.loc 8 259 7 view .LVU562
 1875 00c6 F1EE10FA 		vmrs	APSR_nzcv, FPSCR
 1876              	.LBE547:
 1877              	.LBE551:
 1878              	.LBB552:
 1879              	.LBB504:
 145:mi/plaits/dsp/oscillator/variable_shape_oscillator.h ****           master_phase_ -= 1.0f;
 1880              		.loc 3 145 9 view .LVU563
 1881 00ca F4EEC77A 		vcmpe.f32	s15, s14
 1882              	.LBE504:
 1883              	.LBE552:
 140:mi/plaits/dsp/oscillator/variable_shape_oscillator.h ****       const float slope_down = 1.0f / (1.0f - pw);
 1884              		.loc 3 140 19 view .LVU564
 1885 00ce 87EE031A 		vdiv.f32	s2, s14, s6
 1886              	.LBB553:
 1887              	.LBB548:
 260:/Library/DaisyToolchain/0.2.0/arm/arm-none-eabi/include/c++/10.3.1/bits/stl_algobase.h **** 	return __b;
 1888              		.loc 8 260 9 view .LVU565
 1889 00d2 48BF     		it	mi
 1890 00d4 DFEDA81A 		vldrmi.32	s3, .L106
 1891              	.LBE548:
 1892              	.LBE553:
 1893              	.LBB554:
 1894              	.LBB530:
 145:mi/plaits/dsp/oscillator/variable_shape_oscillator.h ****           master_phase_ -= 1.0f;
 1895              		.loc 3 145 9 view .LVU566
 1896 00d8 F1EE10FA 		vmrs	APSR_nzcv, FPSCR
 1897              	.LBE530:
 1898              	.LBE554:
 141:mi/plaits/dsp/oscillator/variable_shape_oscillator.h **** 
 1899              		.loc 3 141 19 view .LVU567
 1900 00dc C7EE260A 		vdiv.f32	s1, s14, s13
 1901              	.LBB555:
 1902              	.LBB502:
  60:mi/stmlib/dsp/parameter_interpolator.h ****     return value_;
 1903              		.loc 6 60 12 view .LVU568
 1904 00e0 32EE0A2A 		vadd.f32	s4, s4, s20
 1905              	.LVL93:
 1906              		.loc 6 61 5 is_stmt 1 view .LVU569
 1907              		.loc 6 61 5 is_stmt 0 view .LVU570
 1908              	.LBE502:
 1909              	.LBE555:
 1910              	.LBB556:
 1911              	.LBI541:
  59:mi/stmlib/dsp/parameter_interpolator.h ****     value_ += increment_;
 1912              		.loc 6 59 16 is_stmt 1 view .LVU571
 1913              	.LBB543:
ARM GAS  /var/folders/9k/zk1mgrrd7wg4__6zvxvr9w8m0000gn/T//ccaaKoMx.s 			page 59


  60:mi/stmlib/dsp/parameter_interpolator.h ****     return value_;
 1914              		.loc 6 60 5 view .LVU572
 1915              		.loc 6 61 5 view .LVU573
 1916              		.loc 6 61 5 is_stmt 0 view .LVU574
 1917              	.LBE543:
 1918              	.LBE556:
 1919              	.LBB557:
 1920              	.LBI496:
  59:mi/stmlib/dsp/parameter_interpolator.h ****     value_ += increment_;
 1921              		.loc 6 59 16 is_stmt 1 view .LVU575
 1922              	.LBB498:
  60:mi/stmlib/dsp/parameter_interpolator.h ****     return value_;
 1923              		.loc 6 60 5 view .LVU576
 1924              		.loc 6 61 5 view .LVU577
 1925              		.loc 6 61 5 is_stmt 0 view .LVU578
 1926              	.LBE498:
 1927              	.LBE557:
 1928              	.LBB558:
 1929              	.LBI536:
 254:/Library/DaisyToolchain/0.2.0/arm/arm-none-eabi/include/c++/10.3.1/bits/stl_algobase.h ****     {
 1930              		.loc 8 254 5 is_stmt 1 view .LVU579
 254:/Library/DaisyToolchain/0.2.0/arm/arm-none-eabi/include/c++/10.3.1/bits/stl_algobase.h ****     {
 1931              		.loc 8 254 5 is_stmt 0 view .LVU580
 1932              	.LBE558:
 1933              	.LBB559:
 1934              	.LBI545:
 254:/Library/DaisyToolchain/0.2.0/arm/arm-none-eabi/include/c++/10.3.1/bits/stl_algobase.h ****     {
 1935              		.loc 8 254 5 is_stmt 1 view .LVU581
 254:/Library/DaisyToolchain/0.2.0/arm/arm-none-eabi/include/c++/10.3.1/bits/stl_algobase.h ****     {
 1936              		.loc 8 254 5 is_stmt 0 view .LVU582
 1937              	.LBE559:
 1938              	.LBB560:
 1939              	.LBB531:
 145:mi/plaits/dsp/oscillator/variable_shape_oscillator.h ****           master_phase_ -= 1.0f;
 1940              		.loc 3 145 9 view .LVU583
 1941 00e4 C0F22381 		blt	.L104
 1942              	.LBB505:
 146:mi/plaits/dsp/oscillator/variable_shape_oscillator.h ****           reset_time = master_phase_ / master_frequency;
 1943              		.loc 3 146 25 view .LVU584
 1944 00e8 77EEC77A 		vsub.f32	s15, s15, s14
 149:mi/plaits/dsp/oscillator/variable_shape_oscillator.h ****               (1.0f - reset_time) * slave_frequency;
 1945              		.loc 3 149 40 view .LVU585
 1946 00ec D0ED016A 		vldr.32	s13, [r0, #4]
 147:mi/plaits/dsp/oscillator/variable_shape_oscillator.h ****       
 1947              		.loc 3 147 22 view .LVU586
 1948 00f0 87EEA80A 		vdiv.f32	s0, s15, s17
 1949              	.LVL94:
 146:mi/plaits/dsp/oscillator/variable_shape_oscillator.h ****           reset_time = master_phase_ / master_frequency;
 1950              		.loc 3 146 25 view .LVU587
 1951 00f4 C0ED007A 		vstr.32	s15, [r0]
 149:mi/plaits/dsp/oscillator/variable_shape_oscillator.h ****               (1.0f - reset_time) * slave_frequency;
 1952              		.loc 3 149 17 view .LVU588
 1953 00f8 F0EE667A 		vmov.f32	s15, s13
 150:mi/plaits/dsp/oscillator/variable_shape_oscillator.h ****           reset = true;
 1954              		.loc 3 150 21 view .LVU589
 1955 00fc 37EE406A 		vsub.f32	s12, s14, s0
 149:mi/plaits/dsp/oscillator/variable_shape_oscillator.h ****               (1.0f - reset_time) * slave_frequency;
ARM GAS  /var/folders/9k/zk1mgrrd7wg4__6zvxvr9w8m0000gn/T//ccaaKoMx.s 			page 60


 1956              		.loc 3 149 17 view .LVU590
 1957 0100 E6EE027A 		vfma.f32	s15, s12, s4
 1958              	.LVL95:
 152:mi/plaits/dsp/oscillator/variable_shape_oscillator.h ****             slave_phase_at_reset -= 1.0f;
 1959              		.loc 3 152 11 view .LVU591
 1960 0104 F4EEC77A 		vcmpe.f32	s15, s14
 1961 0108 F1EE10FA 		vmrs	APSR_nzcv, FPSCR
 1962 010c C0F22181 		blt	.L95
 153:mi/plaits/dsp/oscillator/variable_shape_oscillator.h ****             transition_during_reset = true;
 1963              		.loc 3 153 34 view .LVU592
 1964 0110 77EEC77A 		vsub.f32	s15, s15, s14
 1965              	.LVL96:
 154:mi/plaits/dsp/oscillator/variable_shape_oscillator.h ****           }
 1966              		.loc 3 154 37 view .LVU593
 1967 0114 0122     		movs	r2, #1
 1968              	.LVL97:
 1969              	.L64:
 156:mi/plaits/dsp/oscillator/variable_shape_oscillator.h ****             transition_during_reset = true;
 1970              		.loc 3 156 16 view .LVU594
 1971 0116 037C     		ldrb	r3, [r0, #16]	@ zero_extendqisi2
 156:mi/plaits/dsp/oscillator/variable_shape_oscillator.h ****             transition_during_reset = true;
 1972              		.loc 3 156 11 view .LVU595
 1973 0118 23B9     		cbnz	r3, .L102
 156:mi/plaits/dsp/oscillator/variable_shape_oscillator.h ****             transition_during_reset = true;
 1974              		.loc 3 156 22 discriminator 1 view .LVU596
 1975 011a F4EEC37A 		vcmpe.f32	s15, s6
 1976 011e F1EE10FA 		vmrs	APSR_nzcv, FPSCR
 1977 0122 01DA     		bge	.L67
 1978              	.L102:
 156:mi/plaits/dsp/oscillator/variable_shape_oscillator.h ****             transition_during_reset = true;
 1979              		.loc 3 156 22 discriminator 1 view .LVU597
 1980              	.LBE505:
 1981              	.LBE531:
 1982              	.LBE560:
 177:mi/plaits/dsp/oscillator/variable_shape_oscillator.h ****         if (!high_) {
 1983              		.loc 3 177 38 view .LVU598
 1984 0124 82F00103 		eor	r3, r2, #1
 1985              	.L67:
 1986              	.LVL98:
 1987              	.LBB561:
 1988              	.LBB532:
 1989              	.LBB526:
 1990              	.LBB506:
 1991              	.LBI506:
 246:mi/plaits/dsp/oscillator/variable_shape_oscillator.h ****   }
 247:mi/plaits/dsp/oscillator/variable_shape_oscillator.h ****   
 248:mi/plaits/dsp/oscillator/variable_shape_oscillator.h ****  private:
 249:mi/plaits/dsp/oscillator/variable_shape_oscillator.h ****   inline float ComputeNaiveSample(
 1992              		.loc 3 249 16 is_stmt 1 view .LVU599
 1993              	.LBB507:
 250:mi/plaits/dsp/oscillator/variable_shape_oscillator.h ****       float phase,
 251:mi/plaits/dsp/oscillator/variable_shape_oscillator.h ****       float pw,
 252:mi/plaits/dsp/oscillator/variable_shape_oscillator.h ****       float slope_up,
 253:mi/plaits/dsp/oscillator/variable_shape_oscillator.h ****       float slope_down,
 254:mi/plaits/dsp/oscillator/variable_shape_oscillator.h ****       float triangle_amount,
 255:mi/plaits/dsp/oscillator/variable_shape_oscillator.h ****       float square_amount) const {
 256:mi/plaits/dsp/oscillator/variable_shape_oscillator.h ****     float saw = phase;
ARM GAS  /var/folders/9k/zk1mgrrd7wg4__6zvxvr9w8m0000gn/T//ccaaKoMx.s 			page 61


 1994              		.loc 3 256 5 view .LVU600
 257:mi/plaits/dsp/oscillator/variable_shape_oscillator.h ****     float square = phase < pw ? 0.0f : 1.0f;
 1995              		.loc 3 257 5 view .LVU601
 1996              		.loc 3 257 31 is_stmt 0 view .LVU602
 1997 0128 F4EEC37A 		vcmpe.f32	s15, s6
 1998 012c F1EE10FA 		vmrs	APSR_nzcv, FPSCR
 1999 0130 40F10681 		bpl	.L96
 2000              	.LVL99:
 258:mi/plaits/dsp/oscillator/variable_shape_oscillator.h ****     float triangle = phase < pw
 259:mi/plaits/dsp/oscillator/variable_shape_oscillator.h ****         ? phase * slope_up
 2001              		.loc 3 259 9 view .LVU603
 2002 0134 27EE815A 		vmul.f32	s10, s15, s2
 2003 0138 DFED8F5A 		vldr.32	s11, .L106
 2004              	.LVL100:
 2005              	.L70:
 260:mi/plaits/dsp/oscillator/variable_shape_oscillator.h ****         : 1.0f - (phase - pw) * slope_down;
 261:mi/plaits/dsp/oscillator/variable_shape_oscillator.h ****     saw += (square - saw) * square_amount;
 2006              		.loc 3 261 5 is_stmt 1 view .LVU604
 2007              		.loc 3 261 20 is_stmt 0 view .LVU605
 2008 013c 75EEE75A 		vsub.f32	s11, s11, s15
 2009              	.LBE507:
 2010              	.LBE506:
 167:mi/plaits/dsp/oscillator/variable_shape_oscillator.h ****         }
 2011              		.loc 3 167 23 view .LVU606
 2012 0140 DFED8D3A 		vldr.32	s7, .L106
 2013              	.LBB511:
 2014              	.LBB512:
  43:mi/stmlib/dsp/polyblep.h **** }
 2015              		.loc 7 43 16 view .LVU607
 2016 0144 FEEE004A 		vmov.f32	s9, #-5.0e-1
 2017              	.LBE512:
 2018              	.LBE511:
 151:mi/plaits/dsp/oscillator/variable_shape_oscillator.h ****           if (slave_phase_at_reset >= 1.0f) {
 2019              		.loc 3 151 17 view .LVU608
 2020 0148 0124     		movs	r4, #1
 2021              	.LBB515:
 2022              	.LBB516:
  38:mi/stmlib/dsp/polyblep.h **** }
 2023              		.loc 7 38 15 view .LVU609
 2024 014a B6EE007A 		vmov.f32	s14, #5.0e-1
 2025              	.LBE516:
 2026              	.LBE515:
 2027              	.LBB519:
 2028              	.LBB508:
 2029              		.loc 3 261 9 view .LVU610
 2030 014e E5EEA27A 		vfma.f32	s15, s11, s5
 2031              	.LVL101:
 262:mi/plaits/dsp/oscillator/variable_shape_oscillator.h ****     saw += (triangle - saw) * triangle_amount;
 2032              		.loc 3 262 5 is_stmt 1 view .LVU611
 2033              	.LBE508:
 2034              	.LBE519:
 2035              	.LBB520:
 2036              	.LBB513:
  43:mi/stmlib/dsp/polyblep.h **** }
 2037              		.loc 7 43 16 is_stmt 0 view .LVU612
 2038 0152 66EE245A 		vmul.f32	s11, s12, s9
 2039              	.LBE513:
ARM GAS  /var/folders/9k/zk1mgrrd7wg4__6zvxvr9w8m0000gn/T//ccaaKoMx.s 			page 62


 2040              	.LBE520:
 2041              	.LBB521:
 2042              	.LBB517:
  38:mi/stmlib/dsp/polyblep.h **** }
 2043              		.loc 7 38 15 view .LVU613
 2044 0156 20EE077A 		vmul.f32	s14, s0, s14
 2045              	.LBE517:
 2046              	.LBE521:
 167:mi/plaits/dsp/oscillator/variable_shape_oscillator.h ****         }
 2047              		.loc 3 167 23 view .LVU614
 2048 015a 26EE656A 		vnmul.f32	s12, s12, s11
 166:mi/plaits/dsp/oscillator/variable_shape_oscillator.h ****           next_sample -= value * stmlib::NextBlepSample(reset_time);
 2049              		.loc 3 166 23 view .LVU615
 2050 015e 20EE477A 		vnmul.f32	s14, s0, s14
 2051              	.LBB522:
 2052              	.LBB509:
 2053              		.loc 3 262 22 view .LVU616
 2054 0162 75EE675A 		vsub.f32	s11, s10, s15
 2055              		.loc 3 262 9 view .LVU617
 2056 0166 E1EEA57A 		vfma.f32	s15, s3, s11
 2057              	.LVL102:
 263:mi/plaits/dsp/oscillator/variable_shape_oscillator.h ****     return saw;
 2058              		.loc 3 263 5 is_stmt 1 view .LVU618
 2059              		.loc 3 263 5 is_stmt 0 view .LVU619
 2060              	.LBE509:
 2061              	.LBE522:
 2062              	.LBB523:
 2063              	.LBI515:
  37:mi/stmlib/dsp/polyblep.h ****   return 0.5f * t * t;
 2064              		.loc 7 37 14 is_stmt 1 view .LVU620
 2065              	.LBB518:
  38:mi/stmlib/dsp/polyblep.h **** }
 2066              		.loc 7 38 3 view .LVU621
  38:mi/stmlib/dsp/polyblep.h **** }
 2067              		.loc 7 38 3 is_stmt 0 view .LVU622
 2068              	.LBE518:
 2069              	.LBE523:
 166:mi/plaits/dsp/oscillator/variable_shape_oscillator.h ****           next_sample -= value * stmlib::NextBlepSample(reset_time);
 2070              		.loc 3 166 23 view .LVU623
 2071 016a A7EE27BA 		vfma.f32	s22, s14, s15
 2072              	.LVL103:
 2073              	.LBB524:
 2074              	.LBI511:
  41:mi/stmlib/dsp/polyblep.h ****   t = 1.0f - t;
 2075              		.loc 7 41 14 is_stmt 1 view .LVU624
 2076              	.LBB514:
  42:mi/stmlib/dsp/polyblep.h ****   return -0.5f * t * t;
 2077              		.loc 7 42 3 view .LVU625
  43:mi/stmlib/dsp/polyblep.h **** }
 2078              		.loc 7 43 3 view .LVU626
  43:mi/stmlib/dsp/polyblep.h **** }
 2079              		.loc 7 43 3 is_stmt 0 view .LVU627
 2080              	.LBE514:
 2081              	.LBE524:
 167:mi/plaits/dsp/oscillator/variable_shape_oscillator.h ****         }
 2082              		.loc 3 167 23 view .LVU628
 2083 016e E6EE273A 		vfma.f32	s7, s12, s15
ARM GAS  /var/folders/9k/zk1mgrrd7wg4__6zvxvr9w8m0000gn/T//ccaaKoMx.s 			page 63


 2084              	.LVL104:
 2085              	.L63:
 167:mi/plaits/dsp/oscillator/variable_shape_oscillator.h ****         }
 2086              		.loc 3 167 23 view .LVU629
 2087              	.LBE526:
 2088              	.LBE532:
 2089              	.LBE561:
 176:mi/plaits/dsp/oscillator/variable_shape_oscillator.h ****       while (transition_during_reset || !reset) {
 2090              		.loc 3 176 20 view .LVU630
 2091 0172 72EE266A 		vadd.f32	s13, s4, s13
 2092 0176 C0ED016A 		vstr.32	s13, [r0, #4]
 177:mi/plaits/dsp/oscillator/variable_shape_oscillator.h ****         if (!high_) {
 2093              		.loc 3 177 38 is_stmt 1 view .LVU631
 2094 017a 002B     		cmp	r3, #0
 2095 017c 40F09480 		bne	.L71
 2096              	.L97:
 2097              	.LBB562:
 178:mi/plaits/dsp/oscillator/variable_shape_oscillator.h ****           if (slave_phase_ < pw) {
 2098              		.loc 3 178 9 is_stmt 0 view .LVU632
 2099 0180 037C     		ldrb	r3, [r0, #16]	@ zero_extendqisi2
 2100              	.LBB563:
 2101              	.LBB564:
 2102              	.LBB565:
  42:mi/stmlib/dsp/polyblep.h ****   return -0.5f * t * t;
 2103              		.loc 7 42 5 view .LVU633
 2104 0182 F7EE005A 		vmov.f32	s11, #1.0e+0
 2105              	.LBE565:
 2106              	.LBE564:
 2107              	.LBB571:
 2108              	.LBB572:
  38:mi/stmlib/dsp/polyblep.h **** }
 2109              		.loc 7 38 15 view .LVU634
 2110 0186 F6EE006A 		vmov.f32	s13, #5.0e-1
 2111              	.LBE572:
 2112              	.LBE571:
 190:mi/plaits/dsp/oscillator/variable_shape_oscillator.h ****         }
 2113              		.loc 3 190 17 view .LVU635
 2114 018a 0122     		movs	r2, #1
 2115              	.LBB575:
 2116              	.LBB576:
 2117              	.LBB577:
  50:mi/stmlib/dsp/polyblep.h **** }
 2118              		.loc 7 50 18 view .LVU636
 2119 018c F4EE087A 		vmov.f32	s15, #1.875e-1
 2120              	.LBE577:
 2121              	.LBE576:
 2122              	.LBE575:
 179:mi/plaits/dsp/oscillator/variable_shape_oscillator.h ****             break;
 2123              		.loc 3 179 15 view .LVU637
 2124 0190 90ED015A 		vldr.32	s10, [r0, #4]
 2125              	.LBB588:
 2126              	.LBB583:
 2127              	.LBB578:
  50:mi/stmlib/dsp/polyblep.h **** }
 2128              		.loc 7 50 23 view .LVU638
 2129 0194 F7EE08BA 		vmov.f32	s23, #1.5e+0
 2130              	.LBE578:
ARM GAS  /var/folders/9k/zk1mgrrd7wg4__6zvxvr9w8m0000gn/T//ccaaKoMx.s 			page 64


 2131              	.LBE583:
 2132              	.LBE588:
 2133              	.LBB589:
 2134              	.LBB566:
  43:mi/stmlib/dsp/polyblep.h **** }
 2135              		.loc 7 43 16 view .LVU639
 2136 0198 BEEE006A 		vmov.f32	s12, #-5.0e-1
 2137              	.LBE566:
 2138              	.LBE589:
 2139              	.LBE563:
 178:mi/plaits/dsp/oscillator/variable_shape_oscillator.h ****           if (slave_phase_ < pw) {
 2140              		.loc 3 178 9 view .LVU640
 2141 019c 002B     		cmp	r3, #0
 2142 019e 45D0     		beq	.L105
 2143              	.L74:
 178:mi/plaits/dsp/oscillator/variable_shape_oscillator.h ****           if (slave_phase_ < pw) {
 2144              		.loc 3 178 9 view .LVU641
 2145              	.LBE562:
 2146              	.LBB615:
 2147              	.LBB616:
 194:mi/plaits/dsp/oscillator/variable_shape_oscillator.h ****             break;
 2148              		.loc 3 194 11 view .LVU642
 2149 01a0 B7EE007A 		vmov.f32	s14, #1.0e+0
 206:mi/plaits/dsp/oscillator/variable_shape_oscillator.h ****         }
 2150              		.loc 3 206 17 view .LVU643
 2151 01a4 0023     		movs	r3, #0
 2152              	.LBB617:
 2153              	.LBB618:
  38:mi/stmlib/dsp/polyblep.h **** }
 2154              		.loc 7 38 15 view .LVU644
 2155 01a6 F6EE007A 		vmov.f32	s15, #5.0e-1
 2156              	.LBE618:
 2157              	.LBE617:
 2158              	.LBB621:
 2159              	.LBB622:
 2160              	.LBB623:
  50:mi/stmlib/dsp/polyblep.h **** }
 2161              		.loc 7 50 18 view .LVU645
 2162 01aa B4EE08CA 		vmov.f32	s24, #1.875e-1
 2163              	.LBE623:
 2164              	.LBE622:
 2165              	.LBE621:
 194:mi/plaits/dsp/oscillator/variable_shape_oscillator.h ****             break;
 2166              		.loc 3 194 11 view .LVU646
 2167 01ae B4EEC75A 		vcmpe.f32	s10, s14
 2168              	.LBB638:
 2169              	.LBB631:
 2170              	.LBB624:
  50:mi/stmlib/dsp/polyblep.h **** }
 2171              		.loc 7 50 23 view .LVU647
 2172 01b2 B7EE084A 		vmov.f32	s8, #1.5e+0
 2173              	.LBE624:
 2174              	.LBE631:
 2175              	.LBE638:
 2176              	.LBB639:
 2177              	.LBB640:
  43:mi/stmlib/dsp/polyblep.h **** }
ARM GAS  /var/folders/9k/zk1mgrrd7wg4__6zvxvr9w8m0000gn/T//ccaaKoMx.s 			page 65


 2178              		.loc 7 43 16 view .LVU648
 2179 01b6 BEEE006A 		vmov.f32	s12, #-5.0e-1
 2180              	.LBE640:
 2181              	.LBE639:
 194:mi/plaits/dsp/oscillator/variable_shape_oscillator.h ****             break;
 2182              		.loc 3 194 11 view .LVU649
 2183 01ba F1EE10FA 		vmrs	APSR_nzcv, FPSCR
 2184 01be 72D4     		bmi	.L73
 197:mi/plaits/dsp/oscillator/variable_shape_oscillator.h ****           float t = slave_phase_ / slave_frequency;
 2185              		.loc 3 197 24 view .LVU650
 2186 01c0 35EE475A 		vsub.f32	s10, s10, s14
 206:mi/plaits/dsp/oscillator/variable_shape_oscillator.h ****         }
 2187              		.loc 3 206 17 view .LVU651
 2188 01c4 0374     		strb	r3, [r0, #16]
 202:mi/plaits/dsp/oscillator/variable_shape_oscillator.h ****           next_sample -= (1.0f - triangle_amount) * stmlib::NextBlepSample(t);
 2189              		.loc 3 202 32 view .LVU652
 2190 01c6 77EE61BA 		vsub.f32	s23, s14, s3
 199:mi/plaits/dsp/oscillator/variable_shape_oscillator.h ****           triangle_step *= triangle_amount;
 2191              		.loc 3 199 43 view .LVU653
 2192 01ca 71EE206A 		vadd.f32	s13, s2, s1
 198:mi/plaits/dsp/oscillator/variable_shape_oscillator.h ****           float triangle_step = (slope_up + slope_down) * slave_frequency;
 2193              		.loc 3 198 17 view .LVU654
 2194 01ce C5EE024A 		vdiv.f32	s9, s10, s4
 2195              	.LVL105:
 197:mi/plaits/dsp/oscillator/variable_shape_oscillator.h ****           float t = slave_phase_ / slave_frequency;
 2196              		.loc 3 197 24 view .LVU655
 2197 01d2 80ED015A 		vstr.32	s10, [r0, #4]
 199:mi/plaits/dsp/oscillator/variable_shape_oscillator.h ****           triangle_step *= triangle_amount;
 2198              		.loc 3 199 17 view .LVU656
 2199 01d6 66EE826A 		vmul.f32	s13, s13, s4
 2200              	.LVL106:
 200:mi/plaits/dsp/oscillator/variable_shape_oscillator.h **** 
 2201              		.loc 3 200 25 view .LVU657
 2202 01da 61EEA66A 		vmul.f32	s13, s3, s13
 2203              	.LVL107:
 2204              	.LBB645:
 2205              	.LBI617:
  37:mi/stmlib/dsp/polyblep.h ****   return 0.5f * t * t;
 2206              		.loc 7 37 14 is_stmt 1 view .LVU658
 2207              	.LBB619:
  38:mi/stmlib/dsp/polyblep.h **** }
 2208              		.loc 7 38 3 view .LVU659
  38:mi/stmlib/dsp/polyblep.h **** }
 2209              		.loc 7 38 15 is_stmt 0 view .LVU660
 2210 01de 24EEA75A 		vmul.f32	s10, s9, s15
 2211              	.LVL108:
  38:mi/stmlib/dsp/polyblep.h **** }
 2212              		.loc 7 38 15 view .LVU661
 2213              	.LBE619:
 2214              	.LBE645:
 2215              	.LBB646:
 2216              	.LBB641:
  42:mi/stmlib/dsp/polyblep.h ****   return -0.5f * t * t;
 2217              		.loc 7 42 5 view .LVU662
 2218 01e2 37EE647A 		vsub.f32	s14, s14, s9
 2219              	.LBE641:
 2220              	.LBE646:
ARM GAS  /var/folders/9k/zk1mgrrd7wg4__6zvxvr9w8m0000gn/T//ccaaKoMx.s 			page 66


 2221              	.LBB647:
 2222              	.LBB648:
  48:mi/stmlib/dsp/polyblep.h ****   const float t4 = t2 * t2;
 2223              		.loc 7 48 15 view .LVU663
 2224 01e6 65EE05CA 		vmul.f32	s25, s10, s10
 2225              	.LBE648:
 2226              	.LBE647:
 2227              	.LBB653:
 2228              	.LBB632:
 2229              	.LBB625:
  47:mi/stmlib/dsp/polyblep.h ****   const float t2 = t1 * t1;
 2230              		.loc 7 47 15 view .LVU664
 2231 01ea 67EE277A 		vmul.f32	s15, s14, s15
 2232              	.LBE625:
 2233              	.LBE632:
 2234              	.LBE653:
 2235              	.LBB654:
 2236              	.LBB649:
  50:mi/stmlib/dsp/polyblep.h **** }
 2237              		.loc 7 50 18 view .LVU665
 2238 01ee 7CEE455A 		vsub.f32	s11, s24, s10
 2239              	.LBE649:
 2240              	.LBE654:
 2241              	.LBB655:
 2242              	.LBB620:
  38:mi/stmlib/dsp/polyblep.h **** }
 2243              		.loc 7 38 21 view .LVU666
 2244 01f2 64EE854A 		vmul.f32	s9, s9, s10
 2245              	.LVL109:
  38:mi/stmlib/dsp/polyblep.h **** }
 2246              		.loc 7 38 21 view .LVU667
 2247              	.LBE620:
 2248              	.LBE655:
 2249              	.LBB656:
 2250              	.LBB642:
  43:mi/stmlib/dsp/polyblep.h **** }
 2251              		.loc 7 43 16 view .LVU668
 2252 01f6 27EE066A 		vmul.f32	s12, s14, s12
 2253              	.LBE642:
 2254              	.LBE656:
 2255              	.LBB657:
 2256              	.LBB633:
 2257              	.LBB626:
  48:mi/stmlib/dsp/polyblep.h ****   const float t4 = t2 * t2;
 2258              		.loc 7 48 15 view .LVU669
 2259 01fa 27EEA75A 		vmul.f32	s10, s15, s15
 2260              	.LBE626:
 2261              	.LBE633:
 2262              	.LBE657:
 2263              	.LBB658:
 2264              	.LBB650:
  50:mi/stmlib/dsp/polyblep.h **** }
 2265              		.loc 7 50 23 view .LVU670
 2266 01fe ECEE845A 		vfma.f32	s11, s25, s8
 2267              	.LBE650:
 2268              	.LBE658:
 2269              	.LBB659:
ARM GAS  /var/folders/9k/zk1mgrrd7wg4__6zvxvr9w8m0000gn/T//ccaaKoMx.s 			page 67


 2270              	.LBB634:
 2271              	.LBB627:
  50:mi/stmlib/dsp/polyblep.h **** }
 2272              		.loc 7 50 18 view .LVU671
 2273 0202 7CEE677A 		vsub.f32	s15, s24, s15
 2274              	.LBE627:
 2275              	.LBE634:
 2276              	.LBE659:
 2277              	.LBB660:
 2278              	.LBB643:
  43:mi/stmlib/dsp/polyblep.h **** }
 2279              		.loc 7 43 22 view .LVU672
 2280 0206 26EE077A 		vmul.f32	s14, s12, s14
 2281              	.LBE643:
 2282              	.LBE660:
 202:mi/plaits/dsp/oscillator/variable_shape_oscillator.h ****           next_sample -= (1.0f - triangle_amount) * stmlib::NextBlepSample(t);
 2283              		.loc 3 202 23 view .LVU673
 2284 020a ABEEE4BA 		vfms.f32	s22, s23, s9
 2285              	.LVL110:
 2286              	.LBB661:
 2287              	.LBI639:
  41:mi/stmlib/dsp/polyblep.h ****   t = 1.0f - t;
 2288              		.loc 7 41 14 is_stmt 1 view .LVU674
 2289              	.LBB644:
  42:mi/stmlib/dsp/polyblep.h ****   return -0.5f * t * t;
 2290              		.loc 7 42 3 view .LVU675
  43:mi/stmlib/dsp/polyblep.h **** }
 2291              		.loc 7 43 3 view .LVU676
  43:mi/stmlib/dsp/polyblep.h **** }
 2292              		.loc 7 43 3 is_stmt 0 view .LVU677
 2293              	.LBE644:
 2294              	.LBE661:
 2295              	.LBB662:
 2296              	.LBB635:
 2297              	.LBB628:
  50:mi/stmlib/dsp/polyblep.h **** }
 2298              		.loc 7 50 23 view .LVU678
 2299 020e E5EE047A 		vfma.f32	s15, s10, s8
 2300              	.LBE628:
 2301              	.LBE635:
 2302              	.LBE662:
 203:mi/plaits/dsp/oscillator/variable_shape_oscillator.h ****           this_sample += triangle_step * stmlib::ThisIntegratedBlepSample(t);
 2303              		.loc 3 203 23 view .LVU679
 2304 0212 EBEEC73A 		vfms.f32	s7, s23, s14
 2305              	.LVL111:
 2306              	.LBB663:
 2307              	.LBI621:
  53:mi/stmlib/dsp/polyblep.h ****   return NextIntegratedBlepSample(1.0f - t);
 2308              		.loc 7 53 14 is_stmt 1 view .LVU680
 2309              	.LBE663:
 2310              	.LBE616:
 2311              	.LBE615:
 2312              	.LBE492:
 2313              		.loc 7 54 3 view .LVU681
 2314              	.LBB687:
 2315              	.LBB669:
 2316              	.LBB668:
ARM GAS  /var/folders/9k/zk1mgrrd7wg4__6zvxvr9w8m0000gn/T//ccaaKoMx.s 			page 68


 2317              	.LBB664:
 2318              	.LBB636:
 2319              	.LBI622:
  46:mi/stmlib/dsp/polyblep.h ****   const float t1 = 0.5f * t;
 2320              		.loc 7 46 14 view .LVU682
 2321              	.LBB629:
  47:mi/stmlib/dsp/polyblep.h ****   const float t2 = t1 * t1;
 2322              		.loc 7 47 3 view .LVU683
  48:mi/stmlib/dsp/polyblep.h ****   const float t4 = t2 * t2;
 2323              		.loc 7 48 3 view .LVU684
  49:mi/stmlib/dsp/polyblep.h ****   return 0.1875f - t1 + 1.5f * t2 - t4;
 2324              		.loc 7 49 3 view .LVU685
  50:mi/stmlib/dsp/polyblep.h **** }
 2325              		.loc 7 50 3 view .LVU686
 2326              	.LBE629:
 2327              	.LBE636:
 2328              	.LBE664:
 2329              	.LBB665:
 2330              	.LBB651:
  50:mi/stmlib/dsp/polyblep.h **** }
 2331              		.loc 7 50 37 is_stmt 0 view .LVU687
 2332 0216 B0EE657A 		vmov.f32	s14, s11
 2333 021a ACEEEC7A 		vfms.f32	s14, s25, s25
 2334              	.LBE651:
 2335              	.LBE665:
 2336              	.LBB666:
 2337              	.LBB637:
 2338              	.LBB630:
 2339 021e E5EE457A 		vfms.f32	s15, s10, s10
 2340              	.LVL112:
  50:mi/stmlib/dsp/polyblep.h **** }
 2341              		.loc 7 50 37 view .LVU688
 2342              	.LBE630:
 2343              	.LBE637:
 2344              	.LBE666:
 205:mi/plaits/dsp/oscillator/variable_shape_oscillator.h ****           high_ = false;
 2345              		.loc 3 205 23 view .LVU689
 2346 0222 E6EE873A 		vfma.f32	s7, s13, s14
 2347              	.LVL113:
 204:mi/plaits/dsp/oscillator/variable_shape_oscillator.h ****           next_sample += triangle_step * stmlib::NextIntegratedBlepSample(t);
 2348              		.loc 3 204 23 view .LVU690
 2349 0226 A6EEA7BA 		vfma.f32	s22, s13, s15
 2350              	.LVL114:
 2351              	.LBB667:
 2352              	.LBI647:
  46:mi/stmlib/dsp/polyblep.h ****   const float t1 = 0.5f * t;
 2353              		.loc 7 46 14 is_stmt 1 view .LVU691
 2354              	.LBB652:
  47:mi/stmlib/dsp/polyblep.h ****   const float t2 = t1 * t1;
 2355              		.loc 7 47 3 view .LVU692
  48:mi/stmlib/dsp/polyblep.h ****   const float t4 = t2 * t2;
 2356              		.loc 7 48 3 view .LVU693
  49:mi/stmlib/dsp/polyblep.h ****   return 0.1875f - t1 + 1.5f * t2 - t4;
 2357              		.loc 7 49 3 view .LVU694
  50:mi/stmlib/dsp/polyblep.h **** }
 2358              		.loc 7 50 3 view .LVU695
  50:mi/stmlib/dsp/polyblep.h **** }
ARM GAS  /var/folders/9k/zk1mgrrd7wg4__6zvxvr9w8m0000gn/T//ccaaKoMx.s 			page 69


 2359              		.loc 7 50 3 is_stmt 0 view .LVU696
 2360              	.LBE652:
 2361              	.LBE667:
 2362              	.LBE668:
 2363 022a A9E7     		b	.L97
 2364              	.LVL115:
 2365              	.L105:
  50:mi/stmlib/dsp/polyblep.h **** }
 2366              		.loc 7 50 3 view .LVU697
 2367              	.LBE669:
 2368              	.LBB670:
 2369              	.LBB613:
 179:mi/plaits/dsp/oscillator/variable_shape_oscillator.h ****             break;
 2370              		.loc 3 179 11 view .LVU698
 2371 022c B4EEC35A 		vcmpe.f32	s10, s6
 2372 0230 F1EE10FA 		vmrs	APSR_nzcv, FPSCR
 2373 0234 37D4     		bmi	.L73
 182:mi/plaits/dsp/oscillator/variable_shape_oscillator.h ****           float triangle_step = (slope_up + slope_down) * slave_frequency;
 2374              		.loc 3 182 57 view .LVU699
 2375 0236 D0ED034A 		vldr.32	s9, [r0, #12]
 182:mi/plaits/dsp/oscillator/variable_shape_oscillator.h ****           float triangle_step = (slope_up + slope_down) * slave_frequency;
 2376              		.loc 3 182 35 view .LVU700
 2377 023a 35EE43CA 		vsub.f32	s24, s10, s6
 183:mi/plaits/dsp/oscillator/variable_shape_oscillator.h ****           triangle_step *= triangle_amount;
 2378              		.loc 3 183 43 view .LVU701
 2379 023e 31EE207A 		vadd.f32	s14, s2, s1
 190:mi/plaits/dsp/oscillator/variable_shape_oscillator.h ****         }
 2380              		.loc 3 190 17 view .LVU702
 2381 0242 0274     		strb	r2, [r0, #16]
 182:mi/plaits/dsp/oscillator/variable_shape_oscillator.h ****           float triangle_step = (slope_up + slope_down) * slave_frequency;
 2382              		.loc 3 182 57 view .LVU703
 2383 0244 74EEC34A 		vsub.f32	s9, s9, s6
 183:mi/plaits/dsp/oscillator/variable_shape_oscillator.h ****           triangle_step *= triangle_amount;
 2384              		.loc 3 183 17 view .LVU704
 2385 0248 27EE027A 		vmul.f32	s14, s14, s4
 182:mi/plaits/dsp/oscillator/variable_shape_oscillator.h ****           float triangle_step = (slope_up + slope_down) * slave_frequency;
 2386              		.loc 3 182 62 view .LVU705
 2387 024c 74EE824A 		vadd.f32	s9, s9, s4
 188:mi/plaits/dsp/oscillator/variable_shape_oscillator.h ****           next_sample -= triangle_step * stmlib::NextIntegratedBlepSample(t);
 2388              		.loc 3 188 23 view .LVU706
 2389 0250 27EE617A 		vnmul.f32	s14, s14, s3
 182:mi/plaits/dsp/oscillator/variable_shape_oscillator.h ****           float triangle_step = (slope_up + slope_down) * slave_frequency;
 2390              		.loc 3 182 17 view .LVU707
 2391 0254 8CEE244A 		vdiv.f32	s8, s24, s9
 2392              	.LVL116:
 2393              	.LBB590:
 2394              	.LBI571:
  37:mi/stmlib/dsp/polyblep.h ****   return 0.5f * t * t;
 2395              		.loc 7 37 14 is_stmt 1 view .LVU708
 2396              	.LBB573:
  38:mi/stmlib/dsp/polyblep.h **** }
 2397              		.loc 7 38 3 view .LVU709
  38:mi/stmlib/dsp/polyblep.h **** }
 2398              		.loc 7 38 15 is_stmt 0 view .LVU710
 2399 0258 64EE26CA 		vmul.f32	s25, s8, s13
 2400              	.LVL117:
  38:mi/stmlib/dsp/polyblep.h **** }
ARM GAS  /var/folders/9k/zk1mgrrd7wg4__6zvxvr9w8m0000gn/T//ccaaKoMx.s 			page 70


 2401              		.loc 7 38 15 view .LVU711
 2402              	.LBE573:
 2403              	.LBE590:
 2404              	.LBB591:
 2405              	.LBB567:
  42:mi/stmlib/dsp/polyblep.h ****   return -0.5f * t * t;
 2406              		.loc 7 42 5 view .LVU712
 2407 025c 75EEC45A 		vsub.f32	s11, s11, s8
 2408              	.LBE567:
 2409              	.LBE591:
 2410              	.LBB592:
 2411              	.LBB593:
  50:mi/stmlib/dsp/polyblep.h **** }
 2412              		.loc 7 50 18 view .LVU713
 2413 0260 77EEEC4A 		vsub.f32	s9, s15, s25
 2414              	.LBE593:
 2415              	.LBE592:
 2416              	.LBB599:
 2417              	.LBB584:
 2418              	.LBB579:
  47:mi/stmlib/dsp/polyblep.h ****   const float t2 = t1 * t1;
 2419              		.loc 7 47 15 view .LVU714
 2420 0264 65EEA66A 		vmul.f32	s13, s11, s13
 2421              	.LBE579:
 2422              	.LBE584:
 2423              	.LBE599:
 2424              	.LBB600:
 2425              	.LBB594:
  48:mi/stmlib/dsp/polyblep.h ****   const float t4 = t2 * t2;
 2426              		.loc 7 48 15 view .LVU715
 2427 0268 2CEEACCA 		vmul.f32	s24, s25, s25
 2428              	.LBE594:
 2429              	.LBE600:
 2430              	.LBB601:
 2431              	.LBB574:
  38:mi/stmlib/dsp/polyblep.h **** }
 2432              		.loc 7 38 21 view .LVU716
 2433 026c 24EE2C4A 		vmul.f32	s8, s8, s25
 2434              	.LVL118:
  38:mi/stmlib/dsp/polyblep.h **** }
 2435              		.loc 7 38 21 view .LVU717
 2436              	.LBE574:
 2437              	.LBE601:
 2438              	.LBB602:
 2439              	.LBB585:
 2440              	.LBB580:
  50:mi/stmlib/dsp/polyblep.h **** }
 2441              		.loc 7 50 18 view .LVU718
 2442 0270 77EEE67A 		vsub.f32	s15, s15, s13
  48:mi/stmlib/dsp/polyblep.h ****   const float t4 = t2 * t2;
 2443              		.loc 7 48 15 view .LVU719
 2444 0274 66EEA6CA 		vmul.f32	s25, s13, s13
 2445              	.LBE580:
 2446              	.LBE585:
 2447              	.LBE602:
 2448              	.LBB603:
 2449              	.LBB595:
ARM GAS  /var/folders/9k/zk1mgrrd7wg4__6zvxvr9w8m0000gn/T//ccaaKoMx.s 			page 71


  50:mi/stmlib/dsp/polyblep.h **** }
 2450              		.loc 7 50 23 view .LVU720
 2451 0278 F0EE646A 		vmov.f32	s13, s9
 2452              	.LBE595:
 2453              	.LBE603:
 2454              	.LBB604:
 2455              	.LBB568:
  43:mi/stmlib/dsp/polyblep.h **** }
 2456              		.loc 7 43 16 view .LVU721
 2457 027c 25EE866A 		vmul.f32	s12, s11, s12
 2458              	.LBE568:
 2459              	.LBE604:
 2460              	.LBB605:
 2461              	.LBB586:
 2462              	.LBB581:
  50:mi/stmlib/dsp/polyblep.h **** }
 2463              		.loc 7 50 23 view .LVU722
 2464 0280 ECEEAB7A 		vfma.f32	s15, s25, s23
 2465              	.LBE581:
 2466              	.LBE586:
 2467              	.LBE605:
 2468              	.LBB606:
 2469              	.LBB596:
 2470 0284 ECEE2B6A 		vfma.f32	s13, s24, s23
 2471              	.LBE596:
 2472              	.LBE606:
 2473              	.LBB607:
 2474              	.LBB569:
  43:mi/stmlib/dsp/polyblep.h **** }
 2475              		.loc 7 43 22 view .LVU723
 2476 0288 26EE256A 		vmul.f32	s12, s12, s11
 2477              	.LBE569:
 2478              	.LBE607:
 186:mi/plaits/dsp/oscillator/variable_shape_oscillator.h ****           next_sample += square_amount * stmlib::NextBlepSample(t);
 2479              		.loc 3 186 23 view .LVU724
 2480 028c A4EE22BA 		vfma.f32	s22, s8, s5
 2481              	.LVL119:
 2482              	.LBB608:
 2483              	.LBI564:
  41:mi/stmlib/dsp/polyblep.h ****   t = 1.0f - t;
 2484              		.loc 7 41 14 is_stmt 1 view .LVU725
 2485              	.LBB570:
  42:mi/stmlib/dsp/polyblep.h ****   return -0.5f * t * t;
 2486              		.loc 7 42 3 view .LVU726
  43:mi/stmlib/dsp/polyblep.h **** }
 2487              		.loc 7 43 3 view .LVU727
  43:mi/stmlib/dsp/polyblep.h **** }
 2488              		.loc 7 43 3 is_stmt 0 view .LVU728
 2489              	.LBE570:
 2490              	.LBE608:
 187:mi/plaits/dsp/oscillator/variable_shape_oscillator.h ****           this_sample -= triangle_step * stmlib::ThisIntegratedBlepSample(t);
 2491              		.loc 3 187 23 view .LVU729
 2492 0290 E6EE223A 		vfma.f32	s7, s12, s5
 2493              	.LVL120:
 2494              	.LBB609:
 2495              	.LBI575:
  53:mi/stmlib/dsp/polyblep.h ****   return NextIntegratedBlepSample(1.0f - t);
ARM GAS  /var/folders/9k/zk1mgrrd7wg4__6zvxvr9w8m0000gn/T//ccaaKoMx.s 			page 72


 2496              		.loc 7 53 14 is_stmt 1 view .LVU730
 2497              	.LBE609:
 2498              	.LBE613:
 2499              	.LBE670:
 2500              	.LBE687:
 2501              		.loc 7 54 3 view .LVU731
 2502              	.LBB688:
 2503              	.LBB671:
 2504              	.LBB614:
 2505              	.LBB610:
 2506              	.LBB587:
 2507              	.LBI576:
  46:mi/stmlib/dsp/polyblep.h ****   const float t1 = 0.5f * t;
 2508              		.loc 7 46 14 view .LVU732
 2509              	.LBB582:
  47:mi/stmlib/dsp/polyblep.h ****   const float t2 = t1 * t1;
 2510              		.loc 7 47 3 view .LVU733
  48:mi/stmlib/dsp/polyblep.h ****   const float t4 = t2 * t2;
 2511              		.loc 7 48 3 view .LVU734
  49:mi/stmlib/dsp/polyblep.h ****   return 0.1875f - t1 + 1.5f * t2 - t4;
 2512              		.loc 7 49 3 view .LVU735
  50:mi/stmlib/dsp/polyblep.h **** }
 2513              		.loc 7 50 3 view .LVU736
  50:mi/stmlib/dsp/polyblep.h **** }
 2514              		.loc 7 50 37 is_stmt 0 view .LVU737
 2515 0294 ECEEEC7A 		vfms.f32	s15, s25, s25
 2516              	.LVL121:
  50:mi/stmlib/dsp/polyblep.h **** }
 2517              		.loc 7 50 37 view .LVU738
 2518              	.LBE582:
 2519              	.LBE587:
 2520              	.LBE610:
 2521              	.LBB611:
 2522              	.LBB597:
 2523 0298 ECEE4C6A 		vfms.f32	s13, s24, s24
 2524              	.LBE597:
 2525              	.LBE611:
 188:mi/plaits/dsp/oscillator/variable_shape_oscillator.h ****           next_sample -= triangle_step * stmlib::NextIntegratedBlepSample(t);
 2526              		.loc 3 188 23 view .LVU739
 2527 029c A7EE27BA 		vfma.f32	s22, s14, s15
 2528              	.LVL122:
 2529              	.LBB612:
 2530              	.LBI592:
  46:mi/stmlib/dsp/polyblep.h ****   const float t1 = 0.5f * t;
 2531              		.loc 7 46 14 is_stmt 1 view .LVU740
 2532              	.LBB598:
  47:mi/stmlib/dsp/polyblep.h ****   const float t2 = t1 * t1;
 2533              		.loc 7 47 3 view .LVU741
  48:mi/stmlib/dsp/polyblep.h ****   const float t4 = t2 * t2;
 2534              		.loc 7 48 3 view .LVU742
  49:mi/stmlib/dsp/polyblep.h ****   return 0.1875f - t1 + 1.5f * t2 - t4;
 2535              		.loc 7 49 3 view .LVU743
  50:mi/stmlib/dsp/polyblep.h **** }
 2536              		.loc 7 50 3 view .LVU744
  50:mi/stmlib/dsp/polyblep.h **** }
 2537              		.loc 7 50 3 is_stmt 0 view .LVU745
 2538              	.LBE598:
ARM GAS  /var/folders/9k/zk1mgrrd7wg4__6zvxvr9w8m0000gn/T//ccaaKoMx.s 			page 73


 2539              	.LBE612:
 189:mi/plaits/dsp/oscillator/variable_shape_oscillator.h ****           high_ = true;
 2540              		.loc 3 189 23 view .LVU746
 2541 02a0 E7EE263A 		vfma.f32	s7, s14, s13
 2542              	.LVL123:
 189:mi/plaits/dsp/oscillator/variable_shape_oscillator.h ****           high_ = true;
 2543              		.loc 3 189 23 view .LVU747
 2544              	.LBE614:
 2545 02a4 7CE7     		b	.L74
 2546              	.LVL124:
 2547              	.L73:
 189:mi/plaits/dsp/oscillator/variable_shape_oscillator.h ****           high_ = true;
 2548              		.loc 3 189 23 view .LVU748
 2549              	.LBE671:
 210:mi/plaits/dsp/oscillator/variable_shape_oscillator.h ****         slave_phase_ = reset_time * slave_frequency;
 2550              		.loc 3 210 7 view .LVU749
 2551 02a6 2CB1     		cbz	r4, .L76
 2552              	.L71:
 211:mi/plaits/dsp/oscillator/variable_shape_oscillator.h ****         high_ = false;
 2553              		.loc 3 211 35 view .LVU750
 2554 02a8 20EE025A 		vmul.f32	s10, s0, s4
 212:mi/plaits/dsp/oscillator/variable_shape_oscillator.h ****       }
 2555              		.loc 3 212 15 view .LVU751
 2556 02ac 0023     		movs	r3, #0
 2557 02ae 0374     		strb	r3, [r0, #16]
 211:mi/plaits/dsp/oscillator/variable_shape_oscillator.h ****         high_ = false;
 2558              		.loc 3 211 22 view .LVU752
 2559 02b0 80ED015A 		vstr.32	s10, [r0, #4]
 2560              	.L76:
 2561              	.LVL125:
 2562              	.LBB672:
 2563              	.LBI672:
 249:mi/plaits/dsp/oscillator/variable_shape_oscillator.h ****       float phase,
 2564              		.loc 3 249 16 is_stmt 1 view .LVU753
 2565              	.LBB673:
 256:mi/plaits/dsp/oscillator/variable_shape_oscillator.h ****     float square = phase < pw ? 0.0f : 1.0f;
 2566              		.loc 3 256 5 view .LVU754
 257:mi/plaits/dsp/oscillator/variable_shape_oscillator.h ****     float triangle = phase < pw
 2567              		.loc 3 257 5 view .LVU755
 257:mi/plaits/dsp/oscillator/variable_shape_oscillator.h ****     float triangle = phase < pw
 2568              		.loc 3 257 31 is_stmt 0 view .LVU756
 2569 02b4 B4EEC53A 		vcmpe.f32	s6, s10
 2570 02b8 F1EE10FA 		vmrs	APSR_nzcv, FPSCR
 2571 02bc 2EDD     		ble	.L98
 2572              	.LVL126:
 259:mi/plaits/dsp/oscillator/variable_shape_oscillator.h ****         : 1.0f - (phase - pw) * slope_down;
 2573              		.loc 3 259 9 view .LVU757
 2574 02be 21EE051A 		vmul.f32	s2, s2, s10
 2575              	.LVL127:
 259:mi/plaits/dsp/oscillator/variable_shape_oscillator.h ****         : 1.0f - (phase - pw) * slope_down;
 2576              		.loc 3 259 9 view .LVU758
 2577 02c2 DFED2D7A 		vldr.32	s15, .L106
 2578              	.LVL128:
 2579              	.L79:
 261:mi/plaits/dsp/oscillator/variable_shape_oscillator.h ****     saw += (triangle - saw) * triangle_amount;
 2580              		.loc 3 261 5 is_stmt 1 view .LVU759
 261:mi/plaits/dsp/oscillator/variable_shape_oscillator.h ****     saw += (triangle - saw) * triangle_amount;
ARM GAS  /var/folders/9k/zk1mgrrd7wg4__6zvxvr9w8m0000gn/T//ccaaKoMx.s 			page 74


 2581              		.loc 3 261 20 is_stmt 0 view .LVU760
 2582 02c6 77EEC57A 		vsub.f32	s15, s15, s10
 2583              	.LBE673:
 2584              	.LBE672:
 2585              	.LBE688:
 124:mi/plaits/dsp/oscillator/variable_shape_oscillator.h ****       bool reset = false;
 2586              		.loc 3 124 5 view .LVU761
 2587 02ca 0CF1FF3C 		add	ip, ip, #-1
 2588              	.LVL129:
 2589              	.LBB689:
 2590              	.LBB677:
 237:mi/plaits/dsp/oscillator/variable_shape_oscillator.h ****       }
 2591              		.loc 3 237 38 view .LVU762
 2592 02ce BFEE007A 		vmov.f32	s14, #-1.0e+0
 2593              	.LBE677:
 222:mi/plaits/dsp/oscillator/variable_shape_oscillator.h ****       
 2594              		.loc 3 222 20 view .LVU763
 2595 02d2 80ED033A 		vstr.32	s6, [r0, #12]
 2596              	.LBB678:
 237:mi/plaits/dsp/oscillator/variable_shape_oscillator.h ****       }
 2597              		.loc 3 237 38 view .LVU764
 2598 02d6 F0EE006A 		vmov.f32	s13, #2.0e+0
 2599              	.LBE678:
 2600              	.LBE689:
 124:mi/plaits/dsp/oscillator/variable_shape_oscillator.h ****       bool reset = false;
 2601              		.loc 3 124 5 view .LVU765
 2602 02da BCF1FF3F 		cmp	ip, #-1
 2603              	.LBB690:
 2604              	.LBB679:
 2605              	.LBB674:
 261:mi/plaits/dsp/oscillator/variable_shape_oscillator.h ****     saw += (triangle - saw) * triangle_amount;
 2606              		.loc 3 261 9 view .LVU766
 2607 02de A7EEA25A 		vfma.f32	s10, s15, s5
 2608              	.LVL130:
 262:mi/plaits/dsp/oscillator/variable_shape_oscillator.h ****     return saw;
 2609              		.loc 3 262 5 is_stmt 1 view .LVU767
 2610              	.LBE674:
 2611              	.LBE679:
 2612              	.LBB680:
 237:mi/plaits/dsp/oscillator/variable_shape_oscillator.h ****       }
 2613              		.loc 3 237 38 is_stmt 0 view .LVU768
 2614 02e2 F0EE477A 		vmov.f32	s15, s14
 2615 02e6 EBEE267A 		vfma.f32	s15, s22, s13
 2616              	.LBE680:
 2617              	.LBB681:
 2618              	.LBB675:
 262:mi/plaits/dsp/oscillator/variable_shape_oscillator.h ****     return saw;
 2619              		.loc 3 262 22 view .LVU769
 2620 02ea 31EE451A 		vsub.f32	s2, s2, s10
 2621              	.LVL131:
 262:mi/plaits/dsp/oscillator/variable_shape_oscillator.h ****     return saw;
 2622              		.loc 3 262 9 view .LVU770
 2623 02ee A1EE815A 		vfma.f32	s10, s3, s2
 2624              	.LVL132:
 2625              		.loc 3 263 5 is_stmt 1 view .LVU771
 2626              		.loc 3 263 5 is_stmt 0 view .LVU772
 2627              	.LBE675:
ARM GAS  /var/folders/9k/zk1mgrrd7wg4__6zvxvr9w8m0000gn/T//ccaaKoMx.s 			page 75


 2628              	.LBE681:
 2629              	.LBB682:
 237:mi/plaits/dsp/oscillator/variable_shape_oscillator.h ****       }
 2630              		.loc 3 237 16 view .LVU773
 2631 02f2 E1EC017A 		vstmia.32	r1!, {s15}
 2632              	.LVL133:
 237:mi/plaits/dsp/oscillator/variable_shape_oscillator.h ****       }
 2633              		.loc 3 237 16 view .LVU774
 2634              	.LBE682:
 215:mi/plaits/dsp/oscillator/variable_shape_oscillator.h ****           slave_phase_,
 2635              		.loc 3 215 19 view .LVU775
 2636 02f6 35EE23BA 		vadd.f32	s22, s10, s7
 2637              	.LVL134:
 215:mi/plaits/dsp/oscillator/variable_shape_oscillator.h ****           slave_phase_,
 2638              		.loc 3 215 19 view .LVU776
 2639              	.LBE690:
 124:mi/plaits/dsp/oscillator/variable_shape_oscillator.h ****       bool reset = false;
 2640              		.loc 3 124 5 is_stmt 1 view .LVU777
 124:mi/plaits/dsp/oscillator/variable_shape_oscillator.h ****       bool reset = false;
 2641              		.loc 3 124 5 is_stmt 0 view .LVU778
 2642 02fa 7FF4BFAE 		bne	.L80
 2643              	.LVL135:
 2644              	.L59:
 241:mi/plaits/dsp/oscillator/variable_shape_oscillator.h ****   }
 2645              		.loc 3 241 18 view .LVU779
 2646 02fe 80ED02BA 		vstr.32	s22, [r0, #8]
 2647              	.LVL136:
 2648              	.LBB691:
 2649              	.LBI691:
  49:mi/stmlib/dsp/parameter_interpolator.h ****     *state_ = value_;
 2650              		.loc 6 49 3 is_stmt 1 view .LVU780
 2651              	.LBB692:
  50:mi/stmlib/dsp/parameter_interpolator.h ****   }
 2652              		.loc 6 50 5 view .LVU781
 2653              	.LBE692:
 2654              	.LBE691:
 2655              	.LBB694:
 2656              	.LBB695:
  50:mi/stmlib/dsp/parameter_interpolator.h ****   }
 2657              		.loc 6 50 13 is_stmt 0 view .LVU782
 2658 0302 80ED088A 		vstr.32	s16, [r0, #32]
 2659              	.LBE695:
 2660              	.LBE694:
 2661              	.LBB697:
 2662              	.LBB698:
 2663 0306 C0ED058A 		vstr.32	s17, [r0, #20]
 2664              	.LBE698:
 2665              	.LBE697:
 2666              	.LBB700:
 2667              	.LBB693:
 2668 030a C0F824E0 		str	lr, [r0, #36]	@ float
 2669              	.LVL137:
  50:mi/stmlib/dsp/parameter_interpolator.h ****   }
 2670              		.loc 6 50 13 view .LVU783
 2671              	.LBE693:
 2672              	.LBE700:
 2673              	.LBB701:
ARM GAS  /var/folders/9k/zk1mgrrd7wg4__6zvxvr9w8m0000gn/T//ccaaKoMx.s 			page 76


 2674              	.LBI694:
  49:mi/stmlib/dsp/parameter_interpolator.h ****     *state_ = value_;
 2675              		.loc 6 49 3 is_stmt 1 view .LVU784
 2676              	.LBB696:
  50:mi/stmlib/dsp/parameter_interpolator.h ****   }
 2677              		.loc 6 50 5 view .LVU785
  50:mi/stmlib/dsp/parameter_interpolator.h ****   }
 2678              		.loc 6 50 5 is_stmt 0 view .LVU786
 2679              	.LBE696:
 2680              	.LBE701:
 2681              	.LBB702:
 2682              	.LBI702:
  49:mi/stmlib/dsp/parameter_interpolator.h ****     *state_ = value_;
 2683              		.loc 6 49 3 is_stmt 1 view .LVU787
 2684              	.LBB703:
  50:mi/stmlib/dsp/parameter_interpolator.h ****   }
 2685              		.loc 6 50 5 view .LVU788
  50:mi/stmlib/dsp/parameter_interpolator.h ****   }
 2686              		.loc 6 50 13 is_stmt 0 view .LVU789
 2687 030e 80ED073A 		vstr.32	s6, [r0, #28]
 2688              	.LVL138:
  50:mi/stmlib/dsp/parameter_interpolator.h ****   }
 2689              		.loc 6 50 13 view .LVU790
 2690              	.LBE703:
 2691              	.LBE702:
 2692              	.LBB704:
 2693              	.LBI704:
  49:mi/stmlib/dsp/parameter_interpolator.h ****     *state_ = value_;
 2694              		.loc 6 49 3 is_stmt 1 view .LVU791
 2695              	.LBB705:
  50:mi/stmlib/dsp/parameter_interpolator.h ****   }
 2696              		.loc 6 50 5 view .LVU792
  50:mi/stmlib/dsp/parameter_interpolator.h ****   }
 2697              		.loc 6 50 13 is_stmt 0 view .LVU793
 2698 0312 80ED062A 		vstr.32	s4, [r0, #24]
 2699              	.LVL139:
  50:mi/stmlib/dsp/parameter_interpolator.h ****   }
 2700              		.loc 6 50 13 view .LVU794
 2701              	.LBE705:
 2702              	.LBE704:
 2703              	.LBB706:
 2704              	.LBI697:
  49:mi/stmlib/dsp/parameter_interpolator.h ****     *state_ = value_;
 2705              		.loc 6 49 3 is_stmt 1 view .LVU795
 2706              	.LBB699:
  50:mi/stmlib/dsp/parameter_interpolator.h ****   }
 2707              		.loc 6 50 5 view .LVU796
  50:mi/stmlib/dsp/parameter_interpolator.h ****   }
 2708              		.loc 6 50 5 is_stmt 0 view .LVU797
 2709              	.LBE699:
 2710              	.LBE706:
 242:mi/plaits/dsp/oscillator/variable_shape_oscillator.h ****   
 2711              		.loc 3 242 3 view .LVU798
 2712 0316 BDEC0A8B 		vldm	sp!, {d8-d12}
 2713              		.cfi_remember_state
 2714              		.cfi_restore 88
 2715              		.cfi_restore 89
ARM GAS  /var/folders/9k/zk1mgrrd7wg4__6zvxvr9w8m0000gn/T//ccaaKoMx.s 			page 77


 2716              		.cfi_restore 86
 2717              		.cfi_restore 87
 2718              		.cfi_restore 84
 2719              		.cfi_restore 85
 2720              		.cfi_restore 82
 2721              		.cfi_restore 83
 2722              		.cfi_restore 80
 2723              		.cfi_restore 81
 2724              		.cfi_def_cfa_offset 8
 2725              	.LVL140:
 242:mi/plaits/dsp/oscillator/variable_shape_oscillator.h ****   
 2726              		.loc 3 242 3 view .LVU799
 2727 031a 10BD     		pop	{r4, pc}
 2728              	.LVL141:
 2729              	.L98:
 2730              		.cfi_restore_state
 2731              	.LBB707:
 2732              	.LBB683:
 2733              	.LBB676:
 258:mi/plaits/dsp/oscillator/variable_shape_oscillator.h ****         ? phase * slope_up
 2734              		.loc 3 258 5 is_stmt 1 view .LVU800
 259:mi/plaits/dsp/oscillator/variable_shape_oscillator.h ****         : 1.0f - (phase - pw) * slope_down;
 2735              		.loc 3 259 9 is_stmt 0 view .LVU801
 2736 031c F7EE007A 		vmov.f32	s15, #1.0e+0
 260:mi/plaits/dsp/oscillator/variable_shape_oscillator.h ****     saw += (square - saw) * square_amount;
 2737              		.loc 3 260 25 view .LVU802
 2738 0320 35EE437A 		vsub.f32	s14, s10, s6
 259:mi/plaits/dsp/oscillator/variable_shape_oscillator.h ****         : 1.0f - (phase - pw) * slope_down;
 2739              		.loc 3 259 9 view .LVU803
 2740 0324 B0EE671A 		vmov.f32	s2, s15
 2741              	.LVL142:
 259:mi/plaits/dsp/oscillator/variable_shape_oscillator.h ****         : 1.0f - (phase - pw) * slope_down;
 2742              		.loc 3 259 9 view .LVU804
 2743 0328 A0EEC71A 		vfms.f32	s2, s1, s14
 2744              	.LVL143:
 259:mi/plaits/dsp/oscillator/variable_shape_oscillator.h ****         : 1.0f - (phase - pw) * slope_down;
 2745              		.loc 3 259 9 view .LVU805
 2746 032c CBE7     		b	.L79
 2747              	.LVL144:
 2748              	.L104:
 259:mi/plaits/dsp/oscillator/variable_shape_oscillator.h ****         : 1.0f - (phase - pw) * slope_down;
 2749              		.loc 3 259 9 view .LVU806
 2750              	.LBE676:
 2751              	.LBE683:
 2752              	.LBB684:
 2753              	.LBB533:
 2754              	.LBB527:
 149:mi/plaits/dsp/oscillator/variable_shape_oscillator.h ****               (1.0f - reset_time) * slave_frequency;
 2755              		.loc 3 149 40 view .LVU807
 2756 032e 0023     		movs	r3, #0
 2757              	.LBE527:
 2758              	.LBE533:
 2759              	.LBE684:
 127:mi/plaits/dsp/oscillator/variable_shape_oscillator.h **** 
 2760              		.loc 3 127 13 view .LVU808
 2761 0330 9FED110A 		vldr.32	s0, .L106
 2762              	.LBB685:
ARM GAS  /var/folders/9k/zk1mgrrd7wg4__6zvxvr9w8m0000gn/T//ccaaKoMx.s 			page 78


 2763              	.LBB534:
 2764              	.LBB528:
 149:mi/plaits/dsp/oscillator/variable_shape_oscillator.h ****               (1.0f - reset_time) * slave_frequency;
 2765              		.loc 3 149 40 view .LVU809
 2766 0334 D0ED016A 		vldr.32	s13, [r0, #4]
 2767              	.LBE528:
 2768              	.LBE534:
 2769              	.LBE685:
 130:mi/plaits/dsp/oscillator/variable_shape_oscillator.h ****     
 2770              		.loc 3 130 19 view .LVU810
 2771 0338 F0EE403A 		vmov.f32	s7, s0
 125:mi/plaits/dsp/oscillator/variable_shape_oscillator.h ****       bool transition_during_reset = false;
 2772              		.loc 3 125 12 view .LVU811
 2773 033c 1C46     		mov	r4, r3
 2774 033e 18E7     		b	.L63
 2775              	.LVL145:
 2776              	.L96:
 2777              	.LBB686:
 2778              	.LBB535:
 2779              	.LBB529:
 2780              	.LBB525:
 2781              	.LBB510:
 258:mi/plaits/dsp/oscillator/variable_shape_oscillator.h ****         ? phase * slope_up
 2782              		.loc 3 258 5 is_stmt 1 view .LVU812
 259:mi/plaits/dsp/oscillator/variable_shape_oscillator.h ****         : 1.0f - (phase - pw) * slope_down;
 2783              		.loc 3 259 9 is_stmt 0 view .LVU813
 2784 0340 F7EE005A 		vmov.f32	s11, #1.0e+0
 260:mi/plaits/dsp/oscillator/variable_shape_oscillator.h ****     saw += (square - saw) * square_amount;
 2785              		.loc 3 260 25 view .LVU814
 2786 0344 37EEC37A 		vsub.f32	s14, s15, s6
 259:mi/plaits/dsp/oscillator/variable_shape_oscillator.h ****         : 1.0f - (phase - pw) * slope_down;
 2787              		.loc 3 259 9 view .LVU815
 2788 0348 B0EE655A 		vmov.f32	s10, s11
 2789 034c A0EEC75A 		vfms.f32	s10, s1, s14
 2790 0350 F4E6     		b	.L70
 2791              	.LVL146:
 2792              	.L95:
 259:mi/plaits/dsp/oscillator/variable_shape_oscillator.h ****         : 1.0f - (phase - pw) * slope_down;
 2793              		.loc 3 259 9 view .LVU816
 2794              	.LBE510:
 2795              	.LBE525:
 2796              	.LBE529:
 2797              	.LBE535:
 2798              	.LBE686:
 126:mi/plaits/dsp/oscillator/variable_shape_oscillator.h ****       float reset_time = 0.0f;
 2799              		.loc 3 126 12 view .LVU817
 2800 0352 0022     		movs	r2, #0
 2801 0354 DFE6     		b	.L64
 2802              	.LVL147:
 2803              	.L82:
 126:mi/plaits/dsp/oscillator/variable_shape_oscillator.h ****       float reset_time = 0.0f;
 2804              		.loc 3 126 12 view .LVU818
 2805              	.LBE707:
 108:mi/plaits/dsp/oscillator/variable_shape_oscillator.h ****     } else {
 2806              		.loc 3 108 10 view .LVU819
 2807 0356 F6EE007A 		vmov.f32	s15, #5.0e-1
 104:mi/plaits/dsp/oscillator/variable_shape_oscillator.h ****     }
ARM GAS  /var/folders/9k/zk1mgrrd7wg4__6zvxvr9w8m0000gn/T//ccaaKoMx.s 			page 79


 2808              		.loc 3 104 17 view .LVU820
 2809 035a F0EE470A 		vmov.f32	s1, s14
 2810              	.LVL148:
 104:mi/plaits/dsp/oscillator/variable_shape_oscillator.h ****     }
 2811              		.loc 3 104 17 view .LVU821
 2812 035e 68E6     		b	.L57
 2813              	.LVL149:
 2814              	.L103:
 110:mi/plaits/dsp/oscillator/variable_shape_oscillator.h ****     }
 2815              		.loc 3 110 7 discriminator 2 view .LVU822
 2816 0360 B7EE007A 		vmov.f32	s14, #1.0e+0
 2817 0364 77EE677A 		vsub.f32	s15, s14, s15
 2818 0368 F4EEC17A 		vcmpe.f32	s15, s2
 2819 036c F1EE10FA 		vmrs	APSR_nzcv, FPSCR
 2820 0370 58BF     		it	pl
 2821 0372 F0EE417A 		vmovpl.f32	s15, s2
 2822 0376 5CE6     		b	.L57
 2823              	.L107:
 2824              		.align	2
 2825              	.L106:
 2826 0378 00000000 		.word	0
 2827              		.cfi_endproc
 2828              	.LFE1507:
 2830              		.section	.text._ZN6plaits19VirtualAnalogEngine6RenderERKNS_16EngineParametersEPfS4_jPb,"ax",%progb
 2831              		.align	1
 2832              		.p2align 2,,3
 2833              		.global	_ZN6plaits19VirtualAnalogEngine6RenderERKNS_16EngineParametersEPfS4_jPb
 2834              		.syntax unified
 2835              		.thumb
 2836              		.thumb_func
 2838              	_ZN6plaits19VirtualAnalogEngine6RenderERKNS_16EngineParametersEPfS4_jPb:
 2839              	.LVL150:
 2840              	.LFB1503:
  77:mi/plaits/dsp/engine/virtual_analog_engine.cpp **** 
  78:mi/plaits/dsp/engine/virtual_analog_engine.cpp **** void VirtualAnalogEngine::Render(
  79:mi/plaits/dsp/engine/virtual_analog_engine.cpp ****     const EngineParameters& parameters,
  80:mi/plaits/dsp/engine/virtual_analog_engine.cpp ****     float* out,
  81:mi/plaits/dsp/engine/virtual_analog_engine.cpp ****     float* aux,
  82:mi/plaits/dsp/engine/virtual_analog_engine.cpp ****     size_t size,
  83:mi/plaits/dsp/engine/virtual_analog_engine.cpp ****     bool* already_enveloped) {
 2841              		.loc 2 83 30 is_stmt 1 view -0
 2842              		.cfi_startproc
 2843              		@ args = 8, pretend = 0, frame = 0
 2844              		@ frame_needed = 0, uses_anonymous_args = 0
  84:mi/plaits/dsp/engine/virtual_analog_engine.cpp **** 
  85:mi/plaits/dsp/engine/virtual_analog_engine.cpp **** #if VA_VARIANT == 0
  86:mi/plaits/dsp/engine/virtual_analog_engine.cpp ****   
  87:mi/plaits/dsp/engine/virtual_analog_engine.cpp ****   // 1 = variable waveshape controlled by TIMBRE.
  88:mi/plaits/dsp/engine/virtual_analog_engine.cpp ****   // 2 = variable waveshape controlled by MORPH, detuned by HARMONICS.
  89:mi/plaits/dsp/engine/virtual_analog_engine.cpp ****   // OUT = 1 + 2.
  90:mi/plaits/dsp/engine/virtual_analog_engine.cpp ****   // AUX = 1 + sync 2.
  91:mi/plaits/dsp/engine/virtual_analog_engine.cpp ****   const float auxiliary_detune = ComputeDetuning(parameters.harmonics);
  92:mi/plaits/dsp/engine/virtual_analog_engine.cpp ****   const float primary_f = NoteToFrequency(parameters.note);
  93:mi/plaits/dsp/engine/virtual_analog_engine.cpp ****   const float auxiliary_f = NoteToFrequency(parameters.note + auxiliary_detune);
  94:mi/plaits/dsp/engine/virtual_analog_engine.cpp ****   const float sync_f = NoteToFrequency(
  95:mi/plaits/dsp/engine/virtual_analog_engine.cpp ****       parameters.note + parameters.harmonics * 48.0f);
  96:mi/plaits/dsp/engine/virtual_analog_engine.cpp **** 
ARM GAS  /var/folders/9k/zk1mgrrd7wg4__6zvxvr9w8m0000gn/T//ccaaKoMx.s 			page 80


  97:mi/plaits/dsp/engine/virtual_analog_engine.cpp ****   float shape_1 = parameters.timbre * 1.5f;
  98:mi/plaits/dsp/engine/virtual_analog_engine.cpp ****   CONSTRAIN(shape_1, 0.0f, 1.0f);
  99:mi/plaits/dsp/engine/virtual_analog_engine.cpp **** 
 100:mi/plaits/dsp/engine/virtual_analog_engine.cpp ****   float pw_1 = 0.5f + (parameters.timbre - 0.66f) * 1.4f;
 101:mi/plaits/dsp/engine/virtual_analog_engine.cpp ****   CONSTRAIN(pw_1, 0.5f, 0.99f);
 102:mi/plaits/dsp/engine/virtual_analog_engine.cpp **** 
 103:mi/plaits/dsp/engine/virtual_analog_engine.cpp ****   float shape_2 = parameters.morph * 1.5f;
 104:mi/plaits/dsp/engine/virtual_analog_engine.cpp ****   CONSTRAIN(shape_2, 0.0f, 1.0f);
 105:mi/plaits/dsp/engine/virtual_analog_engine.cpp **** 
 106:mi/plaits/dsp/engine/virtual_analog_engine.cpp ****   float pw_2 = 0.5f + (parameters.morph - 0.66f) * 1.4f;
 107:mi/plaits/dsp/engine/virtual_analog_engine.cpp ****   CONSTRAIN(pw_2, 0.5f, 0.99f);
 108:mi/plaits/dsp/engine/virtual_analog_engine.cpp ****   
 109:mi/plaits/dsp/engine/virtual_analog_engine.cpp ****   primary_.Render(primary_f, pw_1, shape_1, temp_buffer_, size);
 110:mi/plaits/dsp/engine/virtual_analog_engine.cpp ****   auxiliary_.Render(auxiliary_f, pw_2, shape_2, aux, size);
 111:mi/plaits/dsp/engine/virtual_analog_engine.cpp ****   for (size_t i = 0; i < size; ++i) {
 112:mi/plaits/dsp/engine/virtual_analog_engine.cpp ****     out[i] = (aux[i] + temp_buffer_[i]) * 0.5f;
 113:mi/plaits/dsp/engine/virtual_analog_engine.cpp ****   }
 114:mi/plaits/dsp/engine/virtual_analog_engine.cpp ****   
 115:mi/plaits/dsp/engine/virtual_analog_engine.cpp ****   sync_.Render(primary_f, sync_f, pw_2, shape_2, aux, size);
 116:mi/plaits/dsp/engine/virtual_analog_engine.cpp ****   for (size_t i = 0; i < size; ++i) {
 117:mi/plaits/dsp/engine/virtual_analog_engine.cpp ****     aux[i] = (aux[i] + temp_buffer_[i]) * 0.5f;
 118:mi/plaits/dsp/engine/virtual_analog_engine.cpp ****   }
 119:mi/plaits/dsp/engine/virtual_analog_engine.cpp **** 
 120:mi/plaits/dsp/engine/virtual_analog_engine.cpp **** #elif VA_VARIANT == 1
 121:mi/plaits/dsp/engine/virtual_analog_engine.cpp ****   
 122:mi/plaits/dsp/engine/virtual_analog_engine.cpp ****   // 1 = variable waveshape controlled by MORPH.
 123:mi/plaits/dsp/engine/virtual_analog_engine.cpp ****   // 2 = variable waveshape controlled by MORPH.
 124:mi/plaits/dsp/engine/virtual_analog_engine.cpp ****   // OUT = crossfade between 1 + 2, 1, 1 sync 2 controlled by TIMBRE.
 125:mi/plaits/dsp/engine/virtual_analog_engine.cpp ****   // AUX = 2.
 126:mi/plaits/dsp/engine/virtual_analog_engine.cpp ****   
 127:mi/plaits/dsp/engine/virtual_analog_engine.cpp ****   float auxiliary_amount = max(0.5f - parameters.timbre, 0.0f) * 2.0f;
 128:mi/plaits/dsp/engine/virtual_analog_engine.cpp ****   auxiliary_amount *= auxiliary_amount * 0.5f;
 129:mi/plaits/dsp/engine/virtual_analog_engine.cpp **** 
 130:mi/plaits/dsp/engine/virtual_analog_engine.cpp ****   const float xmod_amount = max(parameters.timbre - 0.5f, 0.0f) * 2.0f;
 131:mi/plaits/dsp/engine/virtual_analog_engine.cpp ****   const float squashed_xmod_amount = xmod_amount * (2.0f - xmod_amount);
 132:mi/plaits/dsp/engine/virtual_analog_engine.cpp **** 
 133:mi/plaits/dsp/engine/virtual_analog_engine.cpp ****   const float auxiliary_detune = ComputeDetuning(parameters.harmonics);
 134:mi/plaits/dsp/engine/virtual_analog_engine.cpp ****   const float primary_f = NoteToFrequency(parameters.note);
 135:mi/plaits/dsp/engine/virtual_analog_engine.cpp ****   const float auxiliary_f = NoteToFrequency(parameters.note + auxiliary_detune);
 136:mi/plaits/dsp/engine/virtual_analog_engine.cpp ****   const float sync_f = primary_f * SemitonesToRatio(
 137:mi/plaits/dsp/engine/virtual_analog_engine.cpp ****       xmod_amount * (auxiliary_detune + 36.0f));
 138:mi/plaits/dsp/engine/virtual_analog_engine.cpp **** 
 139:mi/plaits/dsp/engine/virtual_analog_engine.cpp ****   float shape = parameters.morph * 1.5f;
 140:mi/plaits/dsp/engine/virtual_analog_engine.cpp ****   CONSTRAIN(shape, 0.0f, 1.0f);
 141:mi/plaits/dsp/engine/virtual_analog_engine.cpp **** 
 142:mi/plaits/dsp/engine/virtual_analog_engine.cpp ****   float pw = 0.5f + (parameters.morph - 0.66f) * 1.4f;
 143:mi/plaits/dsp/engine/virtual_analog_engine.cpp ****   CONSTRAIN(pw, 0.5f, 0.99f);
 144:mi/plaits/dsp/engine/virtual_analog_engine.cpp **** 
 145:mi/plaits/dsp/engine/virtual_analog_engine.cpp ****   primary_.Render(primary_f, pw, shape, out, size);
 146:mi/plaits/dsp/engine/virtual_analog_engine.cpp ****   sync_.Render(primary_f, sync_f, pw, shape, aux, size);
 147:mi/plaits/dsp/engine/virtual_analog_engine.cpp **** 
 148:mi/plaits/dsp/engine/virtual_analog_engine.cpp ****   ParameterInterpolator xmod_amount_modulation(
 149:mi/plaits/dsp/engine/virtual_analog_engine.cpp ****       &xmod_amount_,
 150:mi/plaits/dsp/engine/virtual_analog_engine.cpp ****       squashed_xmod_amount * (2.0f - squashed_xmod_amount),
 151:mi/plaits/dsp/engine/virtual_analog_engine.cpp ****       size);
 152:mi/plaits/dsp/engine/virtual_analog_engine.cpp ****   for (size_t i = 0; i < size; ++i) {
 153:mi/plaits/dsp/engine/virtual_analog_engine.cpp ****     out[i] += (aux[i] - out[i]) * xmod_amount_modulation.Next();
ARM GAS  /var/folders/9k/zk1mgrrd7wg4__6zvxvr9w8m0000gn/T//ccaaKoMx.s 			page 81


 154:mi/plaits/dsp/engine/virtual_analog_engine.cpp ****   }
 155:mi/plaits/dsp/engine/virtual_analog_engine.cpp **** 
 156:mi/plaits/dsp/engine/virtual_analog_engine.cpp ****   auxiliary_.Render(auxiliary_f, pw, shape, aux, size);
 157:mi/plaits/dsp/engine/virtual_analog_engine.cpp **** 
 158:mi/plaits/dsp/engine/virtual_analog_engine.cpp ****   ParameterInterpolator auxiliary_amount_modulation(
 159:mi/plaits/dsp/engine/virtual_analog_engine.cpp ****       &auxiliary_amount_,
 160:mi/plaits/dsp/engine/virtual_analog_engine.cpp ****       auxiliary_amount,
 161:mi/plaits/dsp/engine/virtual_analog_engine.cpp ****       size);
 162:mi/plaits/dsp/engine/virtual_analog_engine.cpp ****   for (size_t i = 0; i < size; ++i) {
 163:mi/plaits/dsp/engine/virtual_analog_engine.cpp ****     out[i] += (aux[i] - out[i]) * auxiliary_amount_modulation.Next();
 164:mi/plaits/dsp/engine/virtual_analog_engine.cpp ****   }
 165:mi/plaits/dsp/engine/virtual_analog_engine.cpp ****   
 166:mi/plaits/dsp/engine/virtual_analog_engine.cpp **** #elif VA_VARIANT == 2
 167:mi/plaits/dsp/engine/virtual_analog_engine.cpp **** 
 168:mi/plaits/dsp/engine/virtual_analog_engine.cpp ****   // 1 = variable square controlled by TIMBRE.
 169:mi/plaits/dsp/engine/virtual_analog_engine.cpp ****   // 2 = variable saw controlled by MORPH.
 170:mi/plaits/dsp/engine/virtual_analog_engine.cpp ****   // OUT = 1 + 2.
 171:mi/plaits/dsp/engine/virtual_analog_engine.cpp ****   // AUX = dual variable waveshape controlled by MORPH, self sync by TIMBRE.
 172:mi/plaits/dsp/engine/virtual_analog_engine.cpp ****   
 173:mi/plaits/dsp/engine/virtual_analog_engine.cpp ****   const float sync_amount = parameters.timbre * parameters.timbre;
 2845              		.loc 2 173 3 view .LVU824
 2846              		.loc 2 173 40 is_stmt 0 view .LVU825
 2847 0000 D1ED027A 		vldr.32	s15, [r1, #8]
 174:mi/plaits/dsp/engine/virtual_analog_engine.cpp ****   const float auxiliary_detune = ComputeDetuning(parameters.harmonics);
 2848              		.loc 2 174 49 view .LVU826
 2849 0004 91ED040A 		vldr.32	s0, [r1, #16]
 173:mi/plaits/dsp/engine/virtual_analog_engine.cpp ****   const float auxiliary_detune = ComputeDetuning(parameters.harmonics);
 2850              		.loc 2 173 15 view .LVU827
 2851 0008 67EEA74A 		vmul.f32	s9, s15, s15
 2852              	.LVL151:
 2853              		.loc 2 174 3 is_stmt 1 view .LVU828
  83:mi/plaits/dsp/engine/virtual_analog_engine.cpp **** 
 2854              		.loc 2 83 30 is_stmt 0 view .LVU829
 2855 000c 2DE9F047 		push	{r4, r5, r6, r7, r8, r9, r10, lr}
 2856              		.cfi_def_cfa_offset 32
 2857              		.cfi_offset 4, -32
 2858              		.cfi_offset 5, -28
 2859              		.cfi_offset 6, -24
 2860              		.cfi_offset 7, -20
 2861              		.cfi_offset 8, -16
 2862              		.cfi_offset 9, -12
 2863              		.cfi_offset 10, -8
 2864              		.cfi_offset 14, -4
 2865 0010 8A46     		mov	r10, r1
 2866 0012 1446     		mov	r4, r2
 2867 0014 1D46     		mov	r5, r3
 2868 0016 0746     		mov	r7, r0
 2869 0018 2DED068B 		vpush.64	{d8, d9, d10}
 2870              		.cfi_def_cfa_offset 56
 2871              		.cfi_offset 80, -56
 2872              		.cfi_offset 81, -52
 2873              		.cfi_offset 82, -48
 2874              		.cfi_offset 83, -44
 2875              		.cfi_offset 84, -40
 2876              		.cfi_offset 85, -36
 2877              		.loc 2 174 49 view .LVU830
 2878 001c FFF7FEFF 		bl	_ZNK6plaits19VirtualAnalogEngine15ComputeDetuningEf
ARM GAS  /var/folders/9k/zk1mgrrd7wg4__6zvxvr9w8m0000gn/T//ccaaKoMx.s 			page 82


 2879              	.LVL152:
 2880              	.LBB754:
 2881              	.LBB755:
 2882              		.file 9 "mi/plaits/dsp/engine/engine.h"
   1:mi/plaits/dsp/engine/engine.h **** // Copyright 2016 Emilie Gillet.
   2:mi/plaits/dsp/engine/engine.h **** //
   3:mi/plaits/dsp/engine/engine.h **** // Author: Emilie Gillet (emilie.o.gillet@gmail.com)
   4:mi/plaits/dsp/engine/engine.h **** //
   5:mi/plaits/dsp/engine/engine.h **** // Permission is hereby granted, free of charge, to any person obtaining a copy
   6:mi/plaits/dsp/engine/engine.h **** // of this software and associated documentation files (the "Software"), to deal
   7:mi/plaits/dsp/engine/engine.h **** // in the Software without restriction, including without limitation the rights
   8:mi/plaits/dsp/engine/engine.h **** // to use, copy, modify, merge, publish, distribute, sublicense, and/or sell
   9:mi/plaits/dsp/engine/engine.h **** // copies of the Software, and to permit persons to whom the Software is
  10:mi/plaits/dsp/engine/engine.h **** // furnished to do so, subject to the following conditions:
  11:mi/plaits/dsp/engine/engine.h **** // 
  12:mi/plaits/dsp/engine/engine.h **** // The above copyright notice and this permission notice shall be included in
  13:mi/plaits/dsp/engine/engine.h **** // all copies or substantial portions of the Software.
  14:mi/plaits/dsp/engine/engine.h **** // 
  15:mi/plaits/dsp/engine/engine.h **** // THE SOFTWARE IS PROVIDED "AS IS", WITHOUT WARRANTY OF ANY KIND, EXPRESS OR
  16:mi/plaits/dsp/engine/engine.h **** // IMPLIED, INCLUDING BUT NOT LIMITED TO THE WARRANTIES OF MERCHANTABILITY,
  17:mi/plaits/dsp/engine/engine.h **** // FITNESS FOR A PARTICULAR PURPOSE AND NONINFRINGEMENT. IN NO EVENT SHALL THE
  18:mi/plaits/dsp/engine/engine.h **** // AUTHORS OR COPYRIGHT HOLDERS BE LIABLE FOR ANY CLAIM, DAMAGES OR OTHER
  19:mi/plaits/dsp/engine/engine.h **** // LIABILITY, WHETHER IN AN ACTION OF CONTRACT, TORT OR OTHERWISE, ARISING FROM,
  20:mi/plaits/dsp/engine/engine.h **** // OUT OF OR IN CONNECTION WITH THE SOFTWARE OR THE USE OR OTHER DEALINGS IN
  21:mi/plaits/dsp/engine/engine.h **** // THE SOFTWARE.
  22:mi/plaits/dsp/engine/engine.h **** // 
  23:mi/plaits/dsp/engine/engine.h **** // See http://creativecommons.org/licenses/MIT/ for more information.
  24:mi/plaits/dsp/engine/engine.h **** //
  25:mi/plaits/dsp/engine/engine.h **** // -----------------------------------------------------------------------------
  26:mi/plaits/dsp/engine/engine.h **** //
  27:mi/plaits/dsp/engine/engine.h **** // Base class for all engines.
  28:mi/plaits/dsp/engine/engine.h **** 
  29:mi/plaits/dsp/engine/engine.h **** #ifndef PLAITS_DSP_ENGINE_ENGINE_H_
  30:mi/plaits/dsp/engine/engine.h **** #define PLAITS_DSP_ENGINE_ENGINE_H_
  31:mi/plaits/dsp/engine/engine.h **** 
  32:mi/plaits/dsp/engine/engine.h **** #include "plaits/dsp/dsp.h"
  33:mi/plaits/dsp/engine/engine.h **** 
  34:mi/plaits/dsp/engine/engine.h **** #include "stmlib/dsp/units.h"
  35:mi/plaits/dsp/engine/engine.h **** #include "stmlib/utils/buffer_allocator.h"
  36:mi/plaits/dsp/engine/engine.h **** 
  37:mi/plaits/dsp/engine/engine.h **** namespace plaits {
  38:mi/plaits/dsp/engine/engine.h **** 
  39:mi/plaits/dsp/engine/engine.h **** inline float NoteToFrequency(float midi_note) {
  40:mi/plaits/dsp/engine/engine.h ****   midi_note -= 9.0f;
 2883              		.loc 9 40 13 view .LVU831
 2884 0020 F2EE026A 		vmov.f32	s13, #9.0e+0
 2885              	.LBE755:
 2886              	.LBE754:
 175:mi/plaits/dsp/engine/virtual_analog_engine.cpp ****   const float primary_f = NoteToFrequency(parameters.note);
 2887              		.loc 2 175 54 view .LVU832
 2888 0024 9AED017A 		vldr.32	s14, [r10, #4]
 2889              	.LBB780:
 2890              	.LBB770:
  41:mi/plaits/dsp/engine/engine.h ****   CONSTRAIN(midi_note, -128.0f, 127.0f);
 2891              		.loc 9 41 3 view .LVU833
 2892 0028 DFEDCE7A 		vldr.32	s15, .L178
 2893              	.LVL153:
ARM GAS  /var/folders/9k/zk1mgrrd7wg4__6zvxvr9w8m0000gn/T//ccaaKoMx.s 			page 83


 2894              		.loc 9 41 3 view .LVU834
 2895              	.LBE770:
 2896              	.LBE780:
 2897              		.loc 2 175 3 is_stmt 1 view .LVU835
 2898              	.LBB781:
 2899              	.LBI754:
  39:mi/plaits/dsp/engine/engine.h ****   midi_note -= 9.0f;
 2900              		.loc 9 39 14 view .LVU836
 2901              	.LBB771:
  40:mi/plaits/dsp/engine/engine.h ****   CONSTRAIN(midi_note, -128.0f, 127.0f);
 2902              		.loc 9 40 3 view .LVU837
  40:mi/plaits/dsp/engine/engine.h ****   CONSTRAIN(midi_note, -128.0f, 127.0f);
 2903              		.loc 9 40 13 is_stmt 0 view .LVU838
 2904 002c 77EE666A 		vsub.f32	s13, s14, s13
 2905              	.LVL154:
 2906              		.loc 9 41 3 is_stmt 1 view .LVU839
 2907              	.LBE771:
 2908              	.LBE781:
  83:mi/plaits/dsp/engine/virtual_analog_engine.cpp **** 
 2909              		.loc 2 83 30 is_stmt 0 view .LVU840
 2910 0030 0E9E     		ldr	r6, [sp, #56]
 2911              	.LBB782:
 2912              	.LBB772:
 2913              		.loc 9 41 3 view .LVU841
 2914 0032 F4EEE76A 		vcmpe.f32	s13, s15
 2915 0036 F1EE10FA 		vmrs	APSR_nzcv, FPSCR
 2916 003a 0AD4     		bmi	.L138
 2917              		.loc 9 41 3 is_stmt 1 view .LVU842
 2918 003c DFEDCA7A 		vldr.32	s15, .L178+4
 2919 0040 F4EEE76A 		vcmpe.f32	s13, s15
 2920 0044 F1EE10FA 		vmrs	APSR_nzcv, FPSCR
 2921 0048 40F38082 		ble	.L172
 2922 004c 0023     		movs	r3, #0
 2923 004e FF22     		movs	r2, #255
 2924 0050 01E0     		b	.L109
 2925              	.L138:
 2926 0052 0023     		movs	r3, #0
 2927 0054 1A46     		mov	r2, r3
 2928              	.LVL155:
 2929              	.L109:
 2930              		.loc 9 41 40 view .LVU843
  42:mi/plaits/dsp/engine/engine.h ****   return a0 * 0.25f * stmlib::SemitonesToRatio(midi_note);
 2931              		.loc 9 42 3 view .LVU844
 2932              	.LBB756:
 2933              	.LBI756:
 2934              		.file 10 "mi/stmlib/dsp/units.h"
   1:mi/stmlib/dsp/units.h **** // Copyright 2014 Emilie Gillet.
   2:mi/stmlib/dsp/units.h **** //
   3:mi/stmlib/dsp/units.h **** // Author: Emilie Gillet (emilie.o.gillet@gmail.com)
   4:mi/stmlib/dsp/units.h **** //
   5:mi/stmlib/dsp/units.h **** // Permission is hereby granted, free of charge, to any person obtaining a copy
   6:mi/stmlib/dsp/units.h **** // of this software and associated documentation files (the "Software"), to deal
   7:mi/stmlib/dsp/units.h **** // in the Software without restriction, including without limitation the rights
   8:mi/stmlib/dsp/units.h **** // to use, copy, modify, merge, publish, distribute, sublicense, and/or sell
   9:mi/stmlib/dsp/units.h **** // copies of the Software, and to permit persons to whom the Software is
  10:mi/stmlib/dsp/units.h **** // furnished to do so, subject to the following conditions:
  11:mi/stmlib/dsp/units.h **** // 
ARM GAS  /var/folders/9k/zk1mgrrd7wg4__6zvxvr9w8m0000gn/T//ccaaKoMx.s 			page 84


  12:mi/stmlib/dsp/units.h **** // The above copyright notice and this permission notice shall be included in
  13:mi/stmlib/dsp/units.h **** // all copies or substantial portions of the Software.
  14:mi/stmlib/dsp/units.h **** // 
  15:mi/stmlib/dsp/units.h **** // THE SOFTWARE IS PROVIDED "AS IS", WITHOUT WARRANTY OF ANY KIND, EXPRESS OR
  16:mi/stmlib/dsp/units.h **** // IMPLIED, INCLUDING BUT NOT LIMITED TO THE WARRANTIES OF MERCHANTABILITY,
  17:mi/stmlib/dsp/units.h **** // FITNESS FOR A PARTICULAR PURPOSE AND NONINFRINGEMENT. IN NO EVENT SHALL THE
  18:mi/stmlib/dsp/units.h **** // AUTHORS OR COPYRIGHT HOLDERS BE LIABLE FOR ANY CLAIM, DAMAGES OR OTHER
  19:mi/stmlib/dsp/units.h **** // LIABILITY, WHETHER IN AN ACTION OF CONTRACT, TORT OR OTHERWISE, ARISING FROM,
  20:mi/stmlib/dsp/units.h **** // OUT OF OR IN CONNECTION WITH THE SOFTWARE OR THE USE OR OTHER DEALINGS IN
  21:mi/stmlib/dsp/units.h **** // THE SOFTWARE.
  22:mi/stmlib/dsp/units.h **** // 
  23:mi/stmlib/dsp/units.h **** // See http://creativecommons.org/licenses/MIT/ for more information.
  24:mi/stmlib/dsp/units.h **** //
  25:mi/stmlib/dsp/units.h **** // -----------------------------------------------------------------------------
  26:mi/stmlib/dsp/units.h **** //
  27:mi/stmlib/dsp/units.h **** // Conversion from semitones to frequency ratio.
  28:mi/stmlib/dsp/units.h **** 
  29:mi/stmlib/dsp/units.h **** #ifndef STMLIB_DSP_UNITS_H_
  30:mi/stmlib/dsp/units.h **** #define STMLIB_DSP_UNITS_H_
  31:mi/stmlib/dsp/units.h **** 
  32:mi/stmlib/dsp/units.h **** #include "stmlib/stmlib.h"
  33:mi/stmlib/dsp/units.h **** #include "stmlib/dsp/dsp.h"
  34:mi/stmlib/dsp/units.h **** 
  35:mi/stmlib/dsp/units.h **** namespace stmlib {
  36:mi/stmlib/dsp/units.h **** 
  37:mi/stmlib/dsp/units.h **** extern const float lut_pitch_ratio_high[257];
  38:mi/stmlib/dsp/units.h **** extern const float lut_pitch_ratio_low[257];
  39:mi/stmlib/dsp/units.h **** 
  40:mi/stmlib/dsp/units.h **** inline float SemitonesToRatio(float semitones) {
 2935              		.loc 10 40 14 view .LVU845
 2936              	.LBB757:
  41:mi/stmlib/dsp/units.h ****   float pitch = semitones + 128.0f;
 2937              		.loc 10 41 3 view .LVU846
  42:mi/stmlib/dsp/units.h ****   MAKE_INTEGRAL_FRACTIONAL(pitch)
 2938              		.loc 10 42 3 view .LVU847
 2939              		.loc 10 42 3 view .LVU848
  43:mi/stmlib/dsp/units.h **** 
  44:mi/stmlib/dsp/units.h ****   return lut_pitch_ratio_high[pitch_integral] * \
 2940              		.loc 10 44 3 view .LVU849
 2941              		.loc 10 44 3 is_stmt 0 view .LVU850
 2942              	.LBE757:
 2943              	.LBE756:
 2944              	.LBE772:
 2945              	.LBE782:
 176:mi/plaits/dsp/engine/virtual_analog_engine.cpp ****   const float auxiliary_f = NoteToFrequency(parameters.note + auxiliary_detune);
 2946              		.loc 2 176 44 view .LVU851
 2947 0056 77EE007A 		vadd.f32	s15, s14, s0
 2948              	.LBB783:
 2949              	.LBB773:
 2950              	.LBB764:
 2951              	.LBB758:
 2952              		.loc 10 44 45 view .LVU852
 2953 005a DFF83493 		ldr	r9, .L178+44
 2954              	.LBE758:
 2955              	.LBE764:
 2956              	.LBE773:
 2957              	.LBE783:
ARM GAS  /var/folders/9k/zk1mgrrd7wg4__6zvxvr9w8m0000gn/T//ccaaKoMx.s 			page 85


 2958              	.LBB784:
 2959              	.LBB785:
  40:mi/plaits/dsp/engine/engine.h ****   CONSTRAIN(midi_note, -128.0f, 127.0f);
 2960              		.loc 9 40 13 view .LVU853
 2961 005e F2EE026A 		vmov.f32	s13, #9.0e+0
 2962              	.LBE785:
 2963              	.LBE784:
 2964              	.LBB806:
 2965              	.LBB774:
 2966              	.LBB765:
 2967              	.LBB759:
  45:mi/stmlib/dsp/units.h ****       lut_pitch_ratio_low[static_cast<int32_t>(pitch_fractional * 256.0f)];
 2968              		.loc 10 45 74 view .LVU854
 2969 0062 DFF83083 		ldr	r8, .L178+48
 2970              	.LBE759:
 2971              	.LBE765:
 2972              	.LBE774:
 2973              	.LBE806:
 2974              	.LBB807:
 2975              	.LBB796:
  41:mi/plaits/dsp/engine/engine.h ****   return a0 * 0.25f * stmlib::SemitonesToRatio(midi_note);
 2976              		.loc 9 41 3 view .LVU855
 2977 0066 9FEDBF6A 		vldr.32	s12, .L178
 2978              	.LBE796:
 2979              	.LBE807:
 2980              	.LBB808:
 2981              	.LBB775:
 2982              	.LBB766:
 2983              	.LBB760:
  44:mi/stmlib/dsp/units.h ****       lut_pitch_ratio_low[static_cast<int32_t>(pitch_fractional * 256.0f)];
 2984              		.loc 10 44 45 view .LVU856
 2985 006a 09EB8202 		add	r2, r9, r2, lsl #2
 2986              		.loc 10 45 74 view .LVU857
 2987 006e 08EB8303 		add	r3, r8, r3, lsl #2
 2988              	.LBE760:
 2989              	.LBE766:
 2990              		.loc 9 42 57 view .LVU858
 2991 0072 DFEDC95A 		vldr.32	s11, .L178+52
 2992              	.LBE775:
 2993              	.LBE808:
 2994              	.LBB809:
 2995              	.LBB797:
  40:mi/plaits/dsp/engine/engine.h ****   CONSTRAIN(midi_note, -128.0f, 127.0f);
 2996              		.loc 9 40 13 view .LVU859
 2997 0076 77EEE66A 		vsub.f32	s13, s15, s13
 2998              	.LBE797:
 2999              	.LBE809:
 3000              	.LBB810:
 3001              	.LBB776:
 3002              	.LBB767:
 3003              	.LBB761:
 3004              		.loc 10 45 74 view .LVU860
 3005 007a D2ED008A 		vldr.32	s17, [r2]
 3006 007e 93ED005A 		vldr.32	s10, [r3]
 3007              	.LBE761:
 3008              	.LBE767:
 3009              	.LBE776:
ARM GAS  /var/folders/9k/zk1mgrrd7wg4__6zvxvr9w8m0000gn/T//ccaaKoMx.s 			page 86


 3010              	.LBE810:
 3011              	.LBB811:
 3012              	.LBB798:
  41:mi/plaits/dsp/engine/engine.h ****   return a0 * 0.25f * stmlib::SemitonesToRatio(midi_note);
 3013              		.loc 9 41 3 view .LVU861
 3014 0082 F4EEC66A 		vcmpe.f32	s13, s12
 3015              	.LBE798:
 3016              	.LBE811:
 3017              	.LBB812:
 3018              	.LBB777:
 3019              	.LBB768:
 3020              	.LBB762:
 3021              		.loc 10 45 74 view .LVU862
 3022 0086 68EE858A 		vmul.f32	s17, s17, s10
 3023              	.LBE762:
 3024              	.LBE768:
 3025              	.LBE777:
 3026              	.LBE812:
 3027              	.LBB813:
 3028              	.LBB799:
  41:mi/plaits/dsp/engine/engine.h ****   return a0 * 0.25f * stmlib::SemitonesToRatio(midi_note);
 3029              		.loc 9 41 3 view .LVU863
 3030 008a F1EE10FA 		vmrs	APSR_nzcv, FPSCR
 3031              	.LBE799:
 3032              	.LBE813:
 3033              	.LBB814:
 3034              	.LBB778:
 3035              		.loc 9 42 57 view .LVU864
 3036 008e 68EEA58A 		vmul.f32	s17, s17, s11
 3037              	.LVL156:
 3038              		.loc 9 42 57 view .LVU865
 3039              	.LBE778:
 3040              	.LBE814:
 3041              		.loc 2 176 3 is_stmt 1 view .LVU866
 3042              	.LBB815:
 3043              	.LBI784:
  39:mi/plaits/dsp/engine/engine.h ****   midi_note -= 9.0f;
 3044              		.loc 9 39 14 view .LVU867
 3045              	.LBB800:
  40:mi/plaits/dsp/engine/engine.h ****   CONSTRAIN(midi_note, -128.0f, 127.0f);
 3046              		.loc 9 40 3 view .LVU868
  41:mi/plaits/dsp/engine/engine.h ****   return a0 * 0.25f * stmlib::SemitonesToRatio(midi_note);
 3047              		.loc 9 41 3 view .LVU869
 3048 0092 0AD4     		bmi	.L140
  41:mi/plaits/dsp/engine/engine.h ****   return a0 * 0.25f * stmlib::SemitonesToRatio(midi_note);
 3049              		.loc 9 41 3 view .LVU870
 3050 0094 9FEDB46A 		vldr.32	s12, .L178+4
 3051 0098 F4EEC66A 		vcmpe.f32	s13, s12
 3052 009c F1EE10FA 		vmrs	APSR_nzcv, FPSCR
 3053 00a0 40F34182 		ble	.L173
 3054 00a4 0023     		movs	r3, #0
 3055 00a6 FF22     		movs	r2, #255
 3056 00a8 01E0     		b	.L110
 3057              	.L140:
 3058 00aa 0023     		movs	r3, #0
 3059 00ac 1A46     		mov	r2, r3
 3060              	.LVL157:
ARM GAS  /var/folders/9k/zk1mgrrd7wg4__6zvxvr9w8m0000gn/T//ccaaKoMx.s 			page 87


 3061              	.L110:
  41:mi/plaits/dsp/engine/engine.h ****   return a0 * 0.25f * stmlib::SemitonesToRatio(midi_note);
 3062              		.loc 9 41 40 view .LVU871
 3063              		.loc 9 42 3 view .LVU872
 3064              	.LBB786:
 3065              	.LBI786:
  40:mi/stmlib/dsp/units.h ****   float pitch = semitones + 128.0f;
 3066              		.loc 10 40 14 view .LVU873
 3067              	.LBB787:
  41:mi/stmlib/dsp/units.h ****   MAKE_INTEGRAL_FRACTIONAL(pitch)
 3068              		.loc 10 41 3 view .LVU874
  42:mi/stmlib/dsp/units.h **** 
 3069              		.loc 10 42 3 view .LVU875
  42:mi/stmlib/dsp/units.h **** 
 3070              		.loc 10 42 3 view .LVU876
  44:mi/stmlib/dsp/units.h ****       lut_pitch_ratio_low[static_cast<int32_t>(pitch_fractional * 256.0f)];
 3071              		.loc 10 44 3 view .LVU877
  44:mi/stmlib/dsp/units.h ****       lut_pitch_ratio_low[static_cast<int32_t>(pitch_fractional * 256.0f)];
 3072              		.loc 10 44 3 is_stmt 0 view .LVU878
 3073              	.LBE787:
 3074              	.LBE786:
 3075              	.LBE800:
 3076              	.LBE815:
 177:mi/plaits/dsp/engine/virtual_analog_engine.cpp ****   const float primary_sync_f = NoteToFrequency(
 178:mi/plaits/dsp/engine/virtual_analog_engine.cpp ****       parameters.note + sync_amount * 48.0f);
 3077              		.loc 2 178 37 view .LVU879
 3078 00ae DFEDAF6A 		vldr.32	s13, .L178+8
 3079              	.LBB816:
 3080              	.LBB817:
  40:mi/plaits/dsp/engine/engine.h ****   CONSTRAIN(midi_note, -128.0f, 127.0f);
 3081              		.loc 9 40 13 view .LVU880
 3082 00b2 B2EE025A 		vmov.f32	s10, #9.0e+0
 3083              	.LBE817:
 3084              	.LBE816:
 3085              	.LBB835:
 3086              	.LBB801:
 3087              	.LBB792:
 3088              	.LBB788:
  44:mi/stmlib/dsp/units.h ****       lut_pitch_ratio_low[static_cast<int32_t>(pitch_fractional * 256.0f)];
 3089              		.loc 10 44 45 view .LVU881
 3090 00b6 09EB8202 		add	r2, r9, r2, lsl #2
 3091              	.LBE788:
 3092              	.LBE792:
 3093              		.loc 9 42 57 view .LVU882
 3094 00ba DFEDB75A 		vldr.32	s11, .L178+52
 3095              	.LBE801:
 3096              	.LBE835:
 3097              		.loc 2 178 37 view .LVU883
 3098 00be 64EEA66A 		vmul.f32	s13, s9, s13
 3099              	.LBB836:
 3100              	.LBB802:
 3101              	.LBB793:
 3102              	.LBB789:
 3103              		.loc 10 45 74 view .LVU884
 3104 00c2 08EB8303 		add	r3, r8, r3, lsl #2
 3105 00c6 92ED008A 		vldr.32	s16, [r2]
 3106 00ca 93ED006A 		vldr.32	s12, [r3]
ARM GAS  /var/folders/9k/zk1mgrrd7wg4__6zvxvr9w8m0000gn/T//ccaaKoMx.s 			page 88


 3107              	.LBE789:
 3108              	.LBE793:
 3109              	.LBE802:
 3110              	.LBE836:
 177:mi/plaits/dsp/engine/virtual_analog_engine.cpp ****   const float primary_sync_f = NoteToFrequency(
 3111              		.loc 2 177 47 view .LVU885
 3112 00ce 37EE267A 		vadd.f32	s14, s14, s13
 3113              	.LBB837:
 3114              	.LBB803:
 3115              	.LBB794:
 3116              	.LBB790:
 3117              		.loc 10 45 74 view .LVU886
 3118 00d2 28EE068A 		vmul.f32	s16, s16, s12
 3119              	.LBE790:
 3120              	.LBE794:
 3121              	.LBE803:
 3122              	.LBE837:
 3123              	.LBB838:
 3124              	.LBB828:
  41:mi/plaits/dsp/engine/engine.h ****   return a0 * 0.25f * stmlib::SemitonesToRatio(midi_note);
 3125              		.loc 9 41 3 view .LVU887
 3126 00d6 9FEDA36A 		vldr.32	s12, .L178
  40:mi/plaits/dsp/engine/engine.h ****   CONSTRAIN(midi_note, -128.0f, 127.0f);
 3127              		.loc 9 40 13 view .LVU888
 3128 00da 37EE457A 		vsub.f32	s14, s14, s10
 3129              	.LBE828:
 3130              	.LBE838:
 3131              	.LBB839:
 3132              	.LBB804:
 3133              		.loc 9 42 57 view .LVU889
 3134 00de 28EE258A 		vmul.f32	s16, s16, s11
 3135              	.LVL158:
 3136              		.loc 9 42 57 view .LVU890
 3137              	.LBE804:
 3138              	.LBE839:
 177:mi/plaits/dsp/engine/virtual_analog_engine.cpp ****   const float primary_sync_f = NoteToFrequency(
 3139              		.loc 2 177 3 is_stmt 1 view .LVU891
 3140              	.LBB840:
 3141              	.LBI816:
  39:mi/plaits/dsp/engine/engine.h ****   midi_note -= 9.0f;
 3142              		.loc 9 39 14 view .LVU892
 3143              	.LBB829:
  40:mi/plaits/dsp/engine/engine.h ****   CONSTRAIN(midi_note, -128.0f, 127.0f);
 3144              		.loc 9 40 3 view .LVU893
  41:mi/plaits/dsp/engine/engine.h ****   return a0 * 0.25f * stmlib::SemitonesToRatio(midi_note);
 3145              		.loc 9 41 3 view .LVU894
 3146 00e2 B4EEC67A 		vcmpe.f32	s14, s12
 3147 00e6 F1EE10FA 		vmrs	APSR_nzcv, FPSCR
 3148 00ea 0AD4     		bmi	.L142
  41:mi/plaits/dsp/engine/engine.h ****   return a0 * 0.25f * stmlib::SemitonesToRatio(midi_note);
 3149              		.loc 9 41 3 view .LVU895
 3150 00ec 9FED9E6A 		vldr.32	s12, .L178+4
 3151 00f0 B4EEC67A 		vcmpe.f32	s14, s12
 3152 00f4 F1EE10FA 		vmrs	APSR_nzcv, FPSCR
 3153 00f8 40F30282 		ble	.L174
 3154 00fc 0023     		movs	r3, #0
 3155 00fe FF22     		movs	r2, #255
ARM GAS  /var/folders/9k/zk1mgrrd7wg4__6zvxvr9w8m0000gn/T//ccaaKoMx.s 			page 89


 3156 0100 01E0     		b	.L111
 3157              	.L142:
 3158 0102 0023     		movs	r3, #0
 3159 0104 1A46     		mov	r2, r3
 3160              	.LVL159:
 3161              	.L111:
  41:mi/plaits/dsp/engine/engine.h ****   return a0 * 0.25f * stmlib::SemitonesToRatio(midi_note);
 3162              		.loc 9 41 40 view .LVU896
 3163              		.loc 9 42 3 view .LVU897
 3164              	.LBB818:
 3165              	.LBI818:
  40:mi/stmlib/dsp/units.h ****   float pitch = semitones + 128.0f;
 3166              		.loc 10 40 14 view .LVU898
 3167              	.LBB819:
  41:mi/stmlib/dsp/units.h ****   MAKE_INTEGRAL_FRACTIONAL(pitch)
 3168              		.loc 10 41 3 view .LVU899
  42:mi/stmlib/dsp/units.h **** 
 3169              		.loc 10 42 3 view .LVU900
  42:mi/stmlib/dsp/units.h **** 
 3170              		.loc 10 42 3 view .LVU901
  44:mi/stmlib/dsp/units.h ****       lut_pitch_ratio_low[static_cast<int32_t>(pitch_fractional * 256.0f)];
 3171              		.loc 10 44 3 view .LVU902
  44:mi/stmlib/dsp/units.h ****       lut_pitch_ratio_low[static_cast<int32_t>(pitch_fractional * 256.0f)];
 3172              		.loc 10 44 3 is_stmt 0 view .LVU903
 3173              	.LBE819:
 3174              	.LBE818:
 3175              	.LBE829:
 3176              	.LBE840:
 179:mi/plaits/dsp/engine/virtual_analog_engine.cpp ****   const float auxiliary_sync_f = NoteToFrequency(
 3177              		.loc 2 179 49 view .LVU904
 3178 0106 77EEA67A 		vadd.f32	s15, s15, s13
 3179              	.LBB841:
 3180              	.LBB830:
 3181              	.LBB824:
 3182              	.LBB820:
  44:mi/stmlib/dsp/units.h ****       lut_pitch_ratio_low[static_cast<int32_t>(pitch_fractional * 256.0f)];
 3183              		.loc 10 44 45 view .LVU905
 3184 010a 09EB8202 		add	r2, r9, r2, lsl #2
 3185              	.LBE820:
 3186              	.LBE824:
 3187              	.LBE830:
 3188              	.LBE841:
 3189              	.LBB842:
 3190              	.LBB843:
  40:mi/plaits/dsp/engine/engine.h ****   CONSTRAIN(midi_note, -128.0f, 127.0f);
 3191              		.loc 9 40 13 view .LVU906
 3192 010e B2EE026A 		vmov.f32	s12, #9.0e+0
 3193              	.LBE843:
 3194              	.LBE842:
 3195              	.LBB864:
 3196              	.LBB831:
 3197              	.LBB825:
 3198              	.LBB821:
 3199              		.loc 10 45 74 view .LVU907
 3200 0112 08EB8303 		add	r3, r8, r3, lsl #2
 3201 0116 D2ED000A 		vldr.32	s1, [r2]
 3202 011a 93ED007A 		vldr.32	s14, [r3]
ARM GAS  /var/folders/9k/zk1mgrrd7wg4__6zvxvr9w8m0000gn/T//ccaaKoMx.s 			page 90


 3203              	.LBE821:
 3204              	.LBE825:
 3205              	.LBE831:
 3206              	.LBE864:
 3207              	.LBB865:
 3208              	.LBB856:
  40:mi/plaits/dsp/engine/engine.h ****   CONSTRAIN(midi_note, -128.0f, 127.0f);
 3209              		.loc 9 40 13 view .LVU908
 3210 011e 77EEC67A 		vsub.f32	s15, s15, s12
 3211              	.LBE856:
 3212              	.LBE865:
 3213              	.LBB866:
 3214              	.LBB832:
 3215              		.loc 9 42 57 view .LVU909
 3216 0122 DFED9D6A 		vldr.32	s13, .L178+52
 3217              	.LBB826:
 3218              	.LBB822:
 3219              		.loc 10 45 74 view .LVU910
 3220 0126 60EE870A 		vmul.f32	s1, s1, s14
 3221              	.LBE822:
 3222              	.LBE826:
 3223              	.LBE832:
 3224              	.LBE866:
 3225              	.LBB867:
 3226              	.LBB857:
  41:mi/plaits/dsp/engine/engine.h ****   return a0 * 0.25f * stmlib::SemitonesToRatio(midi_note);
 3227              		.loc 9 41 3 view .LVU911
 3228 012a 9FED8E7A 		vldr.32	s14, .L178
 3229 012e F4EEC77A 		vcmpe.f32	s15, s14
 3230              	.LBE857:
 3231              	.LBE867:
 3232              	.LBB868:
 3233              	.LBB833:
 3234              		.loc 9 42 57 view .LVU912
 3235 0132 60EEA60A 		vmul.f32	s1, s1, s13
 3236              	.LVL160:
 3237              		.loc 9 42 57 view .LVU913
 3238              	.LBE833:
 3239              	.LBE868:
 3240              		.loc 2 179 3 is_stmt 1 view .LVU914
 3241              	.LBB869:
 3242              	.LBI842:
  39:mi/plaits/dsp/engine/engine.h ****   midi_note -= 9.0f;
 3243              		.loc 9 39 14 view .LVU915
 3244              	.LBB858:
  40:mi/plaits/dsp/engine/engine.h ****   CONSTRAIN(midi_note, -128.0f, 127.0f);
 3245              		.loc 9 40 3 view .LVU916
  41:mi/plaits/dsp/engine/engine.h ****   return a0 * 0.25f * stmlib::SemitonesToRatio(midi_note);
 3246              		.loc 9 41 3 view .LVU917
 3247 0136 F1EE10FA 		vmrs	APSR_nzcv, FPSCR
 3248 013a 0AD4     		bmi	.L144
  41:mi/plaits/dsp/engine/engine.h ****   return a0 * 0.25f * stmlib::SemitonesToRatio(midi_note);
 3249              		.loc 9 41 3 view .LVU918
 3250 013c 9FED8A7A 		vldr.32	s14, .L178+4
 3251 0140 F4EEC77A 		vcmpe.f32	s15, s14
 3252 0144 F1EE10FA 		vmrs	APSR_nzcv, FPSCR
 3253 0148 40F3C781 		ble	.L175
ARM GAS  /var/folders/9k/zk1mgrrd7wg4__6zvxvr9w8m0000gn/T//ccaaKoMx.s 			page 91


 3254 014c 0023     		movs	r3, #0
 3255 014e FF22     		movs	r2, #255
 3256 0150 01E0     		b	.L112
 3257              	.L144:
 3258 0152 0023     		movs	r3, #0
 3259 0154 1A46     		mov	r2, r3
 3260              	.LVL161:
 3261              	.L112:
  41:mi/plaits/dsp/engine/engine.h ****   return a0 * 0.25f * stmlib::SemitonesToRatio(midi_note);
 3262              		.loc 9 41 40 view .LVU919
 3263              		.loc 9 42 3 view .LVU920
 3264              	.LBB844:
 3265              	.LBI844:
  40:mi/stmlib/dsp/units.h ****   float pitch = semitones + 128.0f;
 3266              		.loc 10 40 14 view .LVU921
 3267              	.LBB845:
  41:mi/stmlib/dsp/units.h ****   MAKE_INTEGRAL_FRACTIONAL(pitch)
 3268              		.loc 10 41 3 view .LVU922
  42:mi/stmlib/dsp/units.h **** 
 3269              		.loc 10 42 3 view .LVU923
  42:mi/stmlib/dsp/units.h **** 
 3270              		.loc 10 42 3 view .LVU924
  44:mi/stmlib/dsp/units.h ****       lut_pitch_ratio_low[static_cast<int32_t>(pitch_fractional * 256.0f)];
 3271              		.loc 10 44 3 view .LVU925
  44:mi/stmlib/dsp/units.h ****       lut_pitch_ratio_low[static_cast<int32_t>(pitch_fractional * 256.0f)];
 3272              		.loc 10 44 3 is_stmt 0 view .LVU926
 3273              	.LBE845:
 3274              	.LBE844:
 3275              	.LBE858:
 3276              	.LBE869:
 180:mi/plaits/dsp/engine/virtual_analog_engine.cpp ****       parameters.note + auxiliary_detune + sync_amount * 48.0f);
 181:mi/plaits/dsp/engine/virtual_analog_engine.cpp **** 
 182:mi/plaits/dsp/engine/virtual_analog_engine.cpp ****   float shape = parameters.morph * 1.5f;
 3277              		.loc 2 182 9 view .LVU927
 3278 0156 B7EE089A 		vmov.f32	s18, #1.5e+0
 3279              		.loc 2 182 28 view .LVU928
 3280 015a DAED037A 		vldr.32	s15, [r10, #12]
 3281              	.LBB870:
 3282              	.LBB859:
 3283              	.LBB851:
 3284              	.LBB846:
  44:mi/stmlib/dsp/units.h ****       lut_pitch_ratio_low[static_cast<int32_t>(pitch_fractional * 256.0f)];
 3285              		.loc 10 44 45 view .LVU929
 3286 015e 09EB8202 		add	r2, r9, r2, lsl #2
 3287              	.LBE846:
 3288              	.LBE851:
 3289              		.loc 9 42 57 view .LVU930
 3290 0162 9FED8D7A 		vldr.32	s14, .L178+52
 3291              	.LBB852:
 3292              	.LBB847:
 3293              		.loc 10 45 74 view .LVU931
 3294 0166 08EB8303 		add	r3, r8, r3, lsl #2
 3295              	.LBE847:
 3296              	.LBE852:
 3297              	.LBE859:
 3298              	.LBE870:
 3299              		.loc 2 182 9 view .LVU932
ARM GAS  /var/folders/9k/zk1mgrrd7wg4__6zvxvr9w8m0000gn/T//ccaaKoMx.s 			page 92


 3300 016a 27EE899A 		vmul.f32	s18, s15, s18
 3301              	.LBB871:
 3302              	.LBB860:
 3303              	.LBB853:
 3304              	.LBB848:
 3305              		.loc 10 45 74 view .LVU933
 3306 016e 92ED00AA 		vldr.32	s20, [r2]
 3307 0172 D3ED006A 		vldr.32	s13, [r3]
 3308              	.LBE848:
 3309              	.LBE853:
 3310              	.LBE860:
 3311              	.LBE871:
 183:mi/plaits/dsp/engine/virtual_analog_engine.cpp ****   CONSTRAIN(shape, 0.0f, 1.0f);
 3312              		.loc 2 183 3 view .LVU934
 3313 0176 B5EEC09A 		vcmpe.f32	s18, #0
 3314              	.LBB872:
 3315              	.LBB861:
 3316              	.LBB854:
 3317              	.LBB849:
 3318              		.loc 10 45 74 view .LVU935
 3319 017a 2AEE26AA 		vmul.f32	s20, s20, s13
 3320              	.LBE849:
 3321              	.LBE854:
 3322              	.LBE861:
 3323              	.LBE872:
 3324              		.loc 2 183 3 view .LVU936
 3325 017e F1EE10FA 		vmrs	APSR_nzcv, FPSCR
 3326              	.LBB873:
 3327              	.LBB862:
 3328              		.loc 9 42 57 view .LVU937
 3329 0182 2AEE07AA 		vmul.f32	s20, s20, s14
 3330              	.LVL162:
 3331              		.loc 9 42 57 view .LVU938
 3332              	.LBE862:
 3333              	.LBE873:
 182:mi/plaits/dsp/engine/virtual_analog_engine.cpp ****   CONSTRAIN(shape, 0.0f, 1.0f);
 3334              		.loc 2 182 3 is_stmt 1 view .LVU939
 3335              		.loc 2 183 3 view .LVU940
 3336 0186 00F1F781 		bmi	.L146
 3337              		.loc 2 183 3 discriminator 2 view .LVU941
 3338 018a B7EE007A 		vmov.f32	s14, #1.0e+0
 3339 018e B4EE479A 		vcmp.f32	s18, s14
 3340 0192 F1EE10FA 		vmrs	APSR_nzcv, FPSCR
 3341 0196 37FE099A 		vselgt.f32	s18, s14, s18
 3342              	.LVL163:
 3343              	.L113:
 3344              		.loc 2 183 31 discriminator 6 view .LVU942
 184:mi/plaits/dsp/engine/virtual_analog_engine.cpp **** 
 185:mi/plaits/dsp/engine/virtual_analog_engine.cpp ****   float pw = 0.5f + (parameters.morph - 0.66f) * 1.46f;
 3345              		.loc 2 185 3 discriminator 6 view .LVU943
 3346              		.loc 2 185 9 is_stmt 0 discriminator 6 view .LVU944
 3347 019a B6EE007A 		vmov.f32	s14, #5.0e-1
 3348              		.loc 2 185 39 discriminator 6 view .LVU945
 3349 019e 9FED746A 		vldr.32	s12, .L178+12
 3350              		.loc 2 185 9 discriminator 6 view .LVU946
 3351 01a2 DFED746A 		vldr.32	s13, .L178+16
 3352              		.loc 2 185 39 discriminator 6 view .LVU947
ARM GAS  /var/folders/9k/zk1mgrrd7wg4__6zvxvr9w8m0000gn/T//ccaaKoMx.s 			page 93


 3353 01a6 77EEC67A 		vsub.f32	s15, s15, s12
 3354              		.loc 2 185 9 discriminator 6 view .LVU948
 3355 01aa F0EE479A 		vmov.f32	s19, s14
 3356 01ae E7EEA69A 		vfma.f32	s19, s15, s13
 3357              	.LVL164:
 186:mi/plaits/dsp/engine/virtual_analog_engine.cpp ****   CONSTRAIN(pw, 0.5f, 0.995f);
 3358              		.loc 2 186 3 is_stmt 1 discriminator 6 view .LVU949
 3359 01b2 F4EEC79A 		vcmpe.f32	s19, s14
 3360 01b6 F1EE10FA 		vmrs	APSR_nzcv, FPSCR
 3361 01ba 00F1CF80 		bmi	.L147
 3362              		.loc 2 186 3 discriminator 2 view .LVU950
 3363 01be DFED6E7A 		vldr.32	s15, .L178+20
 3364 01c2 F4EE679A 		vcmp.f32	s19, s15
 3365 01c6 F1EE10FA 		vmrs	APSR_nzcv, FPSCR
 3366 01ca 77FEA99A 		vselgt.f32	s19, s15, s19
 3367              	.LVL165:
 3368              	.L115:
 3369              		.loc 2 186 30 discriminator 6 view .LVU951
 187:mi/plaits/dsp/engine/virtual_analog_engine.cpp ****   
 188:mi/plaits/dsp/engine/virtual_analog_engine.cpp ****   // Render monster sync to AUX.
 189:mi/plaits/dsp/engine/virtual_analog_engine.cpp ****   primary_.Render(primary_f, primary_sync_f, pw, shape, out, size);
 3370              		.loc 2 189 3 discriminator 6 view .LVU952
 3371              	.LBB874:
 3372              	.LBI874:
  75:mi/plaits/dsp/oscillator/variable_shape_oscillator.h ****       float master_frequency,
 3373              		.loc 3 75 8 discriminator 6 view .LVU953
 3374              	.LBB875:
  82:mi/plaits/dsp/oscillator/variable_shape_oscillator.h ****         master_frequency,
 3375              		.loc 3 82 5 discriminator 6 view .LVU954
  82:mi/plaits/dsp/oscillator/variable_shape_oscillator.h ****         master_frequency,
 3376              		.loc 3 82 24 is_stmt 0 discriminator 6 view .LVU955
 3377 01ce F0EE491A 		vmov.f32	s3, s18
 3378 01d2 9FED742A 		vldr.32	s4, .L178+64
 3379 01d6 B0EE691A 		vmov.f32	s2, s19
 3380 01da 07F11000 		add	r0, r7, #16
 3381              	.LVL166:
  82:mi/plaits/dsp/oscillator/variable_shape_oscillator.h ****         master_frequency,
 3382              		.loc 3 82 24 discriminator 6 view .LVU956
 3383 01de B0EE680A 		vmov.f32	s0, s17
 3384              	.LVL167:
  82:mi/plaits/dsp/oscillator/variable_shape_oscillator.h ****         master_frequency,
 3385              		.loc 3 82 24 discriminator 6 view .LVU957
 3386 01e2 3246     		mov	r2, r6
 3387 01e4 2146     		mov	r1, r4
 3388 01e6 FFF7FEFF 		bl	_ZN6plaits23VariableShapeOscillator6RenderILb1ELb0EEEvfffffPfj
 3389              	.LVL168:
  82:mi/plaits/dsp/oscillator/variable_shape_oscillator.h ****         master_frequency,
 3390              		.loc 3 82 24 discriminator 6 view .LVU958
 3391              	.LBE875:
 3392              	.LBE874:
 190:mi/plaits/dsp/engine/virtual_analog_engine.cpp ****   auxiliary_.Render(auxiliary_f, auxiliary_sync_f, pw, shape, aux, size);
 3393              		.loc 2 190 3 is_stmt 1 discriminator 6 view .LVU959
 3394              	.LBB876:
 3395              	.LBI876:
  75:mi/plaits/dsp/oscillator/variable_shape_oscillator.h ****       float master_frequency,
 3396              		.loc 3 75 8 discriminator 6 view .LVU960
 3397              	.LBB877:
ARM GAS  /var/folders/9k/zk1mgrrd7wg4__6zvxvr9w8m0000gn/T//ccaaKoMx.s 			page 94


  82:mi/plaits/dsp/oscillator/variable_shape_oscillator.h ****         master_frequency,
 3398              		.loc 3 82 5 discriminator 6 view .LVU961
  82:mi/plaits/dsp/oscillator/variable_shape_oscillator.h ****         master_frequency,
 3399              		.loc 3 82 24 is_stmt 0 discriminator 6 view .LVU962
 3400 01ea F0EE4A0A 		vmov.f32	s1, s20
 3401 01ee F0EE491A 		vmov.f32	s3, s18
 3402 01f2 3246     		mov	r2, r6
 3403 01f4 B0EE691A 		vmov.f32	s2, s19
 3404 01f8 2946     		mov	r1, r5
 3405 01fa B0EE480A 		vmov.f32	s0, s16
 3406 01fe 9FED692A 		vldr.32	s4, .L178+64
 3407 0202 07F13800 		add	r0, r7, #56
 3408              	.LVL169:
  82:mi/plaits/dsp/oscillator/variable_shape_oscillator.h ****         master_frequency,
 3409              		.loc 3 82 24 discriminator 6 view .LVU963
 3410 0206 FFF7FEFF 		bl	_ZN6plaits23VariableShapeOscillator6RenderILb1ELb0EEEvfffffPfj
 3411              	.LVL170:
  82:mi/plaits/dsp/oscillator/variable_shape_oscillator.h ****         master_frequency,
 3412              		.loc 3 82 24 discriminator 6 view .LVU964
 3413              	.LBE877:
 3414              	.LBE876:
 191:mi/plaits/dsp/engine/virtual_analog_engine.cpp ****   for (size_t i = 0; i < size; ++i) {
 3415              		.loc 2 191 3 is_stmt 1 discriminator 6 view .LVU965
 3416              	.LBB878:
 3417              		.loc 2 191 24 discriminator 6 view .LVU966
 3418 020a 8EB1     		cbz	r6, .L120
 3419 020c 2B46     		mov	r3, r5
 3420 020e 2246     		mov	r2, r4
 3421 0210 05EB8601 		add	r1, r5, r6, lsl #2
 3422              	.LVL171:
 3423              	.L121:
 192:mi/plaits/dsp/engine/virtual_analog_engine.cpp ****     aux[i] = (aux[i] - out[i]) * 0.5f;
 3424              		.loc 2 192 5 discriminator 2 view .LVU967
 3425              		.loc 2 192 20 is_stmt 0 discriminator 2 view .LVU968
 3426 0214 D3ED007A 		vldr.32	s15, [r3]
 3427              		.loc 2 192 32 discriminator 2 view .LVU969
 3428 0218 B6EE007A 		vmov.f32	s14, #5.0e-1
 3429              		.loc 2 192 29 discriminator 2 view .LVU970
 3430 021c F2EC016A 		vldmia.32	r2!, {s13}
 3431              		.loc 2 192 22 discriminator 2 view .LVU971
 3432 0220 77EEE67A 		vsub.f32	s15, s15, s13
 3433              		.loc 2 192 32 discriminator 2 view .LVU972
 3434 0224 67EE877A 		vmul.f32	s15, s15, s14
 3435              		.loc 2 192 12 discriminator 2 view .LVU973
 3436 0228 E3EC017A 		vstmia.32	r3!, {s15}
 191:mi/plaits/dsp/engine/virtual_analog_engine.cpp ****   for (size_t i = 0; i < size; ++i) {
 3437              		.loc 2 191 3 is_stmt 1 discriminator 2 view .LVU974
 191:mi/plaits/dsp/engine/virtual_analog_engine.cpp ****   for (size_t i = 0; i < size; ++i) {
 3438              		.loc 2 191 24 discriminator 2 view .LVU975
 3439 022c 9942     		cmp	r1, r3
 3440 022e F1D1     		bne	.L121
 3441              	.L120:
 3442              	.LBE878:
 193:mi/plaits/dsp/engine/virtual_analog_engine.cpp ****   }
 194:mi/plaits/dsp/engine/virtual_analog_engine.cpp ****   
 195:mi/plaits/dsp/engine/virtual_analog_engine.cpp ****   // Render double varishape to OUT.
 196:mi/plaits/dsp/engine/virtual_analog_engine.cpp ****   float square_pw = 1.3f * parameters.timbre - 0.15f;
ARM GAS  /var/folders/9k/zk1mgrrd7wg4__6zvxvr9w8m0000gn/T//ccaaKoMx.s 			page 95


 3443              		.loc 2 196 3 view .LVU976
 3444              		.loc 2 196 39 is_stmt 0 view .LVU977
 3445 0230 9AED026A 		vldr.32	s12, [r10, #8]
 3446              		.loc 2 196 9 view .LVU978
 3447 0234 9FED517A 		vldr.32	s14, .L178+24
 3448 0238 9FED511A 		vldr.32	s2, .L178+28
 197:mi/plaits/dsp/engine/virtual_analog_engine.cpp ****   CONSTRAIN(square_pw, 0.005f, 0.5f);
 3449              		.loc 2 197 3 view .LVU979
 3450 023c DFED517A 		vldr.32	s15, .L178+32
 196:mi/plaits/dsp/engine/virtual_analog_engine.cpp ****   CONSTRAIN(square_pw, 0.005f, 0.5f);
 3451              		.loc 2 196 9 view .LVU980
 3452 0240 A6EE071A 		vfma.f32	s2, s12, s14
 3453              	.LVL172:
 3454              		.loc 2 197 3 is_stmt 1 view .LVU981
 3455 0244 B4EEE71A 		vcmpe.f32	s2, s15
 3456 0248 F1EE10FA 		vmrs	APSR_nzcv, FPSCR
 3457 024c 40F12981 		bpl	.L176
 3458 0250 B0EE671A 		vmov.f32	s2, s15
 3459              	.LVL173:
 3460              	.L118:
 3461              		.loc 2 197 37 discriminator 6 view .LVU982
 198:mi/plaits/dsp/engine/virtual_analog_engine.cpp ****   
 199:mi/plaits/dsp/engine/virtual_analog_engine.cpp ****   const float square_sync_ratio = parameters.timbre < 0.5f
 3462              		.loc 2 199 3 discriminator 6 view .LVU983
 200:mi/plaits/dsp/engine/virtual_analog_engine.cpp ****       ? 0.0f
 3463              		.loc 2 200 7 is_stmt 0 discriminator 6 view .LVU984
 3464 0254 F6EE007A 		vmov.f32	s15, #5.0e-1
 3465 0258 B4EEE76A 		vcmpe.f32	s12, s15
 3466 025c F1EE10FA 		vmrs	APSR_nzcv, FPSCR
 3467 0260 00F11C81 		bmi	.L149
 201:mi/plaits/dsp/engine/virtual_analog_engine.cpp ****       : (parameters.timbre - 0.5f) * (parameters.timbre - 0.5f) * 4.0f * 48.0f;
 3468              		.loc 2 201 28 discriminator 2 view .LVU985
 3469 0264 76EE677A 		vsub.f32	s15, s12, s15
 200:mi/plaits/dsp/engine/virtual_analog_engine.cpp ****       ? 0.0f
 3470              		.loc 2 200 7 discriminator 2 view .LVU986
 3471 0268 9FED407A 		vldr.32	s14, .L178+8
 3472              		.loc 2 201 65 discriminator 2 view .LVU987
 3473 026c F1EE006A 		vmov.f32	s13, #4.0e+0
 3474              		.loc 2 201 36 discriminator 2 view .LVU988
 3475 0270 67EEA77A 		vmul.f32	s15, s15, s15
 3476              		.loc 2 201 65 discriminator 2 view .LVU989
 3477 0274 67EEA67A 		vmul.f32	s15, s15, s13
 200:mi/plaits/dsp/engine/virtual_analog_engine.cpp ****       ? 0.0f
 3478              		.loc 2 200 7 discriminator 2 view .LVU990
 3479 0278 67EE877A 		vmul.f32	s15, s15, s14
 3480              	.L123:
 3481              	.LVL174:
 202:mi/plaits/dsp/engine/virtual_analog_engine.cpp ****   
 203:mi/plaits/dsp/engine/virtual_analog_engine.cpp ****   const float square_gain = min(parameters.timbre * 8.0f, 1.0f);
 3482              		.loc 2 203 3 is_stmt 1 view .LVU991
 3483              		.loc 2 203 51 is_stmt 0 view .LVU992
 3484 027c F2EE009A 		vmov.f32	s19, #8.0e+0
 3485              	.LVL175:
 204:mi/plaits/dsp/engine/virtual_analog_engine.cpp ****   
 205:mi/plaits/dsp/engine/virtual_analog_engine.cpp ****   float saw_pw = parameters.morph < 0.5f
 3486              		.loc 2 205 29 view .LVU993
 3487 0280 9AED037A 		vldr.32	s14, [r10, #12]
ARM GAS  /var/folders/9k/zk1mgrrd7wg4__6zvxvr9w8m0000gn/T//ccaaKoMx.s 			page 96


 3488              	.LBB879:
 3489              	.LBB880:
 235:/Library/DaisyToolchain/0.2.0/arm/arm-none-eabi/include/c++/10.3.1/bits/stl_algobase.h **** 	return __b;
 3490              		.loc 8 235 7 view .LVU994
 3491 0284 F7EE006A 		vmov.f32	s13, #1.0e+0
 3492              	.LBE880:
 3493              	.LBE879:
 206:mi/plaits/dsp/engine/virtual_analog_engine.cpp ****       ? parameters.morph + 0.5f
 3494              		.loc 2 206 7 view .LVU995
 3495 0288 F6EE005A 		vmov.f32	s11, #5.0e-1
 203:mi/plaits/dsp/engine/virtual_analog_engine.cpp ****   
 3496              		.loc 2 203 51 view .LVU996
 3497 028c 66EE299A 		vmul.f32	s19, s12, s19
 3498              	.LVL176:
 3499              	.LBB883:
 3500              	.LBI879:
 230:/Library/DaisyToolchain/0.2.0/arm/arm-none-eabi/include/c++/10.3.1/bits/stl_algobase.h ****     {
 3501              		.loc 8 230 5 is_stmt 1 view .LVU997
 3502              	.LBB881:
 236:/Library/DaisyToolchain/0.2.0/arm/arm-none-eabi/include/c++/10.3.1/bits/stl_algobase.h ****       return __a;
 3503              		.loc 8 236 9 is_stmt 0 view .LVU998
 3504 0290 F4EE669A 		vcmp.f32	s19, s13
 3505 0294 F1EE10FA 		vmrs	APSR_nzcv, FPSCR
 3506              	.LBE881:
 3507              	.LBE883:
 3508              		.loc 2 206 7 view .LVU999
 3509 0298 B4EEE57A 		vcmpe.f32	s14, s11
 3510              	.LBB884:
 3511              	.LBB882:
 236:/Library/DaisyToolchain/0.2.0/arm/arm-none-eabi/include/c++/10.3.1/bits/stl_algobase.h ****       return __a;
 3512              		.loc 8 236 9 view .LVU1000
 3513 029c 76FEA99A 		vselgt.f32	s19, s13, s19
 3514              	.LVL177:
 236:/Library/DaisyToolchain/0.2.0/arm/arm-none-eabi/include/c++/10.3.1/bits/stl_algobase.h ****       return __a;
 3515              		.loc 8 236 9 view .LVU1001
 3516              	.LBE882:
 3517              	.LBE884:
 205:mi/plaits/dsp/engine/virtual_analog_engine.cpp ****       ? parameters.morph + 0.5f
 3518              		.loc 2 205 3 is_stmt 1 view .LVU1002
 3519              		.loc 2 206 7 is_stmt 0 view .LVU1003
 3520 02a0 F1EE10FA 		vmrs	APSR_nzcv, FPSCR
 3521 02a4 40F1F380 		bpl	.L170
 3522              		.loc 2 206 7 discriminator 1 view .LVU1004
 3523 02a8 77EE256A 		vadd.f32	s13, s14, s11
 3524              	.L127:
 3525              	.LVL178:
 207:mi/plaits/dsp/engine/virtual_analog_engine.cpp ****       : 1.0f - (parameters.morph - 0.5f) * 2.0f;
 208:mi/plaits/dsp/engine/virtual_analog_engine.cpp ****   saw_pw *= 1.1f;
 3526              		.loc 2 208 3 is_stmt 1 view .LVU1005
 3527              		.loc 2 208 10 is_stmt 0 view .LVU1006
 3528 02ac 9FED36AA 		vldr.32	s20, .L178+36
 3529              	.LVL179:
 209:mi/plaits/dsp/engine/virtual_analog_engine.cpp ****   CONSTRAIN(saw_pw, 0.005f, 1.0f);
 3530              		.loc 2 209 3 view .LVU1007
 3531 02b0 9FED346A 		vldr.32	s12, .L178+32
 208:mi/plaits/dsp/engine/virtual_analog_engine.cpp ****   CONSTRAIN(saw_pw, 0.005f, 1.0f);
 3532              		.loc 2 208 10 view .LVU1008
ARM GAS  /var/folders/9k/zk1mgrrd7wg4__6zvxvr9w8m0000gn/T//ccaaKoMx.s 			page 97


 3533 02b4 26EE8AAA 		vmul.f32	s20, s13, s20
 3534              	.LVL180:
 3535              		.loc 2 209 3 is_stmt 1 view .LVU1009
 3536 02b8 B4EEC6AA 		vcmpe.f32	s20, s12
 3537 02bc F1EE10FA 		vmrs	APSR_nzcv, FPSCR
 3538 02c0 00F1E280 		bmi	.L151
 3539              		.loc 2 209 3 discriminator 2 view .LVU1010
 3540 02c4 F7EE006A 		vmov.f32	s13, #1.0e+0
 3541 02c8 B4EE66AA 		vcmp.f32	s20, s13
 3542 02cc F1EE10FA 		vmrs	APSR_nzcv, FPSCR
 3543 02d0 36FE8AAA 		vselgt.f32	s20, s13, s20
 3544              	.LVL181:
 3545              	.L128:
 3546              		.loc 2 209 34 discriminator 6 view .LVU1011
 210:mi/plaits/dsp/engine/virtual_analog_engine.cpp ****     
 211:mi/plaits/dsp/engine/virtual_analog_engine.cpp ****   float saw_shape = 10.0f - 21.0f * parameters.morph;
 3547              		.loc 2 211 3 discriminator 6 view .LVU1012
 3548              		.loc 2 211 9 is_stmt 0 discriminator 6 view .LVU1013
 3549 02d4 F3EE056A 		vmov.f32	s13, #2.1e+1
 3550 02d8 F2EE04AA 		vmov.f32	s21, #1.0e+1
 3551 02dc E7EE66AA 		vfms.f32	s21, s14, s13
 3552              	.LVL182:
 212:mi/plaits/dsp/engine/virtual_analog_engine.cpp ****   CONSTRAIN(saw_shape, 0.0f, 1.0f);
 3553              		.loc 2 212 3 is_stmt 1 discriminator 6 view .LVU1014
 3554 02e0 F5EEC0AA 		vcmpe.f32	s21, #0
 3555 02e4 F1EE10FA 		vmrs	APSR_nzcv, FPSCR
 3556 02e8 00F14381 		bmi	.L152
 3557              		.loc 2 212 3 discriminator 2 view .LVU1015
 3558 02ec F7EE006A 		vmov.f32	s13, #1.0e+0
 3559 02f0 F4EE66AA 		vcmp.f32	s21, s13
 3560 02f4 F1EE10FA 		vmrs	APSR_nzcv, FPSCR
 3561 02f8 76FEAAAA 		vselgt.f32	s21, s13, s21
 3562              	.LVL183:
 3563              	.L130:
 3564              		.loc 2 212 35 discriminator 6 view .LVU1016
 213:mi/plaits/dsp/engine/virtual_analog_engine.cpp ****   
 214:mi/plaits/dsp/engine/virtual_analog_engine.cpp ****   float saw_gain = 8.0f * (1.0f - parameters.morph);
 3565              		.loc 2 214 3 discriminator 6 view .LVU1017
 3566              		.loc 2 214 33 is_stmt 0 discriminator 6 view .LVU1018
 3567 02fc F7EE006A 		vmov.f32	s13, #1.0e+0
 215:mi/plaits/dsp/engine/virtual_analog_engine.cpp ****   CONSTRAIN(saw_gain, 0.02f, 1.0f);
 3568              		.loc 2 215 3 discriminator 6 view .LVU1019
 3569 0300 9FED226A 		vldr.32	s12, .L178+40
 214:mi/plaits/dsp/engine/virtual_analog_engine.cpp ****   CONSTRAIN(saw_gain, 0.02f, 1.0f);
 3570              		.loc 2 214 25 discriminator 6 view .LVU1020
 3571 0304 B2EE009A 		vmov.f32	s18, #8.0e+0
 3572              	.LVL184:
 214:mi/plaits/dsp/engine/virtual_analog_engine.cpp ****   CONSTRAIN(saw_gain, 0.02f, 1.0f);
 3573              		.loc 2 214 33 discriminator 6 view .LVU1021
 3574 0308 36EEC77A 		vsub.f32	s14, s13, s14
 214:mi/plaits/dsp/engine/virtual_analog_engine.cpp ****   CONSTRAIN(saw_gain, 0.02f, 1.0f);
 3575              		.loc 2 214 25 discriminator 6 view .LVU1022
 3576 030c 27EE099A 		vmul.f32	s18, s14, s18
 3577              	.LVL185:
 3578              		.loc 2 215 3 is_stmt 1 discriminator 6 view .LVU1023
 3579 0310 B4EEC69A 		vcmpe.f32	s18, s12
 3580 0314 F1EE10FA 		vmrs	APSR_nzcv, FPSCR
ARM GAS  /var/folders/9k/zk1mgrrd7wg4__6zvxvr9w8m0000gn/T//ccaaKoMx.s 			page 98


 3581 0318 00F1B380 		bmi	.L153
 3582              		.loc 2 215 3 discriminator 2 view .LVU1024
 3583 031c B4EE669A 		vcmp.f32	s18, s13
 3584 0320 F1EE10FA 		vmrs	APSR_nzcv, FPSCR
 3585 0324 36FE899A 		vselgt.f32	s18, s13, s18
 3586              	.LVL186:
 3587              	.L132:
 3588              		.loc 2 215 35 discriminator 6 view .LVU1025
 216:mi/plaits/dsp/engine/virtual_analog_engine.cpp ****   
 217:mi/plaits/dsp/engine/virtual_analog_engine.cpp ****   const float square_sync_f = NoteToFrequency(
 3589              		.loc 2 217 3 discriminator 6 view .LVU1026
 3590              	.LBB885:
 3591              	.LBI885:
  39:mi/plaits/dsp/engine/engine.h ****   midi_note -= 9.0f;
 3592              		.loc 9 39 14 discriminator 6 view .LVU1027
 3593              	.LBB886:
  40:mi/plaits/dsp/engine/engine.h ****   CONSTRAIN(midi_note, -128.0f, 127.0f);
 3594              		.loc 9 40 3 discriminator 6 view .LVU1028
 3595              	.LBE886:
 3596              	.LBE885:
 3597              		.loc 2 217 46 is_stmt 0 discriminator 6 view .LVU1029
 3598 0328 9AED016A 		vldr.32	s12, [r10, #4]
 3599              	.LBB909:
 3600              	.LBB901:
  40:mi/plaits/dsp/engine/engine.h ****   CONSTRAIN(midi_note, -128.0f, 127.0f);
 3601              		.loc 9 40 13 discriminator 6 view .LVU1030
 3602 032c F2EE026A 		vmov.f32	s13, #9.0e+0
  41:mi/plaits/dsp/engine/engine.h ****   return a0 * 0.25f * stmlib::SemitonesToRatio(midi_note);
 3603              		.loc 9 41 3 discriminator 6 view .LVU1031
 3604 0330 9FED0C7A 		vldr.32	s14, .L178
 3605              	.LBE901:
 3606              	.LBE909:
 3607              		.loc 2 217 46 discriminator 6 view .LVU1032
 3608 0334 77EE867A 		vadd.f32	s15, s15, s12
 3609              	.LVL187:
 3610              	.LBB910:
 3611              	.LBB902:
  40:mi/plaits/dsp/engine/engine.h ****   CONSTRAIN(midi_note, -128.0f, 127.0f);
 3612              		.loc 9 40 13 discriminator 6 view .LVU1033
 3613 0338 77EEE67A 		vsub.f32	s15, s15, s13
 3614              	.LVL188:
  41:mi/plaits/dsp/engine/engine.h ****   return a0 * 0.25f * stmlib::SemitonesToRatio(midi_note);
 3615              		.loc 9 41 3 is_stmt 1 discriminator 6 view .LVU1034
 3616 033c F4EEC77A 		vcmpe.f32	s15, s14
 3617 0340 F1EE10FA 		vmrs	APSR_nzcv, FPSCR
 3618 0344 30D4     		bmi	.L154
  41:mi/plaits/dsp/engine/engine.h ****   return a0 * 0.25f * stmlib::SemitonesToRatio(midi_note);
 3619              		.loc 9 41 3 view .LVU1035
 3620 0346 9FED087A 		vldr.32	s14, .L178+4
 3621 034a F4EEC77A 		vcmpe.f32	s15, s14
 3622 034e F1EE10FA 		vmrs	APSR_nzcv, FPSCR
 3623 0352 40F3AF80 		ble	.L177
 3624 0356 0023     		movs	r3, #0
 3625 0358 FF22     		movs	r2, #255
 3626 035a 27E0     		b	.L134
 3627              	.LVL189:
 3628              	.L147:
ARM GAS  /var/folders/9k/zk1mgrrd7wg4__6zvxvr9w8m0000gn/T//ccaaKoMx.s 			page 99


  41:mi/plaits/dsp/engine/engine.h ****   return a0 * 0.25f * stmlib::SemitonesToRatio(midi_note);
 3629              		.loc 9 41 3 is_stmt 0 view .LVU1036
 3630              	.LBE902:
 3631              	.LBE910:
 186:mi/plaits/dsp/engine/virtual_analog_engine.cpp ****   
 3632              		.loc 2 186 3 view .LVU1037
 3633 035c F0EE479A 		vmov.f32	s19, s14
 3634              	.LVL190:
 186:mi/plaits/dsp/engine/virtual_analog_engine.cpp ****   
 3635              		.loc 2 186 3 view .LVU1038
 3636 0360 35E7     		b	.L115
 3637              	.L179:
 3638 0362 00BF     		.align	2
 3639              	.L178:
 3640 0364 000000C3 		.word	-1023410176
 3641 0368 0000FE42 		.word	1123942400
 3642 036c 00004042 		.word	1111490560
 3643 0370 C3F5283F 		.word	1059648963
 3644 0374 48E1BA3F 		.word	1069211976
 3645 0378 52B87E3F 		.word	1065269330
 3646 037c 6666A63F 		.word	1067869798
 3647 0380 9A9919BE 		.word	-1105618534
 3648 0384 0AD7A33B 		.word	1000593162
 3649 0388 CDCC8C3F 		.word	1066192077
 3650 038c 0AD7A33C 		.word	1017370378
 3651 0390 00000000 		.word	_ZN6stmlib20lut_pitch_ratio_highE
 3652 0394 00000000 		.word	_ZN6stmlib19lut_pitch_ratio_lowE
 3653 0398 51969639 		.word	966170193
 3654 039c 9A99993E 		.word	1050253722
 3655 03a0 00000043 		.word	1124073472
 3656 03a4 00000000 		.word	0
 3657              	.LVL191:
 3658              	.L154:
 3659              	.LBB911:
 3660              	.LBB903:
 186:mi/plaits/dsp/engine/virtual_analog_engine.cpp ****   
 3661              		.loc 2 186 3 view .LVU1039
 3662 03a8 0023     		movs	r3, #0
 3663 03aa 1A46     		mov	r2, r3
 3664              	.LVL192:
 3665              	.L134:
  41:mi/plaits/dsp/engine/engine.h ****   return a0 * 0.25f * stmlib::SemitonesToRatio(midi_note);
 3666              		.loc 9 41 40 is_stmt 1 view .LVU1040
 3667              		.loc 9 42 3 view .LVU1041
 3668              	.LBB887:
 3669              	.LBI887:
  40:mi/stmlib/dsp/units.h ****   float pitch = semitones + 128.0f;
 3670              		.loc 10 40 14 view .LVU1042
 3671              	.LBB888:
  41:mi/stmlib/dsp/units.h ****   MAKE_INTEGRAL_FRACTIONAL(pitch)
 3672              		.loc 10 41 3 view .LVU1043
  42:mi/stmlib/dsp/units.h **** 
 3673              		.loc 10 42 3 view .LVU1044
  42:mi/stmlib/dsp/units.h **** 
 3674              		.loc 10 42 3 view .LVU1045
  44:mi/stmlib/dsp/units.h ****       lut_pitch_ratio_low[static_cast<int32_t>(pitch_fractional * 256.0f)];
 3675              		.loc 10 44 3 view .LVU1046
ARM GAS  /var/folders/9k/zk1mgrrd7wg4__6zvxvr9w8m0000gn/T//ccaaKoMx.s 			page 100


  44:mi/stmlib/dsp/units.h ****       lut_pitch_ratio_low[static_cast<int32_t>(pitch_fractional * 256.0f)];
 3676              		.loc 10 44 3 is_stmt 0 view .LVU1047
 3677              	.LBE888:
 3678              	.LBE887:
 3679              	.LBE903:
 3680              	.LBE911:
 218:mi/plaits/dsp/engine/virtual_analog_engine.cpp ****       parameters.note + square_sync_ratio);
 219:mi/plaits/dsp/engine/virtual_analog_engine.cpp ****   
 220:mi/plaits/dsp/engine/virtual_analog_engine.cpp ****   sync_.Render(
 3681              		.loc 2 220 3 is_stmt 1 view .LVU1048
 3682              	.LBB912:
 3683              	.LBI912:
  75:mi/plaits/dsp/oscillator/variable_shape_oscillator.h ****       float master_frequency,
 3684              		.loc 3 75 8 view .LVU1049
 3685              	.LBB913:
  82:mi/plaits/dsp/oscillator/variable_shape_oscillator.h ****         master_frequency,
 3686              		.loc 3 82 5 view .LVU1050
 3687              	.LBE913:
 3688              	.LBE912:
 3689              	.LBB918:
 3690              	.LBB904:
 3691              	.LBB895:
 3692              	.LBB889:
 3693              		.loc 10 45 74 is_stmt 0 view .LVU1051
 3694 03ac 08EB8303 		add	r3, r8, r3, lsl #2
 3695              	.LVL193:
 3696              		.loc 10 45 74 view .LVU1052
 3697              	.LBE889:
 3698              	.LBE895:
 3699              		.loc 9 42 57 view .LVU1053
 3700 03b0 5FED070A 		vldr.32	s1, .L178+52
 3701              	.LBB896:
 3702              	.LBB890:
  44:mi/stmlib/dsp/units.h ****       lut_pitch_ratio_low[static_cast<int32_t>(pitch_fractional * 256.0f)];
 3703              		.loc 10 44 45 view .LVU1054
 3704 03b4 09EB8209 		add	r9, r9, r2, lsl #2
 3705              	.LBE890:
 3706              	.LBE896:
 3707              	.LBE904:
 3708              	.LBE918:
 3709              	.LBB919:
 3710              	.LBB914:
  82:mi/plaits/dsp/oscillator/variable_shape_oscillator.h ****         master_frequency,
 3711              		.loc 3 82 24 view .LVU1055
 3712 03b8 B0EE680A 		vmov.f32	s0, s17
 3713              	.LBE914:
 3714              	.LBE919:
 3715              	.LBB920:
 3716              	.LBB905:
 3717              	.LBB897:
 3718              	.LBB891:
 3719              		.loc 10 45 74 view .LVU1056
 3720 03bc D3ED007A 		vldr.32	s15, [r3]
 3721              	.LBE891:
 3722              	.LBE897:
 3723              	.LBE905:
 3724              	.LBE920:
ARM GAS  /var/folders/9k/zk1mgrrd7wg4__6zvxvr9w8m0000gn/T//ccaaKoMx.s 			page 101


 3725              	.LBB921:
 3726              	.LBB915:
  82:mi/plaits/dsp/oscillator/variable_shape_oscillator.h ****         master_frequency,
 3727              		.loc 3 82 24 view .LVU1057
 3728 03c0 F7EE001A 		vmov.f32	s3, #1.0e+0
 3729              	.LBE915:
 3730              	.LBE921:
 3731              	.LBB922:
 3732              	.LBB906:
 3733              	.LBB898:
 3734              	.LBB892:
 3735              		.loc 10 45 74 view .LVU1058
 3736 03c4 D9ED005A 		vldr.32	s11, [r9]
 3737              	.LBE892:
 3738              	.LBE898:
 3739              	.LBE906:
 3740              	.LBE922:
 3741              	.LBB923:
 3742              	.LBB916:
  82:mi/plaits/dsp/oscillator/variable_shape_oscillator.h ****         master_frequency,
 3743              		.loc 3 82 24 view .LVU1059
 3744 03c8 07F16000 		add	r0, r7, #96
 3745              	.LVL194:
  82:mi/plaits/dsp/oscillator/variable_shape_oscillator.h ****         master_frequency,
 3746              		.loc 3 82 24 view .LVU1060
 3747 03cc 1FED0B2A 		vldr.32	s4, .L178+64
 3748 03d0 3246     		mov	r2, r6
  82:mi/plaits/dsp/oscillator/variable_shape_oscillator.h ****         master_frequency,
 3749              		.loc 3 82 24 view .LVU1061
 3750              	.LBE916:
 3751              	.LBE923:
 3752              	.LBB924:
 3753              	.LBB907:
 3754              	.LBB899:
 3755              	.LBB893:
 3756              		.loc 10 45 74 view .LVU1062
 3757 03d2 65EEA75A 		vmul.f32	s11, s11, s15
 3758              	.LBE893:
 3759              	.LBE899:
 3760              	.LBE907:
 3761              	.LBE924:
 3762              	.LBB925:
 3763              	.LBB917:
  82:mi/plaits/dsp/oscillator/variable_shape_oscillator.h ****         master_frequency,
 3764              		.loc 3 82 24 view .LVU1063
 3765 03d6 D7F8AC10 		ldr	r1, [r7, #172]
 3766 03da 65EEA00A 		vmul.f32	s1, s11, s1
 3767 03de FFF7FEFF 		bl	_ZN6plaits23VariableShapeOscillator6RenderILb1ELb0EEEvfffffPfj
 3768              	.LVL195:
  82:mi/plaits/dsp/oscillator/variable_shape_oscillator.h ****         master_frequency,
 3769              		.loc 3 82 24 view .LVU1064
 3770              	.LBE917:
 3771              	.LBE925:
 221:mi/plaits/dsp/engine/virtual_analog_engine.cpp ****       primary_f, square_sync_f, square_pw, 1.0f, temp_buffer_, size);
 222:mi/plaits/dsp/engine/virtual_analog_engine.cpp ****   variable_saw_.Render(auxiliary_f, saw_pw, saw_shape, out, size);
 3772              		.loc 2 222 3 is_stmt 1 view .LVU1065
 3773              		.loc 2 222 23 is_stmt 0 view .LVU1066
ARM GAS  /var/folders/9k/zk1mgrrd7wg4__6zvxvr9w8m0000gn/T//ccaaKoMx.s 			page 102


 3774 03e2 B0EE6A1A 		vmov.f32	s2, s21
 3775 03e6 F0EE4A0A 		vmov.f32	s1, s20
 3776 03ea 3246     		mov	r2, r6
 3777 03ec B0EE480A 		vmov.f32	s0, s16
 3778 03f0 2146     		mov	r1, r4
 3779 03f2 07F18800 		add	r0, r7, #136
 3780 03f6 FFF7FEFF 		bl	_ZN6plaits21VariableSawOscillator6RenderEfffPfj
 3781              	.LVL196:
 223:mi/plaits/dsp/engine/virtual_analog_engine.cpp ****   
 224:mi/plaits/dsp/engine/virtual_analog_engine.cpp ****   float norm = 1.0f / (std::max(square_gain, saw_gain));
 3782              		.loc 2 224 3 is_stmt 1 view .LVU1067
 3783              	.LBB926:
 3784              	.LBI926:
 254:/Library/DaisyToolchain/0.2.0/arm/arm-none-eabi/include/c++/10.3.1/bits/stl_algobase.h ****     {
 3785              		.loc 8 254 5 view .LVU1068
 3786              	.LBB927:
 261:/Library/DaisyToolchain/0.2.0/arm/arm-none-eabi/include/c++/10.3.1/bits/stl_algobase.h ****       return __a;
 3787              		.loc 8 261 14 is_stmt 0 view .LVU1069
 3788 03fa B4EEE99A 		vcmpe.f32	s18, s19
 3789              	.LBE927:
 3790              	.LBE926:
 3791              		.loc 2 224 55 view .LVU1070
 3792 03fe B7EE004A 		vmov.f32	s8, #1.0e+0
 3793              	.LBB930:
 3794              	.LBB931:
 3795              	.LBB932:
  56:mi/stmlib/dsp/parameter_interpolator.h ****   }
 3796              		.loc 6 56 41 view .LVU1071
 3797 0402 07EE906A 		vmov	s15, r6	@ int
 3798              	.LBE932:
 3799              	.LBE931:
 3800              	.LBE930:
 225:mi/plaits/dsp/engine/virtual_analog_engine.cpp ****   
 226:mi/plaits/dsp/engine/virtual_analog_engine.cpp ****   ParameterInterpolator square_gain_modulation(
 227:mi/plaits/dsp/engine/virtual_analog_engine.cpp ****       &auxiliary_amount_,
 228:mi/plaits/dsp/engine/virtual_analog_engine.cpp ****       square_gain * 0.3f * norm,
 229:mi/plaits/dsp/engine/virtual_analog_engine.cpp ****       size);
 230:mi/plaits/dsp/engine/virtual_analog_engine.cpp **** 
 231:mi/plaits/dsp/engine/virtual_analog_engine.cpp ****   ParameterInterpolator saw_gain_modulation(
 232:mi/plaits/dsp/engine/virtual_analog_engine.cpp ****       &xmod_amount_,
 233:mi/plaits/dsp/engine/virtual_analog_engine.cpp ****       saw_gain * 0.5f * norm,
 3801              		.loc 2 233 16 view .LVU1072
 3802 0406 F6EE005A 		vmov.f32	s11, #5.0e-1
 228:mi/plaits/dsp/engine/virtual_analog_engine.cpp ****       size);
 3803              		.loc 2 228 19 view .LVU1073
 3804 040a 1FED1C5A 		vldr.32	s10, .L178+56
 3805              	.LBB943:
 3806              	.LBB928:
 3807              		.loc 8 261 14 view .LVU1074
 3808 040e F1EE10FA 		vmrs	APSR_nzcv, FPSCR
 3809              	.LBE928:
 3810              	.LBE943:
 3811              	.LBB944:
 3812              	.LBB938:
 3813              	.LBB933:
  55:mi/stmlib/dsp/parameter_interpolator.h ****     increment_ = (new_value - *state) / static_cast<float>(size);
 3814              		.loc 6 55 14 view .LVU1075
ARM GAS  /var/folders/9k/zk1mgrrd7wg4__6zvxvr9w8m0000gn/T//ccaaKoMx.s 			page 103


 3815 0412 97ED297A 		vldr.32	s14, [r7, #164]
  56:mi/stmlib/dsp/parameter_interpolator.h ****   }
 3816              		.loc 6 56 41 view .LVU1076
 3817 0416 B8EEE76A 		vcvt.f32.s32	s12, s15
 3818              	.LBE933:
 3819              	.LBE938:
 3820              	.LBE944:
 3821              	.LBB945:
 3822              	.LBB946:
 3823              	.LBB947:
  55:mi/stmlib/dsp/parameter_interpolator.h ****     increment_ = (new_value - *state) / static_cast<float>(size);
 3824              		.loc 6 55 14 view .LVU1077
 3825 041a D7ED2A6A 		vldr.32	s13, [r7, #168]
 3826              	.LBE947:
 3827              	.LBE946:
 3828              	.LBE945:
 228:mi/plaits/dsp/engine/virtual_analog_engine.cpp ****       size);
 3829              		.loc 2 228 19 view .LVU1078
 3830 041e 29EE855A 		vmul.f32	s10, s19, s10
 3831              	.LBB954:
 3832              	.LBB929:
 3833              		.loc 8 261 14 view .LVU1079
 3834 0422 79FE297A 		vselgt.f32	s15, s18, s19
 3835              	.LVL197:
 3836              		.loc 8 261 14 view .LVU1080
 3837              	.LBE929:
 3838              	.LBE954:
 224:mi/plaits/dsp/engine/virtual_analog_engine.cpp ****   
 3839              		.loc 2 224 55 view .LVU1081
 3840 0426 C4EE274A 		vdiv.f32	s9, s8, s15
 3841              	.LVL198:
 226:mi/plaits/dsp/engine/virtual_analog_engine.cpp ****       &auxiliary_amount_,
 3842              		.loc 2 226 3 is_stmt 1 view .LVU1082
 3843              	.LBB955:
 3844              	.LBI930:
  39:mi/stmlib/dsp/parameter_interpolator.h ****     Init(state, new_value, size);
 3845              		.loc 6 39 3 view .LVU1083
 3846              	.LBE955:
  40:mi/stmlib/dsp/parameter_interpolator.h ****   }
 3847              		.loc 6 40 5 view .LVU1084
 3848              	.LBB956:
 3849              	.LBB939:
 3850              	.LBI931:
  53:mi/stmlib/dsp/parameter_interpolator.h ****     state_ = state;
 3851              		.loc 6 53 15 view .LVU1085
 3852              	.LBB934:
  54:mi/stmlib/dsp/parameter_interpolator.h ****     value_ = *state;
 3853              		.loc 6 54 5 view .LVU1086
  55:mi/stmlib/dsp/parameter_interpolator.h ****     increment_ = (new_value - *state) / static_cast<float>(size);
 3854              		.loc 6 55 5 view .LVU1087
  56:mi/stmlib/dsp/parameter_interpolator.h ****   }
 3855              		.loc 6 56 5 view .LVU1088
 3856              	.LBE934:
 3857              	.LBE939:
 3858              	.LBE956:
 3859              		.loc 2 233 16 is_stmt 0 view .LVU1089
 3860 042a 69EE255A 		vmul.f32	s11, s18, s11
ARM GAS  /var/folders/9k/zk1mgrrd7wg4__6zvxvr9w8m0000gn/T//ccaaKoMx.s 			page 104


 3861              	.LBB957:
 3862              	.LBB940:
 3863              	.LBB935:
  56:mi/stmlib/dsp/parameter_interpolator.h ****   }
 3864              		.loc 6 56 29 view .LVU1090
 3865 042e B0EE474A 		vmov.f32	s8, s14
 3866              	.LBE935:
 3867              	.LBE940:
 3868              	.LBE957:
 3869              	.LBB958:
 3870              	.LBB951:
 3871              	.LBB948:
 3872 0432 F0EE667A 		vmov.f32	s15, s13
 3873              	.LBE948:
 3874              	.LBE951:
 3875              	.LBE958:
 3876              	.LBB959:
 3877              	.LBB941:
 3878              	.LBB936:
 3879 0436 95EE244A 		vfnms.f32	s8, s10, s9
 3880              	.LBE936:
 3881              	.LBE941:
 3882              	.LBE959:
 3883              	.LBB960:
 3884              	.LBB952:
 3885              	.LBB949:
 3886 043a D5EEA47A 		vfnms.f32	s15, s11, s9
 3887              	.LBE949:
 3888              	.LBE952:
 3889              	.LBE960:
 3890              	.LBB961:
 3891              	.LBB942:
 3892              	.LBB937:
  56:mi/stmlib/dsp/parameter_interpolator.h ****   }
 3893              		.loc 6 56 39 view .LVU1091
 3894 043e 84EE065A 		vdiv.f32	s10, s8, s12
 3895              	.LVL199:
  56:mi/stmlib/dsp/parameter_interpolator.h ****   }
 3896              		.loc 6 56 39 view .LVU1092
 3897              	.LBE937:
 3898              	.LBE942:
 3899              	.LBE961:
 231:mi/plaits/dsp/engine/virtual_analog_engine.cpp ****       &xmod_amount_,
 3900              		.loc 2 231 3 is_stmt 1 view .LVU1093
 3901              	.LBB962:
 3902              	.LBI945:
  39:mi/stmlib/dsp/parameter_interpolator.h ****     Init(state, new_value, size);
 3903              		.loc 6 39 3 view .LVU1094
 3904              	.LBE962:
  40:mi/stmlib/dsp/parameter_interpolator.h ****   }
 3905              		.loc 6 40 5 view .LVU1095
 3906              	.LBB963:
 3907              	.LBB953:
 3908              	.LBI946:
  53:mi/stmlib/dsp/parameter_interpolator.h ****     state_ = state;
 3909              		.loc 6 53 15 view .LVU1096
 3910              	.LBB950:
ARM GAS  /var/folders/9k/zk1mgrrd7wg4__6zvxvr9w8m0000gn/T//ccaaKoMx.s 			page 105


  54:mi/stmlib/dsp/parameter_interpolator.h ****     value_ = *state;
 3911              		.loc 6 54 5 view .LVU1097
  55:mi/stmlib/dsp/parameter_interpolator.h ****     increment_ = (new_value - *state) / static_cast<float>(size);
 3912              		.loc 6 55 5 view .LVU1098
  56:mi/stmlib/dsp/parameter_interpolator.h ****   }
 3913              		.loc 6 56 5 view .LVU1099
  56:mi/stmlib/dsp/parameter_interpolator.h ****   }
 3914              		.loc 6 56 39 is_stmt 0 view .LVU1100
 3915 0442 C7EE865A 		vdiv.f32	s11, s15, s12
 3916              	.LVL200:
  56:mi/stmlib/dsp/parameter_interpolator.h ****   }
 3917              		.loc 6 56 39 view .LVU1101
 3918              	.LBE950:
 3919              	.LBE953:
 3920              	.LBE963:
 234:mi/plaits/dsp/engine/virtual_analog_engine.cpp ****       size);
 235:mi/plaits/dsp/engine/virtual_analog_engine.cpp ****   
 236:mi/plaits/dsp/engine/virtual_analog_engine.cpp ****   for (size_t i = 0; i < size; ++i) {
 3921              		.loc 2 236 3 is_stmt 1 view .LVU1102
 3922              	.LBB964:
 3923              		.loc 2 236 24 view .LVU1103
 3924 0446 A6B1     		cbz	r6, .L136
 3925 0448 2146     		mov	r1, r4
 3926 044a D7F8AC30 		ldr	r3, [r7, #172]
 3927 044e 04EB8606 		add	r6, r4, r6, lsl #2
 3928              	.LVL201:
 3929              	.L137:
 237:mi/plaits/dsp/engine/virtual_analog_engine.cpp ****     out[i] = out[i] * saw_gain_modulation.Next() + \
 3930              		.loc 2 237 5 discriminator 2 view .LVU1104
 238:mi/plaits/dsp/engine/virtual_analog_engine.cpp ****         square_gain_modulation.Next() * temp_buffer_[i];
 3931              		.loc 2 238 55 is_stmt 0 discriminator 2 view .LVU1105
 3932 0452 F3EC017A 		vldmia.32	r3!, {s15}
 237:mi/plaits/dsp/engine/virtual_analog_engine.cpp ****     out[i] = out[i] * saw_gain_modulation.Next() + \
 3933              		.loc 2 237 19 discriminator 2 view .LVU1106
 3934 0456 91ED006A 		vldr.32	s12, [r1]
 3935              	.LVL202:
 3936              	.LBB965:
 3937              	.LBI965:
  59:mi/stmlib/dsp/parameter_interpolator.h ****     value_ += increment_;
 3938              		.loc 6 59 16 is_stmt 1 discriminator 2 view .LVU1107
 3939              	.LBB966:
  60:mi/stmlib/dsp/parameter_interpolator.h ****     return value_;
 3940              		.loc 6 60 5 discriminator 2 view .LVU1108
 3941              	.LBE966:
 3942              	.LBE965:
 3943              	.LBB968:
 3944              	.LBB969:
  60:mi/stmlib/dsp/parameter_interpolator.h ****     return value_;
 3945              		.loc 6 60 12 is_stmt 0 discriminator 2 view .LVU1109
 3946 045a 37EE057A 		vadd.f32	s14, s14, s10
 3947              	.LVL203:
  60:mi/stmlib/dsp/parameter_interpolator.h ****     return value_;
 3948              		.loc 6 60 12 discriminator 2 view .LVU1110
 3949              	.LBE969:
 3950              	.LBE968:
 3951              	.LBB971:
 3952              	.LBB967:
ARM GAS  /var/folders/9k/zk1mgrrd7wg4__6zvxvr9w8m0000gn/T//ccaaKoMx.s 			page 106


 3953 045e 76EEA56A 		vadd.f32	s13, s13, s11
 3954              	.LVL204:
 3955              		.loc 6 61 5 is_stmt 1 discriminator 2 view .LVU1111
 3956              		.loc 6 61 5 is_stmt 0 discriminator 2 view .LVU1112
 3957              	.LBE967:
 3958              	.LBE971:
 3959              	.LBB972:
 3960              	.LBI968:
  59:mi/stmlib/dsp/parameter_interpolator.h ****     value_ += increment_;
 3961              		.loc 6 59 16 is_stmt 1 discriminator 2 view .LVU1113
 3962              	.LBB970:
  60:mi/stmlib/dsp/parameter_interpolator.h ****     return value_;
 3963              		.loc 6 60 5 discriminator 2 view .LVU1114
 3964              		.loc 6 61 5 discriminator 2 view .LVU1115
 3965              		.loc 6 61 5 is_stmt 0 discriminator 2 view .LVU1116
 3966              	.LBE970:
 3967              	.LBE972:
 3968              		.loc 2 238 39 discriminator 2 view .LVU1117
 3969 0462 67EE877A 		vmul.f32	s15, s15, s14
 237:mi/plaits/dsp/engine/virtual_analog_engine.cpp ****         square_gain_modulation.Next() * temp_buffer_[i];
 3970              		.loc 2 237 50 discriminator 2 view .LVU1118
 3971 0466 E6EE267A 		vfma.f32	s15, s12, s13
 237:mi/plaits/dsp/engine/virtual_analog_engine.cpp ****         square_gain_modulation.Next() * temp_buffer_[i];
 3972              		.loc 2 237 12 discriminator 2 view .LVU1119
 3973 046a E1EC017A 		vstmia.32	r1!, {s15}
 236:mi/plaits/dsp/engine/virtual_analog_engine.cpp ****     out[i] = out[i] * saw_gain_modulation.Next() + \
 3974              		.loc 2 236 3 is_stmt 1 discriminator 2 view .LVU1120
 236:mi/plaits/dsp/engine/virtual_analog_engine.cpp ****     out[i] = out[i] * saw_gain_modulation.Next() + \
 3975              		.loc 2 236 24 discriminator 2 view .LVU1121
 3976 046e B142     		cmp	r1, r6
 3977 0470 EFD1     		bne	.L137
 3978              	.L136:
 3979              	.LVL205:
 236:mi/plaits/dsp/engine/virtual_analog_engine.cpp ****     out[i] = out[i] * saw_gain_modulation.Next() + \
 3980              		.loc 2 236 24 is_stmt 0 discriminator 2 view .LVU1122
 3981              	.LBE964:
 3982              	.LBB973:
 3983              	.LBI973:
  49:mi/stmlib/dsp/parameter_interpolator.h ****     *state_ = value_;
 3984              		.loc 6 49 3 is_stmt 1 view .LVU1123
 3985              	.LBB974:
  50:mi/stmlib/dsp/parameter_interpolator.h ****   }
 3986              		.loc 6 50 5 view .LVU1124
  50:mi/stmlib/dsp/parameter_interpolator.h ****   }
 3987              		.loc 6 50 13 is_stmt 0 view .LVU1125
 3988 0472 C7ED2A6A 		vstr.32	s13, [r7, #168]
 3989              	.LVL206:
  50:mi/stmlib/dsp/parameter_interpolator.h ****   }
 3990              		.loc 6 50 13 view .LVU1126
 3991              	.LBE974:
 3992              	.LBE973:
 3993              	.LBB975:
 3994              	.LBI975:
  49:mi/stmlib/dsp/parameter_interpolator.h ****     *state_ = value_;
 3995              		.loc 6 49 3 is_stmt 1 view .LVU1127
 3996              	.LBB976:
  50:mi/stmlib/dsp/parameter_interpolator.h ****   }
ARM GAS  /var/folders/9k/zk1mgrrd7wg4__6zvxvr9w8m0000gn/T//ccaaKoMx.s 			page 107


 3997              		.loc 6 50 5 view .LVU1128
  50:mi/stmlib/dsp/parameter_interpolator.h ****   }
 3998              		.loc 6 50 13 is_stmt 0 view .LVU1129
 3999 0476 87ED297A 		vstr.32	s14, [r7, #164]
 4000              	.LVL207:
  50:mi/stmlib/dsp/parameter_interpolator.h ****   }
 4001              		.loc 6 50 13 view .LVU1130
 4002              	.LBE976:
 4003              	.LBE975:
 239:mi/plaits/dsp/engine/virtual_analog_engine.cpp ****   }
 240:mi/plaits/dsp/engine/virtual_analog_engine.cpp **** 
 241:mi/plaits/dsp/engine/virtual_analog_engine.cpp **** #endif  // VA_VARIANT values
 242:mi/plaits/dsp/engine/virtual_analog_engine.cpp **** 
 243:mi/plaits/dsp/engine/virtual_analog_engine.cpp **** }
 4004              		.loc 2 243 1 view .LVU1131
 4005 047a BDEC068B 		vldm	sp!, {d8-d10}
 4006              		.cfi_remember_state
 4007              		.cfi_restore 84
 4008              		.cfi_restore 85
 4009              		.cfi_restore 82
 4010              		.cfi_restore 83
 4011              		.cfi_restore 80
 4012              		.cfi_restore 81
 4013              		.cfi_def_cfa_offset 32
 4014              	.LVL208:
 4015              		.loc 2 243 1 view .LVU1132
 4016 047e BDE8F087 		pop	{r4, r5, r6, r7, r8, r9, r10, pc}
 4017              	.LVL209:
 4018              	.L153:
 4019              		.cfi_restore_state
 215:mi/plaits/dsp/engine/virtual_analog_engine.cpp ****   
 4020              		.loc 2 215 3 view .LVU1133
 4021 0482 B0EE469A 		vmov.f32	s18, s12
 4022              	.LVL210:
 215:mi/plaits/dsp/engine/virtual_analog_engine.cpp ****   
 4023              		.loc 2 215 3 view .LVU1134
 4024 0486 4FE7     		b	.L132
 4025              	.LVL211:
 4026              	.L151:
 209:mi/plaits/dsp/engine/virtual_analog_engine.cpp ****     
 4027              		.loc 2 209 3 view .LVU1135
 4028 0488 B0EE46AA 		vmov.f32	s20, s12
 4029              	.LVL212:
 209:mi/plaits/dsp/engine/virtual_analog_engine.cpp ****     
 4030              		.loc 2 209 3 view .LVU1136
 4031 048c 22E7     		b	.L128
 4032              	.LVL213:
 4033              	.L170:
 207:mi/plaits/dsp/engine/virtual_analog_engine.cpp ****   saw_pw *= 1.1f;
 4034              		.loc 2 207 34 discriminator 2 view .LVU1137
 4035 048e 77EE655A 		vsub.f32	s11, s14, s11
 206:mi/plaits/dsp/engine/virtual_analog_engine.cpp ****       : 1.0f - (parameters.morph - 0.5f) * 2.0f;
 4036              		.loc 2 206 7 discriminator 2 view .LVU1138
 4037 0492 B0EE006A 		vmov.f32	s12, #2.0e+0
 4038 0496 E5EEC66A 		vfms.f32	s13, s11, s12
 4039 049a 07E7     		b	.L127
 4040              	.LVL214:
ARM GAS  /var/folders/9k/zk1mgrrd7wg4__6zvxvr9w8m0000gn/T//ccaaKoMx.s 			page 108


 4041              	.L149:
 200:mi/plaits/dsp/engine/virtual_analog_engine.cpp ****       : (parameters.timbre - 0.5f) * (parameters.timbre - 0.5f) * 4.0f * 48.0f;
 4042              		.loc 2 200 7 view .LVU1139
 4043 049c 5FED3F7A 		vldr.32	s15, .L178+64
 4044 04a0 ECE6     		b	.L123
 4045              	.L176:
 197:mi/plaits/dsp/engine/virtual_analog_engine.cpp ****   
 4046              		.loc 2 197 3 is_stmt 1 discriminator 2 view .LVU1140
 4047 04a2 F6EE007A 		vmov.f32	s15, #5.0e-1
 4048 04a6 B4EE671A 		vcmp.f32	s2, s15
 4049 04aa F1EE10FA 		vmrs	APSR_nzcv, FPSCR
 4050 04ae 37FE811A 		vselgt.f32	s2, s15, s2
 4051              	.LVL215:
 197:mi/plaits/dsp/engine/virtual_analog_engine.cpp ****   
 4052              		.loc 2 197 3 is_stmt 0 discriminator 2 view .LVU1141
 4053 04b2 CFE6     		b	.L118
 4054              	.LVL216:
 4055              	.L177:
 4056              	.LBB977:
 4057              	.LBB908:
 4058              	.LBB900:
 4059              	.LBB894:
  41:mi/stmlib/dsp/units.h ****   MAKE_INTEGRAL_FRACTIONAL(pitch)
 4060              		.loc 10 41 9 view .LVU1142
 4061 04b4 1FED467A 		vldr.32	s14, .L178+60
 4062 04b8 77EE877A 		vadd.f32	s15, s15, s14
 4063              	.LVL217:
  42:mi/stmlib/dsp/units.h **** 
 4064              		.loc 10 42 3 view .LVU1143
 4065 04bc BDEEE77A 		vcvt.s32.f32	s14, s15
 4066 04c0 17EE102A 		vmov	r2, s14	@ int
 4067 04c4 B8EEC77A 		vcvt.f32.s32	s14, s14
 4068 04c8 77EEC77A 		vsub.f32	s15, s15, s14
 4069              		.loc 10 45 27 view .LVU1144
 4070 04cc B0EE677A 		vmov.f32	s14, s15
 4071 04d0 BEEECC7A 		vcvt.s32.f32	s14, s14, #8
 4072 04d4 17EE103A 		vmov	r3, s14	@ int
 4073 04d8 68E7     		b	.L134
 4074              	.LVL218:
 4075              	.L175:
 4076              		.loc 10 45 27 view .LVU1145
 4077              	.LBE894:
 4078              	.LBE900:
 4079              	.LBE908:
 4080              	.LBE977:
 4081              	.LBB978:
 4082              	.LBB863:
 4083              	.LBB855:
 4084              	.LBB850:
  41:mi/stmlib/dsp/units.h ****   MAKE_INTEGRAL_FRACTIONAL(pitch)
 4085              		.loc 10 41 9 view .LVU1146
 4086 04da 1FED4F7A 		vldr.32	s14, .L178+60
 4087 04de 77EE877A 		vadd.f32	s15, s15, s14
 4088              	.LVL219:
  42:mi/stmlib/dsp/units.h **** 
 4089              		.loc 10 42 3 view .LVU1147
 4090 04e2 BDEEE77A 		vcvt.s32.f32	s14, s15
ARM GAS  /var/folders/9k/zk1mgrrd7wg4__6zvxvr9w8m0000gn/T//ccaaKoMx.s 			page 109


 4091 04e6 17EE102A 		vmov	r2, s14	@ int
 4092 04ea B8EEC77A 		vcvt.f32.s32	s14, s14
 4093 04ee 77EEC77A 		vsub.f32	s15, s15, s14
 4094              		.loc 10 45 27 view .LVU1148
 4095 04f2 B0EE677A 		vmov.f32	s14, s15
 4096 04f6 BEEECC7A 		vcvt.s32.f32	s14, s14, #8
 4097 04fa 17EE103A 		vmov	r3, s14	@ int
 4098 04fe 2AE6     		b	.L112
 4099              	.LVL220:
 4100              	.L174:
 4101              		.loc 10 45 27 view .LVU1149
 4102              	.LBE850:
 4103              	.LBE855:
 4104              	.LBE863:
 4105              	.LBE978:
 4106              	.LBB979:
 4107              	.LBB834:
 4108              	.LBB827:
 4109              	.LBB823:
  41:mi/stmlib/dsp/units.h ****   MAKE_INTEGRAL_FRACTIONAL(pitch)
 4110              		.loc 10 41 9 view .LVU1150
 4111 0500 1FED596A 		vldr.32	s12, .L178+60
 4112 0504 37EE067A 		vadd.f32	s14, s14, s12
 4113              	.LVL221:
  42:mi/stmlib/dsp/units.h **** 
 4114              		.loc 10 42 3 view .LVU1151
 4115 0508 BDEEC76A 		vcvt.s32.f32	s12, s14
 4116 050c 16EE102A 		vmov	r2, s12	@ int
 4117 0510 B8EEC66A 		vcvt.f32.s32	s12, s12
 4118 0514 37EE467A 		vsub.f32	s14, s14, s12
 4119              		.loc 10 45 27 view .LVU1152
 4120 0518 B0EE476A 		vmov.f32	s12, s14
 4121 051c BEEECC6A 		vcvt.s32.f32	s12, s12, #8
 4122 0520 16EE103A 		vmov	r3, s12	@ int
 4123 0524 EFE5     		b	.L111
 4124              	.LVL222:
 4125              	.L173:
 4126              		.loc 10 45 27 view .LVU1153
 4127              	.LBE823:
 4128              	.LBE827:
 4129              	.LBE834:
 4130              	.LBE979:
 4131              	.LBB980:
 4132              	.LBB805:
 4133              	.LBB795:
 4134              	.LBB791:
  41:mi/stmlib/dsp/units.h ****   MAKE_INTEGRAL_FRACTIONAL(pitch)
 4135              		.loc 10 41 9 view .LVU1154
 4136 0526 1FED626A 		vldr.32	s12, .L178+60
 4137 052a 76EE866A 		vadd.f32	s13, s13, s12
 4138              	.LVL223:
  42:mi/stmlib/dsp/units.h **** 
 4139              		.loc 10 42 3 view .LVU1155
 4140 052e BDEEE66A 		vcvt.s32.f32	s12, s13
 4141 0532 16EE102A 		vmov	r2, s12	@ int
 4142 0536 B8EEC66A 		vcvt.f32.s32	s12, s12
 4143 053a 76EEC66A 		vsub.f32	s13, s13, s12
ARM GAS  /var/folders/9k/zk1mgrrd7wg4__6zvxvr9w8m0000gn/T//ccaaKoMx.s 			page 110


 4144              		.loc 10 45 27 view .LVU1156
 4145 053e B0EE666A 		vmov.f32	s12, s13
 4146 0542 BEEECC6A 		vcvt.s32.f32	s12, s12, #8
 4147 0546 16EE103A 		vmov	r3, s12	@ int
 4148 054a B0E5     		b	.L110
 4149              	.LVL224:
 4150              	.L172:
 4151              		.loc 10 45 27 view .LVU1157
 4152              	.LBE791:
 4153              	.LBE795:
 4154              	.LBE805:
 4155              	.LBE980:
 4156              	.LBB981:
 4157              	.LBB779:
 4158              	.LBB769:
 4159              	.LBB763:
  41:mi/stmlib/dsp/units.h ****   MAKE_INTEGRAL_FRACTIONAL(pitch)
 4160              		.loc 10 41 9 view .LVU1158
 4161 054c 5FED6C7A 		vldr.32	s15, .L178+60
 4162 0550 76EEA76A 		vadd.f32	s13, s13, s15
 4163              	.LVL225:
  42:mi/stmlib/dsp/units.h **** 
 4164              		.loc 10 42 3 view .LVU1159
 4165 0554 FDEEE67A 		vcvt.s32.f32	s15, s13
 4166 0558 17EE902A 		vmov	r2, s15	@ int
 4167 055c F8EEE77A 		vcvt.f32.s32	s15, s15
 4168 0560 76EEE76A 		vsub.f32	s13, s13, s15
 4169              		.loc 10 45 27 view .LVU1160
 4170 0564 F0EE667A 		vmov.f32	s15, s13
 4171 0568 FEEECC7A 		vcvt.s32.f32	s15, s15, #8
 4172 056c 17EE903A 		vmov	r3, s15	@ int
 4173 0570 71E5     		b	.L109
 4174              	.LVL226:
 4175              	.L152:
 4176              		.loc 10 45 27 view .LVU1161
 4177              	.LBE763:
 4178              	.LBE769:
 4179              	.LBE779:
 4180              	.LBE981:
 212:mi/plaits/dsp/engine/virtual_analog_engine.cpp ****   
 4181              		.loc 2 212 3 view .LVU1162
 4182 0572 5FED74AA 		vldr.32	s21, .L178+64
 4183              	.LVL227:
 212:mi/plaits/dsp/engine/virtual_analog_engine.cpp ****   
 4184              		.loc 2 212 3 view .LVU1163
 4185 0576 C1E6     		b	.L130
 4186              	.LVL228:
 4187              	.L146:
 183:mi/plaits/dsp/engine/virtual_analog_engine.cpp **** 
 4188              		.loc 2 183 3 view .LVU1164
 4189 0578 1FED769A 		vldr.32	s18, .L178+64
 4190              	.LVL229:
 183:mi/plaits/dsp/engine/virtual_analog_engine.cpp **** 
 4191              		.loc 2 183 3 view .LVU1165
 4192 057c 0DE6     		b	.L113
 4193              		.cfi_endproc
 4194              	.LFE1503:
ARM GAS  /var/folders/9k/zk1mgrrd7wg4__6zvxvr9w8m0000gn/T//ccaaKoMx.s 			page 111


 4196              		.global	_ZTVN6plaits19VirtualAnalogEngineE
 4197 057e 00BF     		.section	.rodata._ZN6plaitsL9intervalsE,"a"
 4198              		.align	2
 4199              		.set	.LANCHOR0,. + 0
 4202              	_ZN6plaitsL9intervalsE:
 4203 0000 00000000 		.word	0
 4204 0004 EC51E040 		.word	1088442860
 4205 0008 F6284041 		.word	1094723830
 4206 000c 7B149841 		.word	1100485755
 4207 0010 7B14C041 		.word	1103107195
 4208              		.section	.rodata._ZTVN6plaits19VirtualAnalogEngineE,"a"
 4209              		.align	2
 4212              	_ZTVN6plaits19VirtualAnalogEngineE:
 4213 0000 00000000 		.word	0
 4214 0004 00000000 		.word	0
 4215 0008 00000000 		.word	_ZN6plaits19VirtualAnalogEngine4InitEPN6stmlib15BufferAllocatorE
 4216 000c 00000000 		.word	_ZN6plaits19VirtualAnalogEngine5ResetEv
 4217 0010 00000000 		.word	_ZN6plaits19VirtualAnalogEngine12LoadUserDataEPKh
 4218 0014 00000000 		.word	_ZN6plaits19VirtualAnalogEngine6RenderERKNS_16EngineParametersEPfS4_jPb
 4219              		.text
 4220              	.Letext0:
 4221              		.file 11 "/Library/DaisyToolchain/0.2.0/arm/arm-none-eabi/include/machine/_default_types.h"
 4222              		.file 12 "/Library/DaisyToolchain/0.2.0/arm/arm-none-eabi/include/sys/_stdint.h"
 4223              		.file 13 "/Library/DaisyToolchain/0.2.0/arm/lib/gcc/arm-none-eabi/10.3.1/include/stddef.h"
 4224              		.file 14 "/Library/DaisyToolchain/0.2.0/arm/arm-none-eabi/include/c++/10.3.1/cmath"
 4225              		.file 15 "/Library/DaisyToolchain/0.2.0/arm/arm-none-eabi/include/c++/10.3.1/bits/std_abs.h"
 4226              		.file 16 "/Library/DaisyToolchain/0.2.0/arm/arm-none-eabi/include/c++/10.3.1/type_traits"
 4227              		.file 17 "/Library/DaisyToolchain/0.2.0/arm/arm-none-eabi/include/c++/10.3.1/debug/debug.h"
 4228              		.file 18 "/Library/DaisyToolchain/0.2.0/arm/arm-none-eabi/include/c++/10.3.1/cstdlib"
 4229              		.file 19 "/Library/DaisyToolchain/0.2.0/arm/arm-none-eabi/include/c++/10.3.1/arm-none-eabi/thumb/v
 4230              		.file 20 "/Library/DaisyToolchain/0.2.0/arm/arm-none-eabi/include/c++/10.3.1/bits/algorithmfwd.h"
 4231              		.file 21 "/Library/DaisyToolchain/0.2.0/arm/arm-none-eabi/include/c++/10.3.1/bits/stl_pair.h"
 4232              		.file 22 "/Library/DaisyToolchain/0.2.0/arm/arm-none-eabi/include/c++/10.3.1/bits/exception_ptr.h"
 4233              		.file 23 "/Library/DaisyToolchain/0.2.0/arm/arm-none-eabi/include/c++/10.3.1/bits/predefined_ops.h
 4234              		.file 24 "/Library/DaisyToolchain/0.2.0/arm/arm-none-eabi/include/math.h"
 4235              		.file 25 "/Library/DaisyToolchain/0.2.0/arm/arm-none-eabi/include/stdlib.h"
 4236              		.file 26 "/Library/DaisyToolchain/0.2.0/arm/arm-none-eabi/include/c++/10.3.1/math.h"
 4237              		.file 27 "mi/stmlib/stmlib.h"
 4238              		.file 28 "mi/plaits/dsp/dsp.h"
 4239              		.file 29 "mi/plaits/dsp/oscillator/oscillator.h"
 4240              		.file 30 "<built-in>"
ARM GAS  /var/folders/9k/zk1mgrrd7wg4__6zvxvr9w8m0000gn/T//ccaaKoMx.s 			page 112


DEFINED SYMBOLS
                            *ABS*:0000000000000000 virtual_analog_engine.cpp
/var/folders/9k/zk1mgrrd7wg4__6zvxvr9w8m0000gn/T//ccaaKoMx.s:19     .text._ZN6plaits19VirtualAnalogEngine12LoadUserDataEPKh:0000000000000000 $t
/var/folders/9k/zk1mgrrd7wg4__6zvxvr9w8m0000gn/T//ccaaKoMx.s:26     .text._ZN6plaits19VirtualAnalogEngine12LoadUserDataEPKh:0000000000000000 _ZN6plaits19VirtualAnalogEngine12LoadUserDataEPKh
/var/folders/9k/zk1mgrrd7wg4__6zvxvr9w8m0000gn/T//ccaaKoMx.s:41     .text._ZN6plaits19VirtualAnalogEngine4InitEPN6stmlib15BufferAllocatorE:0000000000000000 $t
/var/folders/9k/zk1mgrrd7wg4__6zvxvr9w8m0000gn/T//ccaaKoMx.s:48     .text._ZN6plaits19VirtualAnalogEngine4InitEPN6stmlib15BufferAllocatorE:0000000000000000 _ZN6plaits19VirtualAnalogEngine4InitEPN6stmlib15BufferAllocatorE
/var/folders/9k/zk1mgrrd7wg4__6zvxvr9w8m0000gn/T//ccaaKoMx.s:354    .text._ZN6plaits19VirtualAnalogEngine4InitEPN6stmlib15BufferAllocatorE:00000000000000a8 $d
/var/folders/9k/zk1mgrrd7wg4__6zvxvr9w8m0000gn/T//ccaaKoMx.s:359    .text._ZN6plaits19VirtualAnalogEngine5ResetEv:0000000000000000 $t
/var/folders/9k/zk1mgrrd7wg4__6zvxvr9w8m0000gn/T//ccaaKoMx.s:366    .text._ZN6plaits19VirtualAnalogEngine5ResetEv:0000000000000000 _ZN6plaits19VirtualAnalogEngine5ResetEv
/var/folders/9k/zk1mgrrd7wg4__6zvxvr9w8m0000gn/T//ccaaKoMx.s:380    .text._ZN6plaits21VariableSawOscillator6RenderEfffPfj:0000000000000000 $t
/var/folders/9k/zk1mgrrd7wg4__6zvxvr9w8m0000gn/T//ccaaKoMx.s:387    .text._ZN6plaits21VariableSawOscillator6RenderEfffPfj:0000000000000000 _ZN6plaits21VariableSawOscillator6RenderEfffPfj
/var/folders/9k/zk1mgrrd7wg4__6zvxvr9w8m0000gn/T//ccaaKoMx.s:1311   .text._ZN6plaits21VariableSawOscillator6RenderEfffPfj:000000000000026c $d
/var/folders/9k/zk1mgrrd7wg4__6zvxvr9w8m0000gn/T//ccaaKoMx.s:1319   .text._ZNK6plaits19VirtualAnalogEngine15ComputeDetuningEf:0000000000000000 $t
/var/folders/9k/zk1mgrrd7wg4__6zvxvr9w8m0000gn/T//ccaaKoMx.s:1326   .text._ZNK6plaits19VirtualAnalogEngine15ComputeDetuningEf:0000000000000000 _ZNK6plaits19VirtualAnalogEngine15ComputeDetuningEf
/var/folders/9k/zk1mgrrd7wg4__6zvxvr9w8m0000gn/T//ccaaKoMx.s:1522   .text._ZNK6plaits19VirtualAnalogEngine15ComputeDetuningEf:00000000000000ec $d
/var/folders/9k/zk1mgrrd7wg4__6zvxvr9w8m0000gn/T//ccaaKoMx.s:1532   .text._ZN6plaits23VariableShapeOscillator6RenderILb1ELb0EEEvfffffPfj:0000000000000000 $t
/var/folders/9k/zk1mgrrd7wg4__6zvxvr9w8m0000gn/T//ccaaKoMx.s:1539   .text._ZN6plaits23VariableShapeOscillator6RenderILb1ELb0EEEvfffffPfj:0000000000000000 _ZN6plaits23VariableShapeOscillator6RenderILb1ELb0EEEvfffffPfj
/var/folders/9k/zk1mgrrd7wg4__6zvxvr9w8m0000gn/T//ccaaKoMx.s:2826   .text._ZN6plaits23VariableShapeOscillator6RenderILb1ELb0EEEvfffffPfj:0000000000000378 $d
/var/folders/9k/zk1mgrrd7wg4__6zvxvr9w8m0000gn/T//ccaaKoMx.s:2831   .text._ZN6plaits19VirtualAnalogEngine6RenderERKNS_16EngineParametersEPfS4_jPb:0000000000000000 $t
/var/folders/9k/zk1mgrrd7wg4__6zvxvr9w8m0000gn/T//ccaaKoMx.s:2838   .text._ZN6plaits19VirtualAnalogEngine6RenderERKNS_16EngineParametersEPfS4_jPb:0000000000000000 _ZN6plaits19VirtualAnalogEngine6RenderERKNS_16EngineParametersEPfS4_jPb
/var/folders/9k/zk1mgrrd7wg4__6zvxvr9w8m0000gn/T//ccaaKoMx.s:3640   .text._ZN6plaits19VirtualAnalogEngine6RenderERKNS_16EngineParametersEPfS4_jPb:0000000000000364 $d
/var/folders/9k/zk1mgrrd7wg4__6zvxvr9w8m0000gn/T//ccaaKoMx.s:3662   .text._ZN6plaits19VirtualAnalogEngine6RenderERKNS_16EngineParametersEPfS4_jPb:00000000000003a8 $t
/var/folders/9k/zk1mgrrd7wg4__6zvxvr9w8m0000gn/T//ccaaKoMx.s:4212   .rodata._ZTVN6plaits19VirtualAnalogEngineE:0000000000000000 _ZTVN6plaits19VirtualAnalogEngineE
/var/folders/9k/zk1mgrrd7wg4__6zvxvr9w8m0000gn/T//ccaaKoMx.s:4198   .rodata._ZN6plaitsL9intervalsE:0000000000000000 $d
/var/folders/9k/zk1mgrrd7wg4__6zvxvr9w8m0000gn/T//ccaaKoMx.s:4202   .rodata._ZN6plaitsL9intervalsE:0000000000000000 _ZN6plaitsL9intervalsE
/var/folders/9k/zk1mgrrd7wg4__6zvxvr9w8m0000gn/T//ccaaKoMx.s:4209   .rodata._ZTVN6plaits19VirtualAnalogEngineE:0000000000000000 $d

UNDEFINED SYMBOLS
_ZN6stmlib20lut_pitch_ratio_highE
_ZN6stmlib19lut_pitch_ratio_lowE
