ARM GAS  /var/folders/9k/zk1mgrrd7wg4__6zvxvr9w8m0000gn/T//ccaaKoMx.s 			page 1


   1              		.cpu cortex-m7
   2              		.arch armv7e-m
   3              		.fpu fpv5-d16
   4              		.eabi_attribute 28, 1
   5              		.eabi_attribute 20, 1
   6              		.eabi_attribute 21, 1
   7              		.eabi_attribute 23, 3
   8              		.eabi_attribute 24, 1
   9              		.eabi_attribute 25, 1
  10              		.eabi_attribute 26, 1
  11              		.eabi_attribute 30, 2
  12              		.eabi_attribute 34, 1
  13              		.eabi_attribute 18, 4
  14              		.file	"virtual_analog_engine.cpp"
  15              		.text
  16              	.Ltext0:
  17              		.cfi_sections	.debug_frame
  18              		.section	.text._ZN6plaits19VirtualAnalogEngine12LoadUserDataEPKh,"axG",%progbits,_ZN6plaits19Virtu
  19              		.align	1
  20              		.p2align 2,,3
  21              		.weak	_ZN6plaits19VirtualAnalogEngine12LoadUserDataEPKh
  22              		.syntax unified
  23              		.thumb
  24              		.thumb_func
  26              	_ZN6plaits19VirtualAnalogEngine12LoadUserDataEPKh:
  27              	.LVL0:
  28              	.LFB1498:
  29              		.file 1 "mi/plaits/dsp/engine/virtual_analog_engine.h"
   1:mi/plaits/dsp/engine/virtual_analog_engine.h **** // Copyright 2016 Emilie Gillet.
   2:mi/plaits/dsp/engine/virtual_analog_engine.h **** //
   3:mi/plaits/dsp/engine/virtual_analog_engine.h **** // Author: Emilie Gillet (emilie.o.gillet@gmail.com)
   4:mi/plaits/dsp/engine/virtual_analog_engine.h **** //
   5:mi/plaits/dsp/engine/virtual_analog_engine.h **** // Permission is hereby granted, free of charge, to any person obtaining a copy
   6:mi/plaits/dsp/engine/virtual_analog_engine.h **** // of this software and associated documentation files (the "Software"), to deal
   7:mi/plaits/dsp/engine/virtual_analog_engine.h **** // in the Software without restriction, including without limitation the rights
   8:mi/plaits/dsp/engine/virtual_analog_engine.h **** // to use, copy, modify, merge, publish, distribute, sublicense, and/or sell
   9:mi/plaits/dsp/engine/virtual_analog_engine.h **** // copies of the Software, and to permit persons to whom the Software is
  10:mi/plaits/dsp/engine/virtual_analog_engine.h **** // furnished to do so, subject to the following conditions:
  11:mi/plaits/dsp/engine/virtual_analog_engine.h **** // 
  12:mi/plaits/dsp/engine/virtual_analog_engine.h **** // The above copyright notice and this permission notice shall be included in
  13:mi/plaits/dsp/engine/virtual_analog_engine.h **** // all copies or substantial portions of the Software.
  14:mi/plaits/dsp/engine/virtual_analog_engine.h **** // 
  15:mi/plaits/dsp/engine/virtual_analog_engine.h **** // THE SOFTWARE IS PROVIDED "AS IS", WITHOUT WARRANTY OF ANY KIND, EXPRESS OR
  16:mi/plaits/dsp/engine/virtual_analog_engine.h **** // IMPLIED, INCLUDING BUT NOT LIMITED TO THE WARRANTIES OF MERCHANTABILITY,
  17:mi/plaits/dsp/engine/virtual_analog_engine.h **** // FITNESS FOR A PARTICULAR PURPOSE AND NONINFRINGEMENT. IN NO EVENT SHALL THE
  18:mi/plaits/dsp/engine/virtual_analog_engine.h **** // AUTHORS OR COPYRIGHT HOLDERS BE LIABLE FOR ANY CLAIM, DAMAGES OR OTHER
  19:mi/plaits/dsp/engine/virtual_analog_engine.h **** // LIABILITY, WHETHER IN AN ACTION OF CONTRACT, TORT OR OTHERWISE, ARISING FROM,
  20:mi/plaits/dsp/engine/virtual_analog_engine.h **** // OUT OF OR IN CONNECTION WITH THE SOFTWARE OR THE USE OR OTHER DEALINGS IN
  21:mi/plaits/dsp/engine/virtual_analog_engine.h **** // THE SOFTWARE.
  22:mi/plaits/dsp/engine/virtual_analog_engine.h **** // 
  23:mi/plaits/dsp/engine/virtual_analog_engine.h **** // See http://creativecommons.org/licenses/MIT/ for more information.
  24:mi/plaits/dsp/engine/virtual_analog_engine.h **** //
  25:mi/plaits/dsp/engine/virtual_analog_engine.h **** // -----------------------------------------------------------------------------
  26:mi/plaits/dsp/engine/virtual_analog_engine.h **** //
  27:mi/plaits/dsp/engine/virtual_analog_engine.h **** // 2 variable shape oscillators with sync and crossfading.
  28:mi/plaits/dsp/engine/virtual_analog_engine.h **** 
  29:mi/plaits/dsp/engine/virtual_analog_engine.h **** #ifndef PLAITS_DSP_ENGINE_VIRTUAL_ANALOG_ENGINE_H_
ARM GAS  /var/folders/9k/zk1mgrrd7wg4__6zvxvr9w8m0000gn/T//ccaaKoMx.s 			page 2


  30:mi/plaits/dsp/engine/virtual_analog_engine.h **** #define PLAITS_DSP_ENGINE_VIRTUAL_ANALOG_ENGINE_H_
  31:mi/plaits/dsp/engine/virtual_analog_engine.h **** 
  32:mi/plaits/dsp/engine/virtual_analog_engine.h **** #include "plaits/dsp/engine/engine.h"
  33:mi/plaits/dsp/engine/virtual_analog_engine.h **** #include "plaits/dsp/oscillator/variable_saw_oscillator.h"
  34:mi/plaits/dsp/engine/virtual_analog_engine.h **** #include "plaits/dsp/oscillator/variable_shape_oscillator.h"
  35:mi/plaits/dsp/engine/virtual_analog_engine.h **** 
  36:mi/plaits/dsp/engine/virtual_analog_engine.h **** #define VA_VARIANT 2
  37:mi/plaits/dsp/engine/virtual_analog_engine.h **** 
  38:mi/plaits/dsp/engine/virtual_analog_engine.h **** namespace plaits {
  39:mi/plaits/dsp/engine/virtual_analog_engine.h ****   
  40:mi/plaits/dsp/engine/virtual_analog_engine.h **** class VirtualAnalogEngine : public Engine {
  41:mi/plaits/dsp/engine/virtual_analog_engine.h ****  public:
  42:mi/plaits/dsp/engine/virtual_analog_engine.h ****   VirtualAnalogEngine() { }
  43:mi/plaits/dsp/engine/virtual_analog_engine.h ****   ~VirtualAnalogEngine() { }
  44:mi/plaits/dsp/engine/virtual_analog_engine.h ****   
  45:mi/plaits/dsp/engine/virtual_analog_engine.h ****   virtual void Init(stmlib::BufferAllocator* allocator);
  46:mi/plaits/dsp/engine/virtual_analog_engine.h ****   virtual void Reset();
  47:mi/plaits/dsp/engine/virtual_analog_engine.h ****   virtual void LoadUserData(const uint8_t* user_data) { }
  30              		.loc 1 47 16 view -0
  31              		.cfi_startproc
  32              		@ args = 0, pretend = 0, frame = 0
  33              		@ frame_needed = 0, uses_anonymous_args = 0
  34              		@ link register save eliminated.
  35              		.loc 1 47 57 is_stmt 0 view .LVU1
  36 0000 7047     		bx	lr
  37              		.cfi_endproc
  38              	.LFE1498:
  40 0002 00BF     		.section	.text._ZN6plaits19VirtualAnalogEngine4InitEPN6stmlib15BufferAllocatorE,"ax",%progbits
  41              		.align	1
  42              		.p2align 2,,3
  43              		.global	_ZN6plaits19VirtualAnalogEngine4InitEPN6stmlib15BufferAllocatorE
  44              		.syntax unified
  45              		.thumb
  46              		.thumb_func
  48              	_ZN6plaits19VirtualAnalogEngine4InitEPN6stmlib15BufferAllocatorE:
  49              	.LVL1:
  50              	.LFB1499:
  51              		.file 2 "mi/plaits/dsp/engine/virtual_analog_engine.cpp"
   1:mi/plaits/dsp/engine/virtual_analog_engine.cpp **** // Copyright 2016 Emilie Gillet.
   2:mi/plaits/dsp/engine/virtual_analog_engine.cpp **** //
   3:mi/plaits/dsp/engine/virtual_analog_engine.cpp **** // Author: Emilie Gillet (emilie.o.gillet@gmail.com)
   4:mi/plaits/dsp/engine/virtual_analog_engine.cpp **** //
   5:mi/plaits/dsp/engine/virtual_analog_engine.cpp **** // Permission is hereby granted, free of charge, to any person obtaining a copy
   6:mi/plaits/dsp/engine/virtual_analog_engine.cpp **** // of this software and associated documentation files (the "Software"), to deal
   7:mi/plaits/dsp/engine/virtual_analog_engine.cpp **** // in the Software without restriction, including without limitation the rights
   8:mi/plaits/dsp/engine/virtual_analog_engine.cpp **** // to use, copy, modify, merge, publish, distribute, sublicense, and/or sell
   9:mi/plaits/dsp/engine/virtual_analog_engine.cpp **** // copies of the Software, and to permit persons to whom the Software is
  10:mi/plaits/dsp/engine/virtual_analog_engine.cpp **** // furnished to do so, subject to the following conditions:
  11:mi/plaits/dsp/engine/virtual_analog_engine.cpp **** // 
  12:mi/plaits/dsp/engine/virtual_analog_engine.cpp **** // The above copyright notice and this permission notice shall be included in
  13:mi/plaits/dsp/engine/virtual_analog_engine.cpp **** // all copies or substantial portions of the Software.
  14:mi/plaits/dsp/engine/virtual_analog_engine.cpp **** // 
  15:mi/plaits/dsp/engine/virtual_analog_engine.cpp **** // THE SOFTWARE IS PROVIDED "AS IS", WITHOUT WARRANTY OF ANY KIND, EXPRESS OR
  16:mi/plaits/dsp/engine/virtual_analog_engine.cpp **** // IMPLIED, INCLUDING BUT NOT LIMITED TO THE WARRANTIES OF MERCHANTABILITY,
  17:mi/plaits/dsp/engine/virtual_analog_engine.cpp **** // FITNESS FOR A PARTICULAR PURPOSE AND NONINFRINGEMENT. IN NO EVENT SHALL THE
  18:mi/plaits/dsp/engine/virtual_analog_engine.cpp **** // AUTHORS OR COPYRIGHT HOLDERS BE LIABLE FOR ANY CLAIM, DAMAGES OR OTHER
  19:mi/plaits/dsp/engine/virtual_analog_engine.cpp **** // LIABILITY, WHETHER IN AN ACTION OF CONTRACT, TORT OR OTHERWISE, ARISING FROM,
ARM GAS  /var/folders/9k/zk1mgrrd7wg4__6zvxvr9w8m0000gn/T//ccaaKoMx.s 			page 3


  20:mi/plaits/dsp/engine/virtual_analog_engine.cpp **** // OUT OF OR IN CONNECTION WITH THE SOFTWARE OR THE USE OR OTHER DEALINGS IN
  21:mi/plaits/dsp/engine/virtual_analog_engine.cpp **** // THE SOFTWARE.
  22:mi/plaits/dsp/engine/virtual_analog_engine.cpp **** // 
  23:mi/plaits/dsp/engine/virtual_analog_engine.cpp **** // See http://creativecommons.org/licenses/MIT/ for more information.
  24:mi/plaits/dsp/engine/virtual_analog_engine.cpp **** //
  25:mi/plaits/dsp/engine/virtual_analog_engine.cpp **** // -----------------------------------------------------------------------------
  26:mi/plaits/dsp/engine/virtual_analog_engine.cpp **** //
  27:mi/plaits/dsp/engine/virtual_analog_engine.cpp **** // 2 variable shape oscillators with sync, FM and crossfading.
  28:mi/plaits/dsp/engine/virtual_analog_engine.cpp **** 
  29:mi/plaits/dsp/engine/virtual_analog_engine.cpp **** #include "plaits/dsp/engine/virtual_analog_engine.h"
  30:mi/plaits/dsp/engine/virtual_analog_engine.cpp **** 
  31:mi/plaits/dsp/engine/virtual_analog_engine.cpp **** #include <algorithm>
  32:mi/plaits/dsp/engine/virtual_analog_engine.cpp **** 
  33:mi/plaits/dsp/engine/virtual_analog_engine.cpp **** #include "stmlib/dsp/parameter_interpolator.h"
  34:mi/plaits/dsp/engine/virtual_analog_engine.cpp **** 
  35:mi/plaits/dsp/engine/virtual_analog_engine.cpp **** namespace plaits {
  36:mi/plaits/dsp/engine/virtual_analog_engine.cpp **** 
  37:mi/plaits/dsp/engine/virtual_analog_engine.cpp **** using namespace std;
  38:mi/plaits/dsp/engine/virtual_analog_engine.cpp **** using namespace stmlib;
  39:mi/plaits/dsp/engine/virtual_analog_engine.cpp **** 
  40:mi/plaits/dsp/engine/virtual_analog_engine.cpp **** void VirtualAnalogEngine::Init(BufferAllocator* allocator) {
  52              		.loc 2 40 60 is_stmt 1 view -0
  53              		.cfi_startproc
  54              		@ args = 0, pretend = 0, frame = 0
  55              		@ frame_needed = 0, uses_anonymous_args = 0
  41:mi/plaits/dsp/engine/virtual_analog_engine.cpp ****   primary_.Init();
  56              		.loc 2 41 3 view .LVU3
  40:mi/plaits/dsp/engine/virtual_analog_engine.cpp ****   primary_.Init();
  57              		.loc 2 40 60 is_stmt 0 view .LVU4
  58 0000 10B5     		push	{r4, lr}
  59              		.cfi_def_cfa_offset 8
  60              		.cfi_offset 4, -8
  61              		.cfi_offset 14, -4
  62              	.LBB193:
  63              	.LBB194:
  64              		.file 3 "mi/plaits/dsp/oscillator/variable_shape_oscillator.h"
   1:mi/plaits/dsp/oscillator/variable_shape_oscillator.h **** // Copyright 2016 Emilie Gillet.
   2:mi/plaits/dsp/oscillator/variable_shape_oscillator.h **** //
   3:mi/plaits/dsp/oscillator/variable_shape_oscillator.h **** // Author: Emilie Gillet (emilie.o.gillet@gmail.com)
   4:mi/plaits/dsp/oscillator/variable_shape_oscillator.h **** //
   5:mi/plaits/dsp/oscillator/variable_shape_oscillator.h **** // Permission is hereby granted, free of charge, to any person obtaining a copy
   6:mi/plaits/dsp/oscillator/variable_shape_oscillator.h **** // of this software and associated documentation files (the "Software"), to deal
   7:mi/plaits/dsp/oscillator/variable_shape_oscillator.h **** // in the Software without restriction, including without limitation the rights
   8:mi/plaits/dsp/oscillator/variable_shape_oscillator.h **** // to use, copy, modify, merge, publish, distribute, sublicense, and/or sell
   9:mi/plaits/dsp/oscillator/variable_shape_oscillator.h **** // copies of the Software, and to permit persons to whom the Software is
  10:mi/plaits/dsp/oscillator/variable_shape_oscillator.h **** // furnished to do so, subject to the following conditions:
  11:mi/plaits/dsp/oscillator/variable_shape_oscillator.h **** // 
  12:mi/plaits/dsp/oscillator/variable_shape_oscillator.h **** // The above copyright notice and this permission notice shall be included in
  13:mi/plaits/dsp/oscillator/variable_shape_oscillator.h **** // all copies or substantial portions of the Software.
  14:mi/plaits/dsp/oscillator/variable_shape_oscillator.h **** // 
  15:mi/plaits/dsp/oscillator/variable_shape_oscillator.h **** // THE SOFTWARE IS PROVIDED "AS IS", WITHOUT WARRANTY OF ANY KIND, EXPRESS OR
  16:mi/plaits/dsp/oscillator/variable_shape_oscillator.h **** // IMPLIED, INCLUDING BUT NOT LIMITED TO THE WARRANTIES OF MERCHANTABILITY,
  17:mi/plaits/dsp/oscillator/variable_shape_oscillator.h **** // FITNESS FOR A PARTICULAR PURPOSE AND NONINFRINGEMENT. IN NO EVENT SHALL THE
  18:mi/plaits/dsp/oscillator/variable_shape_oscillator.h **** // AUTHORS OR COPYRIGHT HOLDERS BE LIABLE FOR ANY CLAIM, DAMAGES OR OTHER
  19:mi/plaits/dsp/oscillator/variable_shape_oscillator.h **** // LIABILITY, WHETHER IN AN ACTION OF CONTRACT, TORT OR OTHERWISE, ARISING FROM,
  20:mi/plaits/dsp/oscillator/variable_shape_oscillator.h **** // OUT OF OR IN CONNECTION WITH THE SOFTWARE OR THE USE OR OTHER DEALINGS IN
  21:mi/plaits/dsp/oscillator/variable_shape_oscillator.h **** // THE SOFTWARE.
ARM GAS  /var/folders/9k/zk1mgrrd7wg4__6zvxvr9w8m0000gn/T//ccaaKoMx.s 			page 4


  22:mi/plaits/dsp/oscillator/variable_shape_oscillator.h **** // 
  23:mi/plaits/dsp/oscillator/variable_shape_oscillator.h **** // See http://creativecommons.org/licenses/MIT/ for more information.
  24:mi/plaits/dsp/oscillator/variable_shape_oscillator.h **** //
  25:mi/plaits/dsp/oscillator/variable_shape_oscillator.h **** // -----------------------------------------------------------------------------
  26:mi/plaits/dsp/oscillator/variable_shape_oscillator.h **** //
  27:mi/plaits/dsp/oscillator/variable_shape_oscillator.h **** // Continuously variable waveform: triangle > saw > square. Both square and
  28:mi/plaits/dsp/oscillator/variable_shape_oscillator.h **** // triangle have variable slope / pulse-width. Additionally, the phase resets
  29:mi/plaits/dsp/oscillator/variable_shape_oscillator.h **** // can be locked to a master frequency.
  30:mi/plaits/dsp/oscillator/variable_shape_oscillator.h **** //
  31:mi/plaits/dsp/oscillator/variable_shape_oscillator.h **** // A template parameter allows the generation of a master + slave signal,
  32:mi/plaits/dsp/oscillator/variable_shape_oscillator.h **** // which can be used as the phase for phase distortion or modulation synthesis.
  33:mi/plaits/dsp/oscillator/variable_shape_oscillator.h **** 
  34:mi/plaits/dsp/oscillator/variable_shape_oscillator.h **** #ifndef PLAITS_DSP_OSCILLATOR_VARIABLE_SHAPE_OSCILLATOR_H_
  35:mi/plaits/dsp/oscillator/variable_shape_oscillator.h **** #define PLAITS_DSP_OSCILLATOR_VARIABLE_SHAPE_OSCILLATOR_H_
  36:mi/plaits/dsp/oscillator/variable_shape_oscillator.h **** 
  37:mi/plaits/dsp/oscillator/variable_shape_oscillator.h **** #include "stmlib/dsp/dsp.h"
  38:mi/plaits/dsp/oscillator/variable_shape_oscillator.h **** #include "stmlib/dsp/parameter_interpolator.h"
  39:mi/plaits/dsp/oscillator/variable_shape_oscillator.h **** #include "stmlib/dsp/polyblep.h"
  40:mi/plaits/dsp/oscillator/variable_shape_oscillator.h **** 
  41:mi/plaits/dsp/oscillator/variable_shape_oscillator.h **** #include "plaits/dsp/oscillator/oscillator.h"
  42:mi/plaits/dsp/oscillator/variable_shape_oscillator.h **** 
  43:mi/plaits/dsp/oscillator/variable_shape_oscillator.h **** #include <algorithm>
  44:mi/plaits/dsp/oscillator/variable_shape_oscillator.h **** 
  45:mi/plaits/dsp/oscillator/variable_shape_oscillator.h **** namespace plaits {
  46:mi/plaits/dsp/oscillator/variable_shape_oscillator.h **** 
  47:mi/plaits/dsp/oscillator/variable_shape_oscillator.h **** class VariableShapeOscillator {
  48:mi/plaits/dsp/oscillator/variable_shape_oscillator.h ****  public:
  49:mi/plaits/dsp/oscillator/variable_shape_oscillator.h ****   VariableShapeOscillator() { }
  50:mi/plaits/dsp/oscillator/variable_shape_oscillator.h ****   ~VariableShapeOscillator() { }
  51:mi/plaits/dsp/oscillator/variable_shape_oscillator.h **** 
  52:mi/plaits/dsp/oscillator/variable_shape_oscillator.h ****   void Init() {
  53:mi/plaits/dsp/oscillator/variable_shape_oscillator.h ****     master_phase_ = 0.0f;
  54:mi/plaits/dsp/oscillator/variable_shape_oscillator.h ****     slave_phase_ = 0.0f;
  55:mi/plaits/dsp/oscillator/variable_shape_oscillator.h ****     next_sample_ = 0.0f;
  56:mi/plaits/dsp/oscillator/variable_shape_oscillator.h ****     previous_pw_ = 0.5f;
  57:mi/plaits/dsp/oscillator/variable_shape_oscillator.h ****     high_ = false;
  58:mi/plaits/dsp/oscillator/variable_shape_oscillator.h ****   
  59:mi/plaits/dsp/oscillator/variable_shape_oscillator.h ****     master_frequency_ = 0.0f;
  60:mi/plaits/dsp/oscillator/variable_shape_oscillator.h ****     slave_frequency_ = 0.01f;
  61:mi/plaits/dsp/oscillator/variable_shape_oscillator.h ****     pw_ = 0.5f;
  62:mi/plaits/dsp/oscillator/variable_shape_oscillator.h ****     waveshape_ = 0.0f;
  63:mi/plaits/dsp/oscillator/variable_shape_oscillator.h ****     phase_modulation_ = 0.0f;
  64:mi/plaits/dsp/oscillator/variable_shape_oscillator.h ****   }
  65:mi/plaits/dsp/oscillator/variable_shape_oscillator.h **** 
  66:mi/plaits/dsp/oscillator/variable_shape_oscillator.h ****   void Render(
  67:mi/plaits/dsp/oscillator/variable_shape_oscillator.h ****       float frequency,
  68:mi/plaits/dsp/oscillator/variable_shape_oscillator.h ****       float pw,
  69:mi/plaits/dsp/oscillator/variable_shape_oscillator.h ****       float waveshape,
  70:mi/plaits/dsp/oscillator/variable_shape_oscillator.h ****       float* out,
  71:mi/plaits/dsp/oscillator/variable_shape_oscillator.h ****       size_t size) {
  72:mi/plaits/dsp/oscillator/variable_shape_oscillator.h ****     Render<false, false>(0.0f, frequency, pw, waveshape, 0.0f, out, size);
  73:mi/plaits/dsp/oscillator/variable_shape_oscillator.h ****   }
  74:mi/plaits/dsp/oscillator/variable_shape_oscillator.h ****   
  75:mi/plaits/dsp/oscillator/variable_shape_oscillator.h ****   void Render(
  76:mi/plaits/dsp/oscillator/variable_shape_oscillator.h ****       float master_frequency,
  77:mi/plaits/dsp/oscillator/variable_shape_oscillator.h ****       float frequency,
  78:mi/plaits/dsp/oscillator/variable_shape_oscillator.h ****       float pw,
ARM GAS  /var/folders/9k/zk1mgrrd7wg4__6zvxvr9w8m0000gn/T//ccaaKoMx.s 			page 5


  79:mi/plaits/dsp/oscillator/variable_shape_oscillator.h ****       float waveshape,
  80:mi/plaits/dsp/oscillator/variable_shape_oscillator.h ****       float* out,
  81:mi/plaits/dsp/oscillator/variable_shape_oscillator.h ****       size_t size) {
  82:mi/plaits/dsp/oscillator/variable_shape_oscillator.h ****     Render<true, false>(
  83:mi/plaits/dsp/oscillator/variable_shape_oscillator.h ****         master_frequency,
  84:mi/plaits/dsp/oscillator/variable_shape_oscillator.h ****         frequency,
  85:mi/plaits/dsp/oscillator/variable_shape_oscillator.h ****         pw,
  86:mi/plaits/dsp/oscillator/variable_shape_oscillator.h ****         waveshape,
  87:mi/plaits/dsp/oscillator/variable_shape_oscillator.h ****         0.0f,
  88:mi/plaits/dsp/oscillator/variable_shape_oscillator.h ****         out, size);
  89:mi/plaits/dsp/oscillator/variable_shape_oscillator.h ****   }
  90:mi/plaits/dsp/oscillator/variable_shape_oscillator.h ****   
  91:mi/plaits/dsp/oscillator/variable_shape_oscillator.h ****   template<bool enable_sync, bool output_phase>
  92:mi/plaits/dsp/oscillator/variable_shape_oscillator.h ****   void Render(
  93:mi/plaits/dsp/oscillator/variable_shape_oscillator.h ****       float master_frequency,
  94:mi/plaits/dsp/oscillator/variable_shape_oscillator.h ****       float frequency,
  95:mi/plaits/dsp/oscillator/variable_shape_oscillator.h ****       float pw,
  96:mi/plaits/dsp/oscillator/variable_shape_oscillator.h ****       float waveshape,
  97:mi/plaits/dsp/oscillator/variable_shape_oscillator.h ****       float phase_modulation_amount,
  98:mi/plaits/dsp/oscillator/variable_shape_oscillator.h ****       float* out,
  99:mi/plaits/dsp/oscillator/variable_shape_oscillator.h ****       size_t size) {
 100:mi/plaits/dsp/oscillator/variable_shape_oscillator.h ****     if (master_frequency >= kMaxFrequency) {
 101:mi/plaits/dsp/oscillator/variable_shape_oscillator.h ****       master_frequency = kMaxFrequency;
 102:mi/plaits/dsp/oscillator/variable_shape_oscillator.h ****     }
 103:mi/plaits/dsp/oscillator/variable_shape_oscillator.h ****     if (frequency >= kMaxFrequency) {
 104:mi/plaits/dsp/oscillator/variable_shape_oscillator.h ****       frequency = kMaxFrequency;
 105:mi/plaits/dsp/oscillator/variable_shape_oscillator.h ****     }
 106:mi/plaits/dsp/oscillator/variable_shape_oscillator.h ****     
 107:mi/plaits/dsp/oscillator/variable_shape_oscillator.h ****     if (frequency >= 0.25f) {
 108:mi/plaits/dsp/oscillator/variable_shape_oscillator.h ****       pw = 0.5f;
 109:mi/plaits/dsp/oscillator/variable_shape_oscillator.h ****     } else {
 110:mi/plaits/dsp/oscillator/variable_shape_oscillator.h ****       CONSTRAIN(pw, frequency * 2.0f, 1.0f - 2.0f * frequency);
 111:mi/plaits/dsp/oscillator/variable_shape_oscillator.h ****     }
 112:mi/plaits/dsp/oscillator/variable_shape_oscillator.h ****     
 113:mi/plaits/dsp/oscillator/variable_shape_oscillator.h ****     stmlib::ParameterInterpolator master_fm(
 114:mi/plaits/dsp/oscillator/variable_shape_oscillator.h ****         &master_frequency_, master_frequency, size);
 115:mi/plaits/dsp/oscillator/variable_shape_oscillator.h ****     stmlib::ParameterInterpolator fm(&slave_frequency_, frequency, size);
 116:mi/plaits/dsp/oscillator/variable_shape_oscillator.h ****     stmlib::ParameterInterpolator pwm(&pw_, pw, size);
 117:mi/plaits/dsp/oscillator/variable_shape_oscillator.h ****     stmlib::ParameterInterpolator waveshape_modulation(
 118:mi/plaits/dsp/oscillator/variable_shape_oscillator.h ****         &waveshape_, waveshape, size);
 119:mi/plaits/dsp/oscillator/variable_shape_oscillator.h ****     stmlib::ParameterInterpolator phase_modulation(
 120:mi/plaits/dsp/oscillator/variable_shape_oscillator.h ****         &phase_modulation_, phase_modulation_amount, size);
 121:mi/plaits/dsp/oscillator/variable_shape_oscillator.h **** 
 122:mi/plaits/dsp/oscillator/variable_shape_oscillator.h ****     float next_sample = next_sample_;
 123:mi/plaits/dsp/oscillator/variable_shape_oscillator.h ****     
 124:mi/plaits/dsp/oscillator/variable_shape_oscillator.h ****     while (size--) {
 125:mi/plaits/dsp/oscillator/variable_shape_oscillator.h ****       bool reset = false;
 126:mi/plaits/dsp/oscillator/variable_shape_oscillator.h ****       bool transition_during_reset = false;
 127:mi/plaits/dsp/oscillator/variable_shape_oscillator.h ****       float reset_time = 0.0f;
 128:mi/plaits/dsp/oscillator/variable_shape_oscillator.h **** 
 129:mi/plaits/dsp/oscillator/variable_shape_oscillator.h ****       float this_sample = next_sample;
 130:mi/plaits/dsp/oscillator/variable_shape_oscillator.h ****       next_sample = 0.0f;
 131:mi/plaits/dsp/oscillator/variable_shape_oscillator.h ****     
 132:mi/plaits/dsp/oscillator/variable_shape_oscillator.h ****       const float master_frequency = master_fm.Next();
 133:mi/plaits/dsp/oscillator/variable_shape_oscillator.h ****       const float slave_frequency = fm.Next();
 134:mi/plaits/dsp/oscillator/variable_shape_oscillator.h ****       const float pw = pwm.Next();
 135:mi/plaits/dsp/oscillator/variable_shape_oscillator.h ****       const float waveshape = waveshape_modulation.Next();
ARM GAS  /var/folders/9k/zk1mgrrd7wg4__6zvxvr9w8m0000gn/T//ccaaKoMx.s 			page 6


 136:mi/plaits/dsp/oscillator/variable_shape_oscillator.h ****       
 137:mi/plaits/dsp/oscillator/variable_shape_oscillator.h ****       const float square_amount = std::max(waveshape - 0.5f, 0.0f) * 2.0f;
 138:mi/plaits/dsp/oscillator/variable_shape_oscillator.h ****       const float triangle_amount = std::max(1.0f - waveshape * 2.0f, 0.0f);
 139:mi/plaits/dsp/oscillator/variable_shape_oscillator.h ****       
 140:mi/plaits/dsp/oscillator/variable_shape_oscillator.h ****       const float slope_up = 1.0f / (pw);
 141:mi/plaits/dsp/oscillator/variable_shape_oscillator.h ****       const float slope_down = 1.0f / (1.0f - pw);
 142:mi/plaits/dsp/oscillator/variable_shape_oscillator.h **** 
 143:mi/plaits/dsp/oscillator/variable_shape_oscillator.h ****       if (enable_sync) {
 144:mi/plaits/dsp/oscillator/variable_shape_oscillator.h ****         master_phase_ += master_frequency;
 145:mi/plaits/dsp/oscillator/variable_shape_oscillator.h ****         if (master_phase_ >= 1.0f) {
 146:mi/plaits/dsp/oscillator/variable_shape_oscillator.h ****           master_phase_ -= 1.0f;
 147:mi/plaits/dsp/oscillator/variable_shape_oscillator.h ****           reset_time = master_phase_ / master_frequency;
 148:mi/plaits/dsp/oscillator/variable_shape_oscillator.h ****       
 149:mi/plaits/dsp/oscillator/variable_shape_oscillator.h ****           float slave_phase_at_reset = slave_phase_ + \
 150:mi/plaits/dsp/oscillator/variable_shape_oscillator.h ****               (1.0f - reset_time) * slave_frequency;
 151:mi/plaits/dsp/oscillator/variable_shape_oscillator.h ****           reset = true;
 152:mi/plaits/dsp/oscillator/variable_shape_oscillator.h ****           if (slave_phase_at_reset >= 1.0f) {
 153:mi/plaits/dsp/oscillator/variable_shape_oscillator.h ****             slave_phase_at_reset -= 1.0f;
 154:mi/plaits/dsp/oscillator/variable_shape_oscillator.h ****             transition_during_reset = true;
 155:mi/plaits/dsp/oscillator/variable_shape_oscillator.h ****           }
 156:mi/plaits/dsp/oscillator/variable_shape_oscillator.h ****           if (!high_ && slave_phase_at_reset >= pw) {
 157:mi/plaits/dsp/oscillator/variable_shape_oscillator.h ****             transition_during_reset = true;
 158:mi/plaits/dsp/oscillator/variable_shape_oscillator.h ****           }
 159:mi/plaits/dsp/oscillator/variable_shape_oscillator.h ****           float value = ComputeNaiveSample(
 160:mi/plaits/dsp/oscillator/variable_shape_oscillator.h ****               slave_phase_at_reset,
 161:mi/plaits/dsp/oscillator/variable_shape_oscillator.h ****               pw,
 162:mi/plaits/dsp/oscillator/variable_shape_oscillator.h ****               slope_up,
 163:mi/plaits/dsp/oscillator/variable_shape_oscillator.h ****               slope_down,
 164:mi/plaits/dsp/oscillator/variable_shape_oscillator.h ****               triangle_amount,
 165:mi/plaits/dsp/oscillator/variable_shape_oscillator.h ****               square_amount);
 166:mi/plaits/dsp/oscillator/variable_shape_oscillator.h ****           this_sample -= value * stmlib::ThisBlepSample(reset_time);
 167:mi/plaits/dsp/oscillator/variable_shape_oscillator.h ****           next_sample -= value * stmlib::NextBlepSample(reset_time);
 168:mi/plaits/dsp/oscillator/variable_shape_oscillator.h ****         }
 169:mi/plaits/dsp/oscillator/variable_shape_oscillator.h ****       } else if (output_phase) {
 170:mi/plaits/dsp/oscillator/variable_shape_oscillator.h ****         master_phase_ += master_frequency;
 171:mi/plaits/dsp/oscillator/variable_shape_oscillator.h ****         if (master_phase_ >= 1.0f) {
 172:mi/plaits/dsp/oscillator/variable_shape_oscillator.h ****           master_phase_ -= 1.0f;
 173:mi/plaits/dsp/oscillator/variable_shape_oscillator.h ****         }
 174:mi/plaits/dsp/oscillator/variable_shape_oscillator.h ****       }
 175:mi/plaits/dsp/oscillator/variable_shape_oscillator.h ****       
 176:mi/plaits/dsp/oscillator/variable_shape_oscillator.h ****       slave_phase_ += slave_frequency;
 177:mi/plaits/dsp/oscillator/variable_shape_oscillator.h ****       while (transition_during_reset || !reset) {
 178:mi/plaits/dsp/oscillator/variable_shape_oscillator.h ****         if (!high_) {
 179:mi/plaits/dsp/oscillator/variable_shape_oscillator.h ****           if (slave_phase_ < pw) {
 180:mi/plaits/dsp/oscillator/variable_shape_oscillator.h ****             break;
 181:mi/plaits/dsp/oscillator/variable_shape_oscillator.h ****           }
 182:mi/plaits/dsp/oscillator/variable_shape_oscillator.h ****           float t = (slave_phase_ - pw) / (previous_pw_ - pw + slave_frequency);
 183:mi/plaits/dsp/oscillator/variable_shape_oscillator.h ****           float triangle_step = (slope_up + slope_down) * slave_frequency;
 184:mi/plaits/dsp/oscillator/variable_shape_oscillator.h ****           triangle_step *= triangle_amount;
 185:mi/plaits/dsp/oscillator/variable_shape_oscillator.h ****           
 186:mi/plaits/dsp/oscillator/variable_shape_oscillator.h ****           this_sample += square_amount * stmlib::ThisBlepSample(t);
 187:mi/plaits/dsp/oscillator/variable_shape_oscillator.h ****           next_sample += square_amount * stmlib::NextBlepSample(t);
 188:mi/plaits/dsp/oscillator/variable_shape_oscillator.h ****           this_sample -= triangle_step * stmlib::ThisIntegratedBlepSample(t);
 189:mi/plaits/dsp/oscillator/variable_shape_oscillator.h ****           next_sample -= triangle_step * stmlib::NextIntegratedBlepSample(t);
 190:mi/plaits/dsp/oscillator/variable_shape_oscillator.h ****           high_ = true;
 191:mi/plaits/dsp/oscillator/variable_shape_oscillator.h ****         }
 192:mi/plaits/dsp/oscillator/variable_shape_oscillator.h ****       
ARM GAS  /var/folders/9k/zk1mgrrd7wg4__6zvxvr9w8m0000gn/T//ccaaKoMx.s 			page 7


 193:mi/plaits/dsp/oscillator/variable_shape_oscillator.h ****         if (high_) {
 194:mi/plaits/dsp/oscillator/variable_shape_oscillator.h ****           if (slave_phase_ < 1.0f) {
 195:mi/plaits/dsp/oscillator/variable_shape_oscillator.h ****             break;
 196:mi/plaits/dsp/oscillator/variable_shape_oscillator.h ****           }
 197:mi/plaits/dsp/oscillator/variable_shape_oscillator.h ****           slave_phase_ -= 1.0f;
 198:mi/plaits/dsp/oscillator/variable_shape_oscillator.h ****           float t = slave_phase_ / slave_frequency;
 199:mi/plaits/dsp/oscillator/variable_shape_oscillator.h ****           float triangle_step = (slope_up + slope_down) * slave_frequency;
 200:mi/plaits/dsp/oscillator/variable_shape_oscillator.h ****           triangle_step *= triangle_amount;
 201:mi/plaits/dsp/oscillator/variable_shape_oscillator.h **** 
 202:mi/plaits/dsp/oscillator/variable_shape_oscillator.h ****           this_sample -= (1.0f - triangle_amount) * stmlib::ThisBlepSample(t);
 203:mi/plaits/dsp/oscillator/variable_shape_oscillator.h ****           next_sample -= (1.0f - triangle_amount) * stmlib::NextBlepSample(t);
 204:mi/plaits/dsp/oscillator/variable_shape_oscillator.h ****           this_sample += triangle_step * stmlib::ThisIntegratedBlepSample(t);
 205:mi/plaits/dsp/oscillator/variable_shape_oscillator.h ****           next_sample += triangle_step * stmlib::NextIntegratedBlepSample(t);
 206:mi/plaits/dsp/oscillator/variable_shape_oscillator.h ****           high_ = false;
 207:mi/plaits/dsp/oscillator/variable_shape_oscillator.h ****         }
 208:mi/plaits/dsp/oscillator/variable_shape_oscillator.h ****       }
 209:mi/plaits/dsp/oscillator/variable_shape_oscillator.h ****     
 210:mi/plaits/dsp/oscillator/variable_shape_oscillator.h ****       if (enable_sync && reset) {
 211:mi/plaits/dsp/oscillator/variable_shape_oscillator.h ****         slave_phase_ = reset_time * slave_frequency;
 212:mi/plaits/dsp/oscillator/variable_shape_oscillator.h ****         high_ = false;
 213:mi/plaits/dsp/oscillator/variable_shape_oscillator.h ****       }
 214:mi/plaits/dsp/oscillator/variable_shape_oscillator.h ****     
 215:mi/plaits/dsp/oscillator/variable_shape_oscillator.h ****       next_sample += ComputeNaiveSample(
 216:mi/plaits/dsp/oscillator/variable_shape_oscillator.h ****           slave_phase_,
 217:mi/plaits/dsp/oscillator/variable_shape_oscillator.h ****           pw,
 218:mi/plaits/dsp/oscillator/variable_shape_oscillator.h ****           slope_up,
 219:mi/plaits/dsp/oscillator/variable_shape_oscillator.h ****           slope_down,
 220:mi/plaits/dsp/oscillator/variable_shape_oscillator.h ****           triangle_amount,
 221:mi/plaits/dsp/oscillator/variable_shape_oscillator.h ****           square_amount);
 222:mi/plaits/dsp/oscillator/variable_shape_oscillator.h ****       previous_pw_ = pw;
 223:mi/plaits/dsp/oscillator/variable_shape_oscillator.h ****       
 224:mi/plaits/dsp/oscillator/variable_shape_oscillator.h ****       if (output_phase) {
 225:mi/plaits/dsp/oscillator/variable_shape_oscillator.h ****         float phasor = master_phase_;
 226:mi/plaits/dsp/oscillator/variable_shape_oscillator.h ****         if (enable_sync) {
 227:mi/plaits/dsp/oscillator/variable_shape_oscillator.h ****           // A trick to prevent discontinuities when the phase wraps around.
 228:mi/plaits/dsp/oscillator/variable_shape_oscillator.h ****           const float w = 4.0f * (1.0f - master_phase_) * master_phase_;
 229:mi/plaits/dsp/oscillator/variable_shape_oscillator.h ****           this_sample *= w * (2.0f - w);
 230:mi/plaits/dsp/oscillator/variable_shape_oscillator.h ****           
 231:mi/plaits/dsp/oscillator/variable_shape_oscillator.h ****           // Apply some asymmetry on the main phasor too.
 232:mi/plaits/dsp/oscillator/variable_shape_oscillator.h ****           const float p2 = phasor * phasor;
 233:mi/plaits/dsp/oscillator/variable_shape_oscillator.h ****           phasor += (p2 * p2 - phasor) * fabsf(pw - 0.5f) * 2.0f;
 234:mi/plaits/dsp/oscillator/variable_shape_oscillator.h ****         }
 235:mi/plaits/dsp/oscillator/variable_shape_oscillator.h ****         *out++ = phasor + phase_modulation.Next() * this_sample;
 236:mi/plaits/dsp/oscillator/variable_shape_oscillator.h ****       } else {
 237:mi/plaits/dsp/oscillator/variable_shape_oscillator.h ****         *out++ = (2.0f * this_sample - 1.0f);
 238:mi/plaits/dsp/oscillator/variable_shape_oscillator.h ****       }
 239:mi/plaits/dsp/oscillator/variable_shape_oscillator.h ****     }
 240:mi/plaits/dsp/oscillator/variable_shape_oscillator.h ****     
 241:mi/plaits/dsp/oscillator/variable_shape_oscillator.h ****     next_sample_ = next_sample;
 242:mi/plaits/dsp/oscillator/variable_shape_oscillator.h ****   }
 243:mi/plaits/dsp/oscillator/variable_shape_oscillator.h ****   
 244:mi/plaits/dsp/oscillator/variable_shape_oscillator.h ****   inline void set_master_phase(float master_phase) {
 245:mi/plaits/dsp/oscillator/variable_shape_oscillator.h ****     master_phase_ = master_phase;
  65              		.loc 3 245 19 view .LVU5
  66 0002 4FF07A5E 		mov	lr, #1048576000
  67              	.LBE194:
  68              	.LBE193:
ARM GAS  /var/folders/9k/zk1mgrrd7wg4__6zvxvr9w8m0000gn/T//ccaaKoMx.s 			page 8


  69              	.LBB197:
  70              	.LBB198:
  53:mi/plaits/dsp/oscillator/variable_shape_oscillator.h ****     slave_phase_ = 0.0f;
  71              		.loc 3 53 19 view .LVU6
  72 0006 0023     		movs	r3, #0
  73              	.LVL2:
  53:mi/plaits/dsp/oscillator/variable_shape_oscillator.h ****     slave_phase_ = 0.0f;
  74              		.loc 3 53 19 view .LVU7
  75              	.LBE198:
  76              	.LBI197:
  52:mi/plaits/dsp/oscillator/variable_shape_oscillator.h ****     master_phase_ = 0.0f;
  77              		.loc 3 52 8 is_stmt 1 view .LVU8
  78              	.LBB199:
  53:mi/plaits/dsp/oscillator/variable_shape_oscillator.h ****     slave_phase_ = 0.0f;
  79              		.loc 3 53 5 view .LVU9
  56:mi/plaits/dsp/oscillator/variable_shape_oscillator.h ****     high_ = false;
  80              		.loc 3 56 18 is_stmt 0 view .LVU10
  81 0008 4FF07C52 		mov	r2, #1056964608
  57:mi/plaits/dsp/oscillator/variable_shape_oscillator.h ****   
  82              		.loc 3 57 11 view .LVU11
  83 000c 4FF0000C 		mov	ip, #0
  84              	.LBE199:
  85              	.LBE197:
  86              	.LBB203:
  87              	.LBB195:
  88              		.loc 3 245 19 view .LVU12
  89 0010 C0F838E0 		str	lr, [r0, #56]	@ float
  90              	.LBE195:
  91              	.LBE203:
  92              	.LBB204:
  93              	.LBB200:
  60:mi/plaits/dsp/oscillator/variable_shape_oscillator.h ****     pw_ = 0.5f;
  94              		.loc 3 60 22 view .LVU13
  95 0014 DFF890E0 		ldr	lr, .L7
  56:mi/plaits/dsp/oscillator/variable_shape_oscillator.h ****     high_ = false;
  96              		.loc 3 56 18 view .LVU14
  97 0018 C261     		str	r2, [r0, #28]	@ float
  61:mi/plaits/dsp/oscillator/variable_shape_oscillator.h ****     waveshape_ = 0.0f;
  98              		.loc 3 61 9 view .LVU15
  99 001a C262     		str	r2, [r0, #44]	@ float
 100              	.LBE200:
 101              	.LBE204:
 102              	.LBB205:
 103              	.LBB206:
  56:mi/plaits/dsp/oscillator/variable_shape_oscillator.h ****     high_ = false;
 104              		.loc 3 56 18 view .LVU16
 105 001c 4264     		str	r2, [r0, #68]	@ float
  61:mi/plaits/dsp/oscillator/variable_shape_oscillator.h ****     waveshape_ = 0.0f;
 106              		.loc 3 61 9 view .LVU17
 107 001e 4265     		str	r2, [r0, #84]	@ float
 108              	.LBE206:
 109              	.LBE205:
 110              	.LBB209:
 111              	.LBB210:
  56:mi/plaits/dsp/oscillator/variable_shape_oscillator.h ****     high_ = false;
 112              		.loc 3 56 18 view .LVU18
 113 0020 C266     		str	r2, [r0, #108]	@ float
ARM GAS  /var/folders/9k/zk1mgrrd7wg4__6zvxvr9w8m0000gn/T//ccaaKoMx.s 			page 9


  61:mi/plaits/dsp/oscillator/variable_shape_oscillator.h ****     waveshape_ = 0.0f;
 114              		.loc 3 61 9 view .LVU19
 115 0022 C267     		str	r2, [r0, #124]	@ float
 116              	.LBE210:
 117              	.LBE209:
 118              	.LBB213:
 119              	.LBB201:
  53:mi/plaits/dsp/oscillator/variable_shape_oscillator.h ****     slave_phase_ = 0.0f;
 120              		.loc 3 53 19 view .LVU20
 121 0024 0361     		str	r3, [r0, #16]	@ float
  54:mi/plaits/dsp/oscillator/variable_shape_oscillator.h ****     next_sample_ = 0.0f;
 122              		.loc 3 54 5 is_stmt 1 view .LVU21
  54:mi/plaits/dsp/oscillator/variable_shape_oscillator.h ****     next_sample_ = 0.0f;
 123              		.loc 3 54 18 is_stmt 0 view .LVU22
 124 0026 4361     		str	r3, [r0, #20]	@ float
  55:mi/plaits/dsp/oscillator/variable_shape_oscillator.h ****     previous_pw_ = 0.5f;
 125              		.loc 3 55 5 is_stmt 1 view .LVU23
  55:mi/plaits/dsp/oscillator/variable_shape_oscillator.h ****     previous_pw_ = 0.5f;
 126              		.loc 3 55 18 is_stmt 0 view .LVU24
 127 0028 8361     		str	r3, [r0, #24]	@ float
  56:mi/plaits/dsp/oscillator/variable_shape_oscillator.h ****     high_ = false;
 128              		.loc 3 56 5 is_stmt 1 view .LVU25
  57:mi/plaits/dsp/oscillator/variable_shape_oscillator.h ****   
 129              		.loc 3 57 5 view .LVU26
  57:mi/plaits/dsp/oscillator/variable_shape_oscillator.h ****   
 130              		.loc 3 57 11 is_stmt 0 view .LVU27
 131 002a 80F820C0 		strb	ip, [r0, #32]
  59:mi/plaits/dsp/oscillator/variable_shape_oscillator.h ****     slave_frequency_ = 0.01f;
 132              		.loc 3 59 5 is_stmt 1 view .LVU28
  59:mi/plaits/dsp/oscillator/variable_shape_oscillator.h ****     slave_frequency_ = 0.01f;
 133              		.loc 3 59 23 is_stmt 0 view .LVU29
 134 002e 4362     		str	r3, [r0, #36]	@ float
  60:mi/plaits/dsp/oscillator/variable_shape_oscillator.h ****     pw_ = 0.5f;
 135              		.loc 3 60 5 is_stmt 1 view .LVU30
  62:mi/plaits/dsp/oscillator/variable_shape_oscillator.h ****     phase_modulation_ = 0.0f;
 136              		.loc 3 62 16 is_stmt 0 view .LVU31
 137 0030 0363     		str	r3, [r0, #48]	@ float
  63:mi/plaits/dsp/oscillator/variable_shape_oscillator.h ****   }
 138              		.loc 3 63 23 view .LVU32
 139 0032 4363     		str	r3, [r0, #52]	@ float
 140              	.LBE201:
 141              	.LBE213:
 142              	.LBB214:
 143              	.LBB207:
  54:mi/plaits/dsp/oscillator/variable_shape_oscillator.h ****     next_sample_ = 0.0f;
 144              		.loc 3 54 18 view .LVU33
 145 0034 C363     		str	r3, [r0, #60]	@ float
  55:mi/plaits/dsp/oscillator/variable_shape_oscillator.h ****     previous_pw_ = 0.5f;
 146              		.loc 3 55 18 view .LVU34
 147 0036 0364     		str	r3, [r0, #64]	@ float
  57:mi/plaits/dsp/oscillator/variable_shape_oscillator.h ****   
 148              		.loc 3 57 11 view .LVU35
 149 0038 80F848C0 		strb	ip, [r0, #72]
  59:mi/plaits/dsp/oscillator/variable_shape_oscillator.h ****     slave_frequency_ = 0.01f;
 150              		.loc 3 59 23 view .LVU36
 151 003c C364     		str	r3, [r0, #76]	@ float
  62:mi/plaits/dsp/oscillator/variable_shape_oscillator.h ****     phase_modulation_ = 0.0f;
ARM GAS  /var/folders/9k/zk1mgrrd7wg4__6zvxvr9w8m0000gn/T//ccaaKoMx.s 			page 10


 152              		.loc 3 62 16 view .LVU37
 153 003e 8365     		str	r3, [r0, #88]	@ float
  63:mi/plaits/dsp/oscillator/variable_shape_oscillator.h ****   }
 154              		.loc 3 63 23 view .LVU38
 155 0040 C365     		str	r3, [r0, #92]	@ float
 156              	.LBE207:
 157              	.LBE214:
 158              	.LBB215:
 159              	.LBB211:
  53:mi/plaits/dsp/oscillator/variable_shape_oscillator.h ****     slave_phase_ = 0.0f;
 160              		.loc 3 53 19 view .LVU39
 161 0042 0366     		str	r3, [r0, #96]	@ float
  54:mi/plaits/dsp/oscillator/variable_shape_oscillator.h ****     next_sample_ = 0.0f;
 162              		.loc 3 54 18 view .LVU40
 163 0044 4366     		str	r3, [r0, #100]	@ float
  55:mi/plaits/dsp/oscillator/variable_shape_oscillator.h ****     previous_pw_ = 0.5f;
 164              		.loc 3 55 18 view .LVU41
 165 0046 8366     		str	r3, [r0, #104]	@ float
  57:mi/plaits/dsp/oscillator/variable_shape_oscillator.h ****   
 166              		.loc 3 57 11 view .LVU42
 167 0048 80F870C0 		strb	ip, [r0, #112]
  59:mi/plaits/dsp/oscillator/variable_shape_oscillator.h ****     slave_frequency_ = 0.01f;
 168              		.loc 3 59 23 view .LVU43
 169 004c 4367     		str	r3, [r0, #116]	@ float
  62:mi/plaits/dsp/oscillator/variable_shape_oscillator.h ****     phase_modulation_ = 0.0f;
 170              		.loc 3 62 16 view .LVU44
 171 004e C0F88030 		str	r3, [r0, #128]	@ float
  63:mi/plaits/dsp/oscillator/variable_shape_oscillator.h ****   }
 172              		.loc 3 63 23 view .LVU45
 173 0052 C0F88430 		str	r3, [r0, #132]	@ float
 174              	.LBE211:
 175              	.LBE215:
 176              	.LBB216:
 177              	.LBB217:
 178              		.file 4 "mi/plaits/dsp/oscillator/variable_saw_oscillator.h"
   1:mi/plaits/dsp/oscillator/variable_saw_oscillator.h **** // Copyright 2016 Emilie Gillet.
   2:mi/plaits/dsp/oscillator/variable_saw_oscillator.h **** //
   3:mi/plaits/dsp/oscillator/variable_saw_oscillator.h **** // Author: Emilie Gillet (emilie.o.gillet@gmail.com)
   4:mi/plaits/dsp/oscillator/variable_saw_oscillator.h **** //
   5:mi/plaits/dsp/oscillator/variable_saw_oscillator.h **** // Permission is hereby granted, free of charge, to any person obtaining a copy
   6:mi/plaits/dsp/oscillator/variable_saw_oscillator.h **** // of this software and associated documentation files (the "Software"), to deal
   7:mi/plaits/dsp/oscillator/variable_saw_oscillator.h **** // in the Software without restriction, including without limitation the rights
   8:mi/plaits/dsp/oscillator/variable_saw_oscillator.h **** // to use, copy, modify, merge, publish, distribute, sublicense, and/or sell
   9:mi/plaits/dsp/oscillator/variable_saw_oscillator.h **** // copies of the Software, and to permit persons to whom the Software is
  10:mi/plaits/dsp/oscillator/variable_saw_oscillator.h **** // furnished to do so, subject to the following conditions:
  11:mi/plaits/dsp/oscillator/variable_saw_oscillator.h **** // 
  12:mi/plaits/dsp/oscillator/variable_saw_oscillator.h **** // The above copyright notice and this permission notice shall be included in
  13:mi/plaits/dsp/oscillator/variable_saw_oscillator.h **** // all copies or substantial portions of the Software.
  14:mi/plaits/dsp/oscillator/variable_saw_oscillator.h **** // 
  15:mi/plaits/dsp/oscillator/variable_saw_oscillator.h **** // THE SOFTWARE IS PROVIDED "AS IS", WITHOUT WARRANTY OF ANY KIND, EXPRESS OR
  16:mi/plaits/dsp/oscillator/variable_saw_oscillator.h **** // IMPLIED, INCLUDING BUT NOT LIMITED TO THE WARRANTIES OF MERCHANTABILITY,
  17:mi/plaits/dsp/oscillator/variable_saw_oscillator.h **** // FITNESS FOR A PARTICULAR PURPOSE AND NONINFRINGEMENT. IN NO EVENT SHALL THE
  18:mi/plaits/dsp/oscillator/variable_saw_oscillator.h **** // AUTHORS OR COPYRIGHT HOLDERS BE LIABLE FOR ANY CLAIM, DAMAGES OR OTHER
  19:mi/plaits/dsp/oscillator/variable_saw_oscillator.h **** // LIABILITY, WHETHER IN AN ACTION OF CONTRACT, TORT OR OTHERWISE, ARISING FROM,
  20:mi/plaits/dsp/oscillator/variable_saw_oscillator.h **** // OUT OF OR IN CONNECTION WITH THE SOFTWARE OR THE USE OR OTHER DEALINGS IN
  21:mi/plaits/dsp/oscillator/variable_saw_oscillator.h **** // THE SOFTWARE.
  22:mi/plaits/dsp/oscillator/variable_saw_oscillator.h **** // 
ARM GAS  /var/folders/9k/zk1mgrrd7wg4__6zvxvr9w8m0000gn/T//ccaaKoMx.s 			page 11


  23:mi/plaits/dsp/oscillator/variable_saw_oscillator.h **** // See http://creativecommons.org/licenses/MIT/ for more information.
  24:mi/plaits/dsp/oscillator/variable_saw_oscillator.h **** //
  25:mi/plaits/dsp/oscillator/variable_saw_oscillator.h **** // -----------------------------------------------------------------------------
  26:mi/plaits/dsp/oscillator/variable_saw_oscillator.h **** //
  27:mi/plaits/dsp/oscillator/variable_saw_oscillator.h **** // Saw with variable slope or notch
  28:mi/plaits/dsp/oscillator/variable_saw_oscillator.h **** 
  29:mi/plaits/dsp/oscillator/variable_saw_oscillator.h **** #ifndef PLAITS_DSP_OSCILLATOR_VARIABLE_SAW_OSCILLATOR_H_
  30:mi/plaits/dsp/oscillator/variable_saw_oscillator.h **** #define PLAITS_DSP_OSCILLATOR_VARIABLE_SAW_OSCILLATOR_H_
  31:mi/plaits/dsp/oscillator/variable_saw_oscillator.h **** 
  32:mi/plaits/dsp/oscillator/variable_saw_oscillator.h **** #include "stmlib/dsp/dsp.h"
  33:mi/plaits/dsp/oscillator/variable_saw_oscillator.h **** #include "stmlib/dsp/parameter_interpolator.h"
  34:mi/plaits/dsp/oscillator/variable_saw_oscillator.h **** #include "stmlib/dsp/polyblep.h"
  35:mi/plaits/dsp/oscillator/variable_saw_oscillator.h **** 
  36:mi/plaits/dsp/oscillator/variable_saw_oscillator.h **** #include <algorithm>
  37:mi/plaits/dsp/oscillator/variable_saw_oscillator.h **** 
  38:mi/plaits/dsp/oscillator/variable_saw_oscillator.h **** #include "plaits/dsp/oscillator/oscillator.h"
  39:mi/plaits/dsp/oscillator/variable_saw_oscillator.h **** 
  40:mi/plaits/dsp/oscillator/variable_saw_oscillator.h **** namespace plaits {
  41:mi/plaits/dsp/oscillator/variable_saw_oscillator.h **** 
  42:mi/plaits/dsp/oscillator/variable_saw_oscillator.h **** const float kVariableSawNotchDepth = 0.2f;
  43:mi/plaits/dsp/oscillator/variable_saw_oscillator.h **** 
  44:mi/plaits/dsp/oscillator/variable_saw_oscillator.h **** class VariableSawOscillator {
  45:mi/plaits/dsp/oscillator/variable_saw_oscillator.h ****  public:
  46:mi/plaits/dsp/oscillator/variable_saw_oscillator.h ****   VariableSawOscillator() { }
  47:mi/plaits/dsp/oscillator/variable_saw_oscillator.h ****   ~VariableSawOscillator() { }
  48:mi/plaits/dsp/oscillator/variable_saw_oscillator.h **** 
  49:mi/plaits/dsp/oscillator/variable_saw_oscillator.h ****   void Init() {
  50:mi/plaits/dsp/oscillator/variable_saw_oscillator.h ****     phase_ = 0.0f;
 179              		.loc 4 50 12 view .LVU46
 180 0056 C0F88830 		str	r3, [r0, #136]	@ float
  51:mi/plaits/dsp/oscillator/variable_saw_oscillator.h ****     next_sample_ = 0.0f;
 181              		.loc 4 51 18 view .LVU47
 182 005a C0F88C30 		str	r3, [r0, #140]	@ float
 183              	.LBE217:
 184              	.LBE216:
 185              	.LBB221:
 186              	.LBB202:
  60:mi/plaits/dsp/oscillator/variable_shape_oscillator.h ****     pw_ = 0.5f;
 187              		.loc 3 60 22 view .LVU48
 188 005e C0F828E0 		str	lr, [r0, #40]	@ float
  61:mi/plaits/dsp/oscillator/variable_shape_oscillator.h ****     waveshape_ = 0.0f;
 189              		.loc 3 61 5 is_stmt 1 view .LVU49
  62:mi/plaits/dsp/oscillator/variable_shape_oscillator.h ****     phase_modulation_ = 0.0f;
 190              		.loc 3 62 5 view .LVU50
  63:mi/plaits/dsp/oscillator/variable_shape_oscillator.h ****   }
 191              		.loc 3 63 5 view .LVU51
 192              	.LVL3:
  63:mi/plaits/dsp/oscillator/variable_shape_oscillator.h ****   }
 193              		.loc 3 63 5 is_stmt 0 view .LVU52
 194              	.LBE202:
 195              	.LBE221:
  42:mi/plaits/dsp/engine/virtual_analog_engine.cpp ****   auxiliary_.Init();
 196              		.loc 2 42 3 is_stmt 1 view .LVU53
 197              	.LBB222:
 198              	.LBI205:
  52:mi/plaits/dsp/oscillator/variable_shape_oscillator.h ****     master_phase_ = 0.0f;
 199              		.loc 3 52 8 view .LVU54
ARM GAS  /var/folders/9k/zk1mgrrd7wg4__6zvxvr9w8m0000gn/T//ccaaKoMx.s 			page 12


 200              	.LBB208:
  53:mi/plaits/dsp/oscillator/variable_shape_oscillator.h ****     slave_phase_ = 0.0f;
 201              		.loc 3 53 5 view .LVU55
  54:mi/plaits/dsp/oscillator/variable_shape_oscillator.h ****     next_sample_ = 0.0f;
 202              		.loc 3 54 5 view .LVU56
  55:mi/plaits/dsp/oscillator/variable_shape_oscillator.h ****     previous_pw_ = 0.5f;
 203              		.loc 3 55 5 view .LVU57
  56:mi/plaits/dsp/oscillator/variable_shape_oscillator.h ****     high_ = false;
 204              		.loc 3 56 5 view .LVU58
  57:mi/plaits/dsp/oscillator/variable_shape_oscillator.h ****   
 205              		.loc 3 57 5 view .LVU59
  59:mi/plaits/dsp/oscillator/variable_shape_oscillator.h ****     slave_frequency_ = 0.01f;
 206              		.loc 3 59 5 view .LVU60
  60:mi/plaits/dsp/oscillator/variable_shape_oscillator.h ****     pw_ = 0.5f;
 207              		.loc 3 60 5 view .LVU61
  60:mi/plaits/dsp/oscillator/variable_shape_oscillator.h ****     pw_ = 0.5f;
 208              		.loc 3 60 22 is_stmt 0 view .LVU62
 209 0062 C0F850E0 		str	lr, [r0, #80]	@ float
  61:mi/plaits/dsp/oscillator/variable_shape_oscillator.h ****     waveshape_ = 0.0f;
 210              		.loc 3 61 5 is_stmt 1 view .LVU63
  62:mi/plaits/dsp/oscillator/variable_shape_oscillator.h ****     phase_modulation_ = 0.0f;
 211              		.loc 3 62 5 view .LVU64
  63:mi/plaits/dsp/oscillator/variable_shape_oscillator.h ****   }
 212              		.loc 3 63 5 view .LVU65
 213              	.LVL4:
  63:mi/plaits/dsp/oscillator/variable_shape_oscillator.h ****   }
 214              		.loc 3 63 5 is_stmt 0 view .LVU66
 215              	.LBE208:
 216              	.LBE222:
  43:mi/plaits/dsp/engine/virtual_analog_engine.cpp ****   auxiliary_.set_master_phase(0.25f);
 217              		.loc 2 43 3 is_stmt 1 view .LVU67
 218              	.LBB223:
 219              	.LBI193:
 244:mi/plaits/dsp/oscillator/variable_shape_oscillator.h ****     master_phase_ = master_phase;
 220              		.loc 3 244 15 view .LVU68
 221              	.LBB196:
 222              		.loc 3 245 5 view .LVU69
 223              		.loc 3 245 5 is_stmt 0 view .LVU70
 224              	.LBE196:
 225              	.LBE223:
  44:mi/plaits/dsp/engine/virtual_analog_engine.cpp ****   sync_.Init();
 226              		.loc 2 44 3 is_stmt 1 view .LVU71
 227              	.LBB224:
 228              	.LBI209:
  52:mi/plaits/dsp/oscillator/variable_shape_oscillator.h ****     master_phase_ = 0.0f;
 229              		.loc 3 52 8 view .LVU72
 230              	.LBB212:
  53:mi/plaits/dsp/oscillator/variable_shape_oscillator.h ****     slave_phase_ = 0.0f;
 231              		.loc 3 53 5 view .LVU73
  54:mi/plaits/dsp/oscillator/variable_shape_oscillator.h ****     next_sample_ = 0.0f;
 232              		.loc 3 54 5 view .LVU74
  55:mi/plaits/dsp/oscillator/variable_shape_oscillator.h ****     previous_pw_ = 0.5f;
 233              		.loc 3 55 5 view .LVU75
  56:mi/plaits/dsp/oscillator/variable_shape_oscillator.h ****     high_ = false;
 234              		.loc 3 56 5 view .LVU76
  57:mi/plaits/dsp/oscillator/variable_shape_oscillator.h ****   
 235              		.loc 3 57 5 view .LVU77
ARM GAS  /var/folders/9k/zk1mgrrd7wg4__6zvxvr9w8m0000gn/T//ccaaKoMx.s 			page 13


  59:mi/plaits/dsp/oscillator/variable_shape_oscillator.h ****     slave_frequency_ = 0.01f;
 236              		.loc 3 59 5 view .LVU78
  60:mi/plaits/dsp/oscillator/variable_shape_oscillator.h ****     pw_ = 0.5f;
 237              		.loc 3 60 5 view .LVU79
  60:mi/plaits/dsp/oscillator/variable_shape_oscillator.h ****     pw_ = 0.5f;
 238              		.loc 3 60 22 is_stmt 0 view .LVU80
 239 0066 C0F878E0 		str	lr, [r0, #120]	@ float
  61:mi/plaits/dsp/oscillator/variable_shape_oscillator.h ****     waveshape_ = 0.0f;
 240              		.loc 3 61 5 is_stmt 1 view .LVU81
  62:mi/plaits/dsp/oscillator/variable_shape_oscillator.h ****     phase_modulation_ = 0.0f;
 241              		.loc 3 62 5 view .LVU82
  63:mi/plaits/dsp/oscillator/variable_shape_oscillator.h ****   }
 242              		.loc 3 63 5 view .LVU83
 243              	.LVL5:
  63:mi/plaits/dsp/oscillator/variable_shape_oscillator.h ****   }
 244              		.loc 3 63 5 is_stmt 0 view .LVU84
 245              	.LBE212:
 246              	.LBE224:
  45:mi/plaits/dsp/engine/virtual_analog_engine.cpp ****   variable_saw_.Init();
 247              		.loc 2 45 3 is_stmt 1 view .LVU85
 248              	.LBB225:
 249              	.LBI216:
  49:mi/plaits/dsp/oscillator/variable_saw_oscillator.h ****     phase_ = 0.0f;
 250              		.loc 4 49 8 view .LVU86
 251              	.LBB218:
  50:mi/plaits/dsp/oscillator/variable_saw_oscillator.h ****     next_sample_ = 0.0f;
 252              		.loc 4 50 5 view .LVU87
 253              		.loc 4 51 5 view .LVU88
  52:mi/plaits/dsp/oscillator/variable_saw_oscillator.h ****     previous_pw_ = 0.5f;
 254              		.loc 4 52 5 view .LVU89
 255              		.loc 4 52 18 is_stmt 0 view .LVU90
 256 006a C0F89020 		str	r2, [r0, #144]	@ float
  53:mi/plaits/dsp/oscillator/variable_saw_oscillator.h ****     high_ = false;
 257              		.loc 4 53 5 is_stmt 1 view .LVU91
  54:mi/plaits/dsp/oscillator/variable_saw_oscillator.h ****   
  55:mi/plaits/dsp/oscillator/variable_saw_oscillator.h ****     frequency_ = 0.01f;
  56:mi/plaits/dsp/oscillator/variable_saw_oscillator.h ****     pw_ = 0.5f;
 258              		.loc 4 56 9 is_stmt 0 view .LVU92
 259 006e C0F89C20 		str	r2, [r0, #156]	@ float
 260              	.LBE218:
 261              	.LBE225:
 262              	.LBB226:
 263              	.LBB227:
 264              	.LBB228:
 265              		.file 5 "mi/stmlib/utils/buffer_allocator.h"
   1:mi/stmlib/utils/buffer_allocator.h **** // Copyright 2014 Emilie Gillet.
   2:mi/stmlib/utils/buffer_allocator.h **** //
   3:mi/stmlib/utils/buffer_allocator.h **** // Author: Emilie Gillet (emilie.o.gillet@gmail.com)
   4:mi/stmlib/utils/buffer_allocator.h **** //
   5:mi/stmlib/utils/buffer_allocator.h **** // Permission is hereby granted, free of charge, to any person obtaining a copy
   6:mi/stmlib/utils/buffer_allocator.h **** // of this software and associated documentation files (the "Software"), to deal
   7:mi/stmlib/utils/buffer_allocator.h **** // in the Software without restriction, including without limitation the rights
   8:mi/stmlib/utils/buffer_allocator.h **** // to use, copy, modify, merge, publish, distribute, sublicense, and/or sell
   9:mi/stmlib/utils/buffer_allocator.h **** // copies of the Software, and to permit persons to whom the Software is
  10:mi/stmlib/utils/buffer_allocator.h **** // furnished to do so, subject to the following conditions:
  11:mi/stmlib/utils/buffer_allocator.h **** // 
  12:mi/stmlib/utils/buffer_allocator.h **** // The above copyright notice and this permission notice shall be included in
ARM GAS  /var/folders/9k/zk1mgrrd7wg4__6zvxvr9w8m0000gn/T//ccaaKoMx.s 			page 14


  13:mi/stmlib/utils/buffer_allocator.h **** // all copies or substantial portions of the Software.
  14:mi/stmlib/utils/buffer_allocator.h **** // 
  15:mi/stmlib/utils/buffer_allocator.h **** // THE SOFTWARE IS PROVIDED "AS IS", WITHOUT WARRANTY OF ANY KIND, EXPRESS OR
  16:mi/stmlib/utils/buffer_allocator.h **** // IMPLIED, INCLUDING BUT NOT LIMITED TO THE WARRANTIES OF MERCHANTABILITY,
  17:mi/stmlib/utils/buffer_allocator.h **** // FITNESS FOR A PARTICULAR PURPOSE AND NONINFRINGEMENT. IN NO EVENT SHALL THE
  18:mi/stmlib/utils/buffer_allocator.h **** // AUTHORS OR COPYRIGHT HOLDERS BE LIABLE FOR ANY CLAIM, DAMAGES OR OTHER
  19:mi/stmlib/utils/buffer_allocator.h **** // LIABILITY, WHETHER IN AN ACTION OF CONTRACT, TORT OR OTHERWISE, ARISING FROM,
  20:mi/stmlib/utils/buffer_allocator.h **** // OUT OF OR IN CONNECTION WITH THE SOFTWARE OR THE USE OR OTHER DEALINGS IN
  21:mi/stmlib/utils/buffer_allocator.h **** // THE SOFTWARE.
  22:mi/stmlib/utils/buffer_allocator.h **** // 
  23:mi/stmlib/utils/buffer_allocator.h **** // See http://creativecommons.org/licenses/MIT/ for more information.
  24:mi/stmlib/utils/buffer_allocator.h **** //
  25:mi/stmlib/utils/buffer_allocator.h **** // -----------------------------------------------------------------------------
  26:mi/stmlib/utils/buffer_allocator.h **** //
  27:mi/stmlib/utils/buffer_allocator.h **** // Stream buffer for serialization.
  28:mi/stmlib/utils/buffer_allocator.h **** 
  29:mi/stmlib/utils/buffer_allocator.h **** #ifndef STMLIB_UTILS_BUFFER_ALLOCATOR_H_
  30:mi/stmlib/utils/buffer_allocator.h **** #define STMLIB_UTILS_BUFFER_ALLOCATOR_H_
  31:mi/stmlib/utils/buffer_allocator.h **** 
  32:mi/stmlib/utils/buffer_allocator.h **** #include "stmlib/stmlib.h"
  33:mi/stmlib/utils/buffer_allocator.h **** 
  34:mi/stmlib/utils/buffer_allocator.h **** namespace stmlib {
  35:mi/stmlib/utils/buffer_allocator.h **** 
  36:mi/stmlib/utils/buffer_allocator.h **** class BufferAllocator {
  37:mi/stmlib/utils/buffer_allocator.h ****  public:
  38:mi/stmlib/utils/buffer_allocator.h ****   BufferAllocator() { }
  39:mi/stmlib/utils/buffer_allocator.h ****   ~BufferAllocator() { }
  40:mi/stmlib/utils/buffer_allocator.h ****   
  41:mi/stmlib/utils/buffer_allocator.h ****   BufferAllocator(void* buffer, size_t size) {
  42:mi/stmlib/utils/buffer_allocator.h ****     Init(buffer, size);
  43:mi/stmlib/utils/buffer_allocator.h ****   }
  44:mi/stmlib/utils/buffer_allocator.h ****   
  45:mi/stmlib/utils/buffer_allocator.h ****   inline void Init(void* buffer, size_t size) {
  46:mi/stmlib/utils/buffer_allocator.h ****     buffer_ = static_cast<uint8_t*>(buffer);
  47:mi/stmlib/utils/buffer_allocator.h ****     size_ = size;
  48:mi/stmlib/utils/buffer_allocator.h ****     Free();
  49:mi/stmlib/utils/buffer_allocator.h ****   }
  50:mi/stmlib/utils/buffer_allocator.h **** 
  51:mi/stmlib/utils/buffer_allocator.h ****   template<typename T>
  52:mi/stmlib/utils/buffer_allocator.h ****   inline T* Allocate() {
  53:mi/stmlib/utils/buffer_allocator.h ****     return Allocate<T>(1);
  54:mi/stmlib/utils/buffer_allocator.h ****   }
  55:mi/stmlib/utils/buffer_allocator.h ****   
  56:mi/stmlib/utils/buffer_allocator.h ****   template<typename T>
  57:mi/stmlib/utils/buffer_allocator.h ****   inline T* Allocate(size_t size) {
  58:mi/stmlib/utils/buffer_allocator.h ****     size_t size_bytes = sizeof(T) * size;
  59:mi/stmlib/utils/buffer_allocator.h ****     if (size_bytes <= free_) {
 266              		.loc 5 59 23 view .LVU93
 267 0072 8A68     		ldr	r2, [r1, #8]
 268              	.LBE228:
 269              	.LBE227:
 270              	.LBE226:
 271              	.LBB236:
 272              	.LBB219:
  53:mi/plaits/dsp/oscillator/variable_saw_oscillator.h ****   
 273              		.loc 4 53 11 view .LVU94
 274 0074 80F894C0 		strb	ip, [r0, #148]
ARM GAS  /var/folders/9k/zk1mgrrd7wg4__6zvxvr9w8m0000gn/T//ccaaKoMx.s 			page 15


  55:mi/plaits/dsp/oscillator/variable_saw_oscillator.h ****     pw_ = 0.5f;
 275              		.loc 4 55 5 is_stmt 1 view .LVU95
 276              	.LBE219:
 277              	.LBE236:
 278              	.LBB237:
 279              	.LBB233:
 280              	.LBB230:
 281              		.loc 5 59 5 is_stmt 0 view .LVU96
 282 0078 5F2A     		cmp	r2, #95
 283              	.LBE230:
 284              	.LBE233:
 285              	.LBE237:
 286              	.LBB238:
 287              	.LBB220:
  55:mi/plaits/dsp/oscillator/variable_saw_oscillator.h ****     pw_ = 0.5f;
 288              		.loc 4 55 16 view .LVU97
 289 007a C0F898E0 		str	lr, [r0, #152]	@ float
 290              		.loc 4 56 5 is_stmt 1 view .LVU98
  57:mi/plaits/dsp/oscillator/variable_saw_oscillator.h ****     waveshape_ = 0.0f;
 291              		.loc 4 57 5 view .LVU99
 292              		.loc 4 57 16 is_stmt 0 view .LVU100
 293 007e C0F8A030 		str	r3, [r0, #160]	@ float
 294              	.LVL6:
 295              		.loc 4 57 16 view .LVU101
 296              	.LBE220:
 297              	.LBE238:
  46:mi/plaits/dsp/engine/virtual_analog_engine.cpp ****   
  47:mi/plaits/dsp/engine/virtual_analog_engine.cpp ****   auxiliary_amount_ = 0.0f;
 298              		.loc 2 47 3 is_stmt 1 view .LVU102
 299              		.loc 2 47 21 is_stmt 0 view .LVU103
 300 0082 C0F8A430 		str	r3, [r0, #164]	@ float
  48:mi/plaits/dsp/engine/virtual_analog_engine.cpp ****   xmod_amount_ = 0.0f;
 301              		.loc 2 48 3 is_stmt 1 view .LVU104
 302              		.loc 2 48 16 is_stmt 0 view .LVU105
 303 0086 C0F8A830 		str	r3, [r0, #168]	@ float
  49:mi/plaits/dsp/engine/virtual_analog_engine.cpp ****   
  50:mi/plaits/dsp/engine/virtual_analog_engine.cpp ****   temp_buffer_ = allocator->Allocate<float>(kMaxBlockSize);
 304              		.loc 2 50 3 is_stmt 1 view .LVU106
 305              	.LVL7:
 306              	.LBB239:
 307              	.LBI226:
  57:mi/stmlib/utils/buffer_allocator.h ****     size_t size_bytes = sizeof(T) * size;
 308              		.loc 5 57 13 view .LVU107
 309              	.LBB234:
 310              	.LBB231:
 311              		.loc 5 59 5 is_stmt 0 view .LVU108
 312 008a 08D9     		bls	.L5
 313              	.LBB229:
  60:mi/stmlib/utils/buffer_allocator.h ****       T* start = static_cast<T*>(static_cast<void*>(next_));
 314              		.loc 5 60 10 view .LVU109
 315 008c 0B68     		ldr	r3, [r1]
 316              	.LVL8:
  61:mi/stmlib/utils/buffer_allocator.h ****       next_ += size_bytes;
  62:mi/stmlib/utils/buffer_allocator.h ****       free_ -= size_bytes;
 317              		.loc 5 62 13 view .LVU110
 318 008e 603A     		subs	r2, r2, #96
  61:mi/stmlib/utils/buffer_allocator.h ****       next_ += size_bytes;
ARM GAS  /var/folders/9k/zk1mgrrd7wg4__6zvxvr9w8m0000gn/T//ccaaKoMx.s 			page 16


 319              		.loc 5 61 13 view .LVU111
 320 0090 03F16004 		add	r4, r3, #96
 321              		.loc 5 62 13 view .LVU112
 322 0094 8A60     		str	r2, [r1, #8]
  61:mi/stmlib/utils/buffer_allocator.h ****       next_ += size_bytes;
 323              		.loc 5 61 13 view .LVU113
 324 0096 0C60     		str	r4, [r1]
 325              	.LVL9:
  61:mi/stmlib/utils/buffer_allocator.h ****       next_ += size_bytes;
 326              		.loc 5 61 13 view .LVU114
 327              	.LBE229:
 328              	.LBE231:
 329              	.LBE234:
 330              	.LBE239:
 331              		.loc 2 50 16 view .LVU115
 332 0098 C0F8AC30 		str	r3, [r0, #172]
  51:mi/plaits/dsp/engine/virtual_analog_engine.cpp **** }
 333              		.loc 2 51 1 view .LVU116
 334 009c 10BD     		pop	{r4, pc}
 335              	.LVL10:
 336              	.L5:
 337              	.LBB240:
 338              	.LBB235:
 339              	.LBB232:
  63:mi/stmlib/utils/buffer_allocator.h ****       return start;
  64:mi/stmlib/utils/buffer_allocator.h ****     } else {
  65:mi/stmlib/utils/buffer_allocator.h ****       return NULL;
 340              		.loc 5 65 14 view .LVU117
 341 009e 6346     		mov	r3, ip
 342              	.LVL11:
 343              		.loc 5 65 14 view .LVU118
 344              	.LBE232:
 345              	.LBE235:
 346              	.LBE240:
  50:mi/plaits/dsp/engine/virtual_analog_engine.cpp **** }
 347              		.loc 2 50 16 view .LVU119
 348 00a0 C0F8AC30 		str	r3, [r0, #172]
 349              		.loc 2 51 1 view .LVU120
 350 00a4 10BD     		pop	{r4, pc}
 351              	.L8:
 352 00a6 00BF     		.align	2
 353              	.L7:
 354 00a8 0AD7233C 		.word	1008981770
 355              		.cfi_endproc
 356              	.LFE1499:
 358              		.section	.text._ZN6plaits19VirtualAnalogEngine5ResetEv,"ax",%progbits
 359              		.align	1
 360              		.p2align 2,,3
 361              		.global	_ZN6plaits19VirtualAnalogEngine5ResetEv
 362              		.syntax unified
 363              		.thumb
 364              		.thumb_func
 366              	_ZN6plaits19VirtualAnalogEngine5ResetEv:
 367              	.LVL12:
 368              	.LFB1500:
  52:mi/plaits/dsp/engine/virtual_analog_engine.cpp **** 
  53:mi/plaits/dsp/engine/virtual_analog_engine.cpp **** void VirtualAnalogEngine::Reset() {
ARM GAS  /var/folders/9k/zk1mgrrd7wg4__6zvxvr9w8m0000gn/T//ccaaKoMx.s 			page 17


 369              		.loc 2 53 35 is_stmt 1 view -0
 370              		.cfi_startproc
 371              		@ args = 0, pretend = 0, frame = 0
 372              		@ frame_needed = 0, uses_anonymous_args = 0
 373              		@ link register save eliminated.
  54:mi/plaits/dsp/engine/virtual_analog_engine.cpp ****   
  55:mi/plaits/dsp/engine/virtual_analog_engine.cpp **** }
 374              		.loc 2 55 1 is_stmt 0 view .LVU122
 375 0000 7047     		bx	lr
 376              		.cfi_endproc
 377              	.LFE1500:
 379 0002 00BF     		.section	.text._ZN6plaits21VariableSawOscillator6RenderEfffPfj,"axG",%progbits,_ZN6plaits21Variabl
 380              		.align	1
 381              		.p2align 2,,3
 382              		.weak	_ZN6plaits21VariableSawOscillator6RenderEfffPfj
 383              		.syntax unified
 384              		.thumb
 385              		.thumb_func
 387              	_ZN6plaits21VariableSawOscillator6RenderEfffPfj:
 388              	.LVL13:
 389              	.LFB1478:
  58:mi/plaits/dsp/oscillator/variable_saw_oscillator.h ****   }
  59:mi/plaits/dsp/oscillator/variable_saw_oscillator.h ****   
  60:mi/plaits/dsp/oscillator/variable_saw_oscillator.h ****   void Render(
 390              		.loc 4 60 8 is_stmt 1 view -0
 391              		.cfi_startproc
 392              		@ args = 0, pretend = 0, frame = 0
 393              		@ frame_needed = 0, uses_anonymous_args = 0
 394              		@ link register save eliminated.
  61:mi/plaits/dsp/oscillator/variable_saw_oscillator.h ****       float frequency,
  62:mi/plaits/dsp/oscillator/variable_saw_oscillator.h ****       float pw,
  63:mi/plaits/dsp/oscillator/variable_saw_oscillator.h ****       float waveshape,
  64:mi/plaits/dsp/oscillator/variable_saw_oscillator.h ****       float* out,
  65:mi/plaits/dsp/oscillator/variable_saw_oscillator.h ****       size_t size) {
  66:mi/plaits/dsp/oscillator/variable_saw_oscillator.h ****     if (frequency >= kMaxFrequency) {
 395              		.loc 4 66 5 view .LVU124
 396 0000 B5EE007A 		vmov.f32	s14, #2.5e-1
 397 0004 B4EEC70A 		vcmpe.f32	s0, s14
 398 0008 F1EE10FA 		vmrs	APSR_nzcv, FPSCR
 399 000c 80F21481 		bge	.L22
  67:mi/plaits/dsp/oscillator/variable_saw_oscillator.h ****       frequency = kMaxFrequency;
  68:mi/plaits/dsp/oscillator/variable_saw_oscillator.h ****     }
  69:mi/plaits/dsp/oscillator/variable_saw_oscillator.h ****     
  70:mi/plaits/dsp/oscillator/variable_saw_oscillator.h ****     if (frequency >= 0.25f) {
 400              		.loc 4 70 5 view .LVU125
  71:mi/plaits/dsp/oscillator/variable_saw_oscillator.h ****       pw = 0.5f;
  72:mi/plaits/dsp/oscillator/variable_saw_oscillator.h ****     } else {
  73:mi/plaits/dsp/oscillator/variable_saw_oscillator.h ****       CONSTRAIN(pw, frequency * 2.0f, 1.0f - 2.0f * frequency);
 401              		.loc 4 73 7 view .LVU126
 402 0010 70EE007A 		vadd.f32	s15, s0, s0
 403 0014 F4EEE07A 		vcmpe.f32	s15, s1
 404 0018 F1EE10FA 		vmrs	APSR_nzcv, FPSCR
 405 001c 40F31181 		ble	.L37
 406              	.LVL14:
 407              	.L11:
 408              		.loc 4 73 63 discriminator 6 view .LVU127
  74:mi/plaits/dsp/oscillator/variable_saw_oscillator.h ****     }
ARM GAS  /var/folders/9k/zk1mgrrd7wg4__6zvxvr9w8m0000gn/T//ccaaKoMx.s 			page 18


  75:mi/plaits/dsp/oscillator/variable_saw_oscillator.h **** 
  76:mi/plaits/dsp/oscillator/variable_saw_oscillator.h ****     stmlib::ParameterInterpolator fm(&frequency_, frequency, size);
 409              		.loc 4 76 5 discriminator 6 view .LVU128
 410              	.LBB241:
 411              	.LBI241:
 412              		.file 6 "mi/stmlib/dsp/parameter_interpolator.h"
   1:mi/stmlib/dsp/parameter_interpolator.h **** // Copyright 2015 Emilie Gillet.
   2:mi/stmlib/dsp/parameter_interpolator.h **** //
   3:mi/stmlib/dsp/parameter_interpolator.h **** // Author: Emilie Gillet (emilie.o.gillet@gmail.com)
   4:mi/stmlib/dsp/parameter_interpolator.h **** //
   5:mi/stmlib/dsp/parameter_interpolator.h **** // Permission is hereby granted, free of charge, to any person obtaining a copy
   6:mi/stmlib/dsp/parameter_interpolator.h **** // of this software and associated documentation files (the "Software"), to deal
   7:mi/stmlib/dsp/parameter_interpolator.h **** // in the Software without restriction, including without limitation the rights
   8:mi/stmlib/dsp/parameter_interpolator.h **** // to use, copy, modify, merge, publish, distribute, sublicense, and/or sell
   9:mi/stmlib/dsp/parameter_interpolator.h **** // copies of the Software, and to permit persons to whom the Software is
  10:mi/stmlib/dsp/parameter_interpolator.h **** // furnished to do so, subject to the following conditions:
  11:mi/stmlib/dsp/parameter_interpolator.h **** // 
  12:mi/stmlib/dsp/parameter_interpolator.h **** // The above copyright notice and this permission notice shall be included in
  13:mi/stmlib/dsp/parameter_interpolator.h **** // all copies or substantial portions of the Software.
  14:mi/stmlib/dsp/parameter_interpolator.h **** // 
  15:mi/stmlib/dsp/parameter_interpolator.h **** // THE SOFTWARE IS PROVIDED "AS IS", WITHOUT WARRANTY OF ANY KIND, EXPRESS OR
  16:mi/stmlib/dsp/parameter_interpolator.h **** // IMPLIED, INCLUDING BUT NOT LIMITED TO THE WARRANTIES OF MERCHANTABILITY,
  17:mi/stmlib/dsp/parameter_interpolator.h **** // FITNESS FOR A PARTICULAR PURPOSE AND NONINFRINGEMENT. IN NO EVENT SHALL THE
  18:mi/stmlib/dsp/parameter_interpolator.h **** // AUTHORS OR COPYRIGHT HOLDERS BE LIABLE FOR ANY CLAIM, DAMAGES OR OTHER
  19:mi/stmlib/dsp/parameter_interpolator.h **** // LIABILITY, WHETHER IN AN ACTION OF CONTRACT, TORT OR OTHERWISE, ARISING FROM,
  20:mi/stmlib/dsp/parameter_interpolator.h **** // OUT OF OR IN CONNECTION WITH THE SOFTWARE OR THE USE OR OTHER DEALINGS IN
  21:mi/stmlib/dsp/parameter_interpolator.h **** // THE SOFTWARE.
  22:mi/stmlib/dsp/parameter_interpolator.h **** // 
  23:mi/stmlib/dsp/parameter_interpolator.h **** // See http://creativecommons.org/licenses/MIT/ for more information.
  24:mi/stmlib/dsp/parameter_interpolator.h **** //
  25:mi/stmlib/dsp/parameter_interpolator.h **** // -----------------------------------------------------------------------------
  26:mi/stmlib/dsp/parameter_interpolator.h **** //
  27:mi/stmlib/dsp/parameter_interpolator.h **** // Linear interpolation of parameters in rendering loops.
  28:mi/stmlib/dsp/parameter_interpolator.h **** 
  29:mi/stmlib/dsp/parameter_interpolator.h **** #ifndef STMLIB_DSP_PARAMETER_INTERPOLATOR_H_
  30:mi/stmlib/dsp/parameter_interpolator.h **** #define STMLIB_DSP_PARAMETER_INTERPOLATOR_H_
  31:mi/stmlib/dsp/parameter_interpolator.h **** 
  32:mi/stmlib/dsp/parameter_interpolator.h **** #include "stmlib/stmlib.h"
  33:mi/stmlib/dsp/parameter_interpolator.h **** 
  34:mi/stmlib/dsp/parameter_interpolator.h **** namespace stmlib {
  35:mi/stmlib/dsp/parameter_interpolator.h **** 
  36:mi/stmlib/dsp/parameter_interpolator.h **** class ParameterInterpolator {
  37:mi/stmlib/dsp/parameter_interpolator.h ****  public:
  38:mi/stmlib/dsp/parameter_interpolator.h ****   ParameterInterpolator() { }
  39:mi/stmlib/dsp/parameter_interpolator.h ****   ParameterInterpolator(float* state, float new_value, size_t size) {
 413              		.loc 6 39 3 discriminator 6 view .LVU129
 414              	.LBE241:
  40:mi/stmlib/dsp/parameter_interpolator.h ****     Init(state, new_value, size);
 415              		.loc 6 40 5 discriminator 6 view .LVU130
 416              	.LBB248:
 417              	.LBB242:
 418              	.LBI242:
  41:mi/stmlib/dsp/parameter_interpolator.h ****   }
  42:mi/stmlib/dsp/parameter_interpolator.h **** 
  43:mi/stmlib/dsp/parameter_interpolator.h ****   ParameterInterpolator(float* state, float new_value, float step) {
  44:mi/stmlib/dsp/parameter_interpolator.h ****     state_ = state;
  45:mi/stmlib/dsp/parameter_interpolator.h ****     value_ = *state;
ARM GAS  /var/folders/9k/zk1mgrrd7wg4__6zvxvr9w8m0000gn/T//ccaaKoMx.s 			page 19


  46:mi/stmlib/dsp/parameter_interpolator.h ****     increment_ = (new_value - *state) * step;
  47:mi/stmlib/dsp/parameter_interpolator.h ****   }
  48:mi/stmlib/dsp/parameter_interpolator.h **** 
  49:mi/stmlib/dsp/parameter_interpolator.h ****   ~ParameterInterpolator() {
  50:mi/stmlib/dsp/parameter_interpolator.h ****     *state_ = value_;
  51:mi/stmlib/dsp/parameter_interpolator.h ****   }
  52:mi/stmlib/dsp/parameter_interpolator.h ****   
  53:mi/stmlib/dsp/parameter_interpolator.h ****   inline void Init(float* state, float new_value, size_t size) {
 419              		.loc 6 53 15 discriminator 6 view .LVU131
 420              	.LBB243:
  54:mi/stmlib/dsp/parameter_interpolator.h ****     state_ = state;
 421              		.loc 6 54 5 discriminator 6 view .LVU132
  55:mi/stmlib/dsp/parameter_interpolator.h ****     value_ = *state;
 422              		.loc 6 55 5 discriminator 6 view .LVU133
 423              		.loc 6 55 14 is_stmt 0 discriminator 6 view .LVU134
 424 0020 D0ED043A 		vldr.32	s7, [r0, #16]
 425              	.LVL15:
  56:mi/stmlib/dsp/parameter_interpolator.h ****     increment_ = (new_value - *state) / static_cast<float>(size);
 426              		.loc 6 56 5 is_stmt 1 discriminator 6 view .LVU135
 427              		.loc 6 56 41 is_stmt 0 discriminator 6 view .LVU136
 428 0024 07EE102A 		vmov	s14, r2	@ int
 429              	.LBE243:
 430              	.LBE242:
 431              	.LBE248:
 432              	.LBB249:
 433              	.LBB250:
 434              	.LBB251:
  55:mi/stmlib/dsp/parameter_interpolator.h ****     value_ = *state;
 435              		.loc 6 55 14 discriminator 6 view .LVU137
 436 0028 D0ED056A 		vldr.32	s13, [r0, #20]
 437              	.LBE251:
 438              	.LBE250:
 439              	.LBE249:
  77:mi/plaits/dsp/oscillator/variable_saw_oscillator.h ****     stmlib::ParameterInterpolator pwm(&pw_, pw, size);
  78:mi/plaits/dsp/oscillator/variable_saw_oscillator.h ****     stmlib::ParameterInterpolator waveshape_modulation(
  79:mi/plaits/dsp/oscillator/variable_saw_oscillator.h ****         &waveshape_, waveshape, size);
  80:mi/plaits/dsp/oscillator/variable_saw_oscillator.h **** 
  81:mi/plaits/dsp/oscillator/variable_saw_oscillator.h ****     float next_sample = next_sample_;
  82:mi/plaits/dsp/oscillator/variable_saw_oscillator.h ****     
  83:mi/plaits/dsp/oscillator/variable_saw_oscillator.h ****     while (size--) {
 440              		.loc 4 83 16 discriminator 6 view .LVU138
 441 002c 531E     		subs	r3, r2, #1
 442              	.LBB256:
 443              	.LBB257:
 444              	.LBB258:
  55:mi/stmlib/dsp/parameter_interpolator.h ****     increment_ = (new_value - *state) / static_cast<float>(size);
 445              		.loc 6 55 14 discriminator 6 view .LVU139
 446 002e 90ED064A 		vldr.32	s8, [r0, #24]
 447              	.LBE258:
 448              	.LBE257:
 449              	.LBE256:
 450              	.LBB263:
 451              	.LBB246:
 452              	.LBB244:
 453              		.loc 6 56 41 discriminator 6 view .LVU140
 454 0032 B8EE477A 		vcvt.f32.u32	s14, s14
 455              		.loc 6 56 29 discriminator 6 view .LVU141
ARM GAS  /var/folders/9k/zk1mgrrd7wg4__6zvxvr9w8m0000gn/T//ccaaKoMx.s 			page 20


 456 0036 30EE630A 		vsub.f32	s0, s0, s7
 457              	.LVL16:
 458              		.loc 6 56 29 discriminator 6 view .LVU142
 459              	.LBE244:
 460              	.LBE246:
 461              	.LBE263:
  81:mi/plaits/dsp/oscillator/variable_saw_oscillator.h ****     
 462              		.loc 4 81 11 discriminator 6 view .LVU143
 463 003a D0ED015A 		vldr.32	s11, [r0, #4]
 464              	.LBB264:
 465              	.LBB254:
 466              	.LBB252:
 467              		.loc 6 56 29 discriminator 6 view .LVU144
 468 003e 77EEE67A 		vsub.f32	s15, s15, s13
 469              	.LVL17:
 470              		.loc 6 56 29 discriminator 6 view .LVU145
 471              	.LBE252:
 472              	.LBE254:
 473              	.LBE264:
 474              	.LBB265:
 475              	.LBB261:
 476              	.LBB259:
 477 0042 31EE441A 		vsub.f32	s2, s2, s8
 478              	.LVL18:
 479              		.loc 6 56 29 discriminator 6 view .LVU146
 480              	.LBE259:
 481              	.LBE261:
 482              	.LBE265:
 483              	.LBB266:
 484              	.LBB247:
 485              	.LBB245:
 486              		.loc 6 56 39 discriminator 6 view .LVU147
 487 0046 C0EE071A 		vdiv.f32	s3, s0, s14
 488              	.LVL19:
 489              		.loc 6 56 39 discriminator 6 view .LVU148
 490              	.LBE245:
 491              	.LBE247:
 492              	.LBE266:
  77:mi/plaits/dsp/oscillator/variable_saw_oscillator.h ****     stmlib::ParameterInterpolator pwm(&pw_, pw, size);
 493              		.loc 4 77 5 is_stmt 1 discriminator 6 view .LVU149
 494              	.LBB267:
 495              	.LBI249:
  39:mi/stmlib/dsp/parameter_interpolator.h ****     Init(state, new_value, size);
 496              		.loc 6 39 3 discriminator 6 view .LVU150
 497              	.LBE267:
  40:mi/stmlib/dsp/parameter_interpolator.h ****   }
 498              		.loc 6 40 5 discriminator 6 view .LVU151
 499              	.LBB268:
 500              	.LBB255:
 501              	.LBI250:
  53:mi/stmlib/dsp/parameter_interpolator.h ****     state_ = state;
 502              		.loc 6 53 15 discriminator 6 view .LVU152
 503              	.LBB253:
  54:mi/stmlib/dsp/parameter_interpolator.h ****     value_ = *state;
 504              		.loc 6 54 5 discriminator 6 view .LVU153
  55:mi/stmlib/dsp/parameter_interpolator.h ****     increment_ = (new_value - *state) / static_cast<float>(size);
 505              		.loc 6 55 5 discriminator 6 view .LVU154
ARM GAS  /var/folders/9k/zk1mgrrd7wg4__6zvxvr9w8m0000gn/T//ccaaKoMx.s 			page 21


 506              		.loc 6 56 5 discriminator 6 view .LVU155
 507              		.loc 6 56 39 is_stmt 0 discriminator 6 view .LVU156
 508 004a 87EE872A 		vdiv.f32	s4, s15, s14
 509              	.LVL20:
 510              		.loc 6 56 39 discriminator 6 view .LVU157
 511              	.LBE253:
 512              	.LBE255:
 513              	.LBE268:
  78:mi/plaits/dsp/oscillator/variable_saw_oscillator.h ****         &waveshape_, waveshape, size);
 514              		.loc 4 78 5 is_stmt 1 discriminator 6 view .LVU158
 515              	.LBB269:
 516              	.LBI256:
  39:mi/stmlib/dsp/parameter_interpolator.h ****     Init(state, new_value, size);
 517              		.loc 6 39 3 discriminator 6 view .LVU159
 518              	.LBE269:
  40:mi/stmlib/dsp/parameter_interpolator.h ****   }
 519              		.loc 6 40 5 discriminator 6 view .LVU160
 520              	.LBB270:
 521              	.LBB262:
 522              	.LBI257:
  53:mi/stmlib/dsp/parameter_interpolator.h ****     state_ = state;
 523              		.loc 6 53 15 discriminator 6 view .LVU161
 524              	.LBB260:
  54:mi/stmlib/dsp/parameter_interpolator.h ****     value_ = *state;
 525              		.loc 6 54 5 discriminator 6 view .LVU162
  55:mi/stmlib/dsp/parameter_interpolator.h ****     increment_ = (new_value - *state) / static_cast<float>(size);
 526              		.loc 6 55 5 discriminator 6 view .LVU163
 527              		.loc 6 56 5 discriminator 6 view .LVU164
 528              		.loc 6 56 39 is_stmt 0 discriminator 6 view .LVU165
 529 004e C1EE072A 		vdiv.f32	s5, s2, s14
 530              	.LVL21:
 531              		.loc 6 56 39 discriminator 6 view .LVU166
 532              	.LBE260:
 533              	.LBE262:
 534              	.LBE270:
  81:mi/plaits/dsp/oscillator/variable_saw_oscillator.h ****     
 535              		.loc 4 81 5 is_stmt 1 discriminator 6 view .LVU167
 536              		.loc 4 83 5 discriminator 6 view .LVU168
 537              		.loc 4 83 16 discriminator 6 view .LVU169
 538              		.loc 4 83 16 is_stmt 0 discriminator 6 view .LVU170
 539 0052 002A     		cmp	r2, #0
 540 0054 00F00181 		beq	.L35
  60:mi/plaits/dsp/oscillator/variable_saw_oscillator.h ****       float frequency,
 541              		.loc 4 60 8 view .LVU171
 542 0058 2DED088B 		vpush.64	{d8, d9, d10, d11}
 543              		.cfi_def_cfa_offset 32
 544              		.cfi_offset 80, -32
 545              		.cfi_offset 81, -28
 546              		.cfi_offset 82, -24
 547              		.cfi_offset 83, -20
 548              		.cfi_offset 84, -16
 549              		.cfi_offset 85, -12
 550              		.cfi_offset 86, -8
 551              		.cfi_offset 87, -4
 552 005c 19E0     		b	.L21
 553              	.LVL22:
 554              	.L39:
ARM GAS  /var/folders/9k/zk1mgrrd7wg4__6zvxvr9w8m0000gn/T//ccaaKoMx.s 			page 22


 555              	.LBB271:
 556              	.LBB272:
 557              	.LBB273:
  84:mi/plaits/dsp/oscillator/variable_saw_oscillator.h ****       float this_sample = next_sample;
  85:mi/plaits/dsp/oscillator/variable_saw_oscillator.h ****       next_sample = 0.0f;
  86:mi/plaits/dsp/oscillator/variable_saw_oscillator.h ****     
  87:mi/plaits/dsp/oscillator/variable_saw_oscillator.h ****       const float frequency = fm.Next();
  88:mi/plaits/dsp/oscillator/variable_saw_oscillator.h ****       const float pw = pwm.Next();
  89:mi/plaits/dsp/oscillator/variable_saw_oscillator.h ****       const float waveshape = waveshape_modulation.Next();
  90:mi/plaits/dsp/oscillator/variable_saw_oscillator.h ****       const float triangle_amount = waveshape;
  91:mi/plaits/dsp/oscillator/variable_saw_oscillator.h ****       const float notch_amount = 1.0f - waveshape;
  92:mi/plaits/dsp/oscillator/variable_saw_oscillator.h ****       const float slope_up = 1.0f / (pw);
  93:mi/plaits/dsp/oscillator/variable_saw_oscillator.h ****       const float slope_down = 1.0f / (1.0f - pw);
  94:mi/plaits/dsp/oscillator/variable_saw_oscillator.h **** 
  95:mi/plaits/dsp/oscillator/variable_saw_oscillator.h ****       phase_ += frequency;
  96:mi/plaits/dsp/oscillator/variable_saw_oscillator.h ****       
  97:mi/plaits/dsp/oscillator/variable_saw_oscillator.h ****       if (!high_ && phase_ >= pw) {
  98:mi/plaits/dsp/oscillator/variable_saw_oscillator.h ****         const float triangle_step = (slope_up + slope_down) * frequency * triangle_amount;
  99:mi/plaits/dsp/oscillator/variable_saw_oscillator.h ****         const float notch = (kVariableSawNotchDepth + 1.0f - pw) * notch_amount;
 100:mi/plaits/dsp/oscillator/variable_saw_oscillator.h ****         const float t = (phase_ - pw) / (previous_pw_ - pw + frequency);
 101:mi/plaits/dsp/oscillator/variable_saw_oscillator.h ****         this_sample += notch * stmlib::ThisBlepSample(t);
 102:mi/plaits/dsp/oscillator/variable_saw_oscillator.h ****         next_sample += notch * stmlib::NextBlepSample(t);
 103:mi/plaits/dsp/oscillator/variable_saw_oscillator.h ****         this_sample -= triangle_step * stmlib::ThisIntegratedBlepSample(t);
 104:mi/plaits/dsp/oscillator/variable_saw_oscillator.h ****         next_sample -= triangle_step * stmlib::NextIntegratedBlepSample(t);
 105:mi/plaits/dsp/oscillator/variable_saw_oscillator.h ****         high_ = true;
 106:mi/plaits/dsp/oscillator/variable_saw_oscillator.h ****       } else if (phase_ >= 1.0f) {
 107:mi/plaits/dsp/oscillator/variable_saw_oscillator.h ****         phase_ -= 1.0f;
 108:mi/plaits/dsp/oscillator/variable_saw_oscillator.h ****         const float triangle_step = (slope_up + slope_down) * frequency * triangle_amount;
 109:mi/plaits/dsp/oscillator/variable_saw_oscillator.h ****         const float notch = (kVariableSawNotchDepth + 1.0f) * notch_amount;
 110:mi/plaits/dsp/oscillator/variable_saw_oscillator.h ****         const float t = phase_ / frequency;
 111:mi/plaits/dsp/oscillator/variable_saw_oscillator.h ****         this_sample -= notch * stmlib::ThisBlepSample(t);
 112:mi/plaits/dsp/oscillator/variable_saw_oscillator.h ****         next_sample -= notch * stmlib::NextBlepSample(t);
 113:mi/plaits/dsp/oscillator/variable_saw_oscillator.h ****         this_sample += triangle_step * stmlib::ThisIntegratedBlepSample(t);
 114:mi/plaits/dsp/oscillator/variable_saw_oscillator.h ****         next_sample += triangle_step * stmlib::NextIntegratedBlepSample(t);
 115:mi/plaits/dsp/oscillator/variable_saw_oscillator.h ****         high_ = false;
 116:mi/plaits/dsp/oscillator/variable_saw_oscillator.h ****       }
 117:mi/plaits/dsp/oscillator/variable_saw_oscillator.h ****     
 118:mi/plaits/dsp/oscillator/variable_saw_oscillator.h ****       next_sample += ComputeNaiveSample(
 119:mi/plaits/dsp/oscillator/variable_saw_oscillator.h ****           phase_,
 120:mi/plaits/dsp/oscillator/variable_saw_oscillator.h ****           pw,
 121:mi/plaits/dsp/oscillator/variable_saw_oscillator.h ****           slope_up,
 122:mi/plaits/dsp/oscillator/variable_saw_oscillator.h ****           slope_down,
 123:mi/plaits/dsp/oscillator/variable_saw_oscillator.h ****           triangle_amount,
 124:mi/plaits/dsp/oscillator/variable_saw_oscillator.h ****           notch_amount);
 125:mi/plaits/dsp/oscillator/variable_saw_oscillator.h ****       previous_pw_ = pw;
 126:mi/plaits/dsp/oscillator/variable_saw_oscillator.h **** 
 127:mi/plaits/dsp/oscillator/variable_saw_oscillator.h ****       *out++ = (2.0f * this_sample - 1.0f) / (1.0f + kVariableSawNotchDepth);
 128:mi/plaits/dsp/oscillator/variable_saw_oscillator.h ****     }
 129:mi/plaits/dsp/oscillator/variable_saw_oscillator.h ****     
 130:mi/plaits/dsp/oscillator/variable_saw_oscillator.h ****     next_sample_ = next_sample;
 131:mi/plaits/dsp/oscillator/variable_saw_oscillator.h ****   }
 132:mi/plaits/dsp/oscillator/variable_saw_oscillator.h **** 
 133:mi/plaits/dsp/oscillator/variable_saw_oscillator.h **** 
 134:mi/plaits/dsp/oscillator/variable_saw_oscillator.h ****  private:
 135:mi/plaits/dsp/oscillator/variable_saw_oscillator.h ****   inline float ComputeNaiveSample(
 136:mi/plaits/dsp/oscillator/variable_saw_oscillator.h ****       float phase,
 137:mi/plaits/dsp/oscillator/variable_saw_oscillator.h ****       float pw,
ARM GAS  /var/folders/9k/zk1mgrrd7wg4__6zvxvr9w8m0000gn/T//ccaaKoMx.s 			page 23


 138:mi/plaits/dsp/oscillator/variable_saw_oscillator.h ****       float slope_up,
 139:mi/plaits/dsp/oscillator/variable_saw_oscillator.h ****       float slope_down,
 140:mi/plaits/dsp/oscillator/variable_saw_oscillator.h ****       float triangle_amount,
 141:mi/plaits/dsp/oscillator/variable_saw_oscillator.h ****       float notch_amount) const {
 142:mi/plaits/dsp/oscillator/variable_saw_oscillator.h ****     float notch_saw = phase < pw ? phase : 1.0f + kVariableSawNotchDepth;
 143:mi/plaits/dsp/oscillator/variable_saw_oscillator.h ****     float triangle = phase < pw
 144:mi/plaits/dsp/oscillator/variable_saw_oscillator.h ****         ? phase * slope_up
 558              		.loc 4 144 9 view .LVU172
 559 005e 27EE277A 		vmul.f32	s14, s14, s15
 560              	.LVL23:
 561              	.L20:
 145:mi/plaits/dsp/oscillator/variable_saw_oscillator.h ****         : 1.0f - (phase - pw) * slope_down;
 146:mi/plaits/dsp/oscillator/variable_saw_oscillator.h ****     return notch_saw * notch_amount + triangle * triangle_amount;
 562              		.loc 4 146 5 is_stmt 1 view .LVU173
 563              	.LBE273:
 564              	.LBE272:
 127:mi/plaits/dsp/oscillator/variable_saw_oscillator.h ****     }
 565              		.loc 4 127 36 is_stmt 0 view .LVU174
 566 0062 B0EE001A 		vmov.f32	s2, #2.0e+0
 127:mi/plaits/dsp/oscillator/variable_saw_oscillator.h ****     }
 567              		.loc 4 127 44 view .LVU175
 568 0066 DFED814A 		vldr.32	s9, .L40
 127:mi/plaits/dsp/oscillator/variable_saw_oscillator.h ****     }
 569              		.loc 4 127 36 view .LVU176
 570 006a BFEE005A 		vmov.f32	s10, #-1.0e+0
 571              	.LBE271:
  83:mi/plaits/dsp/oscillator/variable_saw_oscillator.h ****       float this_sample = next_sample;
 572              		.loc 4 83 16 view .LVU177
 573 006e 013B     		subs	r3, r3, #1
 574              	.LVL24:
 575              	.LBB400:
 576              	.LBB277:
 577              	.LBB274:
 578              		.loc 4 146 48 view .LVU178
 579 0070 24EE077A 		vmul.f32	s14, s8, s14
 580              	.LVL25:
 581              		.loc 4 146 48 view .LVU179
 582              	.LBE274:
 583              	.LBE277:
 125:mi/plaits/dsp/oscillator/variable_saw_oscillator.h **** 
 584              		.loc 4 125 20 view .LVU180
 585 0074 C0ED026A 		vstr.32	s13, [r0, #8]
 586              	.LBE400:
  83:mi/plaits/dsp/oscillator/variable_saw_oscillator.h ****       float this_sample = next_sample;
 587              		.loc 4 83 16 view .LVU181
 588 0078 5A1C     		adds	r2, r3, #1
 589              	.LBB401:
 127:mi/plaits/dsp/oscillator/variable_saw_oscillator.h ****     }
 590              		.loc 4 127 36 view .LVU182
 591 007a A5EE815A 		vfma.f32	s10, s11, s2
 592              	.LBB278:
 593              	.LBB275:
 594              		.loc 4 146 50 view .LVU183
 595 007e A7EE837A 		vfma.f32	s14, s15, s6
 596              	.LVL26:
 597              		.loc 4 146 50 view .LVU184
 598              	.LBE275:
ARM GAS  /var/folders/9k/zk1mgrrd7wg4__6zvxvr9w8m0000gn/T//ccaaKoMx.s 			page 24


 599              	.LBE278:
 127:mi/plaits/dsp/oscillator/variable_saw_oscillator.h ****     }
 600              		.loc 4 127 44 view .LVU185
 601 0082 C5EE247A 		vdiv.f32	s15, s10, s9
 118:mi/plaits/dsp/oscillator/variable_saw_oscillator.h ****           phase_,
 602              		.loc 4 118 19 view .LVU186
 603 0086 76EE075A 		vadd.f32	s11, s12, s14
 604              	.LVL27:
 125:mi/plaits/dsp/oscillator/variable_saw_oscillator.h **** 
 605              		.loc 4 125 7 is_stmt 1 view .LVU187
 127:mi/plaits/dsp/oscillator/variable_saw_oscillator.h ****     }
 606              		.loc 4 127 7 view .LVU188
 127:mi/plaits/dsp/oscillator/variable_saw_oscillator.h ****     }
 607              		.loc 4 127 14 is_stmt 0 view .LVU189
 608 008a E1EC017A 		vstmia.32	r1!, {s15}
 609              	.LVL28:
 127:mi/plaits/dsp/oscillator/variable_saw_oscillator.h ****     }
 610              		.loc 4 127 14 view .LVU190
 611              	.LBE401:
  83:mi/plaits/dsp/oscillator/variable_saw_oscillator.h ****       float this_sample = next_sample;
 612              		.loc 4 83 5 is_stmt 1 view .LVU191
  83:mi/plaits/dsp/oscillator/variable_saw_oscillator.h ****       float this_sample = next_sample;
 613              		.loc 4 83 16 view .LVU192
  83:mi/plaits/dsp/oscillator/variable_saw_oscillator.h ****       float this_sample = next_sample;
 614              		.loc 4 83 16 is_stmt 0 view .LVU193
 615 008e 00F0C880 		beq	.L38
 616              	.LVL29:
 617              	.L21:
 618              	.LBB402:
  84:mi/plaits/dsp/oscillator/variable_saw_oscillator.h ****       next_sample = 0.0f;
 619              		.loc 4 84 7 is_stmt 1 view .LVU194
  85:mi/plaits/dsp/oscillator/variable_saw_oscillator.h ****     
 620              		.loc 4 85 7 view .LVU195
  87:mi/plaits/dsp/oscillator/variable_saw_oscillator.h ****       const float pw = pwm.Next();
 621              		.loc 4 87 7 view .LVU196
 622              	.LBB279:
 623              	.LBI279:
  57:mi/stmlib/dsp/parameter_interpolator.h ****   }
  58:mi/stmlib/dsp/parameter_interpolator.h **** 
  59:mi/stmlib/dsp/parameter_interpolator.h ****   inline float Next() {
 624              		.loc 6 59 16 view .LVU197
 625              	.LBB280:
  60:mi/stmlib/dsp/parameter_interpolator.h ****     value_ += increment_;
 626              		.loc 6 60 5 view .LVU198
 627              	.LBE280:
 628              	.LBE279:
  91:mi/plaits/dsp/oscillator/variable_saw_oscillator.h ****       const float slope_up = 1.0f / (pw);
 629              		.loc 4 91 19 is_stmt 0 view .LVU199
 630 0092 B7EE006A 		vmov.f32	s12, #1.0e+0
  95:mi/plaits/dsp/oscillator/variable_saw_oscillator.h ****       
 631              		.loc 4 95 14 view .LVU200
 632 0096 D0ED007A 		vldr.32	s15, [r0]
 633              	.LBB282:
 634              	.LBB283:
 635              		.loc 6 60 12 view .LVU201
 636 009a 76EE826A 		vadd.f32	s13, s13, s4
 637              	.LVL30:
ARM GAS  /var/folders/9k/zk1mgrrd7wg4__6zvxvr9w8m0000gn/T//ccaaKoMx.s 			page 25


 638              		.loc 6 60 12 view .LVU202
 639              	.LBE283:
 640              	.LBE282:
 641              	.LBB285:
  97:mi/plaits/dsp/oscillator/variable_saw_oscillator.h ****         const float triangle_step = (slope_up + slope_down) * frequency * triangle_amount;
 642              		.loc 4 97 7 view .LVU203
 643 009e 027B     		ldrb	r2, [r0, #12]	@ zero_extendqisi2
 644              	.LBE285:
 645              	.LBB391:
 646              	.LBB281:
 647              		.loc 6 60 12 view .LVU204
 648 00a0 73EEA13A 		vadd.f32	s7, s7, s3
 649              	.LVL31:
  61:mi/stmlib/dsp/parameter_interpolator.h ****     return value_;
 650              		.loc 6 61 5 is_stmt 1 view .LVU205
 651              		.loc 6 61 5 is_stmt 0 view .LVU206
 652              	.LBE281:
 653              	.LBE391:
  88:mi/plaits/dsp/oscillator/variable_saw_oscillator.h ****       const float waveshape = waveshape_modulation.Next();
 654              		.loc 4 88 7 is_stmt 1 view .LVU207
 655              	.LBB392:
 656              	.LBI282:
  59:mi/stmlib/dsp/parameter_interpolator.h ****     value_ += increment_;
 657              		.loc 6 59 16 view .LVU208
 658              	.LBB284:
  60:mi/stmlib/dsp/parameter_interpolator.h ****     return value_;
 659              		.loc 6 60 5 view .LVU209
 660              		.loc 6 61 5 view .LVU210
 661              		.loc 6 61 5 is_stmt 0 view .LVU211
 662              	.LBE284:
 663              	.LBE392:
  89:mi/plaits/dsp/oscillator/variable_saw_oscillator.h ****       const float triangle_amount = waveshape;
 664              		.loc 4 89 7 is_stmt 1 view .LVU212
 665              	.LBB393:
 666              	.LBI393:
  59:mi/stmlib/dsp/parameter_interpolator.h ****     value_ += increment_;
 667              		.loc 6 59 16 view .LVU213
 668              	.LBB394:
  60:mi/stmlib/dsp/parameter_interpolator.h ****     return value_;
 669              		.loc 6 60 5 view .LVU214
  60:mi/stmlib/dsp/parameter_interpolator.h ****     return value_;
 670              		.loc 6 60 12 is_stmt 0 view .LVU215
 671 00a4 34EE224A 		vadd.f32	s8, s8, s5
 672              	.LVL32:
 673              		.loc 6 61 5 is_stmt 1 view .LVU216
 674              		.loc 6 61 5 is_stmt 0 view .LVU217
 675              	.LBE394:
 676              	.LBE393:
  90:mi/plaits/dsp/oscillator/variable_saw_oscillator.h ****       const float notch_amount = 1.0f - waveshape;
 677              		.loc 4 90 7 is_stmt 1 view .LVU218
  91:mi/plaits/dsp/oscillator/variable_saw_oscillator.h ****       const float slope_up = 1.0f / (pw);
 678              		.loc 4 91 7 view .LVU219
  93:mi/plaits/dsp/oscillator/variable_saw_oscillator.h **** 
 679              		.loc 4 93 45 is_stmt 0 view .LVU220
 680 00a8 36EE665A 		vsub.f32	s10, s12, s13
  95:mi/plaits/dsp/oscillator/variable_saw_oscillator.h ****       
 681              		.loc 4 95 14 view .LVU221
ARM GAS  /var/folders/9k/zk1mgrrd7wg4__6zvxvr9w8m0000gn/T//ccaaKoMx.s 			page 26


 682 00ac 73EEA77A 		vadd.f32	s15, s7, s15
  92:mi/plaits/dsp/oscillator/variable_saw_oscillator.h ****       const float slope_down = 1.0f / (1.0f - pw);
 683              		.loc 4 92 19 view .LVU222
 684 00b0 86EE267A 		vdiv.f32	s14, s12, s13
  95:mi/plaits/dsp/oscillator/variable_saw_oscillator.h ****       
 685              		.loc 4 95 14 view .LVU223
 686 00b4 C0ED007A 		vstr.32	s15, [r0]
  93:mi/plaits/dsp/oscillator/variable_saw_oscillator.h **** 
 687              		.loc 4 93 19 view .LVU224
 688 00b8 86EE050A 		vdiv.f32	s0, s12, s10
  91:mi/plaits/dsp/oscillator/variable_saw_oscillator.h ****       const float slope_up = 1.0f / (pw);
 689              		.loc 4 91 19 view .LVU225
 690 00bc 36EE443A 		vsub.f32	s6, s12, s8
 691              	.LVL33:
  92:mi/plaits/dsp/oscillator/variable_saw_oscillator.h ****       const float slope_down = 1.0f / (1.0f - pw);
 692              		.loc 4 92 7 is_stmt 1 view .LVU226
  93:mi/plaits/dsp/oscillator/variable_saw_oscillator.h **** 
 693              		.loc 4 93 7 view .LVU227
  95:mi/plaits/dsp/oscillator/variable_saw_oscillator.h ****       
 694              		.loc 4 95 7 view .LVU228
  97:mi/plaits/dsp/oscillator/variable_saw_oscillator.h ****         const float triangle_step = (slope_up + slope_down) * frequency * triangle_amount;
 695              		.loc 4 97 7 view .LVU229
 696              	.LBB395:
 697 00c0 002A     		cmp	r2, #0
 698 00c2 5FD1     		bne	.L14
  97:mi/plaits/dsp/oscillator/variable_saw_oscillator.h ****         const float triangle_step = (slope_up + slope_down) * frequency * triangle_amount;
 699              		.loc 4 97 18 is_stmt 0 discriminator 1 view .LVU230
 700 00c4 F4EEE67A 		vcmpe.f32	s15, s13
 701 00c8 F1EE10FA 		vmrs	APSR_nzcv, FPSCR
 702 00cc 5ADB     		blt	.L14
 703              	.LBB286:
  98:mi/plaits/dsp/oscillator/variable_saw_oscillator.h ****         const float notch = (kVariableSawNotchDepth + 1.0f - pw) * notch_amount;
 704              		.loc 4 98 9 is_stmt 1 view .LVU231
 100:mi/plaits/dsp/oscillator/variable_saw_oscillator.h ****         this_sample += notch * stmlib::ThisBlepSample(t);
 705              		.loc 4 100 55 is_stmt 0 view .LVU232
 706 00ce D0ED028A 		vldr.32	s17, [r0, #8]
 100:mi/plaits/dsp/oscillator/variable_saw_oscillator.h ****         this_sample += notch * stmlib::ThisBlepSample(t);
 707              		.loc 4 100 33 view .LVU233
 708 00d2 77EEE6AA 		vsub.f32	s21, s15, s13
 709              	.LBB287:
 710              	.LBB288:
 711              		.file 7 "mi/stmlib/dsp/polyblep.h"
   1:mi/stmlib/dsp/polyblep.h **** // Copyright 2017 Emilie Gillet.
   2:mi/stmlib/dsp/polyblep.h **** //
   3:mi/stmlib/dsp/polyblep.h **** // Author: Emilie Gillet (emilie.o.gillet@gmail.com)
   4:mi/stmlib/dsp/polyblep.h **** //
   5:mi/stmlib/dsp/polyblep.h **** // Permission is hereby granted, free of charge, to any person obtaining a copy
   6:mi/stmlib/dsp/polyblep.h **** // of this software and associated documentation files (the "Software"), to deal
   7:mi/stmlib/dsp/polyblep.h **** // in the Software without restriction, including without limitation the rights
   8:mi/stmlib/dsp/polyblep.h **** // to use, copy, modify, merge, publish, distribute, sublicense, and/or sell
   9:mi/stmlib/dsp/polyblep.h **** // copies of the Software, and to permit persons to whom the Software is
  10:mi/stmlib/dsp/polyblep.h **** // furnished to do so, subject to the following conditions:
  11:mi/stmlib/dsp/polyblep.h **** // 
  12:mi/stmlib/dsp/polyblep.h **** // The above copyright notice and this permission notice shall be included in
  13:mi/stmlib/dsp/polyblep.h **** // all copies or substantial portions of the Software.
  14:mi/stmlib/dsp/polyblep.h **** // 
  15:mi/stmlib/dsp/polyblep.h **** // THE SOFTWARE IS PROVIDED "AS IS", WITHOUT WARRANTY OF ANY KIND, EXPRESS OR
ARM GAS  /var/folders/9k/zk1mgrrd7wg4__6zvxvr9w8m0000gn/T//ccaaKoMx.s 			page 27


  16:mi/stmlib/dsp/polyblep.h **** // IMPLIED, INCLUDING BUT NOT LIMITED TO THE WARRANTIES OF MERCHANTABILITY,
  17:mi/stmlib/dsp/polyblep.h **** // FITNESS FOR A PARTICULAR PURPOSE AND NONINFRINGEMENT. IN NO EVENT SHALL THE
  18:mi/stmlib/dsp/polyblep.h **** // AUTHORS OR COPYRIGHT HOLDERS BE LIABLE FOR ANY CLAIM, DAMAGES OR OTHER
  19:mi/stmlib/dsp/polyblep.h **** // LIABILITY, WHETHER IN AN ACTION OF CONTRACT, TORT OR OTHERWISE, ARISING FROM,
  20:mi/stmlib/dsp/polyblep.h **** // OUT OF OR IN CONNECTION WITH THE SOFTWARE OR THE USE OR OTHER DEALINGS IN
  21:mi/stmlib/dsp/polyblep.h **** // THE SOFTWARE.
  22:mi/stmlib/dsp/polyblep.h **** // 
  23:mi/stmlib/dsp/polyblep.h **** // See http://creativecommons.org/licenses/MIT/ for more information.
  24:mi/stmlib/dsp/polyblep.h **** //
  25:mi/stmlib/dsp/polyblep.h **** // -----------------------------------------------------------------------------
  26:mi/stmlib/dsp/polyblep.h **** //
  27:mi/stmlib/dsp/polyblep.h **** // Polynomial approximation of band-limited step for band-limited waveform
  28:mi/stmlib/dsp/polyblep.h **** // synthesis.
  29:mi/stmlib/dsp/polyblep.h **** 
  30:mi/stmlib/dsp/polyblep.h **** #ifndef STMLIB_DSP_POLYBLEP_H_
  31:mi/stmlib/dsp/polyblep.h **** #define STMLIB_DSP_POLYBLEP_H_
  32:mi/stmlib/dsp/polyblep.h **** 
  33:mi/stmlib/dsp/polyblep.h **** #include "stmlib/stmlib.h"
  34:mi/stmlib/dsp/polyblep.h **** 
  35:mi/stmlib/dsp/polyblep.h **** namespace stmlib {
  36:mi/stmlib/dsp/polyblep.h **** 
  37:mi/stmlib/dsp/polyblep.h **** inline float ThisBlepSample(float t) {
  38:mi/stmlib/dsp/polyblep.h ****   return 0.5f * t * t;
 712              		.loc 7 38 15 view .LVU234
 713 00d6 B6EE008A 		vmov.f32	s16, #5.0e-1
 714              	.LBE288:
 715              	.LBE287:
  99:mi/plaits/dsp/oscillator/variable_saw_oscillator.h ****         const float t = (phase_ - pw) / (previous_pw_ - pw + frequency);
 716              		.loc 4 99 60 view .LVU235
 717 00da DFED640A 		vldr.32	s1, .L40
 100:mi/plaits/dsp/oscillator/variable_saw_oscillator.h ****         this_sample += notch * stmlib::ThisBlepSample(t);
 718              		.loc 4 100 55 view .LVU236
 719 00de 78EEE68A 		vsub.f32	s17, s17, s13
 102:mi/plaits/dsp/oscillator/variable_saw_oscillator.h ****         this_sample -= triangle_step * stmlib::ThisIntegratedBlepSample(t);
 720              		.loc 4 102 21 view .LVU237
 721 00e2 9FED635A 		vldr.32	s10, .L40+4
 722              	.LBB292:
 723              	.LBB293:
 724              	.LBB294:
  39:mi/stmlib/dsp/polyblep.h **** }
  40:mi/stmlib/dsp/polyblep.h **** 
  41:mi/stmlib/dsp/polyblep.h **** inline float NextBlepSample(float t) {
  42:mi/stmlib/dsp/polyblep.h ****   t = 1.0f - t;
  43:mi/stmlib/dsp/polyblep.h ****   return -0.5f * t * t;
  44:mi/stmlib/dsp/polyblep.h **** }
  45:mi/stmlib/dsp/polyblep.h **** 
  46:mi/stmlib/dsp/polyblep.h **** inline float NextIntegratedBlepSample(float t) {
  47:mi/stmlib/dsp/polyblep.h ****   const float t1 = 0.5f * t;
  48:mi/stmlib/dsp/polyblep.h ****   const float t2 = t1 * t1;
  49:mi/stmlib/dsp/polyblep.h ****   const float t4 = t2 * t2;
  50:mi/stmlib/dsp/polyblep.h ****   return 0.1875f - t1 + 1.5f * t2 - t4;
 725              		.loc 7 50 18 view .LVU238
 726 00e6 F4EE084A 		vmov.f32	s9, #1.875e-1
 727              	.LBE294:
 728              	.LBE293:
 729              	.LBE292:
 105:mi/plaits/dsp/oscillator/variable_saw_oscillator.h ****       } else if (phase_ >= 1.0f) {
ARM GAS  /var/folders/9k/zk1mgrrd7wg4__6zvxvr9w8m0000gn/T//ccaaKoMx.s 			page 28


 730              		.loc 4 105 15 view .LVU239
 731 00ea 0122     		movs	r2, #1
 732              	.LBB307:
 733              	.LBB301:
 734              	.LBB295:
 735              		.loc 7 50 23 view .LVU240
 736 00ec B7EE08AA 		vmov.f32	s20, #1.5e+0
 737              	.LBE295:
 738              	.LBE301:
 739              	.LBE307:
 100:mi/plaits/dsp/oscillator/variable_saw_oscillator.h ****         this_sample += notch * stmlib::ThisBlepSample(t);
 740              		.loc 4 100 60 view .LVU241
 741 00f0 78EEA38A 		vadd.f32	s17, s17, s7
 105:mi/plaits/dsp/oscillator/variable_saw_oscillator.h ****       } else if (phase_ >= 1.0f) {
 742              		.loc 4 105 15 view .LVU242
 743 00f4 0273     		strb	r2, [r0, #12]
 744              	.LBB308:
 745              	.LBB309:
  43:mi/stmlib/dsp/polyblep.h **** }
 746              		.loc 7 43 16 view .LVU243
 747 00f6 BEEE009A 		vmov.f32	s18, #-5.0e-1
 748              	.LBE309:
 749              	.LBE308:
  99:mi/plaits/dsp/oscillator/variable_saw_oscillator.h ****         const float t = (phase_ - pw) / (previous_pw_ - pw + frequency);
 750              		.loc 4 99 60 view .LVU244
 751 00fa 70EEE60A 		vsub.f32	s1, s1, s13
 100:mi/plaits/dsp/oscillator/variable_saw_oscillator.h ****         this_sample += notch * stmlib::ThisBlepSample(t);
 752              		.loc 4 100 21 view .LVU245
 753 00fe CAEEA89A 		vdiv.f32	s19, s21, s17
  99:mi/plaits/dsp/oscillator/variable_saw_oscillator.h ****         const float t = (phase_ - pw) / (previous_pw_ - pw + frequency);
 754              		.loc 4 99 21 view .LVU246
 755 0102 60EE830A 		vmul.f32	s1, s1, s6
  98:mi/plaits/dsp/oscillator/variable_saw_oscillator.h ****         const float notch = (kVariableSawNotchDepth + 1.0f - pw) * notch_amount;
 756              		.loc 4 98 47 view .LVU247
 757 0106 37EE001A 		vadd.f32	s2, s14, s0
  98:mi/plaits/dsp/oscillator/variable_saw_oscillator.h ****         const float notch = (kVariableSawNotchDepth + 1.0f - pw) * notch_amount;
 758              		.loc 4 98 61 view .LVU248
 759 010a 21EE231A 		vmul.f32	s2, s2, s7
 760              	.LVL34:
  99:mi/plaits/dsp/oscillator/variable_saw_oscillator.h ****         const float t = (phase_ - pw) / (previous_pw_ - pw + frequency);
 761              		.loc 4 99 9 is_stmt 1 view .LVU249
 100:mi/plaits/dsp/oscillator/variable_saw_oscillator.h ****         this_sample += notch * stmlib::ThisBlepSample(t);
 762              		.loc 4 100 9 view .LVU250
 101:mi/plaits/dsp/oscillator/variable_saw_oscillator.h ****         next_sample += notch * stmlib::NextBlepSample(t);
 763              		.loc 4 101 9 view .LVU251
 764              	.LBB314:
 765              	.LBI287:
  37:mi/stmlib/dsp/polyblep.h ****   return 0.5f * t * t;
 766              		.loc 7 37 14 view .LVU252
 767              	.LBB289:
  38:mi/stmlib/dsp/polyblep.h **** }
 768              		.loc 7 38 3 view .LVU253
 769              	.LBE289:
 770              	.LBE314:
 103:mi/plaits/dsp/oscillator/variable_saw_oscillator.h ****         next_sample -= triangle_step * stmlib::NextIntegratedBlepSample(t);
 771              		.loc 4 103 21 is_stmt 0 view .LVU254
 772 010e 24EE411A 		vnmul.f32	s2, s8, s2
ARM GAS  /var/folders/9k/zk1mgrrd7wg4__6zvxvr9w8m0000gn/T//ccaaKoMx.s 			page 29


 773              	.LVL35:
 774              	.LBB315:
 775              	.LBB310:
  42:mi/stmlib/dsp/polyblep.h ****   return -0.5f * t * t;
 776              		.loc 7 42 5 view .LVU255
 777 0112 36EE696A 		vsub.f32	s12, s12, s19
 778              	.LBE310:
 779              	.LBE315:
 780              	.LBB316:
 781              	.LBB290:
  38:mi/stmlib/dsp/polyblep.h **** }
 782              		.loc 7 38 15 view .LVU256
 783 0116 69EE88AA 		vmul.f32	s21, s19, s16
 784              	.LVL36:
  38:mi/stmlib/dsp/polyblep.h **** }
 785              		.loc 7 38 15 view .LVU257
 786              	.LBE290:
 787              	.LBE316:
 788              	.LBB317:
 789              	.LBB302:
 790              	.LBB296:
  47:mi/stmlib/dsp/polyblep.h ****   const float t2 = t1 * t1;
 791              		.loc 7 47 15 view .LVU258
 792 011a 26EE088A 		vmul.f32	s16, s12, s16
 793              	.LBE296:
 794              	.LBE302:
 795              	.LBE317:
 796              	.LBB318:
 797              	.LBB319:
 798              		.loc 7 50 18 view .LVU259
 799 011e 74EEEA8A 		vsub.f32	s17, s9, s21
  48:mi/stmlib/dsp/polyblep.h ****   const float t4 = t2 * t2;
 800              		.loc 7 48 15 view .LVU260
 801 0122 2AEEAABA 		vmul.f32	s22, s21, s21
 802              	.LBE319:
 803              	.LBE318:
 804              	.LBB325:
 805              	.LBB291:
  38:mi/stmlib/dsp/polyblep.h **** }
 806              		.loc 7 38 21 view .LVU261
 807 0126 69EEAA9A 		vmul.f32	s19, s19, s21
 808              	.LVL37:
  38:mi/stmlib/dsp/polyblep.h **** }
 809              		.loc 7 38 21 view .LVU262
 810              	.LBE291:
 811              	.LBE325:
 812              	.LBB326:
 813              	.LBB303:
 814              	.LBB297:
 815              		.loc 7 50 18 view .LVU263
 816 012a 74EEC84A 		vsub.f32	s9, s9, s16
  48:mi/stmlib/dsp/polyblep.h ****   const float t4 = t2 * t2;
 817              		.loc 7 48 15 view .LVU264
 818 012e 68EE08AA 		vmul.f32	s21, s16, s16
 819              	.LBE297:
 820              	.LBE303:
 821              	.LBE326:
ARM GAS  /var/folders/9k/zk1mgrrd7wg4__6zvxvr9w8m0000gn/T//ccaaKoMx.s 			page 30


 822              	.LBB327:
 823              	.LBB320:
 824              		.loc 7 50 23 view .LVU265
 825 0132 B0EE688A 		vmov.f32	s16, s17
 826              	.LBE320:
 827              	.LBE327:
 828              	.LBB328:
 829              	.LBB311:
  43:mi/stmlib/dsp/polyblep.h **** }
 830              		.loc 7 43 16 view .LVU266
 831 0136 26EE099A 		vmul.f32	s18, s12, s18
 832              	.LBE311:
 833              	.LBE328:
 834              	.LBB329:
 835              	.LBB304:
 836              	.LBB298:
 837              		.loc 7 50 23 view .LVU267
 838 013a EAEE8A4A 		vfma.f32	s9, s21, s20
 839              	.LBE298:
 840              	.LBE304:
 841              	.LBE329:
 842              	.LBB330:
 843              	.LBB321:
 844 013e ABEE0A8A 		vfma.f32	s16, s22, s20
 845              	.LBE321:
 846              	.LBE330:
 847              	.LBB331:
 848              	.LBB312:
  43:mi/stmlib/dsp/polyblep.h **** }
 849              		.loc 7 43 22 view .LVU268
 850 0142 69EE068A 		vmul.f32	s17, s18, s12
 851              	.LBE312:
 852              	.LBE331:
 102:mi/plaits/dsp/oscillator/variable_saw_oscillator.h ****         this_sample -= triangle_step * stmlib::ThisIntegratedBlepSample(t);
 853              		.loc 4 102 21 view .LVU269
 854 0146 B0EE456A 		vmov.f32	s12, s10
 101:mi/plaits/dsp/oscillator/variable_saw_oscillator.h ****         next_sample += notch * stmlib::NextBlepSample(t);
 855              		.loc 4 101 21 view .LVU270
 856 014a E0EEA95A 		vfma.f32	s11, s1, s19
 857              	.LVL38:
 102:mi/plaits/dsp/oscillator/variable_saw_oscillator.h ****         this_sample -= triangle_step * stmlib::ThisIntegratedBlepSample(t);
 858              		.loc 4 102 9 is_stmt 1 view .LVU271
 859              	.LBB332:
 860              	.LBI308:
  41:mi/stmlib/dsp/polyblep.h ****   t = 1.0f - t;
 861              		.loc 7 41 14 view .LVU272
 862              	.LBB313:
  42:mi/stmlib/dsp/polyblep.h ****   return -0.5f * t * t;
 863              		.loc 7 42 3 view .LVU273
  43:mi/stmlib/dsp/polyblep.h **** }
 864              		.loc 7 43 3 view .LVU274
  43:mi/stmlib/dsp/polyblep.h **** }
 865              		.loc 7 43 3 is_stmt 0 view .LVU275
 866              	.LBE313:
 867              	.LBE332:
 102:mi/plaits/dsp/oscillator/variable_saw_oscillator.h ****         this_sample -= triangle_step * stmlib::ThisIntegratedBlepSample(t);
 868              		.loc 4 102 21 view .LVU276
ARM GAS  /var/folders/9k/zk1mgrrd7wg4__6zvxvr9w8m0000gn/T//ccaaKoMx.s 			page 31


 869 014e A0EEA86A 		vfma.f32	s12, s1, s17
 870              	.LVL39:
 103:mi/plaits/dsp/oscillator/variable_saw_oscillator.h ****         next_sample -= triangle_step * stmlib::NextIntegratedBlepSample(t);
 871              		.loc 4 103 9 is_stmt 1 view .LVU277
 872              	.LBB333:
 873              	.LBI292:
  51:mi/stmlib/dsp/polyblep.h **** }
  52:mi/stmlib/dsp/polyblep.h **** 
  53:mi/stmlib/dsp/polyblep.h **** inline float ThisIntegratedBlepSample(float t) {
 874              		.loc 7 53 14 view .LVU278
 875              	.LBE333:
 876              	.LBE286:
 877              	.LBE395:
 878              	.LBE402:
  54:mi/stmlib/dsp/polyblep.h ****   return NextIntegratedBlepSample(1.0f - t);
 879              		.loc 7 54 3 view .LVU279
 880              	.LBB403:
 881              	.LBB396:
 882              	.LBB339:
 883              	.LBB334:
 884              	.LBB305:
 885              	.LBI293:
  46:mi/stmlib/dsp/polyblep.h ****   const float t1 = 0.5f * t;
 886              		.loc 7 46 14 view .LVU280
 887              	.LBB299:
  47:mi/stmlib/dsp/polyblep.h ****   const float t2 = t1 * t1;
 888              		.loc 7 47 3 view .LVU281
  48:mi/stmlib/dsp/polyblep.h ****   const float t4 = t2 * t2;
 889              		.loc 7 48 3 view .LVU282
  49:mi/stmlib/dsp/polyblep.h ****   return 0.1875f - t1 + 1.5f * t2 - t4;
 890              		.loc 7 49 3 view .LVU283
  50:mi/stmlib/dsp/polyblep.h **** }
 891              		.loc 7 50 3 view .LVU284
 892              	.LBE299:
 893              	.LBE305:
 894              	.LBE334:
 895              	.LBB335:
 896              	.LBB322:
  50:mi/stmlib/dsp/polyblep.h **** }
 897              		.loc 7 50 37 is_stmt 0 view .LVU285
 898 0152 B0EE485A 		vmov.f32	s10, s16
 899              	.LBE322:
 900              	.LBE335:
 901              	.LBB336:
 902              	.LBB306:
 903              	.LBB300:
 904 0156 EAEEEA4A 		vfms.f32	s9, s21, s21
 905              	.LVL40:
  50:mi/stmlib/dsp/polyblep.h **** }
 906              		.loc 7 50 37 view .LVU286
 907              	.LBE300:
 908              	.LBE306:
 909              	.LBE336:
 910              	.LBB337:
 911              	.LBB323:
 912 015a ABEE4B5A 		vfms.f32	s10, s22, s22
 913              	.LBE323:
ARM GAS  /var/folders/9k/zk1mgrrd7wg4__6zvxvr9w8m0000gn/T//ccaaKoMx.s 			page 32


 914              	.LBE337:
 103:mi/plaits/dsp/oscillator/variable_saw_oscillator.h ****         next_sample -= triangle_step * stmlib::NextIntegratedBlepSample(t);
 915              		.loc 4 103 21 view .LVU287
 916 015e E1EE245A 		vfma.f32	s11, s2, s9
 917              	.LVL41:
 104:mi/plaits/dsp/oscillator/variable_saw_oscillator.h ****         high_ = true;
 918              		.loc 4 104 9 is_stmt 1 view .LVU288
 919              	.LBB338:
 920              	.LBI318:
  46:mi/stmlib/dsp/polyblep.h ****   const float t1 = 0.5f * t;
 921              		.loc 7 46 14 view .LVU289
 922              	.LBB324:
  47:mi/stmlib/dsp/polyblep.h ****   const float t2 = t1 * t1;
 923              		.loc 7 47 3 view .LVU290
  48:mi/stmlib/dsp/polyblep.h ****   const float t4 = t2 * t2;
 924              		.loc 7 48 3 view .LVU291
  49:mi/stmlib/dsp/polyblep.h ****   return 0.1875f - t1 + 1.5f * t2 - t4;
 925              		.loc 7 49 3 view .LVU292
  50:mi/stmlib/dsp/polyblep.h **** }
 926              		.loc 7 50 3 view .LVU293
  50:mi/stmlib/dsp/polyblep.h **** }
 927              		.loc 7 50 3 is_stmt 0 view .LVU294
 928              	.LBE324:
 929              	.LBE338:
 104:mi/plaits/dsp/oscillator/variable_saw_oscillator.h ****         high_ = true;
 930              		.loc 4 104 21 view .LVU295
 931 0162 A1EE056A 		vfma.f32	s12, s2, s10
 932              	.LVL42:
 105:mi/plaits/dsp/oscillator/variable_saw_oscillator.h ****       } else if (phase_ >= 1.0f) {
 933              		.loc 4 105 9 is_stmt 1 view .LVU296
 934              	.L16:
 105:mi/plaits/dsp/oscillator/variable_saw_oscillator.h ****       } else if (phase_ >= 1.0f) {
 935              		.loc 4 105 9 is_stmt 0 view .LVU297
 936              	.LBE339:
 937              	.LBE396:
 118:mi/plaits/dsp/oscillator/variable_saw_oscillator.h ****           phase_,
 938              		.loc 4 118 7 is_stmt 1 view .LVU298
 939              	.LBB397:
 940              	.LBI272:
 135:mi/plaits/dsp/oscillator/variable_saw_oscillator.h ****       float phase,
 941              		.loc 4 135 16 view .LVU299
 942              	.LBB276:
 142:mi/plaits/dsp/oscillator/variable_saw_oscillator.h ****     float triangle = phase < pw
 943              		.loc 4 142 5 view .LVU300
 142:mi/plaits/dsp/oscillator/variable_saw_oscillator.h ****     float triangle = phase < pw
 944              		.loc 4 142 34 is_stmt 0 view .LVU301
 945 0166 F4EEE76A 		vcmpe.f32	s13, s15
 946 016a F1EE10FA 		vmrs	APSR_nzcv, FPSCR
 947 016e 3FF776AF 		bgt	.L39
 948              	.LVL43:
 143:mi/plaits/dsp/oscillator/variable_saw_oscillator.h ****         ? phase * slope_up
 949              		.loc 4 143 5 is_stmt 1 view .LVU302
 145:mi/plaits/dsp/oscillator/variable_saw_oscillator.h ****     return notch_saw * notch_amount + triangle * triangle_amount;
 950              		.loc 4 145 25 is_stmt 0 view .LVU303
 951 0172 37EEE65A 		vsub.f32	s10, s15, s13
 142:mi/plaits/dsp/oscillator/variable_saw_oscillator.h ****     float triangle = phase < pw
 952              		.loc 4 142 34 view .LVU304
ARM GAS  /var/folders/9k/zk1mgrrd7wg4__6zvxvr9w8m0000gn/T//ccaaKoMx.s 			page 33


 953 0176 DFED3D7A 		vldr.32	s15, .L40
 144:mi/plaits/dsp/oscillator/variable_saw_oscillator.h ****         : 1.0f - (phase - pw) * slope_down;
 954              		.loc 4 144 9 view .LVU305
 955 017a B7EE007A 		vmov.f32	s14, #1.0e+0
 956              	.LVL44:
 144:mi/plaits/dsp/oscillator/variable_saw_oscillator.h ****         : 1.0f - (phase - pw) * slope_down;
 957              		.loc 4 144 9 view .LVU306
 958 017e A0EE457A 		vfms.f32	s14, s0, s10
 959              	.LVL45:
 144:mi/plaits/dsp/oscillator/variable_saw_oscillator.h ****         : 1.0f - (phase - pw) * slope_down;
 960              		.loc 4 144 9 view .LVU307
 961 0182 6EE7     		b	.L20
 962              	.LVL46:
 963              	.L14:
 144:mi/plaits/dsp/oscillator/variable_saw_oscillator.h ****         : 1.0f - (phase - pw) * slope_down;
 964              		.loc 4 144 9 view .LVU308
 965              	.LBE276:
 966              	.LBE397:
 967              	.LBE403:
 106:mi/plaits/dsp/oscillator/variable_saw_oscillator.h ****         phase_ -= 1.0f;
 968              		.loc 4 106 14 is_stmt 1 view .LVU309
 969              	.LBB404:
 970              	.LBB398:
 971              	.LBB340:
 972 0184 B7EE005A 		vmov.f32	s10, #1.0e+0
 973 0188 F4EEC57A 		vcmpe.f32	s15, s10
 974 018c F1EE10FA 		vmrs	APSR_nzcv, FPSCR
 975 0190 44DB     		blt	.L32
 976              	.LBB341:
 107:mi/plaits/dsp/oscillator/variable_saw_oscillator.h ****         const float triangle_step = (slope_up + slope_down) * frequency * triangle_amount;
 977              		.loc 4 107 9 view .LVU310
 107:mi/plaits/dsp/oscillator/variable_saw_oscillator.h ****         const float triangle_step = (slope_up + slope_down) * frequency * triangle_amount;
 978              		.loc 4 107 16 is_stmt 0 view .LVU311
 979 0192 77EEC57A 		vsub.f32	s15, s15, s10
 109:mi/plaits/dsp/oscillator/variable_saw_oscillator.h ****         const float t = phase_ / frequency;
 980              		.loc 4 109 21 view .LVU312
 981 0196 DFED359A 		vldr.32	s19, .L40
 982              	.LBB342:
 983              	.LBB343:
  38:mi/stmlib/dsp/polyblep.h **** }
 984              		.loc 7 38 15 view .LVU313
 985 019a F6EE000A 		vmov.f32	s1, #5.0e-1
 986              	.LBE343:
 987              	.LBE342:
 112:mi/plaits/dsp/oscillator/variable_saw_oscillator.h ****         this_sample += triangle_step * stmlib::ThisIntegratedBlepSample(t);
 988              		.loc 4 112 21 view .LVU314
 989 019e 9FED346A 		vldr.32	s12, .L40+4
 990              	.LBB346:
 991              	.LBB347:
 992              	.LBB348:
  50:mi/stmlib/dsp/polyblep.h **** }
 993              		.loc 7 50 18 view .LVU315
 994 01a2 F4EE084A 		vmov.f32	s9, #1.875e-1
 995              	.LBE348:
 996              	.LBE347:
 997              	.LBE346:
 115:mi/plaits/dsp/oscillator/variable_saw_oscillator.h ****       }
ARM GAS  /var/folders/9k/zk1mgrrd7wg4__6zvxvr9w8m0000gn/T//ccaaKoMx.s 			page 34


 998              		.loc 4 115 15 view .LVU316
 999 01a6 0022     		movs	r2, #0
 110:mi/plaits/dsp/oscillator/variable_saw_oscillator.h ****         this_sample -= notch * stmlib::ThisBlepSample(t);
 1000              		.loc 4 110 21 view .LVU317
 1001 01a8 87EEA39A 		vdiv.f32	s18, s15, s7
 107:mi/plaits/dsp/oscillator/variable_saw_oscillator.h ****         const float triangle_step = (slope_up + slope_down) * frequency * triangle_amount;
 1002              		.loc 4 107 16 view .LVU318
 1003 01ac C0ED007A 		vstr.32	s15, [r0]
 115:mi/plaits/dsp/oscillator/variable_saw_oscillator.h ****       }
 1004              		.loc 4 115 15 view .LVU319
 1005 01b0 0273     		strb	r2, [r0, #12]
 1006              	.LBB359:
 1007              	.LBB354:
 1008              	.LBB349:
  50:mi/stmlib/dsp/polyblep.h **** }
 1009              		.loc 7 50 23 view .LVU320
 1010 01b2 B7EE08AA 		vmov.f32	s20, #1.5e+0
 1011              	.LBE349:
 1012              	.LBE354:
 1013              	.LBE359:
 1014              	.LBB360:
 1015              	.LBB361:
  43:mi/stmlib/dsp/polyblep.h **** }
 1016              		.loc 7 43 16 view .LVU321
 1017 01b6 FEEE008A 		vmov.f32	s17, #-5.0e-1
 1018              	.LBE361:
 1019              	.LBE360:
 111:mi/plaits/dsp/oscillator/variable_saw_oscillator.h ****         next_sample -= notch * stmlib::NextBlepSample(t);
 1020              		.loc 4 111 21 view .LVU322
 1021 01ba 69EEC39A 		vnmul.f32	s19, s19, s6
 108:mi/plaits/dsp/oscillator/variable_saw_oscillator.h ****         const float notch = (kVariableSawNotchDepth + 1.0f) * notch_amount;
 1022              		.loc 4 108 47 view .LVU323
 1023 01be 37EE001A 		vadd.f32	s2, s14, s0
 108:mi/plaits/dsp/oscillator/variable_saw_oscillator.h ****         const float notch = (kVariableSawNotchDepth + 1.0f) * notch_amount;
 1024              		.loc 4 108 9 is_stmt 1 view .LVU324
 108:mi/plaits/dsp/oscillator/variable_saw_oscillator.h ****         const float notch = (kVariableSawNotchDepth + 1.0f) * notch_amount;
 1025              		.loc 4 108 61 is_stmt 0 view .LVU325
 1026 01c2 21EE231A 		vmul.f32	s2, s2, s7
 108:mi/plaits/dsp/oscillator/variable_saw_oscillator.h ****         const float notch = (kVariableSawNotchDepth + 1.0f) * notch_amount;
 1027              		.loc 4 108 21 view .LVU326
 1028 01c6 21EE041A 		vmul.f32	s2, s2, s8
 1029              	.LVL47:
 109:mi/plaits/dsp/oscillator/variable_saw_oscillator.h ****         const float t = phase_ / frequency;
 1030              		.loc 4 109 9 is_stmt 1 view .LVU327
 110:mi/plaits/dsp/oscillator/variable_saw_oscillator.h ****         this_sample -= notch * stmlib::ThisBlepSample(t);
 1031              		.loc 4 110 9 view .LVU328
 111:mi/plaits/dsp/oscillator/variable_saw_oscillator.h ****         next_sample -= notch * stmlib::NextBlepSample(t);
 1032              		.loc 4 111 9 view .LVU329
 1033              	.LBB366:
 1034              	.LBI342:
  37:mi/stmlib/dsp/polyblep.h ****   return 0.5f * t * t;
 1035              		.loc 7 37 14 view .LVU330
 1036              	.LBB344:
  38:mi/stmlib/dsp/polyblep.h **** }
 1037              		.loc 7 38 3 view .LVU331
  38:mi/stmlib/dsp/polyblep.h **** }
 1038              		.loc 7 38 15 is_stmt 0 view .LVU332
ARM GAS  /var/folders/9k/zk1mgrrd7wg4__6zvxvr9w8m0000gn/T//ccaaKoMx.s 			page 35


 1039 01ca 69EE20AA 		vmul.f32	s21, s18, s1
 1040              	.LVL48:
  38:mi/stmlib/dsp/polyblep.h **** }
 1041              		.loc 7 38 15 view .LVU333
 1042              	.LBE344:
 1043              	.LBE366:
 1044              	.LBB367:
 1045              	.LBB362:
  42:mi/stmlib/dsp/polyblep.h ****   return -0.5f * t * t;
 1046              		.loc 7 42 5 view .LVU334
 1047 01ce 35EE495A 		vsub.f32	s10, s10, s18
 1048              	.LBE362:
 1049              	.LBE367:
 1050              	.LBB368:
 1051              	.LBB369:
  50:mi/stmlib/dsp/polyblep.h **** }
 1052              		.loc 7 50 18 view .LVU335
 1053 01d2 34EEEA8A 		vsub.f32	s16, s9, s21
 1054              	.LBE369:
 1055              	.LBE368:
 1056              	.LBB375:
 1057              	.LBB355:
 1058              	.LBB350:
  47:mi/stmlib/dsp/polyblep.h ****   const float t2 = t1 * t1;
 1059              		.loc 7 47 15 view .LVU336
 1060 01d6 65EE200A 		vmul.f32	s1, s10, s1
 1061              	.LBE350:
 1062              	.LBE355:
 1063              	.LBE375:
 1064              	.LBB376:
 1065              	.LBB370:
  48:mi/stmlib/dsp/polyblep.h ****   const float t4 = t2 * t2;
 1066              		.loc 7 48 15 view .LVU337
 1067 01da 2AEEAABA 		vmul.f32	s22, s21, s21
 1068              	.LBE370:
 1069              	.LBE376:
 1070              	.LBB377:
 1071              	.LBB345:
  38:mi/stmlib/dsp/polyblep.h **** }
 1072              		.loc 7 38 21 view .LVU338
 1073 01de 29EE2A9A 		vmul.f32	s18, s18, s21
 1074              	.LVL49:
  38:mi/stmlib/dsp/polyblep.h **** }
 1075              		.loc 7 38 21 view .LVU339
 1076              	.LBE345:
 1077              	.LBE377:
 1078              	.LBB378:
 1079              	.LBB356:
 1080              	.LBB351:
  50:mi/stmlib/dsp/polyblep.h **** }
 1081              		.loc 7 50 18 view .LVU340
 1082 01e2 74EEE04A 		vsub.f32	s9, s9, s1
  48:mi/stmlib/dsp/polyblep.h ****   const float t4 = t2 * t2;
 1083              		.loc 7 48 15 view .LVU341
 1084 01e6 60EEA0AA 		vmul.f32	s21, s1, s1
 1085              	.LBE351:
 1086              	.LBE356:
ARM GAS  /var/folders/9k/zk1mgrrd7wg4__6zvxvr9w8m0000gn/T//ccaaKoMx.s 			page 36


 1087              	.LBE378:
 1088              	.LBB379:
 1089              	.LBB371:
  50:mi/stmlib/dsp/polyblep.h **** }
 1090              		.loc 7 50 23 view .LVU342
 1091 01ea F0EE480A 		vmov.f32	s1, s16
 1092              	.LBE371:
 1093              	.LBE379:
 1094              	.LBB380:
 1095              	.LBB363:
  43:mi/stmlib/dsp/polyblep.h **** }
 1096              		.loc 7 43 16 view .LVU343
 1097 01ee 65EE288A 		vmul.f32	s17, s10, s17
 1098              	.LBE363:
 1099              	.LBE380:
 1100              	.LBB381:
 1101              	.LBB357:
 1102              	.LBB352:
  50:mi/stmlib/dsp/polyblep.h **** }
 1103              		.loc 7 50 23 view .LVU344
 1104 01f2 EAEE8A4A 		vfma.f32	s9, s21, s20
 1105              	.LBE352:
 1106              	.LBE357:
 1107              	.LBE381:
 1108              	.LBB382:
 1109              	.LBB372:
 1110 01f6 EBEE0A0A 		vfma.f32	s1, s22, s20
 1111              	.LBE372:
 1112              	.LBE382:
 1113              	.LBB383:
 1114              	.LBB364:
  43:mi/stmlib/dsp/polyblep.h **** }
 1115              		.loc 7 43 22 view .LVU345
 1116 01fa 28EE855A 		vmul.f32	s10, s17, s10
 1117              	.LBE364:
 1118              	.LBE383:
 111:mi/plaits/dsp/oscillator/variable_saw_oscillator.h ****         next_sample -= notch * stmlib::NextBlepSample(t);
 1119              		.loc 4 111 21 view .LVU346
 1120 01fe E9EE895A 		vfma.f32	s11, s19, s18
 1121              	.LVL50:
 112:mi/plaits/dsp/oscillator/variable_saw_oscillator.h ****         this_sample += triangle_step * stmlib::ThisIntegratedBlepSample(t);
 1122              		.loc 4 112 9 is_stmt 1 view .LVU347
 1123              	.LBB384:
 1124              	.LBI360:
  41:mi/stmlib/dsp/polyblep.h ****   t = 1.0f - t;
 1125              		.loc 7 41 14 view .LVU348
 1126              	.LBB365:
  42:mi/stmlib/dsp/polyblep.h ****   return -0.5f * t * t;
 1127              		.loc 7 42 3 view .LVU349
  43:mi/stmlib/dsp/polyblep.h **** }
 1128              		.loc 7 43 3 view .LVU350
  43:mi/stmlib/dsp/polyblep.h **** }
 1129              		.loc 7 43 3 is_stmt 0 view .LVU351
 1130              	.LBE365:
 1131              	.LBE384:
 112:mi/plaits/dsp/oscillator/variable_saw_oscillator.h ****         this_sample += triangle_step * stmlib::ThisIntegratedBlepSample(t);
 1132              		.loc 4 112 21 view .LVU352
ARM GAS  /var/folders/9k/zk1mgrrd7wg4__6zvxvr9w8m0000gn/T//ccaaKoMx.s 			page 37


 1133 0202 A9EE856A 		vfma.f32	s12, s19, s10
 1134              	.LVL51:
 113:mi/plaits/dsp/oscillator/variable_saw_oscillator.h ****         next_sample += triangle_step * stmlib::NextIntegratedBlepSample(t);
 1135              		.loc 4 113 9 is_stmt 1 view .LVU353
 1136              	.LBB385:
 1137              	.LBI346:
  53:mi/stmlib/dsp/polyblep.h ****   return NextIntegratedBlepSample(1.0f - t);
 1138              		.loc 7 53 14 view .LVU354
 1139              	.LBE385:
 1140              	.LBE341:
 1141              	.LBE340:
 1142              	.LBE398:
 1143              	.LBE404:
 1144              		.loc 7 54 3 view .LVU355
 1145              	.LBB405:
 1146              	.LBB399:
 1147              	.LBB390:
 1148              	.LBB389:
 1149              	.LBB386:
 1150              	.LBB358:
 1151              	.LBI347:
  46:mi/stmlib/dsp/polyblep.h ****   const float t1 = 0.5f * t;
 1152              		.loc 7 46 14 view .LVU356
 1153              	.LBB353:
  47:mi/stmlib/dsp/polyblep.h ****   const float t2 = t1 * t1;
 1154              		.loc 7 47 3 view .LVU357
  48:mi/stmlib/dsp/polyblep.h ****   const float t4 = t2 * t2;
 1155              		.loc 7 48 3 view .LVU358
  49:mi/stmlib/dsp/polyblep.h ****   return 0.1875f - t1 + 1.5f * t2 - t4;
 1156              		.loc 7 49 3 view .LVU359
  50:mi/stmlib/dsp/polyblep.h **** }
 1157              		.loc 7 50 3 view .LVU360
  50:mi/stmlib/dsp/polyblep.h **** }
 1158              		.loc 7 50 37 is_stmt 0 view .LVU361
 1159 0206 EAEEEA4A 		vfms.f32	s9, s21, s21
 1160              	.LVL52:
  50:mi/stmlib/dsp/polyblep.h **** }
 1161              		.loc 7 50 37 view .LVU362
 1162              	.LBE353:
 1163              	.LBE358:
 1164              	.LBE386:
 1165              	.LBB387:
 1166              	.LBB373:
 1167 020a B0EE605A 		vmov.f32	s10, s1
 1168 020e ABEE4B5A 		vfms.f32	s10, s22, s22
 1169              	.LBE373:
 1170              	.LBE387:
 113:mi/plaits/dsp/oscillator/variable_saw_oscillator.h ****         next_sample += triangle_step * stmlib::NextIntegratedBlepSample(t);
 1171              		.loc 4 113 21 view .LVU363
 1172 0212 E1EE245A 		vfma.f32	s11, s2, s9
 1173              	.LVL53:
 114:mi/plaits/dsp/oscillator/variable_saw_oscillator.h ****         high_ = false;
 1174              		.loc 4 114 9 is_stmt 1 view .LVU364
 1175              	.LBB388:
 1176              	.LBI368:
  46:mi/stmlib/dsp/polyblep.h ****   const float t1 = 0.5f * t;
 1177              		.loc 7 46 14 view .LVU365
ARM GAS  /var/folders/9k/zk1mgrrd7wg4__6zvxvr9w8m0000gn/T//ccaaKoMx.s 			page 38


 1178              	.LBB374:
  47:mi/stmlib/dsp/polyblep.h ****   const float t2 = t1 * t1;
 1179              		.loc 7 47 3 view .LVU366
  48:mi/stmlib/dsp/polyblep.h ****   const float t4 = t2 * t2;
 1180              		.loc 7 48 3 view .LVU367
  49:mi/stmlib/dsp/polyblep.h ****   return 0.1875f - t1 + 1.5f * t2 - t4;
 1181              		.loc 7 49 3 view .LVU368
  50:mi/stmlib/dsp/polyblep.h **** }
 1182              		.loc 7 50 3 view .LVU369
  50:mi/stmlib/dsp/polyblep.h **** }
 1183              		.loc 7 50 3 is_stmt 0 view .LVU370
 1184              	.LBE374:
 1185              	.LBE388:
 114:mi/plaits/dsp/oscillator/variable_saw_oscillator.h ****         high_ = false;
 1186              		.loc 4 114 21 view .LVU371
 1187 0216 A1EE056A 		vfma.f32	s12, s2, s10
 1188              	.LVL54:
 115:mi/plaits/dsp/oscillator/variable_saw_oscillator.h ****       }
 1189              		.loc 4 115 9 is_stmt 1 view .LVU372
 1190              	.LBE389:
 1191 021a A4E7     		b	.L16
 1192              	.LVL55:
 1193              	.L32:
 115:mi/plaits/dsp/oscillator/variable_saw_oscillator.h ****       }
 1194              		.loc 4 115 9 is_stmt 0 view .LVU373
 1195              	.LBE390:
 1196              	.LBE399:
  85:mi/plaits/dsp/oscillator/variable_saw_oscillator.h ****     
 1197              		.loc 4 85 19 view .LVU374
 1198 021c 9FED146A 		vldr.32	s12, .L40+4
 1199 0220 A1E7     		b	.L16
 1200              	.LVL56:
 1201              	.L38:
  85:mi/plaits/dsp/oscillator/variable_saw_oscillator.h ****     
 1202              		.loc 4 85 19 view .LVU375
 1203              	.LBE405:
 130:mi/plaits/dsp/oscillator/variable_saw_oscillator.h ****   }
 1204              		.loc 4 130 5 is_stmt 1 view .LVU376
 131:mi/plaits/dsp/oscillator/variable_saw_oscillator.h **** 
 1205              		.loc 4 131 3 is_stmt 0 view .LVU377
 1206 0222 BDEC088B 		vldm	sp!, {d8-d11}
 1207              		.cfi_restore 86
 1208              		.cfi_restore 87
 1209              		.cfi_restore 84
 1210              		.cfi_restore 85
 1211              		.cfi_restore 82
 1212              		.cfi_restore 83
 1213              		.cfi_restore 80
 1214              		.cfi_restore 81
 1215              		.cfi_def_cfa_offset 0
 130:mi/plaits/dsp/oscillator/variable_saw_oscillator.h ****   }
 1216              		.loc 4 130 18 view .LVU378
 1217 0226 C0ED015A 		vstr.32	s11, [r0, #4]
 1218              	.LVL57:
 1219              	.LBB406:
 1220              	.LBI406:
  49:mi/stmlib/dsp/parameter_interpolator.h ****     *state_ = value_;
ARM GAS  /var/folders/9k/zk1mgrrd7wg4__6zvxvr9w8m0000gn/T//ccaaKoMx.s 			page 39


 1221              		.loc 6 49 3 is_stmt 1 view .LVU379
 1222              	.LBB407:
  50:mi/stmlib/dsp/parameter_interpolator.h ****   }
 1223              		.loc 6 50 5 view .LVU380
  50:mi/stmlib/dsp/parameter_interpolator.h ****   }
 1224              		.loc 6 50 13 is_stmt 0 view .LVU381
 1225 022a 80ED064A 		vstr.32	s8, [r0, #24]
 1226              	.LVL58:
  50:mi/stmlib/dsp/parameter_interpolator.h ****   }
 1227              		.loc 6 50 13 view .LVU382
 1228              	.LBE407:
 1229              	.LBE406:
 1230              	.LBB409:
 1231              	.LBI409:
  49:mi/stmlib/dsp/parameter_interpolator.h ****     *state_ = value_;
 1232              		.loc 6 49 3 is_stmt 1 view .LVU383
 1233              	.LBB410:
  50:mi/stmlib/dsp/parameter_interpolator.h ****   }
 1234              		.loc 6 50 5 view .LVU384
  50:mi/stmlib/dsp/parameter_interpolator.h ****   }
 1235              		.loc 6 50 13 is_stmt 0 view .LVU385
 1236 022e C0ED056A 		vstr.32	s13, [r0, #20]
 1237              	.LVL59:
  50:mi/stmlib/dsp/parameter_interpolator.h ****   }
 1238              		.loc 6 50 13 view .LVU386
 1239              	.LBE410:
 1240              	.LBE409:
 1241              	.LBB412:
 1242              	.LBI412:
  49:mi/stmlib/dsp/parameter_interpolator.h ****     *state_ = value_;
 1243              		.loc 6 49 3 is_stmt 1 view .LVU387
 1244              	.LBB413:
  50:mi/stmlib/dsp/parameter_interpolator.h ****   }
 1245              		.loc 6 50 5 view .LVU388
  50:mi/stmlib/dsp/parameter_interpolator.h ****   }
 1246              		.loc 6 50 13 is_stmt 0 view .LVU389
 1247 0232 C0ED043A 		vstr.32	s7, [r0, #16]
 1248              	.LVL60:
  50:mi/stmlib/dsp/parameter_interpolator.h ****   }
 1249              		.loc 6 50 13 view .LVU390
 1250              	.LBE413:
 1251              	.LBE412:
 131:mi/plaits/dsp/oscillator/variable_saw_oscillator.h **** 
 1252              		.loc 4 131 3 view .LVU391
 1253 0236 7047     		bx	lr
 1254              	.LVL61:
 1255              	.L22:
  71:mi/plaits/dsp/oscillator/variable_saw_oscillator.h ****     } else {
 1256              		.loc 4 71 10 view .LVU392
 1257 0238 F6EE007A 		vmov.f32	s15, #5.0e-1
  67:mi/plaits/dsp/oscillator/variable_saw_oscillator.h ****     }
 1258              		.loc 4 67 17 view .LVU393
 1259 023c B0EE470A 		vmov.f32	s0, s14
 1260              	.LVL62:
  67:mi/plaits/dsp/oscillator/variable_saw_oscillator.h ****     }
 1261              		.loc 4 67 17 view .LVU394
 1262 0240 EEE6     		b	.L11
ARM GAS  /var/folders/9k/zk1mgrrd7wg4__6zvxvr9w8m0000gn/T//ccaaKoMx.s 			page 40


 1263              	.LVL63:
 1264              	.L37:
  73:mi/plaits/dsp/oscillator/variable_saw_oscillator.h ****     }
 1265              		.loc 4 73 7 is_stmt 1 discriminator 2 view .LVU395
 1266 0242 B7EE007A 		vmov.f32	s14, #1.0e+0
 1267 0246 77EE677A 		vsub.f32	s15, s14, s15
 1268 024a F4EEE07A 		vcmpe.f32	s15, s1
 1269 024e F1EE10FA 		vmrs	APSR_nzcv, FPSCR
 1270 0252 58BF     		it	pl
 1271 0254 F0EE607A 		vmovpl.f32	s15, s1
 1272 0258 E2E6     		b	.L11
 1273              	.LVL64:
 1274              	.L35:
 130:mi/plaits/dsp/oscillator/variable_saw_oscillator.h ****   }
 1275              		.loc 4 130 5 view .LVU396
 130:mi/plaits/dsp/oscillator/variable_saw_oscillator.h ****   }
 1276              		.loc 4 130 18 is_stmt 0 view .LVU397
 1277 025a C0ED015A 		vstr.32	s11, [r0, #4]
 1278              	.LVL65:
 1279              	.LBB415:
  49:mi/stmlib/dsp/parameter_interpolator.h ****     *state_ = value_;
 1280              		.loc 6 49 3 is_stmt 1 view .LVU398
 1281              	.LBB408:
  50:mi/stmlib/dsp/parameter_interpolator.h ****   }
 1282              		.loc 6 50 5 view .LVU399
  50:mi/stmlib/dsp/parameter_interpolator.h ****   }
 1283              		.loc 6 50 13 is_stmt 0 view .LVU400
 1284 025e 80ED064A 		vstr.32	s8, [r0, #24]
 1285              	.LVL66:
  50:mi/stmlib/dsp/parameter_interpolator.h ****   }
 1286              		.loc 6 50 13 view .LVU401
 1287              	.LBE408:
 1288              	.LBE415:
 1289              	.LBB416:
  49:mi/stmlib/dsp/parameter_interpolator.h ****     *state_ = value_;
 1290              		.loc 6 49 3 is_stmt 1 view .LVU402
 1291              	.LBB411:
  50:mi/stmlib/dsp/parameter_interpolator.h ****   }
 1292              		.loc 6 50 5 view .LVU403
  50:mi/stmlib/dsp/parameter_interpolator.h ****   }
 1293              		.loc 6 50 13 is_stmt 0 view .LVU404
 1294 0262 C0ED056A 		vstr.32	s13, [r0, #20]
 1295              	.LVL67:
  50:mi/stmlib/dsp/parameter_interpolator.h ****   }
 1296              		.loc 6 50 13 view .LVU405
 1297              	.LBE411:
 1298              	.LBE416:
 1299              	.LBB417:
  49:mi/stmlib/dsp/parameter_interpolator.h ****     *state_ = value_;
 1300              		.loc 6 49 3 is_stmt 1 view .LVU406
 1301              	.LBB414:
  50:mi/stmlib/dsp/parameter_interpolator.h ****   }
 1302              		.loc 6 50 5 view .LVU407
  50:mi/stmlib/dsp/parameter_interpolator.h ****   }
 1303              		.loc 6 50 13 is_stmt 0 view .LVU408
 1304 0266 C0ED043A 		vstr.32	s7, [r0, #16]
 1305              	.LVL68:
ARM GAS  /var/folders/9k/zk1mgrrd7wg4__6zvxvr9w8m0000gn/T//ccaaKoMx.s 			page 41


  50:mi/stmlib/dsp/parameter_interpolator.h ****   }
 1306              		.loc 6 50 13 view .LVU409
 1307 026a 7047     		bx	lr
 1308              	.L41:
 1309              		.align	2
 1310              	.L40:
 1311 026c 9A99993F 		.word	1067030938
 1312 0270 00000000 		.word	0
 1313              	.LBE414:
 1314              	.LBE417:
 1315              		.cfi_endproc
 1316              	.LFE1478:
 1318              		.section	.text._ZNK6plaits19VirtualAnalogEngine15ComputeDetuningEf,"ax",%progbits
 1319              		.align	1
 1320              		.p2align 2,,3
 1321              		.global	_ZNK6plaits19VirtualAnalogEngine15ComputeDetuningEf
 1322              		.syntax unified
 1323              		.thumb
 1324              		.thumb_func
 1326              	_ZNK6plaits19VirtualAnalogEngine15ComputeDetuningEf:
 1327              	.LVL69:
 1328              	.LFB1502:
  56:mi/plaits/dsp/engine/virtual_analog_engine.cpp **** 
  57:mi/plaits/dsp/engine/virtual_analog_engine.cpp **** const float intervals[5] = {
  58:mi/plaits/dsp/engine/virtual_analog_engine.cpp ****   0.0f, 7.01f, 12.01f, 19.01f, 24.01f
  59:mi/plaits/dsp/engine/virtual_analog_engine.cpp **** };
  60:mi/plaits/dsp/engine/virtual_analog_engine.cpp **** 
  61:mi/plaits/dsp/engine/virtual_analog_engine.cpp **** inline float Squash(float x) {
  62:mi/plaits/dsp/engine/virtual_analog_engine.cpp ****   return x * x * (3.0f - 2.0f * x);
  63:mi/plaits/dsp/engine/virtual_analog_engine.cpp **** }
  64:mi/plaits/dsp/engine/virtual_analog_engine.cpp **** 
  65:mi/plaits/dsp/engine/virtual_analog_engine.cpp **** float VirtualAnalogEngine::ComputeDetuning(float detune) const {
 1329              		.loc 2 65 64 is_stmt 1 view -0
 1330              		.cfi_startproc
 1331              		@ args = 0, pretend = 0, frame = 0
 1332              		@ frame_needed = 0, uses_anonymous_args = 0
 1333              		@ link register save eliminated.
  66:mi/plaits/dsp/engine/virtual_analog_engine.cpp ****   detune = 2.05f * detune - 1.025f;
 1334              		.loc 2 66 3 view .LVU411
 1335              		.loc 2 66 10 is_stmt 0 view .LVU412
 1336 0000 DFED3A6A 		vldr.32	s13, .L52
  67:mi/plaits/dsp/engine/virtual_analog_engine.cpp ****   CONSTRAIN(detune, -1.0f, 1.0f);
 1337              		.loc 2 67 3 view .LVU413
 1338 0004 BFEE007A 		vmov.f32	s14, #-1.0e+0
  66:mi/plaits/dsp/engine/virtual_analog_engine.cpp ****   detune = 2.05f * detune - 1.025f;
 1339              		.loc 2 66 10 view .LVU414
 1340 0008 DFED397A 		vldr.32	s15, .L52+4
 1341 000c E0EE267A 		vfma.f32	s15, s0, s13
 1342              	.LVL70:
 1343              		.loc 2 67 3 is_stmt 1 view .LVU415
 1344 0010 F4EEC77A 		vcmpe.f32	s15, s14
 1345 0014 F1EE10FA 		vmrs	APSR_nzcv, FPSCR
 1346 0018 38D4     		bmi	.L46
 1347              		.loc 2 67 3 discriminator 2 view .LVU416
 1348 001a B7EE007A 		vmov.f32	s14, #1.0e+0
 1349 001e F4EEC77A 		vcmpe.f32	s15, s14
 1350 0022 F1EE10FA 		vmrs	APSR_nzcv, FPSCR
ARM GAS  /var/folders/9k/zk1mgrrd7wg4__6zvxvr9w8m0000gn/T//ccaaKoMx.s 			page 42


 1351 0026 02DD     		ble	.L50
 1352 0028 9FED320A 		vldr.32	s0, .L52+8
 1353              	.LVL71:
  68:mi/plaits/dsp/engine/virtual_analog_engine.cpp ****   
  69:mi/plaits/dsp/engine/virtual_analog_engine.cpp ****   float sign = detune < 0.0f ? -1.0f : 1.0f;
  70:mi/plaits/dsp/engine/virtual_analog_engine.cpp ****   detune = detune * sign * 3.9999f;
 1354              		.loc 2 70 3 view .LVU417
  71:mi/plaits/dsp/engine/virtual_analog_engine.cpp ****   MAKE_INTEGRAL_FRACTIONAL(detune);
 1355              		.loc 2 71 3 view .LVU418
 1356              		.loc 2 71 3 view .LVU419
 1357              		.loc 2 71 35 view .LVU420
  72:mi/plaits/dsp/engine/virtual_analog_engine.cpp ****   
  73:mi/plaits/dsp/engine/virtual_analog_engine.cpp ****   float a = intervals[detune_integral];
 1358              		.loc 2 73 3 view .LVU421
  74:mi/plaits/dsp/engine/virtual_analog_engine.cpp ****   float b = intervals[detune_integral + 1];
 1359              		.loc 2 74 3 view .LVU422
  75:mi/plaits/dsp/engine/virtual_analog_engine.cpp ****   return (a + (b - a) * Squash(Squash(detune_fractional))) * sign;
 1360              		.loc 2 75 3 view .LVU423
 1361              	.LBB418:
 1362              	.LBI418:
  61:mi/plaits/dsp/engine/virtual_analog_engine.cpp ****   return x * x * (3.0f - 2.0f * x);
 1363              		.loc 2 61 14 view .LVU424
 1364              	.LBB419:
  62:mi/plaits/dsp/engine/virtual_analog_engine.cpp **** }
 1365              		.loc 2 62 3 view .LVU425
  62:mi/plaits/dsp/engine/virtual_analog_engine.cpp **** }
 1366              		.loc 2 62 3 is_stmt 0 view .LVU426
 1367              	.LBE419:
 1368              	.LBE418:
 1369              	.LBB428:
 1370              	.LBI428:
  61:mi/plaits/dsp/engine/virtual_analog_engine.cpp ****   return x * x * (3.0f - 2.0f * x);
 1371              		.loc 2 61 14 is_stmt 1 view .LVU427
 1372              	.LBB429:
  62:mi/plaits/dsp/engine/virtual_analog_engine.cpp **** }
 1373              		.loc 2 62 3 view .LVU428
  62:mi/plaits/dsp/engine/virtual_analog_engine.cpp **** }
 1374              		.loc 2 62 3 is_stmt 0 view .LVU429
 1375              	.LBE429:
 1376              	.LBE428:
  76:mi/plaits/dsp/engine/virtual_analog_engine.cpp **** }
 1377              		.loc 2 76 1 view .LVU430
 1378 002c 7047     		bx	lr
 1379              	.LVL72:
 1380              	.L50:
  67:mi/plaits/dsp/engine/virtual_analog_engine.cpp ****   
 1381              		.loc 2 67 33 is_stmt 1 discriminator 6 view .LVU431
  69:mi/plaits/dsp/engine/virtual_analog_engine.cpp ****   detune = detune * sign * 3.9999f;
 1382              		.loc 2 69 3 discriminator 6 view .LVU432
  69:mi/plaits/dsp/engine/virtual_analog_engine.cpp ****   detune = detune * sign * 3.9999f;
 1383              		.loc 2 69 30 is_stmt 0 discriminator 6 view .LVU433
 1384 002e F5EEC07A 		vcmpe.f32	s15, #0
 1385 0032 F1EE10FA 		vmrs	APSR_nzcv, FPSCR
 1386 0036 2CD4     		bmi	.L51
  70:mi/plaits/dsp/engine/virtual_analog_engine.cpp ****   MAKE_INTEGRAL_FRACTIONAL(detune);
 1387              		.loc 2 70 10 discriminator 2 view .LVU434
 1388 0038 DFED2F6A 		vldr.32	s13, .L52+12
ARM GAS  /var/folders/9k/zk1mgrrd7wg4__6zvxvr9w8m0000gn/T//ccaaKoMx.s 			page 43


 1389              	.LBB432:
 1390              	.LBB420:
  62:mi/plaits/dsp/engine/virtual_analog_engine.cpp **** }
 1391              		.loc 2 62 24 discriminator 2 view .LVU435
 1392 003c B0EE087A 		vmov.f32	s14, #3.0e+0
 1393 0040 B0EE006A 		vmov.f32	s12, #2.0e+0
 1394              	.LBE420:
 1395              	.LBE432:
  73:mi/plaits/dsp/engine/virtual_analog_engine.cpp ****   float b = intervals[detune_integral + 1];
 1396              		.loc 2 73 9 discriminator 2 view .LVU436
 1397 0044 2D4B     		ldr	r3, .L52+16
  70:mi/plaits/dsp/engine/virtual_analog_engine.cpp ****   MAKE_INTEGRAL_FRACTIONAL(detune);
 1398              		.loc 2 70 10 discriminator 2 view .LVU437
 1399 0046 67EEA67A 		vmul.f32	s15, s15, s13
 1400              	.LVL73:
 1401              	.LBB433:
 1402              	.LBB421:
  62:mi/plaits/dsp/engine/virtual_analog_engine.cpp **** }
 1403              		.loc 2 62 24 discriminator 2 view .LVU438
 1404 004a F0EE475A 		vmov.f32	s11, s14
 1405              	.LBE421:
 1406              	.LBE433:
  71:mi/plaits/dsp/engine/virtual_analog_engine.cpp ****   
 1407              		.loc 2 71 3 discriminator 2 view .LVU439
 1408 004e FDEEE76A 		vcvt.s32.f32	s13, s15
 1409 0052 16EE902A 		vmov	r2, s13	@ int
 1410 0056 F8EEE66A 		vcvt.f32.s32	s13, s13
  73:mi/plaits/dsp/engine/virtual_analog_engine.cpp ****   float b = intervals[detune_integral + 1];
 1411              		.loc 2 73 9 discriminator 2 view .LVU440
 1412 005a 03EB8201 		add	r1, r3, r2, lsl #2
  71:mi/plaits/dsp/engine/virtual_analog_engine.cpp ****   
 1413              		.loc 2 71 3 discriminator 2 view .LVU441
 1414 005e 77EEE67A 		vsub.f32	s15, s15, s13
  73:mi/plaits/dsp/engine/virtual_analog_engine.cpp ****   float b = intervals[detune_integral + 1];
 1415              		.loc 2 73 9 discriminator 2 view .LVU442
 1416 0062 91ED000A 		vldr.32	s0, [r1]
 1417              	.LVL74:
  75:mi/plaits/dsp/engine/virtual_analog_engine.cpp **** }
 1418              		.loc 2 75 18 discriminator 2 view .LVU443
 1419 0066 D1ED016A 		vldr.32	s13, [r1, #4]
 1420              	.LBB434:
 1421              	.LBB422:
  62:mi/plaits/dsp/engine/virtual_analog_engine.cpp **** }
 1422              		.loc 2 62 24 discriminator 2 view .LVU444
 1423 006a E7EEC65A 		vfms.f32	s11, s15, s12
  62:mi/plaits/dsp/engine/virtual_analog_engine.cpp **** }
 1424              		.loc 2 62 12 discriminator 2 view .LVU445
 1425 006e 67EEA77A 		vmul.f32	s15, s15, s15
 1426              	.LBE422:
 1427              	.LBE434:
  75:mi/plaits/dsp/engine/virtual_analog_engine.cpp **** }
 1428              		.loc 2 75 18 discriminator 2 view .LVU446
 1429 0072 76EEC06A 		vsub.f32	s13, s13, s0
 1430              	.LBB435:
 1431              	.LBB423:
  62:mi/plaits/dsp/engine/virtual_analog_engine.cpp **** }
 1432              		.loc 2 62 34 discriminator 2 view .LVU447
ARM GAS  /var/folders/9k/zk1mgrrd7wg4__6zvxvr9w8m0000gn/T//ccaaKoMx.s 			page 44


 1433 0076 67EEA57A 		vmul.f32	s15, s15, s11
 1434              	.LBE423:
 1435              	.LBE435:
 1436              	.LBB436:
 1437              	.LBB430:
  62:mi/plaits/dsp/engine/virtual_analog_engine.cpp **** }
 1438              		.loc 2 62 24 discriminator 2 view .LVU448
 1439 007a A7EEC67A 		vfms.f32	s14, s15, s12
  62:mi/plaits/dsp/engine/virtual_analog_engine.cpp **** }
 1440              		.loc 2 62 12 discriminator 2 view .LVU449
 1441 007e 67EEA77A 		vmul.f32	s15, s15, s15
  62:mi/plaits/dsp/engine/virtual_analog_engine.cpp **** }
 1442              		.loc 2 62 34 discriminator 2 view .LVU450
 1443 0082 67EE877A 		vmul.f32	s15, s15, s14
 1444              	.LBE430:
 1445              	.LBE436:
  75:mi/plaits/dsp/engine/virtual_analog_engine.cpp **** }
 1446              		.loc 2 75 13 discriminator 2 view .LVU451
 1447 0086 A6EEA70A 		vfma.f32	s0, s13, s15
 1448 008a 7047     		bx	lr
 1449              	.LVL75:
 1450              	.L46:
  75:mi/plaits/dsp/engine/virtual_analog_engine.cpp **** }
 1451              		.loc 2 75 13 discriminator 2 view .LVU452
 1452 008c 9FED1C0A 		vldr.32	s0, .L52+20
 1453 0090 7047     		bx	lr
 1454              	.L51:
  70:mi/plaits/dsp/engine/virtual_analog_engine.cpp ****   MAKE_INTEGRAL_FRACTIONAL(detune);
 1455              		.loc 2 70 10 view .LVU453
 1456 0092 9FED197A 		vldr.32	s14, .L52+12
 1457              	.LBB437:
 1458              	.LBB424:
  62:mi/plaits/dsp/engine/virtual_analog_engine.cpp **** }
 1459              		.loc 2 62 24 view .LVU454
 1460 0096 F0EE086A 		vmov.f32	s13, #3.0e+0
 1461 009a F0EE005A 		vmov.f32	s11, #2.0e+0
 1462              	.LBE424:
 1463              	.LBE437:
  73:mi/plaits/dsp/engine/virtual_analog_engine.cpp ****   float b = intervals[detune_integral + 1];
 1464              		.loc 2 73 9 view .LVU455
 1465 009e 174B     		ldr	r3, .L52+16
  70:mi/plaits/dsp/engine/virtual_analog_engine.cpp ****   MAKE_INTEGRAL_FRACTIONAL(detune);
 1466              		.loc 2 70 10 view .LVU456
 1467 00a0 67EEC77A 		vnmul.f32	s15, s15, s14
 1468              	.LVL76:
 1469              	.LBB438:
 1470              	.LBB425:
  62:mi/plaits/dsp/engine/virtual_analog_engine.cpp **** }
 1471              		.loc 2 62 24 view .LVU457
 1472 00a4 B0EE665A 		vmov.f32	s10, s13
 1473              	.LBE425:
 1474              	.LBE438:
  71:mi/plaits/dsp/engine/virtual_analog_engine.cpp ****   
 1475              		.loc 2 71 3 view .LVU458
 1476 00a8 BDEEE77A 		vcvt.s32.f32	s14, s15
 1477 00ac B8EEC76A 		vcvt.f32.s32	s12, s14
 1478 00b0 17EE102A 		vmov	r2, s14	@ int
ARM GAS  /var/folders/9k/zk1mgrrd7wg4__6zvxvr9w8m0000gn/T//ccaaKoMx.s 			page 45


  73:mi/plaits/dsp/engine/virtual_analog_engine.cpp ****   float b = intervals[detune_integral + 1];
 1479              		.loc 2 73 9 view .LVU459
 1480 00b4 03EB8201 		add	r1, r3, r2, lsl #2
  71:mi/plaits/dsp/engine/virtual_analog_engine.cpp ****   
 1481              		.loc 2 71 3 view .LVU460
 1482 00b8 77EEC67A 		vsub.f32	s15, s15, s12
  73:mi/plaits/dsp/engine/virtual_analog_engine.cpp ****   float b = intervals[detune_integral + 1];
 1483              		.loc 2 73 9 view .LVU461
 1484 00bc 91ED007A 		vldr.32	s14, [r1]
  75:mi/plaits/dsp/engine/virtual_analog_engine.cpp **** }
 1485              		.loc 2 75 18 view .LVU462
 1486 00c0 91ED016A 		vldr.32	s12, [r1, #4]
 1487              	.LBB439:
 1488              	.LBB426:
  62:mi/plaits/dsp/engine/virtual_analog_engine.cpp **** }
 1489              		.loc 2 62 24 view .LVU463
 1490 00c4 A7EEE55A 		vfms.f32	s10, s15, s11
  62:mi/plaits/dsp/engine/virtual_analog_engine.cpp **** }
 1491              		.loc 2 62 12 view .LVU464
 1492 00c8 67EEA77A 		vmul.f32	s15, s15, s15
 1493              	.LBE426:
 1494              	.LBE439:
  75:mi/plaits/dsp/engine/virtual_analog_engine.cpp **** }
 1495              		.loc 2 75 18 view .LVU465
 1496 00cc 36EE476A 		vsub.f32	s12, s12, s14
 1497              	.LBB440:
 1498              	.LBB427:
  62:mi/plaits/dsp/engine/virtual_analog_engine.cpp **** }
 1499              		.loc 2 62 34 view .LVU466
 1500 00d0 67EE857A 		vmul.f32	s15, s15, s10
 1501              	.LBE427:
 1502              	.LBE440:
 1503              	.LBB441:
 1504              	.LBB431:
  62:mi/plaits/dsp/engine/virtual_analog_engine.cpp **** }
 1505              		.loc 2 62 24 view .LVU467
 1506 00d4 E7EEE56A 		vfms.f32	s13, s15, s11
  62:mi/plaits/dsp/engine/virtual_analog_engine.cpp **** }
 1507              		.loc 2 62 12 view .LVU468
 1508 00d8 67EEA77A 		vmul.f32	s15, s15, s15
  62:mi/plaits/dsp/engine/virtual_analog_engine.cpp **** }
 1509              		.loc 2 62 34 view .LVU469
 1510 00dc 67EEA67A 		vmul.f32	s15, s15, s13
 1511              	.LBE431:
 1512              	.LBE441:
  75:mi/plaits/dsp/engine/virtual_analog_engine.cpp **** }
 1513              		.loc 2 75 13 view .LVU470
 1514 00e0 A6EE277A 		vfma.f32	s14, s12, s15
 1515 00e4 B1EE470A 		vneg.f32	s0, s14
 1516              	.LVL77:
  75:mi/plaits/dsp/engine/virtual_analog_engine.cpp **** }
 1517              		.loc 2 75 13 view .LVU471
 1518 00e8 7047     		bx	lr
 1519              	.L53:
 1520 00ea 00BF     		.align	2
 1521              	.L52:
 1522 00ec 33330340 		.word	1073951539
ARM GAS  /var/folders/9k/zk1mgrrd7wg4__6zvxvr9w8m0000gn/T//ccaaKoMx.s 			page 46


 1523 00f0 333383BF 		.word	-1081920717
 1524 00f4 7B14C041 		.word	1103107195
 1525 00f8 5DFE7F40 		.word	1082130013
 1526 00fc 00000000 		.word	.LANCHOR0
 1527 0100 7B14C0C1 		.word	-1044376453
 1528              		.cfi_endproc
 1529              	.LFE1502:
 1531              		.section	.text._ZN6plaits23VariableShapeOscillator6RenderILb1ELb0EEEvfffffPfj,"axG",%progbits,_ZN6
 1532              		.align	1
 1533              		.p2align 2,,3
 1534              		.weak	_ZN6plaits23VariableShapeOscillator6RenderILb1ELb0EEEvfffffPfj
 1535              		.syntax unified
 1536              		.thumb
 1537              		.thumb_func
 1539              	_ZN6plaits23VariableShapeOscillator6RenderILb1ELb0EEEvfffffPfj:
 1540              	.LVL78:
 1541              	.LFB1507:
  92:mi/plaits/dsp/oscillator/variable_shape_oscillator.h ****       float master_frequency,
 1542              		.loc 3 92 8 is_stmt 1 view -0
 1543              		.cfi_startproc
 1544              		@ args = 0, pretend = 0, frame = 0
 1545              		@ frame_needed = 0, uses_anonymous_args = 0
 100:mi/plaits/dsp/oscillator/variable_shape_oscillator.h ****       master_frequency = kMaxFrequency;
 1546              		.loc 3 100 5 is_stmt 0 view .LVU473
 1547 0000 B5EE007A 		vmov.f32	s14, #2.5e-1
  92:mi/plaits/dsp/oscillator/variable_shape_oscillator.h ****       float master_frequency,
 1548              		.loc 3 92 8 view .LVU474
 1549 0004 10B5     		push	{r4, lr}
 1550              		.cfi_def_cfa_offset 8
 1551              		.cfi_offset 4, -8
 1552              		.cfi_offset 14, -4
 101:mi/plaits/dsp/oscillator/variable_shape_oscillator.h ****     }
 1553              		.loc 3 101 24 view .LVU475
 1554 0006 B4EE470A 		vcmp.f32	s0, s14
  92:mi/plaits/dsp/oscillator/variable_shape_oscillator.h ****       float master_frequency,
 1555              		.loc 3 92 8 view .LVU476
 1556 000a 2DED0A8B 		vpush.64	{d8, d9, d10, d11, d12}
 1557              		.cfi_def_cfa_offset 48
 1558              		.cfi_offset 80, -48
 1559              		.cfi_offset 81, -44
 1560              		.cfi_offset 82, -40
 1561              		.cfi_offset 83, -36
 1562              		.cfi_offset 84, -32
 1563              		.cfi_offset 85, -28
 1564              		.cfi_offset 86, -24
 1565              		.cfi_offset 87, -20
 1566              		.cfi_offset 88, -16
 1567              		.cfi_offset 89, -12
 101:mi/plaits/dsp/oscillator/variable_shape_oscillator.h ****     }
 1568              		.loc 3 101 24 view .LVU477
 1569 000e F1EE10FA 		vmrs	APSR_nzcv, FPSCR
 103:mi/plaits/dsp/oscillator/variable_shape_oscillator.h ****       frequency = kMaxFrequency;
 1570              		.loc 3 103 5 view .LVU478
 1571 0012 F4EEC70A 		vcmpe.f32	s1, s14
 101:mi/plaits/dsp/oscillator/variable_shape_oscillator.h ****     }
 1572              		.loc 3 101 24 view .LVU479
 1573 0016 27FE000A 		vselge.f32	s0, s14, s0
ARM GAS  /var/folders/9k/zk1mgrrd7wg4__6zvxvr9w8m0000gn/T//ccaaKoMx.s 			page 47


 1574              	.LVL79:
 103:mi/plaits/dsp/oscillator/variable_shape_oscillator.h ****       frequency = kMaxFrequency;
 1575              		.loc 3 103 5 view .LVU480
 1576 001a F1EE10FA 		vmrs	APSR_nzcv, FPSCR
 1577 001e 80F29A81 		bge	.L82
 110:mi/plaits/dsp/oscillator/variable_shape_oscillator.h ****     }
 1578              		.loc 3 110 7 view .LVU481
 1579 0022 70EEA07A 		vadd.f32	s15, s1, s1
 1580 0026 F4EEC17A 		vcmpe.f32	s15, s2
 1581 002a F1EE10FA 		vmrs	APSR_nzcv, FPSCR
 1582 002e 40F39781 		ble	.L103
 1583              	.LVL80:
 1584              	.L57:
 1585              	.LBB442:
 1586              	.LBI442:
  39:mi/stmlib/dsp/parameter_interpolator.h ****     Init(state, new_value, size);
 1587              		.loc 6 39 3 is_stmt 1 view .LVU482
 1588              	.LBE442:
  40:mi/stmlib/dsp/parameter_interpolator.h ****   }
 1589              		.loc 6 40 5 view .LVU483
 1590              	.LBB451:
 1591              	.LBB443:
 1592              	.LBI443:
  53:mi/stmlib/dsp/parameter_interpolator.h ****     state_ = state;
 1593              		.loc 6 53 15 view .LVU484
 1594              	.LBB444:
  54:mi/stmlib/dsp/parameter_interpolator.h ****     value_ = *state;
 1595              		.loc 6 54 5 view .LVU485
  55:mi/stmlib/dsp/parameter_interpolator.h ****     increment_ = (new_value - *state) / static_cast<float>(size);
 1596              		.loc 6 55 5 view .LVU486
  56:mi/stmlib/dsp/parameter_interpolator.h ****   }
 1597              		.loc 6 56 41 is_stmt 0 view .LVU487
 1598 0032 07EE102A 		vmov	s14, r2	@ int
  55:mi/stmlib/dsp/parameter_interpolator.h ****     increment_ = (new_value - *state) / static_cast<float>(size);
 1599              		.loc 6 55 14 view .LVU488
 1600 0036 D0ED058A 		vldr.32	s17, [r0, #20]
 1601              	.LVL81:
  56:mi/stmlib/dsp/parameter_interpolator.h ****   }
 1602              		.loc 6 56 5 is_stmt 1 view .LVU489
 1603              	.LBE444:
 1604              	.LBE443:
 1605              	.LBE451:
 1606              	.LBB452:
 1607              	.LBB453:
 1608              	.LBB454:
  55:mi/stmlib/dsp/parameter_interpolator.h ****     increment_ = (new_value - *state) / static_cast<float>(size);
 1609              		.loc 6 55 14 is_stmt 0 view .LVU490
 1610 003a 90ED062A 		vldr.32	s4, [r0, #24]
 1611              	.LVL82:
  55:mi/stmlib/dsp/parameter_interpolator.h ****     increment_ = (new_value - *state) / static_cast<float>(size);
 1612              		.loc 6 55 14 view .LVU491
 1613              	.LBE454:
 1614              	.LBE453:
 1615              	.LBE452:
 124:mi/plaits/dsp/oscillator/variable_shape_oscillator.h ****       bool reset = false;
 1616              		.loc 3 124 5 view .LVU492
 1617 003e 02F1FF3C 		add	ip, r2, #-1
ARM GAS  /var/folders/9k/zk1mgrrd7wg4__6zvxvr9w8m0000gn/T//ccaaKoMx.s 			page 48


 1618              	.LBB459:
 1619              	.LBB460:
 1620              	.LBB461:
  55:mi/stmlib/dsp/parameter_interpolator.h ****     increment_ = (new_value - *state) / static_cast<float>(size);
 1621              		.loc 6 55 14 view .LVU493
 1622 0042 90ED073A 		vldr.32	s6, [r0, #28]
 1623              	.LBE461:
 1624              	.LBE460:
 1625              	.LBE459:
 1626              	.LBB466:
 1627              	.LBB448:
 1628              	.LBB445:
  56:mi/stmlib/dsp/parameter_interpolator.h ****   }
 1629              		.loc 6 56 41 view .LVU494
 1630 0046 F8EE476A 		vcvt.f32.u32	s13, s14
 1631              	.LBE445:
 1632              	.LBE448:
 1633              	.LBE466:
 1634              	.LBB467:
 1635              	.LBB468:
 1636              	.LBB469:
  55:mi/stmlib/dsp/parameter_interpolator.h ****     increment_ = (new_value - *state) / static_cast<float>(size);
 1637              		.loc 6 55 14 view .LVU495
 1638 004a 90ED088A 		vldr.32	s16, [r0, #32]
 1639              	.LBE469:
 1640              	.LBE468:
 1641              	.LBE467:
 1642              	.LBB474:
 1643              	.LBB449:
 1644              	.LBB446:
  56:mi/stmlib/dsp/parameter_interpolator.h ****   }
 1645              		.loc 6 56 29 view .LVU496
 1646 004e 30EE680A 		vsub.f32	s0, s0, s17
 1647              	.LVL83:
  56:mi/stmlib/dsp/parameter_interpolator.h ****   }
 1648              		.loc 6 56 29 view .LVU497
 1649              	.LBE446:
 1650              	.LBE449:
 1651              	.LBE474:
 1652              	.LBB475:
 1653              	.LBB464:
 1654              	.LBB462:
 1655 0052 37EEC37A 		vsub.f32	s14, s15, s6
 1656              	.LBE462:
 1657              	.LBE464:
 1658              	.LBE475:
 1659              	.LBB476:
 1660              	.LBB477:
 1661              	.LBB478:
  55:mi/stmlib/dsp/parameter_interpolator.h ****     increment_ = (new_value - *state) / static_cast<float>(size);
 1662              		.loc 6 55 14 view .LVU498
 1663 0056 D0F824E0 		ldr	lr, [r0, #36]	@ float
 1664              	.LBE478:
 1665              	.LBE477:
 1666              	.LBE476:
 1667              	.LBB481:
 1668              	.LBB457:
ARM GAS  /var/folders/9k/zk1mgrrd7wg4__6zvxvr9w8m0000gn/T//ccaaKoMx.s 			page 49


 1669              	.LBB455:
  56:mi/stmlib/dsp/parameter_interpolator.h ****   }
 1670              		.loc 6 56 29 view .LVU499
 1671 005a 70EEC20A 		vsub.f32	s1, s1, s4
 1672              	.LBE455:
 1673              	.LBE457:
 1674              	.LBE481:
 122:mi/plaits/dsp/oscillator/variable_shape_oscillator.h ****     
 1675              		.loc 3 122 11 view .LVU500
 1676 005e 90ED02BA 		vldr.32	s22, [r0, #8]
 1677              	.LBB482:
 1678              	.LBB472:
 1679              	.LBB470:
  56:mi/stmlib/dsp/parameter_interpolator.h ****   }
 1680              		.loc 6 56 29 view .LVU501
 1681 0062 71EEC87A 		vsub.f32	s15, s3, s16
 1682              	.LVL84:
  56:mi/stmlib/dsp/parameter_interpolator.h ****   }
 1683              		.loc 6 56 29 view .LVU502
 1684              	.LBE470:
 1685              	.LBE472:
 1686              	.LBE482:
 1687              	.LBB483:
 1688              	.LBB450:
 1689              	.LBB447:
  56:mi/stmlib/dsp/parameter_interpolator.h ****   }
 1690              		.loc 6 56 39 view .LVU503
 1691 0066 C0EE26AA 		vdiv.f32	s21, s0, s13
 1692              	.LVL85:
  56:mi/stmlib/dsp/parameter_interpolator.h ****   }
 1693              		.loc 6 56 39 view .LVU504
 1694              	.LBE447:
 1695              	.LBE450:
 1696              	.LBE483:
 1697              	.LBB484:
 1698              	.LBI452:
  39:mi/stmlib/dsp/parameter_interpolator.h ****     Init(state, new_value, size);
 1699              		.loc 6 39 3 is_stmt 1 view .LVU505
 1700              	.LBE484:
  40:mi/stmlib/dsp/parameter_interpolator.h ****   }
 1701              		.loc 6 40 5 view .LVU506
 1702              	.LBB485:
 1703              	.LBB458:
 1704              	.LBI453:
  53:mi/stmlib/dsp/parameter_interpolator.h ****     state_ = state;
 1705              		.loc 6 53 15 view .LVU507
 1706              	.LBB456:
  54:mi/stmlib/dsp/parameter_interpolator.h ****     value_ = *state;
 1707              		.loc 6 54 5 view .LVU508
  55:mi/stmlib/dsp/parameter_interpolator.h ****     increment_ = (new_value - *state) / static_cast<float>(size);
 1708              		.loc 6 55 5 view .LVU509
  56:mi/stmlib/dsp/parameter_interpolator.h ****   }
 1709              		.loc 6 56 5 view .LVU510
  56:mi/stmlib/dsp/parameter_interpolator.h ****   }
 1710              		.loc 6 56 39 is_stmt 0 view .LVU511
 1711 006a 80EEA6AA 		vdiv.f32	s20, s1, s13
 1712              	.LVL86:
ARM GAS  /var/folders/9k/zk1mgrrd7wg4__6zvxvr9w8m0000gn/T//ccaaKoMx.s 			page 50


  56:mi/stmlib/dsp/parameter_interpolator.h ****   }
 1713              		.loc 6 56 39 view .LVU512
 1714              	.LBE456:
 1715              	.LBE458:
 1716              	.LBE485:
 1717              	.LBB486:
 1718              	.LBI459:
  39:mi/stmlib/dsp/parameter_interpolator.h ****     Init(state, new_value, size);
 1719              		.loc 6 39 3 is_stmt 1 view .LVU513
 1720              	.LBE486:
  40:mi/stmlib/dsp/parameter_interpolator.h ****   }
 1721              		.loc 6 40 5 view .LVU514
 1722              	.LBB487:
 1723              	.LBB465:
 1724              	.LBI460:
  53:mi/stmlib/dsp/parameter_interpolator.h ****     state_ = state;
 1725              		.loc 6 53 15 view .LVU515
 1726              	.LBB463:
  54:mi/stmlib/dsp/parameter_interpolator.h ****     value_ = *state;
 1727              		.loc 6 54 5 view .LVU516
  55:mi/stmlib/dsp/parameter_interpolator.h ****     increment_ = (new_value - *state) / static_cast<float>(size);
 1728              		.loc 6 55 5 view .LVU517
  56:mi/stmlib/dsp/parameter_interpolator.h ****   }
 1729              		.loc 6 56 5 view .LVU518
  56:mi/stmlib/dsp/parameter_interpolator.h ****   }
 1730              		.loc 6 56 39 is_stmt 0 view .LVU519
 1731 006e C7EE269A 		vdiv.f32	s19, s14, s13
 1732              	.LVL87:
  56:mi/stmlib/dsp/parameter_interpolator.h ****   }
 1733              		.loc 6 56 39 view .LVU520
 1734              	.LBE463:
 1735              	.LBE465:
 1736              	.LBE487:
 1737              	.LBB488:
 1738              	.LBI467:
  39:mi/stmlib/dsp/parameter_interpolator.h ****     Init(state, new_value, size);
 1739              		.loc 6 39 3 is_stmt 1 view .LVU521
 1740              	.LBE488:
  40:mi/stmlib/dsp/parameter_interpolator.h ****   }
 1741              		.loc 6 40 5 view .LVU522
 1742              	.LBB489:
 1743              	.LBB473:
 1744              	.LBI468:
  53:mi/stmlib/dsp/parameter_interpolator.h ****     state_ = state;
 1745              		.loc 6 53 15 view .LVU523
 1746              	.LBB471:
  54:mi/stmlib/dsp/parameter_interpolator.h ****     value_ = *state;
 1747              		.loc 6 54 5 view .LVU524
  55:mi/stmlib/dsp/parameter_interpolator.h ****     increment_ = (new_value - *state) / static_cast<float>(size);
 1748              		.loc 6 55 5 view .LVU525
  56:mi/stmlib/dsp/parameter_interpolator.h ****   }
 1749              		.loc 6 56 5 view .LVU526
  56:mi/stmlib/dsp/parameter_interpolator.h ****   }
 1750              		.loc 6 56 39 is_stmt 0 view .LVU527
 1751 0072 87EEA69A 		vdiv.f32	s18, s15, s13
 1752              	.LVL88:
  56:mi/stmlib/dsp/parameter_interpolator.h ****   }
ARM GAS  /var/folders/9k/zk1mgrrd7wg4__6zvxvr9w8m0000gn/T//ccaaKoMx.s 			page 51


 1753              		.loc 6 56 39 view .LVU528
 1754              	.LBE471:
 1755              	.LBE473:
 1756              	.LBE489:
 1757              	.LBB490:
 1758              	.LBI476:
  39:mi/stmlib/dsp/parameter_interpolator.h ****     Init(state, new_value, size);
 1759              		.loc 6 39 3 is_stmt 1 view .LVU529
 1760              	.LBE490:
  40:mi/stmlib/dsp/parameter_interpolator.h ****   }
 1761              		.loc 6 40 5 view .LVU530
 1762              	.LBB491:
 1763              	.LBB480:
 1764              	.LBI477:
  53:mi/stmlib/dsp/parameter_interpolator.h ****     state_ = state;
 1765              		.loc 6 53 15 view .LVU531
 1766              	.LBB479:
  54:mi/stmlib/dsp/parameter_interpolator.h ****     value_ = *state;
 1767              		.loc 6 54 5 view .LVU532
  55:mi/stmlib/dsp/parameter_interpolator.h ****     increment_ = (new_value - *state) / static_cast<float>(size);
 1768              		.loc 6 55 5 view .LVU533
  56:mi/stmlib/dsp/parameter_interpolator.h ****   }
 1769              		.loc 6 56 5 view .LVU534
  56:mi/stmlib/dsp/parameter_interpolator.h ****   }
 1770              		.loc 6 56 5 is_stmt 0 view .LVU535
 1771              	.LBE479:
 1772              	.LBE480:
 1773              	.LBE491:
 124:mi/plaits/dsp/oscillator/variable_shape_oscillator.h ****       bool reset = false;
 1774              		.loc 3 124 5 is_stmt 1 view .LVU536
 124:mi/plaits/dsp/oscillator/variable_shape_oscillator.h ****       bool reset = false;
 1775              		.loc 3 124 5 is_stmt 0 view .LVU537
 1776 0076 002A     		cmp	r2, #0
 1777 0078 00F04181 		beq	.L59
 1778              	.LVL89:
 1779              	.L80:
 1780              	.LBB492:
 1781              	.LBB493:
 1782              	.LBI493:
  59:mi/stmlib/dsp/parameter_interpolator.h ****     value_ += increment_;
 1783              		.loc 6 59 16 is_stmt 1 view .LVU538
 1784              	.LBB494:
  60:mi/stmlib/dsp/parameter_interpolator.h ****     return value_;
 1785              		.loc 6 60 5 view .LVU539
 1786              	.LBE494:
 1787              	.LBE493:
 1788              	.LBB496:
 1789              	.LBB497:
  60:mi/stmlib/dsp/parameter_interpolator.h ****     return value_;
 1790              		.loc 6 60 12 is_stmt 0 view .LVU540
 1791 007c 38EE098A 		vadd.f32	s16, s16, s18
 1792              	.LVL90:
  60:mi/stmlib/dsp/parameter_interpolator.h ****     return value_;
 1793              		.loc 6 60 12 view .LVU541
 1794              	.LBE497:
 1795              	.LBE496:
 138:mi/plaits/dsp/oscillator/variable_shape_oscillator.h ****       
ARM GAS  /var/folders/9k/zk1mgrrd7wg4__6zvxvr9w8m0000gn/T//ccaaKoMx.s 			page 52


 1796              		.loc 3 138 51 view .LVU542
 1797 0080 F0EE007A 		vmov.f32	s15, #2.0e+0
 137:mi/plaits/dsp/oscillator/variable_shape_oscillator.h ****       const float triangle_amount = std::max(1.0f - waveshape * 2.0f, 0.0f);
 1798              		.loc 3 137 54 view .LVU543
 1799 0084 F6EE002A 		vmov.f32	s5, #5.0e-1
 138:mi/plaits/dsp/oscillator/variable_shape_oscillator.h ****       
 1800              		.loc 3 138 51 view .LVU544
 1801 0088 F7EE001A 		vmov.f32	s3, #1.0e+0
 1802              	.LBB499:
 1803              	.LBB495:
  60:mi/stmlib/dsp/parameter_interpolator.h ****     return value_;
 1804              		.loc 6 60 12 view .LVU545
 1805 008c 78EEAA8A 		vadd.f32	s17, s17, s21
 1806              	.LVL91:
 1807              		.loc 6 61 5 is_stmt 1 view .LVU546
 1808              		.loc 6 61 5 is_stmt 0 view .LVU547
 1809              	.LBE495:
 1810              	.LBE499:
 1811              	.LBB500:
 1812              	.LBI500:
  59:mi/stmlib/dsp/parameter_interpolator.h ****     value_ += increment_;
 1813              		.loc 6 59 16 is_stmt 1 view .LVU548
 1814              	.LBB501:
  60:mi/stmlib/dsp/parameter_interpolator.h ****     return value_;
 1815              		.loc 6 60 5 view .LVU549
 1816              	.LBE501:
 1817              	.LBE500:
 137:mi/plaits/dsp/oscillator/variable_shape_oscillator.h ****       const float triangle_amount = std::max(1.0f - waveshape * 2.0f, 0.0f);
 1818              		.loc 3 137 54 is_stmt 0 view .LVU550
 1819 0090 78EE622A 		vsub.f32	s5, s16, s5
 138:mi/plaits/dsp/oscillator/variable_shape_oscillator.h ****       
 1820              		.loc 3 138 51 view .LVU551
 1821 0094 E8EE671A 		vfms.f32	s3, s16, s15
 1822              	.LBB503:
 144:mi/plaits/dsp/oscillator/variable_shape_oscillator.h ****         if (master_phase_ >= 1.0f) {
 1823              		.loc 3 144 23 view .LVU552
 1824 0098 D0ED007A 		vldr.32	s15, [r0]
 1825              	.LBE503:
 140:mi/plaits/dsp/oscillator/variable_shape_oscillator.h ****       const float slope_down = 1.0f / (1.0f - pw);
 1826              		.loc 3 140 19 view .LVU553
 1827 009c B7EE007A 		vmov.f32	s14, #1.0e+0
 1828              	.LBB536:
 1829              	.LBB537:
 1830              		.file 8 "/Library/DaisyToolchain/0.2.0/arm/arm-none-eabi/include/c++/10.3.1/bits/stl_algobase.h"
   1:/Library/DaisyToolchain/0.2.0/arm/arm-none-eabi/include/c++/10.3.1/bits/stl_algobase.h **** // Core algorithmic facilities -*- C++ -*-
   2:/Library/DaisyToolchain/0.2.0/arm/arm-none-eabi/include/c++/10.3.1/bits/stl_algobase.h **** 
   3:/Library/DaisyToolchain/0.2.0/arm/arm-none-eabi/include/c++/10.3.1/bits/stl_algobase.h **** // Copyright (C) 2001-2020 Free Software Foundation, Inc.
   4:/Library/DaisyToolchain/0.2.0/arm/arm-none-eabi/include/c++/10.3.1/bits/stl_algobase.h **** //
   5:/Library/DaisyToolchain/0.2.0/arm/arm-none-eabi/include/c++/10.3.1/bits/stl_algobase.h **** // This file is part of the GNU ISO C++ Library.  This library is free
   6:/Library/DaisyToolchain/0.2.0/arm/arm-none-eabi/include/c++/10.3.1/bits/stl_algobase.h **** // software; you can redistribute it and/or modify it under the
   7:/Library/DaisyToolchain/0.2.0/arm/arm-none-eabi/include/c++/10.3.1/bits/stl_algobase.h **** // terms of the GNU General Public License as published by the
   8:/Library/DaisyToolchain/0.2.0/arm/arm-none-eabi/include/c++/10.3.1/bits/stl_algobase.h **** // Free Software Foundation; either version 3, or (at your option)
   9:/Library/DaisyToolchain/0.2.0/arm/arm-none-eabi/include/c++/10.3.1/bits/stl_algobase.h **** // any later version.
  10:/Library/DaisyToolchain/0.2.0/arm/arm-none-eabi/include/c++/10.3.1/bits/stl_algobase.h **** 
  11:/Library/DaisyToolchain/0.2.0/arm/arm-none-eabi/include/c++/10.3.1/bits/stl_algobase.h **** // This library is distributed in the hope that it will be useful,
  12:/Library/DaisyToolchain/0.2.0/arm/arm-none-eabi/include/c++/10.3.1/bits/stl_algobase.h **** // but WITHOUT ANY WARRANTY; without even the implied warranty of
  13:/Library/DaisyToolchain/0.2.0/arm/arm-none-eabi/include/c++/10.3.1/bits/stl_algobase.h **** // MERCHANTABILITY or FITNESS FOR A PARTICULAR PURPOSE.  See the
ARM GAS  /var/folders/9k/zk1mgrrd7wg4__6zvxvr9w8m0000gn/T//ccaaKoMx.s 			page 53


  14:/Library/DaisyToolchain/0.2.0/arm/arm-none-eabi/include/c++/10.3.1/bits/stl_algobase.h **** // GNU General Public License for more details.
  15:/Library/DaisyToolchain/0.2.0/arm/arm-none-eabi/include/c++/10.3.1/bits/stl_algobase.h **** 
  16:/Library/DaisyToolchain/0.2.0/arm/arm-none-eabi/include/c++/10.3.1/bits/stl_algobase.h **** // Under Section 7 of GPL version 3, you are granted additional
  17:/Library/DaisyToolchain/0.2.0/arm/arm-none-eabi/include/c++/10.3.1/bits/stl_algobase.h **** // permissions described in the GCC Runtime Library Exception, version
  18:/Library/DaisyToolchain/0.2.0/arm/arm-none-eabi/include/c++/10.3.1/bits/stl_algobase.h **** // 3.1, as published by the Free Software Foundation.
  19:/Library/DaisyToolchain/0.2.0/arm/arm-none-eabi/include/c++/10.3.1/bits/stl_algobase.h **** 
  20:/Library/DaisyToolchain/0.2.0/arm/arm-none-eabi/include/c++/10.3.1/bits/stl_algobase.h **** // You should have received a copy of the GNU General Public License and
  21:/Library/DaisyToolchain/0.2.0/arm/arm-none-eabi/include/c++/10.3.1/bits/stl_algobase.h **** // a copy of the GCC Runtime Library Exception along with this program;
  22:/Library/DaisyToolchain/0.2.0/arm/arm-none-eabi/include/c++/10.3.1/bits/stl_algobase.h **** // see the files COPYING3 and COPYING.RUNTIME respectively.  If not, see
  23:/Library/DaisyToolchain/0.2.0/arm/arm-none-eabi/include/c++/10.3.1/bits/stl_algobase.h **** // <http://www.gnu.org/licenses/>.
  24:/Library/DaisyToolchain/0.2.0/arm/arm-none-eabi/include/c++/10.3.1/bits/stl_algobase.h **** 
  25:/Library/DaisyToolchain/0.2.0/arm/arm-none-eabi/include/c++/10.3.1/bits/stl_algobase.h **** /*
  26:/Library/DaisyToolchain/0.2.0/arm/arm-none-eabi/include/c++/10.3.1/bits/stl_algobase.h ****  *
  27:/Library/DaisyToolchain/0.2.0/arm/arm-none-eabi/include/c++/10.3.1/bits/stl_algobase.h ****  * Copyright (c) 1994
  28:/Library/DaisyToolchain/0.2.0/arm/arm-none-eabi/include/c++/10.3.1/bits/stl_algobase.h ****  * Hewlett-Packard Company
  29:/Library/DaisyToolchain/0.2.0/arm/arm-none-eabi/include/c++/10.3.1/bits/stl_algobase.h ****  *
  30:/Library/DaisyToolchain/0.2.0/arm/arm-none-eabi/include/c++/10.3.1/bits/stl_algobase.h ****  * Permission to use, copy, modify, distribute and sell this software
  31:/Library/DaisyToolchain/0.2.0/arm/arm-none-eabi/include/c++/10.3.1/bits/stl_algobase.h ****  * and its documentation for any purpose is hereby granted without fee,
  32:/Library/DaisyToolchain/0.2.0/arm/arm-none-eabi/include/c++/10.3.1/bits/stl_algobase.h ****  * provided that the above copyright notice appear in all copies and
  33:/Library/DaisyToolchain/0.2.0/arm/arm-none-eabi/include/c++/10.3.1/bits/stl_algobase.h ****  * that both that copyright notice and this permission notice appear
  34:/Library/DaisyToolchain/0.2.0/arm/arm-none-eabi/include/c++/10.3.1/bits/stl_algobase.h ****  * in supporting documentation.  Hewlett-Packard Company makes no
  35:/Library/DaisyToolchain/0.2.0/arm/arm-none-eabi/include/c++/10.3.1/bits/stl_algobase.h ****  * representations about the suitability of this software for any
  36:/Library/DaisyToolchain/0.2.0/arm/arm-none-eabi/include/c++/10.3.1/bits/stl_algobase.h ****  * purpose.  It is provided "as is" without express or implied warranty.
  37:/Library/DaisyToolchain/0.2.0/arm/arm-none-eabi/include/c++/10.3.1/bits/stl_algobase.h ****  *
  38:/Library/DaisyToolchain/0.2.0/arm/arm-none-eabi/include/c++/10.3.1/bits/stl_algobase.h ****  *
  39:/Library/DaisyToolchain/0.2.0/arm/arm-none-eabi/include/c++/10.3.1/bits/stl_algobase.h ****  * Copyright (c) 1996-1998
  40:/Library/DaisyToolchain/0.2.0/arm/arm-none-eabi/include/c++/10.3.1/bits/stl_algobase.h ****  * Silicon Graphics Computer Systems, Inc.
  41:/Library/DaisyToolchain/0.2.0/arm/arm-none-eabi/include/c++/10.3.1/bits/stl_algobase.h ****  *
  42:/Library/DaisyToolchain/0.2.0/arm/arm-none-eabi/include/c++/10.3.1/bits/stl_algobase.h ****  * Permission to use, copy, modify, distribute and sell this software
  43:/Library/DaisyToolchain/0.2.0/arm/arm-none-eabi/include/c++/10.3.1/bits/stl_algobase.h ****  * and its documentation for any purpose is hereby granted without fee,
  44:/Library/DaisyToolchain/0.2.0/arm/arm-none-eabi/include/c++/10.3.1/bits/stl_algobase.h ****  * provided that the above copyright notice appear in all copies and
  45:/Library/DaisyToolchain/0.2.0/arm/arm-none-eabi/include/c++/10.3.1/bits/stl_algobase.h ****  * that both that copyright notice and this permission notice appear
  46:/Library/DaisyToolchain/0.2.0/arm/arm-none-eabi/include/c++/10.3.1/bits/stl_algobase.h ****  * in supporting documentation.  Silicon Graphics makes no
  47:/Library/DaisyToolchain/0.2.0/arm/arm-none-eabi/include/c++/10.3.1/bits/stl_algobase.h ****  * representations about the suitability of this software for any
  48:/Library/DaisyToolchain/0.2.0/arm/arm-none-eabi/include/c++/10.3.1/bits/stl_algobase.h ****  * purpose.  It is provided "as is" without express or implied warranty.
  49:/Library/DaisyToolchain/0.2.0/arm/arm-none-eabi/include/c++/10.3.1/bits/stl_algobase.h ****  */
  50:/Library/DaisyToolchain/0.2.0/arm/arm-none-eabi/include/c++/10.3.1/bits/stl_algobase.h **** 
  51:/Library/DaisyToolchain/0.2.0/arm/arm-none-eabi/include/c++/10.3.1/bits/stl_algobase.h **** /** @file bits/stl_algobase.h
  52:/Library/DaisyToolchain/0.2.0/arm/arm-none-eabi/include/c++/10.3.1/bits/stl_algobase.h ****  *  This is an internal header file, included by other library headers.
  53:/Library/DaisyToolchain/0.2.0/arm/arm-none-eabi/include/c++/10.3.1/bits/stl_algobase.h ****  *  Do not attempt to use it directly. @headername{algorithm}
  54:/Library/DaisyToolchain/0.2.0/arm/arm-none-eabi/include/c++/10.3.1/bits/stl_algobase.h ****  */
  55:/Library/DaisyToolchain/0.2.0/arm/arm-none-eabi/include/c++/10.3.1/bits/stl_algobase.h **** 
  56:/Library/DaisyToolchain/0.2.0/arm/arm-none-eabi/include/c++/10.3.1/bits/stl_algobase.h **** #ifndef _STL_ALGOBASE_H
  57:/Library/DaisyToolchain/0.2.0/arm/arm-none-eabi/include/c++/10.3.1/bits/stl_algobase.h **** #define _STL_ALGOBASE_H 1
  58:/Library/DaisyToolchain/0.2.0/arm/arm-none-eabi/include/c++/10.3.1/bits/stl_algobase.h **** 
  59:/Library/DaisyToolchain/0.2.0/arm/arm-none-eabi/include/c++/10.3.1/bits/stl_algobase.h **** #include <bits/c++config.h>
  60:/Library/DaisyToolchain/0.2.0/arm/arm-none-eabi/include/c++/10.3.1/bits/stl_algobase.h **** #include <bits/functexcept.h>
  61:/Library/DaisyToolchain/0.2.0/arm/arm-none-eabi/include/c++/10.3.1/bits/stl_algobase.h **** #include <bits/cpp_type_traits.h>
  62:/Library/DaisyToolchain/0.2.0/arm/arm-none-eabi/include/c++/10.3.1/bits/stl_algobase.h **** #include <ext/type_traits.h>
  63:/Library/DaisyToolchain/0.2.0/arm/arm-none-eabi/include/c++/10.3.1/bits/stl_algobase.h **** #include <ext/numeric_traits.h>
  64:/Library/DaisyToolchain/0.2.0/arm/arm-none-eabi/include/c++/10.3.1/bits/stl_algobase.h **** #include <bits/stl_pair.h>
  65:/Library/DaisyToolchain/0.2.0/arm/arm-none-eabi/include/c++/10.3.1/bits/stl_algobase.h **** #include <bits/stl_iterator_base_types.h>
  66:/Library/DaisyToolchain/0.2.0/arm/arm-none-eabi/include/c++/10.3.1/bits/stl_algobase.h **** #include <bits/stl_iterator_base_funcs.h>
  67:/Library/DaisyToolchain/0.2.0/arm/arm-none-eabi/include/c++/10.3.1/bits/stl_algobase.h **** #include <bits/stl_iterator.h>
  68:/Library/DaisyToolchain/0.2.0/arm/arm-none-eabi/include/c++/10.3.1/bits/stl_algobase.h **** #include <bits/concept_check.h>
  69:/Library/DaisyToolchain/0.2.0/arm/arm-none-eabi/include/c++/10.3.1/bits/stl_algobase.h **** #include <debug/debug.h>
  70:/Library/DaisyToolchain/0.2.0/arm/arm-none-eabi/include/c++/10.3.1/bits/stl_algobase.h **** #include <bits/move.h> // For std::swap
ARM GAS  /var/folders/9k/zk1mgrrd7wg4__6zvxvr9w8m0000gn/T//ccaaKoMx.s 			page 54


  71:/Library/DaisyToolchain/0.2.0/arm/arm-none-eabi/include/c++/10.3.1/bits/stl_algobase.h **** #include <bits/predefined_ops.h>
  72:/Library/DaisyToolchain/0.2.0/arm/arm-none-eabi/include/c++/10.3.1/bits/stl_algobase.h **** #if __cplusplus >= 201103L
  73:/Library/DaisyToolchain/0.2.0/arm/arm-none-eabi/include/c++/10.3.1/bits/stl_algobase.h **** # include <type_traits>
  74:/Library/DaisyToolchain/0.2.0/arm/arm-none-eabi/include/c++/10.3.1/bits/stl_algobase.h **** #endif
  75:/Library/DaisyToolchain/0.2.0/arm/arm-none-eabi/include/c++/10.3.1/bits/stl_algobase.h **** #if __cplusplus > 201703L
  76:/Library/DaisyToolchain/0.2.0/arm/arm-none-eabi/include/c++/10.3.1/bits/stl_algobase.h **** # include <compare>
  77:/Library/DaisyToolchain/0.2.0/arm/arm-none-eabi/include/c++/10.3.1/bits/stl_algobase.h **** #endif
  78:/Library/DaisyToolchain/0.2.0/arm/arm-none-eabi/include/c++/10.3.1/bits/stl_algobase.h **** 
  79:/Library/DaisyToolchain/0.2.0/arm/arm-none-eabi/include/c++/10.3.1/bits/stl_algobase.h **** namespace std _GLIBCXX_VISIBILITY(default)
  80:/Library/DaisyToolchain/0.2.0/arm/arm-none-eabi/include/c++/10.3.1/bits/stl_algobase.h **** {
  81:/Library/DaisyToolchain/0.2.0/arm/arm-none-eabi/include/c++/10.3.1/bits/stl_algobase.h **** _GLIBCXX_BEGIN_NAMESPACE_VERSION
  82:/Library/DaisyToolchain/0.2.0/arm/arm-none-eabi/include/c++/10.3.1/bits/stl_algobase.h **** 
  83:/Library/DaisyToolchain/0.2.0/arm/arm-none-eabi/include/c++/10.3.1/bits/stl_algobase.h ****   /*
  84:/Library/DaisyToolchain/0.2.0/arm/arm-none-eabi/include/c++/10.3.1/bits/stl_algobase.h ****    * A constexpr wrapper for __builtin_memcmp.
  85:/Library/DaisyToolchain/0.2.0/arm/arm-none-eabi/include/c++/10.3.1/bits/stl_algobase.h ****    * @param __num The number of elements of type _Tp (not bytes).
  86:/Library/DaisyToolchain/0.2.0/arm/arm-none-eabi/include/c++/10.3.1/bits/stl_algobase.h ****    */
  87:/Library/DaisyToolchain/0.2.0/arm/arm-none-eabi/include/c++/10.3.1/bits/stl_algobase.h ****   template<typename _Tp, typename _Up>
  88:/Library/DaisyToolchain/0.2.0/arm/arm-none-eabi/include/c++/10.3.1/bits/stl_algobase.h ****     _GLIBCXX14_CONSTEXPR
  89:/Library/DaisyToolchain/0.2.0/arm/arm-none-eabi/include/c++/10.3.1/bits/stl_algobase.h ****     inline int
  90:/Library/DaisyToolchain/0.2.0/arm/arm-none-eabi/include/c++/10.3.1/bits/stl_algobase.h ****     __memcmp(const _Tp* __first1, const _Up* __first2, size_t __num)
  91:/Library/DaisyToolchain/0.2.0/arm/arm-none-eabi/include/c++/10.3.1/bits/stl_algobase.h ****     {
  92:/Library/DaisyToolchain/0.2.0/arm/arm-none-eabi/include/c++/10.3.1/bits/stl_algobase.h **** #if __cplusplus >= 201103L
  93:/Library/DaisyToolchain/0.2.0/arm/arm-none-eabi/include/c++/10.3.1/bits/stl_algobase.h ****       static_assert(sizeof(_Tp) == sizeof(_Up), "can be compared with memcmp");
  94:/Library/DaisyToolchain/0.2.0/arm/arm-none-eabi/include/c++/10.3.1/bits/stl_algobase.h **** #endif
  95:/Library/DaisyToolchain/0.2.0/arm/arm-none-eabi/include/c++/10.3.1/bits/stl_algobase.h **** #ifdef __cpp_lib_is_constant_evaluated
  96:/Library/DaisyToolchain/0.2.0/arm/arm-none-eabi/include/c++/10.3.1/bits/stl_algobase.h ****       if (std::is_constant_evaluated())
  97:/Library/DaisyToolchain/0.2.0/arm/arm-none-eabi/include/c++/10.3.1/bits/stl_algobase.h **** 	{
  98:/Library/DaisyToolchain/0.2.0/arm/arm-none-eabi/include/c++/10.3.1/bits/stl_algobase.h **** 	  for(; __num > 0; ++__first1, ++__first2, --__num)
  99:/Library/DaisyToolchain/0.2.0/arm/arm-none-eabi/include/c++/10.3.1/bits/stl_algobase.h **** 	    if (*__first1 != *__first2)
 100:/Library/DaisyToolchain/0.2.0/arm/arm-none-eabi/include/c++/10.3.1/bits/stl_algobase.h **** 	      return *__first1 < *__first2 ? -1 : 1;
 101:/Library/DaisyToolchain/0.2.0/arm/arm-none-eabi/include/c++/10.3.1/bits/stl_algobase.h **** 	  return 0;
 102:/Library/DaisyToolchain/0.2.0/arm/arm-none-eabi/include/c++/10.3.1/bits/stl_algobase.h **** 	}
 103:/Library/DaisyToolchain/0.2.0/arm/arm-none-eabi/include/c++/10.3.1/bits/stl_algobase.h ****       else
 104:/Library/DaisyToolchain/0.2.0/arm/arm-none-eabi/include/c++/10.3.1/bits/stl_algobase.h **** #endif
 105:/Library/DaisyToolchain/0.2.0/arm/arm-none-eabi/include/c++/10.3.1/bits/stl_algobase.h **** 	return __builtin_memcmp(__first1, __first2, sizeof(_Tp) * __num);
 106:/Library/DaisyToolchain/0.2.0/arm/arm-none-eabi/include/c++/10.3.1/bits/stl_algobase.h ****     }
 107:/Library/DaisyToolchain/0.2.0/arm/arm-none-eabi/include/c++/10.3.1/bits/stl_algobase.h **** 
 108:/Library/DaisyToolchain/0.2.0/arm/arm-none-eabi/include/c++/10.3.1/bits/stl_algobase.h **** #if __cplusplus < 201103L
 109:/Library/DaisyToolchain/0.2.0/arm/arm-none-eabi/include/c++/10.3.1/bits/stl_algobase.h ****   // See http://gcc.gnu.org/ml/libstdc++/2004-08/msg00167.html: in a
 110:/Library/DaisyToolchain/0.2.0/arm/arm-none-eabi/include/c++/10.3.1/bits/stl_algobase.h ****   // nutshell, we are partially implementing the resolution of DR 187,
 111:/Library/DaisyToolchain/0.2.0/arm/arm-none-eabi/include/c++/10.3.1/bits/stl_algobase.h ****   // when it's safe, i.e., the value_types are equal.
 112:/Library/DaisyToolchain/0.2.0/arm/arm-none-eabi/include/c++/10.3.1/bits/stl_algobase.h ****   template<bool _BoolType>
 113:/Library/DaisyToolchain/0.2.0/arm/arm-none-eabi/include/c++/10.3.1/bits/stl_algobase.h ****     struct __iter_swap
 114:/Library/DaisyToolchain/0.2.0/arm/arm-none-eabi/include/c++/10.3.1/bits/stl_algobase.h ****     {
 115:/Library/DaisyToolchain/0.2.0/arm/arm-none-eabi/include/c++/10.3.1/bits/stl_algobase.h ****       template<typename _ForwardIterator1, typename _ForwardIterator2>
 116:/Library/DaisyToolchain/0.2.0/arm/arm-none-eabi/include/c++/10.3.1/bits/stl_algobase.h **** 	static void
 117:/Library/DaisyToolchain/0.2.0/arm/arm-none-eabi/include/c++/10.3.1/bits/stl_algobase.h **** 	iter_swap(_ForwardIterator1 __a, _ForwardIterator2 __b)
 118:/Library/DaisyToolchain/0.2.0/arm/arm-none-eabi/include/c++/10.3.1/bits/stl_algobase.h **** 	{
 119:/Library/DaisyToolchain/0.2.0/arm/arm-none-eabi/include/c++/10.3.1/bits/stl_algobase.h **** 	  typedef typename iterator_traits<_ForwardIterator1>::value_type
 120:/Library/DaisyToolchain/0.2.0/arm/arm-none-eabi/include/c++/10.3.1/bits/stl_algobase.h **** 	    _ValueType1;
 121:/Library/DaisyToolchain/0.2.0/arm/arm-none-eabi/include/c++/10.3.1/bits/stl_algobase.h **** 	  _ValueType1 __tmp = *__a;
 122:/Library/DaisyToolchain/0.2.0/arm/arm-none-eabi/include/c++/10.3.1/bits/stl_algobase.h **** 	  *__a = *__b;
 123:/Library/DaisyToolchain/0.2.0/arm/arm-none-eabi/include/c++/10.3.1/bits/stl_algobase.h **** 	  *__b = __tmp;
 124:/Library/DaisyToolchain/0.2.0/arm/arm-none-eabi/include/c++/10.3.1/bits/stl_algobase.h **** 	}
 125:/Library/DaisyToolchain/0.2.0/arm/arm-none-eabi/include/c++/10.3.1/bits/stl_algobase.h ****     };
 126:/Library/DaisyToolchain/0.2.0/arm/arm-none-eabi/include/c++/10.3.1/bits/stl_algobase.h **** 
 127:/Library/DaisyToolchain/0.2.0/arm/arm-none-eabi/include/c++/10.3.1/bits/stl_algobase.h ****   template<>
ARM GAS  /var/folders/9k/zk1mgrrd7wg4__6zvxvr9w8m0000gn/T//ccaaKoMx.s 			page 55


 128:/Library/DaisyToolchain/0.2.0/arm/arm-none-eabi/include/c++/10.3.1/bits/stl_algobase.h ****     struct __iter_swap<true>
 129:/Library/DaisyToolchain/0.2.0/arm/arm-none-eabi/include/c++/10.3.1/bits/stl_algobase.h ****     {
 130:/Library/DaisyToolchain/0.2.0/arm/arm-none-eabi/include/c++/10.3.1/bits/stl_algobase.h ****       template<typename _ForwardIterator1, typename _ForwardIterator2>
 131:/Library/DaisyToolchain/0.2.0/arm/arm-none-eabi/include/c++/10.3.1/bits/stl_algobase.h **** 	static void
 132:/Library/DaisyToolchain/0.2.0/arm/arm-none-eabi/include/c++/10.3.1/bits/stl_algobase.h **** 	iter_swap(_ForwardIterator1 __a, _ForwardIterator2 __b)
 133:/Library/DaisyToolchain/0.2.0/arm/arm-none-eabi/include/c++/10.3.1/bits/stl_algobase.h **** 	{
 134:/Library/DaisyToolchain/0.2.0/arm/arm-none-eabi/include/c++/10.3.1/bits/stl_algobase.h **** 	  swap(*__a, *__b);
 135:/Library/DaisyToolchain/0.2.0/arm/arm-none-eabi/include/c++/10.3.1/bits/stl_algobase.h **** 	}
 136:/Library/DaisyToolchain/0.2.0/arm/arm-none-eabi/include/c++/10.3.1/bits/stl_algobase.h ****     };
 137:/Library/DaisyToolchain/0.2.0/arm/arm-none-eabi/include/c++/10.3.1/bits/stl_algobase.h **** #endif // C++03
 138:/Library/DaisyToolchain/0.2.0/arm/arm-none-eabi/include/c++/10.3.1/bits/stl_algobase.h **** 
 139:/Library/DaisyToolchain/0.2.0/arm/arm-none-eabi/include/c++/10.3.1/bits/stl_algobase.h ****   /**
 140:/Library/DaisyToolchain/0.2.0/arm/arm-none-eabi/include/c++/10.3.1/bits/stl_algobase.h ****    *  @brief Swaps the contents of two iterators.
 141:/Library/DaisyToolchain/0.2.0/arm/arm-none-eabi/include/c++/10.3.1/bits/stl_algobase.h ****    *  @ingroup mutating_algorithms
 142:/Library/DaisyToolchain/0.2.0/arm/arm-none-eabi/include/c++/10.3.1/bits/stl_algobase.h ****    *  @param  __a  An iterator.
 143:/Library/DaisyToolchain/0.2.0/arm/arm-none-eabi/include/c++/10.3.1/bits/stl_algobase.h ****    *  @param  __b  Another iterator.
 144:/Library/DaisyToolchain/0.2.0/arm/arm-none-eabi/include/c++/10.3.1/bits/stl_algobase.h ****    *  @return   Nothing.
 145:/Library/DaisyToolchain/0.2.0/arm/arm-none-eabi/include/c++/10.3.1/bits/stl_algobase.h ****    *
 146:/Library/DaisyToolchain/0.2.0/arm/arm-none-eabi/include/c++/10.3.1/bits/stl_algobase.h ****    *  This function swaps the values pointed to by two iterators, not the
 147:/Library/DaisyToolchain/0.2.0/arm/arm-none-eabi/include/c++/10.3.1/bits/stl_algobase.h ****    *  iterators themselves.
 148:/Library/DaisyToolchain/0.2.0/arm/arm-none-eabi/include/c++/10.3.1/bits/stl_algobase.h ****   */
 149:/Library/DaisyToolchain/0.2.0/arm/arm-none-eabi/include/c++/10.3.1/bits/stl_algobase.h ****   template<typename _ForwardIterator1, typename _ForwardIterator2>
 150:/Library/DaisyToolchain/0.2.0/arm/arm-none-eabi/include/c++/10.3.1/bits/stl_algobase.h ****     _GLIBCXX20_CONSTEXPR
 151:/Library/DaisyToolchain/0.2.0/arm/arm-none-eabi/include/c++/10.3.1/bits/stl_algobase.h ****     inline void
 152:/Library/DaisyToolchain/0.2.0/arm/arm-none-eabi/include/c++/10.3.1/bits/stl_algobase.h ****     iter_swap(_ForwardIterator1 __a, _ForwardIterator2 __b)
 153:/Library/DaisyToolchain/0.2.0/arm/arm-none-eabi/include/c++/10.3.1/bits/stl_algobase.h ****     {
 154:/Library/DaisyToolchain/0.2.0/arm/arm-none-eabi/include/c++/10.3.1/bits/stl_algobase.h ****       // concept requirements
 155:/Library/DaisyToolchain/0.2.0/arm/arm-none-eabi/include/c++/10.3.1/bits/stl_algobase.h ****       __glibcxx_function_requires(_Mutable_ForwardIteratorConcept<
 156:/Library/DaisyToolchain/0.2.0/arm/arm-none-eabi/include/c++/10.3.1/bits/stl_algobase.h **** 				  _ForwardIterator1>)
 157:/Library/DaisyToolchain/0.2.0/arm/arm-none-eabi/include/c++/10.3.1/bits/stl_algobase.h ****       __glibcxx_function_requires(_Mutable_ForwardIteratorConcept<
 158:/Library/DaisyToolchain/0.2.0/arm/arm-none-eabi/include/c++/10.3.1/bits/stl_algobase.h **** 				  _ForwardIterator2>)
 159:/Library/DaisyToolchain/0.2.0/arm/arm-none-eabi/include/c++/10.3.1/bits/stl_algobase.h **** 
 160:/Library/DaisyToolchain/0.2.0/arm/arm-none-eabi/include/c++/10.3.1/bits/stl_algobase.h **** #if __cplusplus < 201103L
 161:/Library/DaisyToolchain/0.2.0/arm/arm-none-eabi/include/c++/10.3.1/bits/stl_algobase.h ****       typedef typename iterator_traits<_ForwardIterator1>::value_type
 162:/Library/DaisyToolchain/0.2.0/arm/arm-none-eabi/include/c++/10.3.1/bits/stl_algobase.h **** 	_ValueType1;
 163:/Library/DaisyToolchain/0.2.0/arm/arm-none-eabi/include/c++/10.3.1/bits/stl_algobase.h ****       typedef typename iterator_traits<_ForwardIterator2>::value_type
 164:/Library/DaisyToolchain/0.2.0/arm/arm-none-eabi/include/c++/10.3.1/bits/stl_algobase.h **** 	_ValueType2;
 165:/Library/DaisyToolchain/0.2.0/arm/arm-none-eabi/include/c++/10.3.1/bits/stl_algobase.h **** 
 166:/Library/DaisyToolchain/0.2.0/arm/arm-none-eabi/include/c++/10.3.1/bits/stl_algobase.h ****       __glibcxx_function_requires(_ConvertibleConcept<_ValueType1,
 167:/Library/DaisyToolchain/0.2.0/arm/arm-none-eabi/include/c++/10.3.1/bits/stl_algobase.h **** 				  _ValueType2>)
 168:/Library/DaisyToolchain/0.2.0/arm/arm-none-eabi/include/c++/10.3.1/bits/stl_algobase.h ****       __glibcxx_function_requires(_ConvertibleConcept<_ValueType2,
 169:/Library/DaisyToolchain/0.2.0/arm/arm-none-eabi/include/c++/10.3.1/bits/stl_algobase.h **** 				  _ValueType1>)
 170:/Library/DaisyToolchain/0.2.0/arm/arm-none-eabi/include/c++/10.3.1/bits/stl_algobase.h **** 
 171:/Library/DaisyToolchain/0.2.0/arm/arm-none-eabi/include/c++/10.3.1/bits/stl_algobase.h ****       typedef typename iterator_traits<_ForwardIterator1>::reference
 172:/Library/DaisyToolchain/0.2.0/arm/arm-none-eabi/include/c++/10.3.1/bits/stl_algobase.h **** 	_ReferenceType1;
 173:/Library/DaisyToolchain/0.2.0/arm/arm-none-eabi/include/c++/10.3.1/bits/stl_algobase.h ****       typedef typename iterator_traits<_ForwardIterator2>::reference
 174:/Library/DaisyToolchain/0.2.0/arm/arm-none-eabi/include/c++/10.3.1/bits/stl_algobase.h **** 	_ReferenceType2;
 175:/Library/DaisyToolchain/0.2.0/arm/arm-none-eabi/include/c++/10.3.1/bits/stl_algobase.h ****       std::__iter_swap<__are_same<_ValueType1, _ValueType2>::__value
 176:/Library/DaisyToolchain/0.2.0/arm/arm-none-eabi/include/c++/10.3.1/bits/stl_algobase.h **** 	&& __are_same<_ValueType1&, _ReferenceType1>::__value
 177:/Library/DaisyToolchain/0.2.0/arm/arm-none-eabi/include/c++/10.3.1/bits/stl_algobase.h **** 	&& __are_same<_ValueType2&, _ReferenceType2>::__value>::
 178:/Library/DaisyToolchain/0.2.0/arm/arm-none-eabi/include/c++/10.3.1/bits/stl_algobase.h **** 	iter_swap(__a, __b);
 179:/Library/DaisyToolchain/0.2.0/arm/arm-none-eabi/include/c++/10.3.1/bits/stl_algobase.h **** #else
 180:/Library/DaisyToolchain/0.2.0/arm/arm-none-eabi/include/c++/10.3.1/bits/stl_algobase.h ****       // _GLIBCXX_RESOLVE_LIB_DEFECTS
 181:/Library/DaisyToolchain/0.2.0/arm/arm-none-eabi/include/c++/10.3.1/bits/stl_algobase.h ****       // 187. iter_swap underspecified
 182:/Library/DaisyToolchain/0.2.0/arm/arm-none-eabi/include/c++/10.3.1/bits/stl_algobase.h ****       swap(*__a, *__b);
 183:/Library/DaisyToolchain/0.2.0/arm/arm-none-eabi/include/c++/10.3.1/bits/stl_algobase.h **** #endif
 184:/Library/DaisyToolchain/0.2.0/arm/arm-none-eabi/include/c++/10.3.1/bits/stl_algobase.h ****     }
ARM GAS  /var/folders/9k/zk1mgrrd7wg4__6zvxvr9w8m0000gn/T//ccaaKoMx.s 			page 56


 185:/Library/DaisyToolchain/0.2.0/arm/arm-none-eabi/include/c++/10.3.1/bits/stl_algobase.h **** 
 186:/Library/DaisyToolchain/0.2.0/arm/arm-none-eabi/include/c++/10.3.1/bits/stl_algobase.h ****   /**
 187:/Library/DaisyToolchain/0.2.0/arm/arm-none-eabi/include/c++/10.3.1/bits/stl_algobase.h ****    *  @brief Swap the elements of two sequences.
 188:/Library/DaisyToolchain/0.2.0/arm/arm-none-eabi/include/c++/10.3.1/bits/stl_algobase.h ****    *  @ingroup mutating_algorithms
 189:/Library/DaisyToolchain/0.2.0/arm/arm-none-eabi/include/c++/10.3.1/bits/stl_algobase.h ****    *  @param  __first1  A forward iterator.
 190:/Library/DaisyToolchain/0.2.0/arm/arm-none-eabi/include/c++/10.3.1/bits/stl_algobase.h ****    *  @param  __last1   A forward iterator.
 191:/Library/DaisyToolchain/0.2.0/arm/arm-none-eabi/include/c++/10.3.1/bits/stl_algobase.h ****    *  @param  __first2  A forward iterator.
 192:/Library/DaisyToolchain/0.2.0/arm/arm-none-eabi/include/c++/10.3.1/bits/stl_algobase.h ****    *  @return   An iterator equal to @p first2+(last1-first1).
 193:/Library/DaisyToolchain/0.2.0/arm/arm-none-eabi/include/c++/10.3.1/bits/stl_algobase.h ****    *
 194:/Library/DaisyToolchain/0.2.0/arm/arm-none-eabi/include/c++/10.3.1/bits/stl_algobase.h ****    *  Swaps each element in the range @p [first1,last1) with the
 195:/Library/DaisyToolchain/0.2.0/arm/arm-none-eabi/include/c++/10.3.1/bits/stl_algobase.h ****    *  corresponding element in the range @p [first2,(last1-first1)).
 196:/Library/DaisyToolchain/0.2.0/arm/arm-none-eabi/include/c++/10.3.1/bits/stl_algobase.h ****    *  The ranges must not overlap.
 197:/Library/DaisyToolchain/0.2.0/arm/arm-none-eabi/include/c++/10.3.1/bits/stl_algobase.h ****   */
 198:/Library/DaisyToolchain/0.2.0/arm/arm-none-eabi/include/c++/10.3.1/bits/stl_algobase.h ****   template<typename _ForwardIterator1, typename _ForwardIterator2>
 199:/Library/DaisyToolchain/0.2.0/arm/arm-none-eabi/include/c++/10.3.1/bits/stl_algobase.h ****     _GLIBCXX20_CONSTEXPR
 200:/Library/DaisyToolchain/0.2.0/arm/arm-none-eabi/include/c++/10.3.1/bits/stl_algobase.h ****     _ForwardIterator2
 201:/Library/DaisyToolchain/0.2.0/arm/arm-none-eabi/include/c++/10.3.1/bits/stl_algobase.h ****     swap_ranges(_ForwardIterator1 __first1, _ForwardIterator1 __last1,
 202:/Library/DaisyToolchain/0.2.0/arm/arm-none-eabi/include/c++/10.3.1/bits/stl_algobase.h **** 		_ForwardIterator2 __first2)
 203:/Library/DaisyToolchain/0.2.0/arm/arm-none-eabi/include/c++/10.3.1/bits/stl_algobase.h ****     {
 204:/Library/DaisyToolchain/0.2.0/arm/arm-none-eabi/include/c++/10.3.1/bits/stl_algobase.h ****       // concept requirements
 205:/Library/DaisyToolchain/0.2.0/arm/arm-none-eabi/include/c++/10.3.1/bits/stl_algobase.h ****       __glibcxx_function_requires(_Mutable_ForwardIteratorConcept<
 206:/Library/DaisyToolchain/0.2.0/arm/arm-none-eabi/include/c++/10.3.1/bits/stl_algobase.h **** 				  _ForwardIterator1>)
 207:/Library/DaisyToolchain/0.2.0/arm/arm-none-eabi/include/c++/10.3.1/bits/stl_algobase.h ****       __glibcxx_function_requires(_Mutable_ForwardIteratorConcept<
 208:/Library/DaisyToolchain/0.2.0/arm/arm-none-eabi/include/c++/10.3.1/bits/stl_algobase.h **** 				  _ForwardIterator2>)
 209:/Library/DaisyToolchain/0.2.0/arm/arm-none-eabi/include/c++/10.3.1/bits/stl_algobase.h ****       __glibcxx_requires_valid_range(__first1, __last1);
 210:/Library/DaisyToolchain/0.2.0/arm/arm-none-eabi/include/c++/10.3.1/bits/stl_algobase.h **** 
 211:/Library/DaisyToolchain/0.2.0/arm/arm-none-eabi/include/c++/10.3.1/bits/stl_algobase.h ****       for (; __first1 != __last1; ++__first1, (void)++__first2)
 212:/Library/DaisyToolchain/0.2.0/arm/arm-none-eabi/include/c++/10.3.1/bits/stl_algobase.h **** 	std::iter_swap(__first1, __first2);
 213:/Library/DaisyToolchain/0.2.0/arm/arm-none-eabi/include/c++/10.3.1/bits/stl_algobase.h ****       return __first2;
 214:/Library/DaisyToolchain/0.2.0/arm/arm-none-eabi/include/c++/10.3.1/bits/stl_algobase.h ****     }
 215:/Library/DaisyToolchain/0.2.0/arm/arm-none-eabi/include/c++/10.3.1/bits/stl_algobase.h **** 
 216:/Library/DaisyToolchain/0.2.0/arm/arm-none-eabi/include/c++/10.3.1/bits/stl_algobase.h ****   /**
 217:/Library/DaisyToolchain/0.2.0/arm/arm-none-eabi/include/c++/10.3.1/bits/stl_algobase.h ****    *  @brief This does what you think it does.
 218:/Library/DaisyToolchain/0.2.0/arm/arm-none-eabi/include/c++/10.3.1/bits/stl_algobase.h ****    *  @ingroup sorting_algorithms
 219:/Library/DaisyToolchain/0.2.0/arm/arm-none-eabi/include/c++/10.3.1/bits/stl_algobase.h ****    *  @param  __a  A thing of arbitrary type.
 220:/Library/DaisyToolchain/0.2.0/arm/arm-none-eabi/include/c++/10.3.1/bits/stl_algobase.h ****    *  @param  __b  Another thing of arbitrary type.
 221:/Library/DaisyToolchain/0.2.0/arm/arm-none-eabi/include/c++/10.3.1/bits/stl_algobase.h ****    *  @return   The lesser of the parameters.
 222:/Library/DaisyToolchain/0.2.0/arm/arm-none-eabi/include/c++/10.3.1/bits/stl_algobase.h ****    *
 223:/Library/DaisyToolchain/0.2.0/arm/arm-none-eabi/include/c++/10.3.1/bits/stl_algobase.h ****    *  This is the simple classic generic implementation.  It will work on
 224:/Library/DaisyToolchain/0.2.0/arm/arm-none-eabi/include/c++/10.3.1/bits/stl_algobase.h ****    *  temporary expressions, since they are only evaluated once, unlike a
 225:/Library/DaisyToolchain/0.2.0/arm/arm-none-eabi/include/c++/10.3.1/bits/stl_algobase.h ****    *  preprocessor macro.
 226:/Library/DaisyToolchain/0.2.0/arm/arm-none-eabi/include/c++/10.3.1/bits/stl_algobase.h ****   */
 227:/Library/DaisyToolchain/0.2.0/arm/arm-none-eabi/include/c++/10.3.1/bits/stl_algobase.h ****   template<typename _Tp>
 228:/Library/DaisyToolchain/0.2.0/arm/arm-none-eabi/include/c++/10.3.1/bits/stl_algobase.h ****     _GLIBCXX14_CONSTEXPR
 229:/Library/DaisyToolchain/0.2.0/arm/arm-none-eabi/include/c++/10.3.1/bits/stl_algobase.h ****     inline const _Tp&
 230:/Library/DaisyToolchain/0.2.0/arm/arm-none-eabi/include/c++/10.3.1/bits/stl_algobase.h ****     min(const _Tp& __a, const _Tp& __b)
 231:/Library/DaisyToolchain/0.2.0/arm/arm-none-eabi/include/c++/10.3.1/bits/stl_algobase.h ****     {
 232:/Library/DaisyToolchain/0.2.0/arm/arm-none-eabi/include/c++/10.3.1/bits/stl_algobase.h ****       // concept requirements
 233:/Library/DaisyToolchain/0.2.0/arm/arm-none-eabi/include/c++/10.3.1/bits/stl_algobase.h ****       __glibcxx_function_requires(_LessThanComparableConcept<_Tp>)
 234:/Library/DaisyToolchain/0.2.0/arm/arm-none-eabi/include/c++/10.3.1/bits/stl_algobase.h ****       //return __b < __a ? __b : __a;
 235:/Library/DaisyToolchain/0.2.0/arm/arm-none-eabi/include/c++/10.3.1/bits/stl_algobase.h ****       if (__b < __a)
 236:/Library/DaisyToolchain/0.2.0/arm/arm-none-eabi/include/c++/10.3.1/bits/stl_algobase.h **** 	return __b;
 237:/Library/DaisyToolchain/0.2.0/arm/arm-none-eabi/include/c++/10.3.1/bits/stl_algobase.h ****       return __a;
 238:/Library/DaisyToolchain/0.2.0/arm/arm-none-eabi/include/c++/10.3.1/bits/stl_algobase.h ****     }
 239:/Library/DaisyToolchain/0.2.0/arm/arm-none-eabi/include/c++/10.3.1/bits/stl_algobase.h **** 
 240:/Library/DaisyToolchain/0.2.0/arm/arm-none-eabi/include/c++/10.3.1/bits/stl_algobase.h ****   /**
 241:/Library/DaisyToolchain/0.2.0/arm/arm-none-eabi/include/c++/10.3.1/bits/stl_algobase.h ****    *  @brief This does what you think it does.
ARM GAS  /var/folders/9k/zk1mgrrd7wg4__6zvxvr9w8m0000gn/T//ccaaKoMx.s 			page 57


 242:/Library/DaisyToolchain/0.2.0/arm/arm-none-eabi/include/c++/10.3.1/bits/stl_algobase.h ****    *  @ingroup sorting_algorithms
 243:/Library/DaisyToolchain/0.2.0/arm/arm-none-eabi/include/c++/10.3.1/bits/stl_algobase.h ****    *  @param  __a  A thing of arbitrary type.
 244:/Library/DaisyToolchain/0.2.0/arm/arm-none-eabi/include/c++/10.3.1/bits/stl_algobase.h ****    *  @param  __b  Another thing of arbitrary type.
 245:/Library/DaisyToolchain/0.2.0/arm/arm-none-eabi/include/c++/10.3.1/bits/stl_algobase.h ****    *  @return   The greater of the parameters.
 246:/Library/DaisyToolchain/0.2.0/arm/arm-none-eabi/include/c++/10.3.1/bits/stl_algobase.h ****    *
 247:/Library/DaisyToolchain/0.2.0/arm/arm-none-eabi/include/c++/10.3.1/bits/stl_algobase.h ****    *  This is the simple classic generic implementation.  It will work on
 248:/Library/DaisyToolchain/0.2.0/arm/arm-none-eabi/include/c++/10.3.1/bits/stl_algobase.h ****    *  temporary expressions, since they are only evaluated once, unlike a
 249:/Library/DaisyToolchain/0.2.0/arm/arm-none-eabi/include/c++/10.3.1/bits/stl_algobase.h ****    *  preprocessor macro.
 250:/Library/DaisyToolchain/0.2.0/arm/arm-none-eabi/include/c++/10.3.1/bits/stl_algobase.h ****   */
 251:/Library/DaisyToolchain/0.2.0/arm/arm-none-eabi/include/c++/10.3.1/bits/stl_algobase.h ****   template<typename _Tp>
 252:/Library/DaisyToolchain/0.2.0/arm/arm-none-eabi/include/c++/10.3.1/bits/stl_algobase.h ****     _GLIBCXX14_CONSTEXPR
 253:/Library/DaisyToolchain/0.2.0/arm/arm-none-eabi/include/c++/10.3.1/bits/stl_algobase.h ****     inline const _Tp&
 254:/Library/DaisyToolchain/0.2.0/arm/arm-none-eabi/include/c++/10.3.1/bits/stl_algobase.h ****     max(const _Tp& __a, const _Tp& __b)
 255:/Library/DaisyToolchain/0.2.0/arm/arm-none-eabi/include/c++/10.3.1/bits/stl_algobase.h ****     {
 256:/Library/DaisyToolchain/0.2.0/arm/arm-none-eabi/include/c++/10.3.1/bits/stl_algobase.h ****       // concept requirements
 257:/Library/DaisyToolchain/0.2.0/arm/arm-none-eabi/include/c++/10.3.1/bits/stl_algobase.h ****       __glibcxx_function_requires(_LessThanComparableConcept<_Tp>)
 258:/Library/DaisyToolchain/0.2.0/arm/arm-none-eabi/include/c++/10.3.1/bits/stl_algobase.h ****       //return  __a < __b ? __b : __a;
 259:/Library/DaisyToolchain/0.2.0/arm/arm-none-eabi/include/c++/10.3.1/bits/stl_algobase.h ****       if (__a < __b)
 1831              		.loc 8 259 7 view .LVU554
 1832 00a0 F5EEC02A 		vcmpe.f32	s5, #0
 1833              	.LBE537:
 1834              	.LBE536:
 1835              	.LBB540:
 144:mi/plaits/dsp/oscillator/variable_shape_oscillator.h ****         if (master_phase_ >= 1.0f) {
 1836              		.loc 3 144 23 view .LVU555
 1837 00a4 78EEA77A 		vadd.f32	s15, s17, s15
 1838              	.LBE540:
 1839              	.LBB541:
 1840              	.LBB542:
  60:mi/stmlib/dsp/parameter_interpolator.h ****     return value_;
 1841              		.loc 6 60 12 view .LVU556
 1842 00a8 33EE293A 		vadd.f32	s6, s6, s19
 1843              	.LVL92:
  60:mi/stmlib/dsp/parameter_interpolator.h ****     return value_;
 1844              		.loc 6 60 12 view .LVU557
 1845              	.LBE542:
 1846              	.LBE541:
 1847              	.LBB544:
 1848              	.LBB538:
 1849              		.loc 8 259 7 view .LVU558
 1850 00ac F1EE10FA 		vmrs	APSR_nzcv, FPSCR
 1851              	.LBE538:
 1852              	.LBE544:
 1853              	.LBB545:
 1854              	.LBB546:
 1855 00b0 F5EEC01A 		vcmpe.f32	s3, #0
 1856              	.LBE546:
 1857              	.LBE545:
 1858              	.LBB549:
 144:mi/plaits/dsp/oscillator/variable_shape_oscillator.h ****         if (master_phase_ >= 1.0f) {
 1859              		.loc 3 144 23 view .LVU559
 1860 00b4 C0ED007A 		vstr.32	s15, [r0]
 1861              	.LBE549:
 141:mi/plaits/dsp/oscillator/variable_shape_oscillator.h **** 
 1862              		.loc 3 141 45 view .LVU560
 1863 00b8 77EE436A 		vsub.f32	s13, s14, s6
 137:mi/plaits/dsp/oscillator/variable_shape_oscillator.h ****       const float triangle_amount = std::max(1.0f - waveshape * 2.0f, 0.0f);
ARM GAS  /var/folders/9k/zk1mgrrd7wg4__6zvxvr9w8m0000gn/T//ccaaKoMx.s 			page 58


 1864              		.loc 3 137 19 view .LVU561
 1865 00bc 54BF     		ite	pl
 1866 00be 72EEA22A 		vaddpl.f32	s5, s5, s5
 1867              	.LBB550:
 1868              	.LBB539:
 1869 00c2 DFEDAD2A 		vldrmi.32	s5, .L106
 1870              	.LBE539:
 1871              	.LBE550:
 1872              	.LBB551:
 1873              	.LBB547:
 1874              		.loc 8 259 7 view .LVU562
 1875 00c6 F1EE10FA 		vmrs	APSR_nzcv, FPSCR
 1876              	.LBE547:
 1877              	.LBE551:
 1878              	.LBB552:
 1879              	.LBB504:
 145:mi/plaits/dsp/oscillator/variable_shape_oscillator.h ****           master_phase_ -= 1.0f;
 1880              		.loc 3 145 9 view .LVU563
 1881 00ca F4EEC77A 		vcmpe.f32	s15, s14
 1882              	.LBE504:
 1883              	.LBE552:
 140:mi/plaits/dsp/oscillator/variable_shape_oscillator.h ****       const float slope_down = 1.0f / (1.0f - pw);
 1884              		.loc 3 140 19 view .LVU564
 1885 00ce 87EE031A 		vdiv.f32	s2, s14, s6
 1886              	.LBB553:
 1887              	.LBB548:
 260:/Library/DaisyToolchain/0.2.0/arm/arm-none-eabi/include/c++/10.3.1/bits/stl_algobase.h **** 	return __b;
 1888              		.loc 8 260 9 view .LVU565
 1889 00d2 48BF     		it	mi
 1890 00d4 DFEDA81A 		vldrmi.32	s3, .L106
 1891              	.LBE548:
 1892              	.LBE553:
 1893              	.LBB554:
 1894              	.LBB530:
 145:mi/plaits/dsp/oscillator/variable_shape_oscillator.h ****           master_phase_ -= 1.0f;
 1895              		.loc 3 145 9 view .LVU566
 1896 00d8 F1EE10FA 		vmrs	APSR_nzcv, FPSCR
 1897              	.LBE530:
 1898              	.LBE554:
 141:mi/plaits/dsp/oscillator/variable_shape_oscillator.h **** 
 1899              		.loc 3 141 19 view .LVU567
 1900 00dc C7EE260A 		vdiv.f32	s1, s14, s13
 1901              	.LBB555:
 1902              	.LBB502:
  60:mi/stmlib/dsp/parameter_interpolator.h ****     return value_;
 1903              		.loc 6 60 12 view .LVU568
 1904 00e0 32EE0A2A 		vadd.f32	s4, s4, s20
 1905              	.LVL93:
 1906              		.loc 6 61 5 is_stmt 1 view .LVU569
 1907              		.loc 6 61 5 is_stmt 0 view .LVU570
 1908              	.LBE502:
 1909              	.LBE555:
 1910              	.LBB556:
 1911              	.LBI541:
  59:mi/stmlib/dsp/parameter_interpolator.h ****     value_ += increment_;
 1912              		.loc 6 59 16 is_stmt 1 view .LVU571
 1913              	.LBB543:
ARM GAS  /var/folders/9k/zk1mgrrd7wg4__6zvxvr9w8m0000gn/T//ccaaKoMx.s 			page 59


  60:mi/stmlib/dsp/parameter_interpolator.h ****     return value_;
 1914              		.loc 6 60 5 view .LVU572
 1915              		.loc 6 61 5 view .LVU573
 1916              		.loc 6 61 5 is_stmt 0 view .LVU574
 1917              	.LBE543:
 1918              	.LBE556:
 1919              	.LBB557:
 1920              	.LBI496:
  59:mi/stmlib/dsp/parameter_interpolator.h ****     value_ += increment_;
 1921              		.loc 6 59 16 is_stmt 1 view .LVU575
 1922              	.LBB498:
  60:mi/stmlib/dsp/parameter_interpolator.h ****     return value_;
 1923              		.loc 6 60 5 view .LVU576
 1924              		.loc 6 61 5 view .LVU577
 1925              		.loc 6 61 5 is_stmt 0 view .LVU578
 1926              	.LBE498:
 1927              	.LBE557:
 1928              	.LBB558:
 1929              	.LBI536:
 254:/Library/DaisyToolchain/0.2.0/arm/arm-none-eabi/include/c++/10.3.1/bits/stl_algobase.h ****     {
 1930              		.loc 8 254 5 is_stmt 1 view .LVU579
 254:/Library/DaisyToolchain/0.2.0/arm/arm-none-eabi/include/c++/10.3.1/bits/stl_algobase.h ****     {
 1931              		.loc 8 254 5 is_stmt 0 view .LVU580
 1932              	.LBE558:
 1933              	.LBB559:
 1934              	.LBI545:
 254:/Library/DaisyToolchain/0.2.0/arm/arm-none-eabi/include/c++/10.3.1/bits/stl_algobase.h ****     {
 1935              		.loc 8 254 5 is_stmt 1 view .LVU581
 254:/Library/DaisyToolchain/0.2.0/arm/arm-none-eabi/include/c++/10.3.1/bits/stl_algobase.h ****     {
 1936              		.loc 8 254 5 is_stmt 0 view .LVU582
 1937              	.LBE559:
 1938              	.LBB560:
 1939              	.LBB531:
 145:mi/plaits/dsp/oscillator/variable_shape_oscillator.h ****           master_phase_ -= 1.0f;
 1940              		.loc 3 145 9 view .LVU583
 1941 00e4 C0F22381 		blt	.L104
 1942              	.LBB505:
 146:mi/plaits/dsp/oscillator/variable_shape_oscillator.h ****           reset_time = master_phase_ / master_frequency;
 1943              		.loc 3 146 25 view .LVU584
 1944 00e8 77EEC77A 		vsub.f32	s15, s15, s14
 149:mi/plaits/dsp/oscillator/variable_shape_oscillator.h ****               (1.0f - reset_time) * slave_frequency;
 1945              		.loc 3 149 40 view .LVU585
 1946 00ec D0ED016A 		vldr.32	s13, [r0, #4]
 147:mi/plaits/dsp/oscillator/variable_shape_oscillator.h ****       
 1947              		.loc 3 147 22 view .LVU586
 1948 00f0 87EEA80A 		vdiv.f32	s0, s15, s17
 1949              	.LVL94:
 146:mi/plaits/dsp/oscillator/variable_shape_oscillator.h ****           reset_time = master_phase_ / master_frequency;
 1950              		.loc 3 146 25 view .LVU587
 1951 00f4 C0ED007A 		vstr.32	s15, [r0]
 149:mi/plaits/dsp/oscillator/variable_shape_oscillator.h ****               (1.0f - reset_time) * slave_frequency;
 1952              		.loc 3 149 17 view .LVU588
 1953 00f8 F0EE667A 		vmov.f32	s15, s13
 150:mi/plaits/dsp/oscillator/variable_shape_oscillator.h ****           reset = true;
 1954              		.loc 3 150 21 view .LVU589
 1955 00fc 37EE406A 		vsub.f32	s12, s14, s0
 149:mi/plaits/dsp/oscillator/variable_shape_oscillator.h ****               (1.0f - reset_time) * slave_frequency;
ARM GAS  /var/folders/9k/zk1mgrrd7wg4__6zvxvr9w8m0000gn/T//ccaaKoMx.s 			page 60


 1956              		.loc 3 149 17 view .LVU590
 1957 0100 E6EE027A 		vfma.f32	s15, s12, s4
 1958              	.LVL95:
 152:mi/plaits/dsp/oscillator/variable_shape_oscillator.h ****             slave_phase_at_reset -= 1.0f;
 1959              		.loc 3 152 11 view .LVU591
 1960 0104 F4EEC77A 		vcmpe.f32	s15, s14
 1961 0108 F1EE10FA 		vmrs	APSR_nzcv, FPSCR
 1962 010c C0F22181 		blt	.L95
 153:mi/plaits/dsp/oscillator/variable_shape_oscillator.h ****             transition_during_reset = true;
 1963              		.loc 3 153 34 view .LVU592
 1964 0110 77EEC77A 		vsub.f32	s15, s15, s14
 1965              	.LVL96:
 154:mi/plaits/dsp/oscillator/variable_shape_oscillator.h ****           }
 1966              		.loc 3 154 37 view .LVU593
 1967 0114 0122     		movs	r2, #1
 1968              	.LVL97:
 1969              	.L64:
 156:mi/plaits/dsp/oscillator/variable_shape_oscillator.h ****             transition_during_reset = true;
 1970              		.loc 3 156 16 view .LVU594
 1971 0116 037C     		ldrb	r3, [r0, #16]	@ zero_extendqisi2
 156:mi/plaits/dsp/oscillator/variable_shape_oscillator.h ****             transition_during_reset = true;
 1972              		.loc 3 156 11 view .LVU595
 1973 0118 23B9     		cbnz	r3, .L102
 156:mi/plaits/dsp/oscillator/variable_shape_oscillator.h ****             transition_during_reset = true;
 1974              		.loc 3 156 22 discriminator 1 view .LVU596
 1975 011a F4EEC37A 		vcmpe.f32	s15, s6
 1976 011e F1EE10FA 		vmrs	APSR_nzcv, FPSCR
 1977 0122 01DA     		bge	.L67
 1978              	.L102:
 156:mi/plaits/dsp/oscillator/variable_shape_oscillator.h ****             transition_during_reset = true;
 1979              		.loc 3 156 22 discriminator 1 view .LVU597
 1980              	.LBE505:
 1981              	.LBE531:
 1982              	.LBE560:
 177:mi/plaits/dsp/oscillator/variable_shape_oscillator.h ****         if (!high_) {
 1983              		.loc 3 177 38 view .LVU598
 1984 0124 82F00103 		eor	r3, r2, #1
 1985              	.L67:
 1986              	.LVL98:
 1987              	.LBB561:
 1988              	.LBB532:
 1989              	.LBB526:
 1990              	.LBB506:
 1991              	.LBI506:
 246:mi/plaits/dsp/oscillator/variable_shape_oscillator.h ****   }
 247:mi/plaits/dsp/oscillator/variable_shape_oscillator.h ****   
 248:mi/plaits/dsp/oscillator/variable_shape_oscillator.h ****  private:
 249:mi/plaits/dsp/oscillator/variable_shape_oscillator.h ****   inline float ComputeNaiveSample(
 1992              		.loc 3 249 16 is_stmt 1 view .LVU599
 1993              	.LBB507:
 250:mi/plaits/dsp/oscillator/variable_shape_oscillator.h ****       float phase,
 251:mi/plaits/dsp/oscillator/variable_shape_oscillator.h ****       float pw,
 252:mi/plaits/dsp/oscillator/variable_shape_oscillator.h ****       float slope_up,
 253:mi/plaits/dsp/oscillator/variable_shape_oscillator.h ****       float slope_down,
 254:mi/plaits/dsp/oscillator/variable_shape_oscillator.h ****       float triangle_amount,
 255:mi/plaits/dsp/oscillator/variable_shape_oscillator.h ****       float square_amount) const {
 256:mi/plaits/dsp/oscillator/variable_shape_oscillator.h ****     float saw = phase;
ARM GAS  /var/folders/9k/zk1mgrrd7wg4__6zvxvr9w8m0000gn/T//ccaaKoMx.s 			page 61


 1994              		.loc 3 256 5 view .LVU600
 257:mi/plaits/dsp/oscillator/variable_shape_oscillator.h ****     float square = phase < pw ? 0.0f : 1.0f;
 1995              		.loc 3 257 5 view .LVU601
 1996              		.loc 3 257 31 is_stmt 0 view .LVU602
 1997 0128 F4EEC37A 		vcmpe.f32	s15, s6
 1998 012c F1EE10FA 		vmrs	APSR_nzcv, FPSCR
 1999 0130 40F10681 		bpl	.L96
 2000              	.LVL99:
 258:mi/plaits/dsp/oscillator/variable_shape_oscillator.h ****     float triangle = phase < pw
 259:mi/plaits/dsp/oscillator/variable_shape_oscillator.h ****         ? phase * slope_up
 2001              		.loc 3 259 9 view .LVU603
 2002 0134 27EE815A 		vmul.f32	s10, s15, s2
 2003 0138 DFED8F5A 		vldr.32	s11, .L106
 2004              	.LVL100:
 2005              	.L70:
 260:mi/plaits/dsp/oscillator/variable_shape_oscillator.h ****         : 1.0f - (phase - pw) * slope_down;
 261:mi/plaits/dsp/oscillator/variable_shape_oscillator.h ****     saw += (square - saw) * square_amount;
 2006              		.loc 3 261 5 is_stmt 1 view .LVU604
 2007              		.loc 3 261 20 is_stmt 0 view .LVU605
 2008 013c 75EEE75A 		vsub.f32	s11, s11, s15
 2009              	.LBE507:
 2010              	.LBE506:
 167:mi/plaits/dsp/oscillator/variable_shape_oscillator.h ****         }
 2011              		.loc 3 167 23 view .LVU606
 2012 0140 DFED8D3A 		vldr.32	s7, .L106
 2013              	.LBB511:
 2014              	.LBB512:
  43:mi/stmlib/dsp/polyblep.h **** }
 2015              		.loc 7 43 16 view .LVU607
 2016 0144 FEEE004A 		vmov.f32	s9, #-5.0e-1
 2017              	.LBE512:
 2018              	.LBE511:
 151:mi/plaits/dsp/oscillator/variable_shape_oscillator.h ****           if (slave_phase_at_reset >= 1.0f) {
 2019              		.loc 3 151 17 view .LVU608
 2020 0148 0124     		movs	r4, #1
 2021              	.LBB515:
 2022              	.LBB516:
  38:mi/stmlib/dsp/polyblep.h **** }
 2023              		.loc 7 38 15 view .LVU609
 2024 014a B6EE007A 		vmov.f32	s14, #5.0e-1
 2025              	.LBE516:
 2026              	.LBE515:
 2027              	.LBB519:
 2028              	.LBB508:
 2029              		.loc 3 261 9 view .LVU610
 2030 014e E5EEA27A 		vfma.f32	s15, s11, s5
 2031              	.LVL101:
 262:mi/plaits/dsp/oscillator/variable_shape_oscillator.h ****     saw += (triangle - saw) * triangle_amount;
 2032              		.loc 3 262 5 is_stmt 1 view .LVU611
 2033              	.LBE508:
 2034              	.LBE519:
 2035              	.LBB520:
 2036              	.LBB513:
  43:mi/stmlib/dsp/polyblep.h **** }
 2037              		.loc 7 43 16 is_stmt 0 view .LVU612
 2038 0152 66EE245A 		vmul.f32	s11, s12, s9
 2039              	.LBE513:
ARM GAS  /var/folders/9k/zk1mgrrd7wg4__6zvxvr9w8m0000gn/T//ccaaKoMx.s 			page 62


 2040              	.LBE520:
 2041              	.LBB521:
 2042              	.LBB517:
  38:mi/stmlib/dsp/polyblep.h **** }
 2043              		.loc 7 38 15 view .LVU613
 2044 0156 20EE077A 		vmul.f32	s14, s0, s14
 2045              	.LBE517:
 2046              	.LBE521:
 167:mi/plaits/dsp/oscillator/variable_shape_oscillator.h ****         }
 2047              		.loc 3 167 23 view .LVU614
 2048 015a 26EE656A 		vnmul.f32	s12, s12, s11
 166:mi/plaits/dsp/oscillator/variable_shape_oscillator.h ****           next_sample -= value * stmlib::NextBlepSample(reset_time);
 2049              		.loc 3 166 23 view .LVU615
 2050 015e 20EE477A 		vnmul.f32	s14, s0, s14
 2051              	.LBB522:
 2052              	.LBB509:
 2053              		.loc 3 262 22 view .LVU616
 2054 0162 75EE675A 		vsub.f32	s11, s10, s15
 2055              		.loc 3 262 9 view .LVU617
 2056 0166 E1EEA57A 		vfma.f32	s15, s3, s11
 2057              	.LVL102:
 263:mi/plaits/dsp/oscillator/variable_shape_oscillator.h ****     return saw;
 2058              		.loc 3 263 5 is_stmt 1 view .LVU618
 2059              		.loc 3 263 5 is_stmt 0 view .LVU619
 2060              	.LBE509:
 2061              	.LBE522:
 2062              	.LBB523:
 2063              	.LBI515:
  37:mi/stmlib/dsp/polyblep.h ****   return 0.5f * t * t;
 2064              		.loc 7 37 14 is_stmt 1 view .LVU620
 2065              	.LBB518:
  38:mi/stmlib/dsp/polyblep.h **** }
 2066              		.loc 7 38 3 view .LVU621
  38:mi/stmlib/dsp/polyblep.h **** }
 2067              		.loc 7 38 3 is_stmt 0 view .LVU622
 2068              	.LBE518:
 2069              	.LBE523:
 166:mi/plaits/dsp/oscillator/variable_shape_oscillator.h ****           next_sample -= value * stmlib::NextBlepSample(reset_time);
 2070              		.loc 3 166 23 view .LVU623
 2071 016a A7EE27BA 		vfma.f32	s22, s14, s15
 2072              	.LVL103:
 2073              	.LBB524:
 2074              	.LBI511:
  41:mi/stmlib/dsp/polyblep.h ****   t = 1.0f - t;
 2075              		.loc 7 41 14 is_stmt 1 view .LVU624
 2076              	.LBB514:
  42:mi/stmlib/dsp/polyblep.h ****   return -0.5f * t * t;
 2077              		.loc 7 42 3 view .LVU625
  43:mi/stmlib/dsp/polyblep.h **** }
 2078              		.loc 7 43 3 view .LVU626
  43:mi/stmlib/dsp/polyblep.h **** }
 2079              		.loc 7 43 3 is_stmt 0 view .LVU627
 2080              	.LBE514:
 2081              	.LBE524:
 167:mi/plaits/dsp/oscillator/variable_shape_oscillator.h ****         }
 2082              		.loc 3 167 23 view .LVU628
 2083 016e E6EE273A 		vfma.f32	s7, s12, s15
ARM GAS  /var/folders/9k/zk1mgrrd7wg4__6zvxvr9w8m0000gn/T//ccaaKoMx.s 			page 63


 2084              	.LVL104:
 2085              	.L63:
 167:mi/plaits/dsp/oscillator/variable_shape_oscillator.h ****         }
 2086              		.loc 3 167 23 view .LVU629
 2087              	.LBE526:
 2088              	.LBE532:
 2089              	.LBE561:
 176:mi/plaits/dsp/oscillator/variable_shape_oscillator.h ****       while (transition_during_reset || !reset) {
 2090              		.loc 3 176 20 view .LVU630
 2091 0172 72EE266A 		vadd.f32	s13, s4, s13
 2092 0176 C0ED016A 		vstr.32	s13, [r0, #4]
 177:mi/plaits/dsp/oscillator/variable_shape_oscillator.h ****         if (!high_) {
 2093              		.loc 3 177 38 is_stmt 1 view .LVU631
 2094 017a 002B     		cmp	r3, #0
 2095 017c 40F09480 		bne	.L71
 2096              	.L97:
 2097              	.LBB562:
 178:mi/plaits/dsp/oscillator/variable_shape_oscillator.h ****           if (slave_phase_ < pw) {
 2098              		.loc 3 178 9 is_stmt 0 view .LVU632
 2099 0180 037C     		ldrb	r3, [r0, #16]	@ zero_extendqisi2
 2100              	.LBB563:
 2101              	.LBB564:
 2102              	.LBB565:
  42:mi/stmlib/dsp/polyblep.h ****   return -0.5f * t * t;
 2103              		.loc 7 42 5 view .LVU633
 2104 0182 F7EE005A 		vmov.f32	s11, #1.0e+0
 2105              	.LBE565:
 2106              	.LBE564:
 2107              	.LBB571:
 2108              	.LBB572:
  38:mi/stmlib/dsp/polyblep.h **** }
 2109              		.loc 7 38 15 view .LVU634
 2110 0186 F6EE006A 		vmov.f32	s13, #5.0e-1
 2111              	.LBE572:
 2112              	.LBE571:
 190:mi/plaits/dsp/oscillator/variable_shape_oscillator.h ****         }
 2113              		.loc 3 190 17 view .LVU635
 2114 018a 0122     		movs	r2, #1
 2115              	.LBB575:
 2116              	.LBB576:
 2117              	.LBB577:
  50:mi/stmlib/dsp/polyblep.h **** }
 2118              		.loc 7 50 18 view .LVU636
 2119 018c F4EE087A 		vmov.f32	s15, #1.875e-1
 2120              	.LBE577:
 2121              	.LBE576:
 2122              	.LBE575:
 179:mi/plaits/dsp/oscillator/variable_shape_oscillator.h ****             break;
 2123              		.loc 3 179 15 view .LVU637
 2124 0190 90ED015A 		vldr.32	s10, [r0, #4]
 2125              	.LBB588:
 2126              	.LBB583:
 2127              	.LBB578:
  50:mi/stmlib/dsp/polyblep.h **** }
 2128              		.loc 7 50 23 view .LVU638
 2129 0194 F7EE08BA 		vmov.f32	s23, #1.5e+0
 2130              	.LBE578:
ARM GAS  /var/folders/9k/zk1mgrrd7wg4__6zvxvr9w8m0000gn/T//ccaaKoMx.s 			page 64


 2131              	.LBE583:
 2132              	.LBE588:
 2133              	.LBB589:
 2134              	.LBB566:
  43:mi/stmlib/dsp/polyblep.h **** }
 2135              		.loc 7 43 16 view .LVU639
 2136 0198 BEEE006A 		vmov.f32	s12, #-5.0e-1
 2137              	.LBE566:
 2138              	.LBE589:
 2139              	.LBE563:
 178:mi/plaits/dsp/oscillator/variable_shape_oscillator.h ****           if (slave_phase_ < pw) {
 2140              		.loc 3 178 9 view .LVU640
 2141 019c 002B     		cmp	r3, #0
 2142 019e 45D0     		beq	.L105
 2143              	.L74:
 178:mi/plaits/dsp/oscillator/variable_shape_oscillator.h ****           if (slave_phase_ < pw) {
 2144              		.loc 3 178 9 view .LVU641
 2145              	.LBE562:
 2146              	.LBB615:
 2147              	.LBB616:
 194:mi/plaits/dsp/oscillator/variable_shape_oscillator.h ****             break;
 2148              		.loc 3 194 11 view .LVU642
 2149 01a0 B7EE007A 		vmov.f32	s14, #1.0e+0
 206:mi/plaits/dsp/oscillator/variable_shape_oscillator.h ****         }
 2150              		.loc 3 206 17 view .LVU643
 2151 01a4 0023     		movs	r3, #0
 2152              	.LBB617:
 2153              	.LBB618:
  38:mi/stmlib/dsp/polyblep.h **** }
 2154              		.loc 7 38 15 view .LVU644
 2155 01a6 F6EE007A 		vmov.f32	s15, #5.0e-1
 2156              	.LBE618:
 2157              	.LBE617:
 2158              	.LBB621:
 2159              	.LBB622:
 2160              	.LBB623:
  50:mi/stmlib/dsp/polyblep.h **** }
 2161              		.loc 7 50 18 view .LVU645
 2162 01aa B4EE08CA 		vmov.f32	s24, #1.875e-1
 2163              	.LBE623:
 2164              	.LBE622:
 2165              	.LBE621:
 194:mi/plaits/dsp/oscillator/variable_shape_oscillator.h ****             break;
 2166              		.loc 3 194 11 view .LVU646
 2167 01ae B4EEC75A 		vcmpe.f32	s10, s14
 2168              	.LBB638:
 2169              	.LBB631:
 2170              	.LBB624:
  50:mi/stmlib/dsp/polyblep.h **** }
 2171              		.loc 7 50 23 view .LVU647
 2172 01b2 B7EE084A 		vmov.f32	s8, #1.5e+0
 2173              	.LBE624:
 2174              	.LBE631:
 2175              	.LBE638:
 2176              	.LBB639:
 2177              	.LBB640:
  43:mi/stmlib/dsp/polyblep.h **** }
ARM GAS  /var/folders/9k/zk1mgrrd7wg4__6zvxvr9w8m0000gn/T//ccaaKoMx.s 			page 65


 2178              		.loc 7 43 16 view .LVU648
 2179 01b6 BEEE006A 		vmov.f32	s12, #-5.0e-1
 2180              	.LBE640:
 2181              	.LBE639:
 194:mi/plaits/dsp/oscillator/variable_shape_oscillator.h ****             break;
 2182              		.loc 3 194 11 view .LVU649
 2183 01ba F1EE10FA 		vmrs	APSR_nzcv, FPSCR
 2184 01be 72D4     		bmi	.L73
 197:mi/plaits/dsp/oscillator/variable_shape_oscillator.h ****           float t = slave_phase_ / slave_frequency;
 2185              		.loc 3 197 24 view .LVU650
 2186 01c0 35EE475A 		vsub.f32	s10, s10, s14
 206:mi/plaits/dsp/oscillator/variable_shape_oscillator.h ****         }
 2187              		.loc 3 206 17 view .LVU651
 2188 01c4 0374     		strb	r3, [r0, #16]
 202:mi/plaits/dsp/oscillator/variable_shape_oscillator.h ****           next_sample -= (1.0f - triangle_amount) * stmlib::NextBlepSample(t);
 2189              		.loc 3 202 32 view .LVU652
 2190 01c6 77EE61BA 		vsub.f32	s23, s14, s3
 199:mi/plaits/dsp/oscillator/variable_shape_oscillator.h ****           triangle_step *= triangle_amount;
 2191              		.loc 3 199 43 view .LVU653
 2192 01ca 71EE206A 		vadd.f32	s13, s2, s1
 198:mi/plaits/dsp/oscillator/variable_shape_oscillator.h ****           float triangle_step = (slope_up + slope_down) * slave_frequency;
 2193              		.loc 3 198 17 view .LVU654
 2194 01ce C5EE024A 		vdiv.f32	s9, s10, s4
 2195              	.LVL105:
 197:mi/plaits/dsp/oscillator/variable_shape_oscillator.h ****           float t = slave_phase_ / slave_frequency;
 2196              		.loc 3 197 24 view .LVU655
 2197 01d2 80ED015A 		vstr.32	s10, [r0, #4]
 199:mi/plaits/dsp/oscillator/variable_shape_oscillator.h ****           triangle_step *= triangle_amount;
 2198              		.loc 3 199 17 view .LVU656
 2199 01d6 66EE826A 		vmul.f32	s13, s13, s4
 2200              	.LVL106:
 200:mi/plaits/dsp/oscillator/variable_shape_oscillator.h **** 
 2201              		.loc 3 200 25 view .LVU657
 2202 01da 61EEA66A 		vmul.f32	s13, s3, s13
 2203              	.LVL107:
 2204              	.LBB645:
 2205              	.LBI617:
  37:mi/stmlib/dsp/polyblep.h ****   return 0.5f * t * t;
 2206              		.loc 7 37 14 is_stmt 1 view .LVU658
 2207              	.LBB619:
  38:mi/stmlib/dsp/polyblep.h **** }
 2208              		.loc 7 38 3 view .LVU659
  38:mi/stmlib/dsp/polyblep.h **** }
 2209              		.loc 7 38 15 is_stmt 0 view .LVU660
 2210 01de 24EEA75A 		vmul.f32	s10, s9, s15
 2211              	.LVL108:
  38:mi/stmlib/dsp/polyblep.h **** }
 2212              		.loc 7 38 15 view .LVU661
 2213              	.LBE619:
 2214              	.LBE645:
 2215              	.LBB646:
 2216              	.LBB641:
  42:mi/stmlib/dsp/polyblep.h ****   return -0.5f * t * t;
 2217              		.loc 7 42 5 view .LVU662
 2218 01e2 37EE647A 		vsub.f32	s14, s14, s9
 2219              	.LBE641:
 2220              	.LBE646:
ARM GAS  /var/folders/9k/zk1mgrrd7wg4__6zvxvr9w8m0000gn/T//ccaaKoMx.s 			page 66


 2221              	.LBB647:
 2222              	.LBB648:
  48:mi/stmlib/dsp/polyblep.h ****   const float t4 = t2 * t2;
 2223              		.loc 7 48 15 view .LVU663
 2224 01e6 65EE05CA 		vmul.f32	s25, s10, s10
 2225              	.LBE648:
 2226              	.LBE647:
 2227              	.LBB653:
 2228              	.LBB632:
 2229              	.LBB625:
  47:mi/stmlib/dsp/polyblep.h ****   const float t2 = t1 * t1;
 2230              		.loc 7 47 15 view .LVU664
 2231 01ea 67EE277A 		vmul.f32	s15, s14, s15
 2232              	.LBE625:
 2233              	.LBE632:
 2234              	.LBE653:
 2235              	.LBB654:
 2236              	.LBB649:
  50:mi/stmlib/dsp/polyblep.h **** }
 2237              		.loc 7 50 18 view .LVU665
 2238 01ee 7CEE455A 		vsub.f32	s11, s24, s10
 2239              	.LBE649:
 2240              	.LBE654:
 2241              	.LBB655:
 2242              	.LBB620:
  38:mi/stmlib/dsp/polyblep.h **** }
 2243              		.loc 7 38 21 view .LVU666
 2244 01f2 64EE854A 		vmul.f32	s9, s9, s10
 2245              	.LVL109:
  38:mi/stmlib/dsp/polyblep.h **** }
 2246              		.loc 7 38 21 view .LVU667
 2247              	.LBE620:
 2248              	.LBE655:
 2249              	.LBB656:
 2250              	.LBB642:
  43:mi/stmlib/dsp/polyblep.h **** }
 2251              		.loc 7 43 16 view .LVU668
 2252 01f6 27EE066A 		vmul.f32	s12, s14, s12
 2253              	.LBE642:
 2254              	.LBE656:
 2255              	.LBB657:
 2256              	.LBB633:
 2257              	.LBB626:
  48:mi/stmlib/dsp/polyblep.h ****   const float t4 = t2 * t2;
 2258              		.loc 7 48 15 view .LVU669
 2259 01fa 27EEA75A 		vmul.f32	s10, s15, s15
 2260              	.LBE626:
 2261              	.LBE633:
 2262              	.LBE657:
 2263              	.LBB658:
 2264              	.LBB650:
  50:mi/stmlib/dsp/polyblep.h **** }
 2265              		.loc 7 50 23 view .LVU670
 2266 01fe ECEE845A 		vfma.f32	s11, s25, s8
 2267              	.LBE650:
 2268              	.LBE658:
 2269              	.LBB659:
ARM GAS  /var/folders/9k/zk1mgrrd7wg4__6zvxvr9w8m0000gn/T//ccaaKoMx.s 			page 67


 2270              	.LBB634:
 2271              	.LBB627:
  50:mi/stmlib/dsp/polyblep.h **** }
 2272              		.loc 7 50 18 view .LVU671
 2273 0202 7CEE677A 		vsub.f32	s15, s24, s15
 2274              	.LBE627:
 2275              	.LBE634:
 2276              	.LBE659:
 2277              	.LBB660:
 2278              	.LBB643:
  43:mi/stmlib/dsp/polyblep.h **** }
 2279              		.loc 7 43 22 view .LVU672
 2280 0206 26EE077A 		vmul.f32	s14, s12, s14
 2281              	.LBE643:
 2282              	.LBE660:
 202:mi/plaits/dsp/oscillator/variable_shape_oscillator.h ****           next_sample -= (1.0f - triangle_amount) * stmlib::NextBlepSample(t);
 2283              		.loc 3 202 23 view .LVU673
 2284 020a ABEEE4BA 		vfms.f32	s22, s23, s9
 2285              	.LVL110:
 2286              	.LBB661:
 2287              	.LBI639:
  41:mi/stmlib/dsp/polyblep.h ****   t = 1.0f - t;
 2288              		.loc 7 41 14 is_stmt 1 view .LVU674
 2289              	.LBB644:
  42:mi/stmlib/dsp/polyblep.h ****   return -0.5f * t * t;
 2290              		.loc 7 42 3 view .LVU675
  43:mi/stmlib/dsp/polyblep.h **** }
 2291              		.loc 7 43 3 view .LVU676
  43:mi/stmlib/dsp/polyblep.h **** }
 2292              		.loc 7 43 3 is_stmt 0 view .LVU677
 2293              	.LBE644:
 2294              	.LBE661:
 2295              	.LBB662:
 2296              	.LBB635:
 2297              	.LBB628:
  50:mi/stmlib/dsp/polyblep.h **** }
 2298              		.loc 7 50 23 view .LVU678
 2299 020e E5EE047A 		vfma.f32	s15, s10, s8
 2300              	.LBE628:
 2301              	.LBE635:
 2302              	.LBE662:
 203:mi/plaits/dsp/oscillator/variable_shape_oscillator.h ****           this_sample += triangle_step * stmlib::ThisIntegratedBlepSample(t);
 2303              		.loc 3 203 23 view .LVU679
 2304 0212 EBEEC73A 		vfms.f32	s7, s23, s14
 2305              	.LVL111:
 2306              	.LBB663:
 2307              	.LBI621:
  53:mi/stmlib/dsp/polyblep.h ****   return NextIntegratedBlepSample(1.0f - t);
 2308              		.loc 7 53 14 is_stmt 1 view .LVU680
 2309              	.LBE663:
 2310              	.LBE616:
 2311              	.LBE615:
 2312              	.LBE492:
 2313              		.loc 7 54 3 view .LVU681
 2314              	.LBB687:
 2315              	.LBB669:
 2316              	.LBB668:
ARM GAS  /var/folders/9k/zk1mgrrd7wg4__6zvxvr9w8m0000gn/T//ccaaKoMx.s 			page 68


 2317              	.LBB664:
 2318              	.LBB636:
 2319              	.LBI622:
  46:mi/stmlib/dsp/polyblep.h ****   const float t1 = 0.5f * t;
 2320              		.loc 7 46 14 view .LVU682
 2321              	.LBB629:
  47:mi/stmlib/dsp/polyblep.h ****   const float t2 = t1 * t1;
 2322              		.loc 7 47 3 view .LVU683
  48:mi/stmlib/dsp/polyblep.h ****   const float t4 = t2 * t2;
 2323              		.loc 7 48 3 view .LVU684
  49:mi/stmlib/dsp/polyblep.h ****   return 0.1875f - t1 + 1.5f * t2 - t4;
 2324              		.loc 7 49 3 view .LVU685
  50:mi/stmlib/dsp/polyblep.h **** }
 2325              		.loc 7 50 3 view .LVU686
 2326              	.LBE629:
 2327              	.LBE636:
 2328              	.LBE664:
 2329              	.LBB665:
 2330              	.LBB651:
  50:mi/stmlib/dsp/polyblep.h **** }
 2331              		.loc 7 50 37 is_stmt 0 view .LVU687
 2332 0216 B0EE657A 		vmov.f32	s14, s11
 2333 021a ACEEEC7A 		vfms.f32	s14, s25, s25
 2334              	.LBE651:
 2335              	.LBE665:
 2336              	.LBB666:
 2337              	.LBB637:
 2338              	.LBB630:
 2339 021e E5EE457A 		vfms.f32	s15, s10, s10
 2340              	.LVL112:
  50:mi/stmlib/dsp/polyblep.h **** }
 2341              		.loc 7 50 37 view .LVU688
 2342              	.LBE630:
 2343              	.LBE637:
 2344              	.LBE666:
 205:mi/plaits/dsp/oscillator/variable_shape_oscillator.h ****           high_ = false;
 2345              		.loc 3 205 23 view .LVU689
 2346 0222 E6EE873A 		vfma.f32	s7, s13, s14
 2347              	.LVL113:
 204:mi/plaits/dsp/oscillator/variable_shape_oscillator.h ****           next_sample += triangle_step * stmlib::NextIntegratedBlepSample(t);
 2348              		.loc 3 204 23 view .LVU690
 2349 0226 A6EEA7BA 		vfma.f32	s22, s13, s15
 2350              	.LVL114:
 2351              	.LBB667:
 2352              	.LBI647:
  46:mi/stmlib/dsp/polyblep.h ****   const float t1 = 0.5f * t;
 2353              		.loc 7 46 14 is_stmt 1 view .LVU691
 2354              	.LBB652:
  47:mi/stmlib/dsp/polyblep.h ****   const float t2 = t1 * t1;
 2355              		.loc 7 47 3 view .LVU692
  48:mi/stmlib/dsp/polyblep.h ****   const float t4 = t2 * t2;
 2356              		.loc 7 48 3 view .LVU693
  49:mi/stmlib/dsp/polyblep.h ****   return 0.1875f - t1 + 1.5f * t2 - t4;
 2357              		.loc 7 49 3 view .LVU694
  50:mi/stmlib/dsp/polyblep.h **** }
 2358              		.loc 7 50 3 view .LVU695
  50:mi/stmlib/dsp/polyblep.h **** }
ARM GAS  /var/folders/9k/zk1mgrrd7wg4__6zvxvr9w8m0000gn/T//ccaaKoMx.s 			page 69


 2359              		.loc 7 50 3 is_stmt 0 view .LVU696
 2360              	.LBE652:
 2361              	.LBE667:
 2362              	.LBE668:
 2363 022a A9E7     		b	.L97
 2364              	.LVL115:
 2365              	.L105:
  50:mi/stmlib/dsp/polyblep.h **** }
 2366              		.loc 7 50 3 view .LVU697
 2367              	.LBE669:
 2368              	.LBB670:
 2369              	.LBB613:
 179:mi/plaits/dsp/oscillator/variable_shape_oscillator.h ****             break;
 2370              		.loc 3 179 11 view .LVU698
 2371 022c B4EEC35A 		vcmpe.f32	s10, s6
 2372 0230 F1EE10FA 		vmrs	APSR_nzcv, FPSCR
 2373 0234 37D4     		bmi	.L73
 182:mi/plaits/dsp/oscillator/variable_shape_oscillator.h ****           float triangle_step = (slope_up + slope_down) * slave_frequency;
 2374              		.loc 3 182 57 view .LVU699
 2375 0236 D0ED034A 		vldr.32	s9, [r0, #12]
 182:mi/plaits/dsp/oscillator/variable_shape_oscillator.h ****           float triangle_step = (slope_up + slope_down) * slave_frequency;
 2376              		.loc 3 182 35 view .LVU700
 2377 023a 35EE43CA 		vsub.f32	s24, s10, s6
 183:mi/plaits/dsp/oscillator/variable_shape_oscillator.h ****           triangle_step *= triangle_amount;
 2378              		.loc 3 183 43 view .LVU701
 2379 023e 31EE207A 		vadd.f32	s14, s2, s1
 190:mi/plaits/dsp/oscillator/variable_shape_oscillator.h ****         }
 2380              		.loc 3 190 17 view .LVU702
 2381 0242 0274     		strb	r2, [r0, #16]
 182:mi/plaits/dsp/oscillator/variable_shape_oscillator.h ****           float triangle_step = (slope_up + slope_down) * slave_frequency;
 2382              		.loc 3 182 57 view .LVU703
 2383 0244 74EEC34A 		vsub.f32	s9, s9, s6
 183:mi/plaits/dsp/oscillator/variable_shape_oscillator.h ****           triangle_step *= triangle_amount;
 2384              		.loc 3 183 17 view .LVU704
 2385 0248 27EE027A 		vmul.f32	s14, s14, s4
 182:mi/plaits/dsp/oscillator/variable_shape_oscillator.h ****           float triangle_step = (slope_up + slope_down) * slave_frequency;
 2386              		.loc 3 182 62 view .LVU705
 2387 024c 74EE824A 		vadd.f32	s9, s9, s4
 188:mi/plaits/dsp/oscillator/variable_shape_oscillator.h ****           next_sample -= triangle_step * stmlib::NextIntegratedBlepSample(t);
 2388              		.loc 3 188 23 view .LVU706
 2389 0250 27EE617A 		vnmul.f32	s14, s14, s3
 182:mi/plaits/dsp/oscillator/variable_shape_oscillator.h ****           float triangle_step = (slope_up + slope_down) * slave_frequency;
 2390              		.loc 3 182 17 view .LVU707
 2391 0254 8CEE244A 		vdiv.f32	s8, s24, s9
 2392              	.LVL116:
 2393              	.LBB590:
 2394              	.LBI571:
  37:mi/stmlib/dsp/polyblep.h ****   return 0.5f * t * t;
 2395              		.loc 7 37 14 is_stmt 1 view .LVU708
 2396              	.LBB573:
  38:mi/stmlib/dsp/polyblep.h **** }
 2397              		.loc 7 38 3 view .LVU709
  38:mi/stmlib/dsp/polyblep.h **** }
 2398              		.loc 7 38 15 is_stmt 0 view .LVU710
 2399 0258 64EE26CA 		vmul.f32	s25, s8, s13
 2400              	.LVL117:
  38:mi/stmlib/dsp/polyblep.h **** }
ARM GAS  /var/folders/9k/zk1mgrrd7wg4__6zvxvr9w8m0000gn/T//ccaaKoMx.s 			page 70


 2401              		.loc 7 38 15 view .LVU711
 2402              	.LBE573:
 2403              	.LBE590:
 2404              	.LBB591:
 2405              	.LBB567:
  42:mi/stmlib/dsp/polyblep.h ****   return -0.5f * t * t;
 2406              		.loc 7 42 5 view .LVU712
 2407 025c 75EEC45A 		vsub.f32	s11, s11, s8
 2408              	.LBE567:
 2409              	.LBE591:
 2410              	.LBB592:
 2411              	.LBB593:
  50:mi/stmlib/dsp/polyblep.h **** }
 2412              		.loc 7 50 18 view .LVU713
 2413 0260 77EEEC4A 		vsub.f32	s9, s15, s25
 2414              	.LBE593:
 2415              	.LBE592:
 2416              	.LBB599:
 2417              	.LBB584:
 2418              	.LBB579:
  47:mi/stmlib/dsp/polyblep.h ****   const float t2 = t1 * t1;
 2419              		.loc 7 47 15 view .LVU714
 2420 0264 65EEA66A 		vmul.f32	s13, s11, s13
 2421              	.LBE579:
 2422              	.LBE584:
 2423              	.LBE599:
 2424              	.LBB600:
 2425              	.LBB594:
  48:mi/stmlib/dsp/polyblep.h ****   const float t4 = t2 * t2;
 2426              		.loc 7 48 15 view .LVU715
 2427 0268 2CEEACCA 		vmul.f32	s24, s25, s25
 2428              	.LBE594:
 2429              	.LBE600:
 2430              	.LBB601:
 2431              	.LBB574:
  38:mi/stmlib/dsp/polyblep.h **** }
 2432              		.loc 7 38 21 view .LVU716
 2433 026c 24EE2C4A 		vmul.f32	s8, s8, s25
 2434              	.LVL118:
  38:mi/stmlib/dsp/polyblep.h **** }
 2435              		.loc 7 38 21 view .LVU717
 2436              	.LBE574:
 2437              	.LBE601:
 2438              	.LBB602:
 2439              	.LBB585:
 2440              	.LBB580:
  50:mi/stmlib/dsp/polyblep.h **** }
 2441              		.loc 7 50 18 view .LVU718
 2442 0270 77EEE67A 		vsub.f32	s15, s15, s13
  48:mi/stmlib/dsp/polyblep.h ****   const float t4 = t2 * t2;
 2443              		.loc 7 48 15 view .LVU719
 2444 0274 66EEA6CA 		vmul.f32	s25, s13, s13
 2445              	.LBE580:
 2446              	.LBE585:
 2447              	.LBE602:
 2448              	.LBB603:
 2449              	.LBB595:
ARM GAS  /var/folders/9k/zk1mgrrd7wg4__6zvxvr9w8m0000gn/T//ccaaKoMx.s 			page 71


  50:mi/stmlib/dsp/polyblep.h **** }
 2450              		.loc 7 50 23 view .LVU720
 2451 0278 F0EE646A 		vmov.f32	s13, s9
 2452              	.LBE595:
 2453              	.LBE603:
 2454              	.LBB604:
 2455              	.LBB568:
  43:mi/stmlib/dsp/polyblep.h **** }
 2456              		.loc 7 43 16 view .LVU721
 2457 027c 25EE866A 		vmul.f32	s12, s11, s12
 2458              	.LBE568:
 2459              	.LBE604:
 2460              	.LBB605:
 2461              	.LBB586:
 2462              	.LBB581:
  50:mi/stmlib/dsp/polyblep.h **** }
 2463              		.loc 7 50 23 view .LVU722
 2464 0280 ECEEAB7A 		vfma.f32	s15, s25, s23
 2465              	.LBE581:
 2466              	.LBE586:
 2467              	.LBE605:
 2468              	.LBB606:
 2469              	.LBB596:
 2470 0284 ECEE2B6A 		vfma.f32	s13, s24, s23
 2471              	.LBE596:
 2472              	.LBE606:
 2473              	.LBB607:
 2474              	.LBB569:
  43:mi/stmlib/dsp/polyblep.h **** }
 2475              		.loc 7 43 22 view .LVU723
 2476 0288 26EE256A 		vmul.f32	s12, s12, s11
 2477              	.LBE569:
 2478              	.LBE607:
 186:mi/plaits/dsp/oscillator/variable_shape_oscillator.h ****           next_sample += square_amount * stmlib::NextBlepSample(t);
 2479              		.loc 3 186 23 view .LVU724
 2480 028c A4EE22BA 		vfma.f32	s22, s8, s5
 2481              	.LVL119:
 2482              	.LBB608:
 2483              	.LBI564:
  41:mi/stmlib/dsp/polyblep.h ****   t = 1.0f - t;
 2484              		.loc 7 41 14 is_stmt 1 view .LVU725
 2485              	.LBB570:
  42:mi/stmlib/dsp/polyblep.h ****   return -0.5f * t * t;
 2486              		.loc 7 42 3 view .LVU726
  43:mi/stmlib/dsp/polyblep.h **** }
 2487              		.loc 7 43 3 view .LVU727
  43:mi/stmlib/dsp/polyblep.h **** }
 2488              		.loc 7 43 3 is_stmt 0 view .LVU728
 2489              	.LBE570:
 2490              	.LBE608:
 187:mi/plaits/dsp/oscillator/variable_shape_oscillator.h ****           this_sample -= triangle_step * stmlib::ThisIntegratedBlepSample(t);
 2491              		.loc 3 187 23 view .LVU729
 2492 0290 E6EE223A 		vfma.f32	s7, s12, s5
 2493              	.LVL120:
 2494              	.LBB609:
 2495              	.LBI575:
  53:mi/stmlib/dsp/polyblep.h ****   return NextIntegratedBlepSample(1.0f - t);
ARM GAS  /var/folders/9k/zk1mgrrd7wg4__6zvxvr9w8m0000gn/T//ccaaKoMx.s 			page 72


 2496              		.loc 7 53 14 is_stmt 1 view .LVU730
 2497              	.LBE609:
 2498              	.LBE613:
 2499              	.LBE670:
 2500              	.LBE687:
 2501              		.loc 7 54 3 view .LVU731
 2502              	.LBB688:
 2503              	.LBB671:
 2504              	.LBB614:
 2505              	.LBB610:
 2506              	.LBB587:
 2507              	.LBI576:
  46:mi/stmlib/dsp/polyblep.h ****   const float t1 = 0.5f * t;
 2508              		.loc 7 46 14 view .LVU732
 2509              	.LBB582:
  47:mi/stmlib/dsp/polyblep.h ****   const float t2 = t1 * t1;
 2510              		.loc 7 47 3 view .LVU733
  48:mi/stmlib/dsp/polyblep.h ****   const float t4 = t2 * t2;
 2511              		.loc 7 48 3 view .LVU734
  49:mi/stmlib/dsp/polyblep.h ****   return 0.1875f - t1 + 1.5f * t2 - t4;
 2512              		.loc 7 49 3 view .LVU735
  50:mi/stmlib/dsp/polyblep.h **** }
 2513              		.loc 7 50 3 view .LVU736
  50:mi/stmlib/dsp/polyblep.h **** }
 2514              		.loc 7 50 37 is_stmt 0 view .LVU737
 2515 0294 ECEEEC7A 		vfms.f32	s15, s25, s25
 2516              	.LVL121:
  50:mi/stmlib/dsp/polyblep.h **** }
 2517              		.loc 7 50 37 view .LVU738
 2518              	.LBE582:
 2519              	.LBE587:
 2520              	.LBE610:
 2521              	.LBB611:
 2522              	.LBB597:
 2523 0298 ECEE4C6A 		vfms.f32	s13, s24, s24
 2524              	.LBE597:
 2525              	.LBE611:
 188:mi/plaits/dsp/oscillator/variable_shape_oscillator.h ****           next_sample -= triangle_step * stmlib::NextIntegratedBlepSample(t);
 2526              		.loc 3 188 23 view .LVU739
 2527 029c A7EE27BA 		vfma.f32	s22, s14, s15
 2528              	.LVL122:
 2529              	.LBB612:
 2530              	.LBI592:
  46:mi/stmlib/dsp/polyblep.h ****   const float t1 = 0.5f * t;
 2531              		.loc 7 46 14 is_stmt 1 view .LVU740
 2532              	.LBB598:
  47:mi/stmlib/dsp/polyblep.h ****   const float t2 = t1 * t1;
 2533              		.loc 7 47 3 view .LVU741
  48:mi/stmlib/dsp/polyblep.h ****   const float t4 = t2 * t2;
 2534              		.loc 7 48 3 view .LVU742
  49:mi/stmlib/dsp/polyblep.h ****   return 0.1875f - t1 + 1.5f * t2 - t4;
 2535              		.loc 7 49 3 view .LVU743
  50:mi/stmlib/dsp/polyblep.h **** }
 2536              		.loc 7 50 3 view .LVU744
  50:mi/stmlib/dsp/polyblep.h **** }
 2537              		.loc 7 50 3 is_stmt 0 view .LVU745
 2538              	.LBE598:
ARM GAS  /var/folders/9k/zk1mgrrd7wg4__6zvxvr9w8m0000gn/T//ccaaKoMx.s 			page 73


 2539              	.LBE612:
 189:mi/plaits/dsp/oscillator/variable_shape_oscillator.h ****           high_ = true;
 2540              		.loc 3 189 23 view .LVU746
 2541 02a0 E7EE263A 		vfma.f32	s7, s14, s13
 2542              	.LVL123:
 189:mi/plaits/dsp/oscillator/variable_shape_oscillator.h ****           high_ = true;
 2543              		.loc 3 189 23 view .LVU747
 2544              	.LBE614:
 2545 02a4 7CE7     		b	.L74
 2546              	.LVL124:
 2547              	.L73:
 189:mi/plaits/dsp/oscillator/variable_shape_oscillator.h ****           high_ = true;
 2548              		.loc 3 189 23 view .LVU748
 2549              	.LBE671:
 210:mi/plaits/dsp/oscillator/variable_shape_oscillator.h ****         slave_phase_ = reset_time * slave_frequency;
 2550              		.loc 3 210 7 view .LVU749
 2551 02a6 2CB1     		cbz	r4, .L76
 2552              	.L71:
 211:mi/plaits/dsp/oscillator/variable_shape_oscillator.h ****         high_ = false;
 2553              		.loc 3 211 35 view .LVU750
 2554 02a8 20EE025A 		vmul.f32	s10, s0, s4
 212:mi/plaits/dsp/oscillator/variable_shape_oscillator.h ****       }
 2555              		.loc 3 212 15 view .LVU751
 2556 02ac 0023     		movs	r3, #0
 2557 02ae 0374     		strb	r3, [r0, #16]
 211:mi/plaits/dsp/oscillator/variable_shape_oscillator.h ****         high_ = false;
 2558              		.loc 3 211 22 view .LVU752
 2559 02b0 80ED015A 		vstr.32	s10, [r0, #4]
 2560              	.L76:
 2561              	.LVL125:
 2562              	.LBB672:
 2563              	.LBI672:
 249:mi/plaits/dsp/oscillator/variable_shape_oscillator.h ****       float phase,
 2564              		.loc 3 249 16 is_stmt 1 view .LVU753
 2565              	.LBB673:
 256:mi/plaits/dsp/oscillator/variable_shape_oscillator.h ****     float square = phase < pw ? 0.0f : 1.0f;
 2566              		.loc 3 256 5 view .LVU754
