ARM GAS  /var/folders/9k/zk1mgrrd7wg4__6zvxvr9w8m0000gn/T//ccjZIkb1.s 			page 1


   1              		.cpu cortex-m7
   2              		.arch armv7e-m
   3              		.fpu fpv5-d16
   4              		.eabi_attribute 28, 1
   5              		.eabi_attribute 20, 1
   6              		.eabi_attribute 21, 1
   7              		.eabi_attribute 23, 3
   8              		.eabi_attribute 24, 1
   9              		.eabi_attribute 25, 1
  10              		.eabi_attribute 26, 1
  11              		.eabi_attribute 30, 2
  12              		.eabi_attribute 34, 1
  13              		.eabi_attribute 18, 4
  14              		.file	"wavetable_engine.cpp"
  15              		.text
  16              	.Ltext0:
  17              		.cfi_sections	.debug_frame
  18              		.section	.text._ZN6plaits15WavetableEngine4InitEPN6stmlib15BufferAllocatorE,"ax",%progbits
  19              		.align	1
  20              		.p2align 2,,3
  21              		.global	_ZN6plaits15WavetableEngine4InitEPN6stmlib15BufferAllocatorE
  22              		.syntax unified
  23              		.thumb
  24              		.thumb_func
  26              	_ZN6plaits15WavetableEngine4InitEPN6stmlib15BufferAllocatorE:
  27              	.LVL0:
  28              	.LFB1491:
  29              		.file 1 "mi/plaits/dsp/engine/wavetable_engine.cpp"
   1:mi/plaits/dsp/engine/wavetable_engine.cpp **** // Copyright 2016 Emilie Gillet.
   2:mi/plaits/dsp/engine/wavetable_engine.cpp **** //
   3:mi/plaits/dsp/engine/wavetable_engine.cpp **** // Author: Emilie Gillet (emilie.o.gillet@gmail.com)
   4:mi/plaits/dsp/engine/wavetable_engine.cpp **** //
   5:mi/plaits/dsp/engine/wavetable_engine.cpp **** // Permission is hereby granted, free of charge, to any person obtaining a copy
   6:mi/plaits/dsp/engine/wavetable_engine.cpp **** // of this software and associated documentation files (the "Software"), to deal
   7:mi/plaits/dsp/engine/wavetable_engine.cpp **** // in the Software without restriction, including without limitation the rights
   8:mi/plaits/dsp/engine/wavetable_engine.cpp **** // to use, copy, modify, merge, publish, distribute, sublicense, and/or sell
   9:mi/plaits/dsp/engine/wavetable_engine.cpp **** // copies of the Software, and to permit persons to whom the Software is
  10:mi/plaits/dsp/engine/wavetable_engine.cpp **** // furnished to do so, subject to the following conditions:
  11:mi/plaits/dsp/engine/wavetable_engine.cpp **** // 
  12:mi/plaits/dsp/engine/wavetable_engine.cpp **** // The above copyright notice and this permission notice shall be included in
  13:mi/plaits/dsp/engine/wavetable_engine.cpp **** // all copies or substantial portions of the Software.
  14:mi/plaits/dsp/engine/wavetable_engine.cpp **** // 
  15:mi/plaits/dsp/engine/wavetable_engine.cpp **** // THE SOFTWARE IS PROVIDED "AS IS", WITHOUT WARRANTY OF ANY KIND, EXPRESS OR
  16:mi/plaits/dsp/engine/wavetable_engine.cpp **** // IMPLIED, INCLUDING BUT NOT LIMITED TO THE WARRANTIES OF MERCHANTABILITY,
  17:mi/plaits/dsp/engine/wavetable_engine.cpp **** // FITNESS FOR A PARTICULAR PURPOSE AND NONINFRINGEMENT. IN NO EVENT SHALL THE
  18:mi/plaits/dsp/engine/wavetable_engine.cpp **** // AUTHORS OR COPYRIGHT HOLDERS BE LIABLE FOR ANY CLAIM, DAMAGES OR OTHER
  19:mi/plaits/dsp/engine/wavetable_engine.cpp **** // LIABILITY, WHETHER IN AN ACTION OF CONTRACT, TORT OR OTHERWISE, ARISING FROM,
  20:mi/plaits/dsp/engine/wavetable_engine.cpp **** // OUT OF OR IN CONNECTION WITH THE SOFTWARE OR THE USE OR OTHER DEALINGS IN
  21:mi/plaits/dsp/engine/wavetable_engine.cpp **** // THE SOFTWARE.
  22:mi/plaits/dsp/engine/wavetable_engine.cpp **** // 
  23:mi/plaits/dsp/engine/wavetable_engine.cpp **** // See http://creativecommons.org/licenses/MIT/ for more information.
  24:mi/plaits/dsp/engine/wavetable_engine.cpp **** //
  25:mi/plaits/dsp/engine/wavetable_engine.cpp **** // -----------------------------------------------------------------------------
  26:mi/plaits/dsp/engine/wavetable_engine.cpp **** //
  27:mi/plaits/dsp/engine/wavetable_engine.cpp **** // 8x8x3 wave terrain.
  28:mi/plaits/dsp/engine/wavetable_engine.cpp **** 
  29:mi/plaits/dsp/engine/wavetable_engine.cpp **** #include "plaits/dsp/engine/wavetable_engine.h"
ARM GAS  /var/folders/9k/zk1mgrrd7wg4__6zvxvr9w8m0000gn/T//ccjZIkb1.s 			page 2


  30:mi/plaits/dsp/engine/wavetable_engine.cpp **** 
  31:mi/plaits/dsp/engine/wavetable_engine.cpp **** #include <algorithm>
  32:mi/plaits/dsp/engine/wavetable_engine.cpp **** 
  33:mi/plaits/dsp/engine/wavetable_engine.cpp **** #include "plaits/resources.h"
  34:mi/plaits/dsp/engine/wavetable_engine.cpp **** 
  35:mi/plaits/dsp/engine/wavetable_engine.cpp **** namespace plaits {
  36:mi/plaits/dsp/engine/wavetable_engine.cpp **** 
  37:mi/plaits/dsp/engine/wavetable_engine.cpp **** using namespace std;
  38:mi/plaits/dsp/engine/wavetable_engine.cpp **** using namespace stmlib;
  39:mi/plaits/dsp/engine/wavetable_engine.cpp **** 
  40:mi/plaits/dsp/engine/wavetable_engine.cpp **** const int kNumBanks = 4;
  41:mi/plaits/dsp/engine/wavetable_engine.cpp **** const int kNumWavesPerBank = 64;
  42:mi/plaits/dsp/engine/wavetable_engine.cpp **** const int kNumWaves = 192;
  43:mi/plaits/dsp/engine/wavetable_engine.cpp **** const int kNumCustomWaves = 15;
  44:mi/plaits/dsp/engine/wavetable_engine.cpp **** 
  45:mi/plaits/dsp/engine/wavetable_engine.cpp **** const size_t kTableSize = 128;
  46:mi/plaits/dsp/engine/wavetable_engine.cpp **** const float kTableSizeF = float(kTableSize);
  47:mi/plaits/dsp/engine/wavetable_engine.cpp **** 
  48:mi/plaits/dsp/engine/wavetable_engine.cpp **** void WavetableEngine::Init(BufferAllocator* allocator) {
  30              		.loc 1 48 56 view -0
  31              		.cfi_startproc
  32              		@ args = 0, pretend = 0, frame = 0
  33              		@ frame_needed = 0, uses_anonymous_args = 0
  34              		@ link register save eliminated.
  49:mi/plaits/dsp/engine/wavetable_engine.cpp ****   phase_ = 0.0f;
  35              		.loc 1 49 3 view .LVU1
  36              	.LBB72:
  37              	.LBB73:
  38              	.LBB74:
  39              		.file 2 "mi/stmlib/utils/buffer_allocator.h"
   1:mi/stmlib/utils/buffer_allocator.h **** // Copyright 2014 Emilie Gillet.
   2:mi/stmlib/utils/buffer_allocator.h **** //
   3:mi/stmlib/utils/buffer_allocator.h **** // Author: Emilie Gillet (emilie.o.gillet@gmail.com)
   4:mi/stmlib/utils/buffer_allocator.h **** //
   5:mi/stmlib/utils/buffer_allocator.h **** // Permission is hereby granted, free of charge, to any person obtaining a copy
   6:mi/stmlib/utils/buffer_allocator.h **** // of this software and associated documentation files (the "Software"), to deal
   7:mi/stmlib/utils/buffer_allocator.h **** // in the Software without restriction, including without limitation the rights
   8:mi/stmlib/utils/buffer_allocator.h **** // to use, copy, modify, merge, publish, distribute, sublicense, and/or sell
   9:mi/stmlib/utils/buffer_allocator.h **** // copies of the Software, and to permit persons to whom the Software is
  10:mi/stmlib/utils/buffer_allocator.h **** // furnished to do so, subject to the following conditions:
  11:mi/stmlib/utils/buffer_allocator.h **** // 
  12:mi/stmlib/utils/buffer_allocator.h **** // The above copyright notice and this permission notice shall be included in
  13:mi/stmlib/utils/buffer_allocator.h **** // all copies or substantial portions of the Software.
  14:mi/stmlib/utils/buffer_allocator.h **** // 
  15:mi/stmlib/utils/buffer_allocator.h **** // THE SOFTWARE IS PROVIDED "AS IS", WITHOUT WARRANTY OF ANY KIND, EXPRESS OR
  16:mi/stmlib/utils/buffer_allocator.h **** // IMPLIED, INCLUDING BUT NOT LIMITED TO THE WARRANTIES OF MERCHANTABILITY,
  17:mi/stmlib/utils/buffer_allocator.h **** // FITNESS FOR A PARTICULAR PURPOSE AND NONINFRINGEMENT. IN NO EVENT SHALL THE
  18:mi/stmlib/utils/buffer_allocator.h **** // AUTHORS OR COPYRIGHT HOLDERS BE LIABLE FOR ANY CLAIM, DAMAGES OR OTHER
  19:mi/stmlib/utils/buffer_allocator.h **** // LIABILITY, WHETHER IN AN ACTION OF CONTRACT, TORT OR OTHERWISE, ARISING FROM,
  20:mi/stmlib/utils/buffer_allocator.h **** // OUT OF OR IN CONNECTION WITH THE SOFTWARE OR THE USE OR OTHER DEALINGS IN
  21:mi/stmlib/utils/buffer_allocator.h **** // THE SOFTWARE.
  22:mi/stmlib/utils/buffer_allocator.h **** // 
  23:mi/stmlib/utils/buffer_allocator.h **** // See http://creativecommons.org/licenses/MIT/ for more information.
  24:mi/stmlib/utils/buffer_allocator.h **** //
  25:mi/stmlib/utils/buffer_allocator.h **** // -----------------------------------------------------------------------------
  26:mi/stmlib/utils/buffer_allocator.h **** //
  27:mi/stmlib/utils/buffer_allocator.h **** // Stream buffer for serialization.
ARM GAS  /var/folders/9k/zk1mgrrd7wg4__6zvxvr9w8m0000gn/T//ccjZIkb1.s 			page 3


  28:mi/stmlib/utils/buffer_allocator.h **** 
  29:mi/stmlib/utils/buffer_allocator.h **** #ifndef STMLIB_UTILS_BUFFER_ALLOCATOR_H_
  30:mi/stmlib/utils/buffer_allocator.h **** #define STMLIB_UTILS_BUFFER_ALLOCATOR_H_
  31:mi/stmlib/utils/buffer_allocator.h **** 
  32:mi/stmlib/utils/buffer_allocator.h **** #include "stmlib/stmlib.h"
  33:mi/stmlib/utils/buffer_allocator.h **** 
  34:mi/stmlib/utils/buffer_allocator.h **** namespace stmlib {
  35:mi/stmlib/utils/buffer_allocator.h **** 
  36:mi/stmlib/utils/buffer_allocator.h **** class BufferAllocator {
  37:mi/stmlib/utils/buffer_allocator.h ****  public:
  38:mi/stmlib/utils/buffer_allocator.h ****   BufferAllocator() { }
  39:mi/stmlib/utils/buffer_allocator.h ****   ~BufferAllocator() { }
  40:mi/stmlib/utils/buffer_allocator.h ****   
  41:mi/stmlib/utils/buffer_allocator.h ****   BufferAllocator(void* buffer, size_t size) {
  42:mi/stmlib/utils/buffer_allocator.h ****     Init(buffer, size);
  43:mi/stmlib/utils/buffer_allocator.h ****   }
  44:mi/stmlib/utils/buffer_allocator.h ****   
  45:mi/stmlib/utils/buffer_allocator.h ****   inline void Init(void* buffer, size_t size) {
  46:mi/stmlib/utils/buffer_allocator.h ****     buffer_ = static_cast<uint8_t*>(buffer);
  47:mi/stmlib/utils/buffer_allocator.h ****     size_ = size;
  48:mi/stmlib/utils/buffer_allocator.h ****     Free();
  49:mi/stmlib/utils/buffer_allocator.h ****   }
  50:mi/stmlib/utils/buffer_allocator.h **** 
  51:mi/stmlib/utils/buffer_allocator.h ****   template<typename T>
  52:mi/stmlib/utils/buffer_allocator.h ****   inline T* Allocate() {
  53:mi/stmlib/utils/buffer_allocator.h ****     return Allocate<T>(1);
  54:mi/stmlib/utils/buffer_allocator.h ****   }
  55:mi/stmlib/utils/buffer_allocator.h ****   
  56:mi/stmlib/utils/buffer_allocator.h ****   template<typename T>
  57:mi/stmlib/utils/buffer_allocator.h ****   inline T* Allocate(size_t size) {
  58:mi/stmlib/utils/buffer_allocator.h ****     size_t size_bytes = sizeof(T) * size;
  59:mi/stmlib/utils/buffer_allocator.h ****     if (size_bytes <= free_) {
  40              		.loc 2 59 23 is_stmt 0 view .LVU2
  41 0000 8A68     		ldr	r2, [r1, #8]
  42              	.LBE74:
  43              	.LBE73:
  44              	.LBE72:
  45              		.loc 1 49 10 view .LVU3
  46 0002 0023     		movs	r3, #0
  50:mi/plaits/dsp/engine/wavetable_engine.cpp **** 
  51:mi/plaits/dsp/engine/wavetable_engine.cpp ****   x_lp_ = 0.0f;
  52:mi/plaits/dsp/engine/wavetable_engine.cpp ****   y_lp_ = 0.0f;
  53:mi/plaits/dsp/engine/wavetable_engine.cpp ****   z_lp_ = 0.0f;
  54:mi/plaits/dsp/engine/wavetable_engine.cpp ****   
  55:mi/plaits/dsp/engine/wavetable_engine.cpp ****   x_pre_lp_ = 0.0f;
  56:mi/plaits/dsp/engine/wavetable_engine.cpp ****   y_pre_lp_ = 0.0f;
  57:mi/plaits/dsp/engine/wavetable_engine.cpp ****   z_pre_lp_ = 0.0f;
  58:mi/plaits/dsp/engine/wavetable_engine.cpp **** 
  59:mi/plaits/dsp/engine/wavetable_engine.cpp ****   previous_x_ = 0.0f;
  60:mi/plaits/dsp/engine/wavetable_engine.cpp ****   previous_y_ = 0.0f;
  61:mi/plaits/dsp/engine/wavetable_engine.cpp ****   previous_z_ = 0.0f;
  62:mi/plaits/dsp/engine/wavetable_engine.cpp ****   previous_f0_ = a0;
  47              		.loc 1 62 16 view .LVU4
  48 0004 DFF840C0 		ldr	ip, .L9
  49              	.LBB85:
  50              	.LBB81:
  51              	.LBB77:
ARM GAS  /var/folders/9k/zk1mgrrd7wg4__6zvxvr9w8m0000gn/T//ccjZIkb1.s 			page 4


  52              		.loc 2 59 5 view .LVU5
  53 0008 FF2A     		cmp	r2, #255
  54              	.LBE77:
  55              	.LBE81:
  56              	.LBE85:
  49:mi/plaits/dsp/engine/wavetable_engine.cpp **** 
  57              		.loc 1 49 10 view .LVU6
  58 000a 0361     		str	r3, [r0, #16]	@ float
  51:mi/plaits/dsp/engine/wavetable_engine.cpp ****   y_lp_ = 0.0f;
  59              		.loc 1 51 3 is_stmt 1 view .LVU7
  51:mi/plaits/dsp/engine/wavetable_engine.cpp ****   y_lp_ = 0.0f;
  60              		.loc 1 51 9 is_stmt 0 view .LVU8
  61 000c 0362     		str	r3, [r0, #32]	@ float
  52:mi/plaits/dsp/engine/wavetable_engine.cpp ****   z_lp_ = 0.0f;
  62              		.loc 1 52 3 is_stmt 1 view .LVU9
  52:mi/plaits/dsp/engine/wavetable_engine.cpp ****   z_lp_ = 0.0f;
  63              		.loc 1 52 9 is_stmt 0 view .LVU10
  64 000e 4362     		str	r3, [r0, #36]	@ float
  53:mi/plaits/dsp/engine/wavetable_engine.cpp ****   
  65              		.loc 1 53 3 is_stmt 1 view .LVU11
  53:mi/plaits/dsp/engine/wavetable_engine.cpp ****   
  66              		.loc 1 53 9 is_stmt 0 view .LVU12
  67 0010 8362     		str	r3, [r0, #40]	@ float
  55:mi/plaits/dsp/engine/wavetable_engine.cpp ****   y_pre_lp_ = 0.0f;
  68              		.loc 1 55 3 is_stmt 1 view .LVU13
  55:mi/plaits/dsp/engine/wavetable_engine.cpp ****   y_pre_lp_ = 0.0f;
  69              		.loc 1 55 13 is_stmt 0 view .LVU14
  70 0012 4361     		str	r3, [r0, #20]	@ float
  56:mi/plaits/dsp/engine/wavetable_engine.cpp ****   z_pre_lp_ = 0.0f;
  71              		.loc 1 56 3 is_stmt 1 view .LVU15
  56:mi/plaits/dsp/engine/wavetable_engine.cpp ****   z_pre_lp_ = 0.0f;
  72              		.loc 1 56 13 is_stmt 0 view .LVU16
  73 0014 8361     		str	r3, [r0, #24]	@ float
  57:mi/plaits/dsp/engine/wavetable_engine.cpp **** 
  74              		.loc 1 57 3 is_stmt 1 view .LVU17
  57:mi/plaits/dsp/engine/wavetable_engine.cpp **** 
  75              		.loc 1 57 13 is_stmt 0 view .LVU18
  76 0016 C361     		str	r3, [r0, #28]	@ float
  59:mi/plaits/dsp/engine/wavetable_engine.cpp ****   previous_y_ = 0.0f;
  77              		.loc 1 59 3 is_stmt 1 view .LVU19
  59:mi/plaits/dsp/engine/wavetable_engine.cpp ****   previous_y_ = 0.0f;
  78              		.loc 1 59 15 is_stmt 0 view .LVU20
  79 0018 C362     		str	r3, [r0, #44]	@ float
  60:mi/plaits/dsp/engine/wavetable_engine.cpp ****   previous_z_ = 0.0f;
  80              		.loc 1 60 3 is_stmt 1 view .LVU21
  60:mi/plaits/dsp/engine/wavetable_engine.cpp ****   previous_z_ = 0.0f;
  81              		.loc 1 60 15 is_stmt 0 view .LVU22
  82 001a 0363     		str	r3, [r0, #48]	@ float
  61:mi/plaits/dsp/engine/wavetable_engine.cpp ****   previous_f0_ = a0;
  83              		.loc 1 61 3 is_stmt 1 view .LVU23
  61:mi/plaits/dsp/engine/wavetable_engine.cpp ****   previous_f0_ = a0;
  84              		.loc 1 61 15 is_stmt 0 view .LVU24
  85 001c 4363     		str	r3, [r0, #52]	@ float
  86              		.loc 1 62 3 is_stmt 1 view .LVU25
  87              		.loc 1 62 16 is_stmt 0 view .LVU26
  88 001e C0F838C0 		str	ip, [r0, #56]	@ float
  63:mi/plaits/dsp/engine/wavetable_engine.cpp **** 
ARM GAS  /var/folders/9k/zk1mgrrd7wg4__6zvxvr9w8m0000gn/T//ccjZIkb1.s 			page 5


  64:mi/plaits/dsp/engine/wavetable_engine.cpp ****   diff_out_.Init();
  89              		.loc 1 64 3 is_stmt 1 view .LVU27
  90              	.LVL1:
  91              	.LBB86:
  92              	.LBI86:
  93              		.file 3 "mi/plaits/dsp/oscillator/wavetable_oscillator.h"
   1:mi/plaits/dsp/oscillator/wavetable_oscillator.h **** // Copyright 2016 Emilie Gillet.
   2:mi/plaits/dsp/oscillator/wavetable_oscillator.h **** //
   3:mi/plaits/dsp/oscillator/wavetable_oscillator.h **** // Author: Emilie Gillet (emilie.o.gillet@gmail.com)
   4:mi/plaits/dsp/oscillator/wavetable_oscillator.h **** //
   5:mi/plaits/dsp/oscillator/wavetable_oscillator.h **** // Permission is hereby granted, free of charge, to any person obtaining a copy
   6:mi/plaits/dsp/oscillator/wavetable_oscillator.h **** // of this software and associated documentation files (the "Software"), to deal
   7:mi/plaits/dsp/oscillator/wavetable_oscillator.h **** // in the Software without restriction, including without limitation the rights
   8:mi/plaits/dsp/oscillator/wavetable_oscillator.h **** // to use, copy, modify, merge, publish, distribute, sublicense, and/or sell
   9:mi/plaits/dsp/oscillator/wavetable_oscillator.h **** // copies of the Software, and to permit persons to whom the Software is
  10:mi/plaits/dsp/oscillator/wavetable_oscillator.h **** // furnished to do so, subject to the following conditions:
  11:mi/plaits/dsp/oscillator/wavetable_oscillator.h **** // 
  12:mi/plaits/dsp/oscillator/wavetable_oscillator.h **** // The above copyright notice and this permission notice shall be included in
  13:mi/plaits/dsp/oscillator/wavetable_oscillator.h **** // all copies or substantial portions of the Software.
  14:mi/plaits/dsp/oscillator/wavetable_oscillator.h **** // 
  15:mi/plaits/dsp/oscillator/wavetable_oscillator.h **** // THE SOFTWARE IS PROVIDED "AS IS", WITHOUT WARRANTY OF ANY KIND, EXPRESS OR
  16:mi/plaits/dsp/oscillator/wavetable_oscillator.h **** // IMPLIED, INCLUDING BUT NOT LIMITED TO THE WARRANTIES OF MERCHANTABILITY,
  17:mi/plaits/dsp/oscillator/wavetable_oscillator.h **** // FITNESS FOR A PARTICULAR PURPOSE AND NONINFRINGEMENT. IN NO EVENT SHALL THE
  18:mi/plaits/dsp/oscillator/wavetable_oscillator.h **** // AUTHORS OR COPYRIGHT HOLDERS BE LIABLE FOR ANY CLAIM, DAMAGES OR OTHER
  19:mi/plaits/dsp/oscillator/wavetable_oscillator.h **** // LIABILITY, WHETHER IN AN ACTION OF CONTRACT, TORT OR OTHERWISE, ARISING FROM,
  20:mi/plaits/dsp/oscillator/wavetable_oscillator.h **** // OUT OF OR IN CONNECTION WITH THE SOFTWARE OR THE USE OR OTHER DEALINGS IN
  21:mi/plaits/dsp/oscillator/wavetable_oscillator.h **** // THE SOFTWARE.
  22:mi/plaits/dsp/oscillator/wavetable_oscillator.h **** // 
  23:mi/plaits/dsp/oscillator/wavetable_oscillator.h **** // See http://creativecommons.org/licenses/MIT/ for more information.
  24:mi/plaits/dsp/oscillator/wavetable_oscillator.h **** //
  25:mi/plaits/dsp/oscillator/wavetable_oscillator.h **** // -----------------------------------------------------------------------------
  26:mi/plaits/dsp/oscillator/wavetable_oscillator.h **** //
  27:mi/plaits/dsp/oscillator/wavetable_oscillator.h **** // Integrated wavetable synthesis.
  28:mi/plaits/dsp/oscillator/wavetable_oscillator.h **** 
  29:mi/plaits/dsp/oscillator/wavetable_oscillator.h **** #ifndef PLAITS_DSP_OSCILLATOR_WAVETABLE_OSCILLATOR_H_
  30:mi/plaits/dsp/oscillator/wavetable_oscillator.h **** #define PLAITS_DSP_OSCILLATOR_WAVETABLE_OSCILLATOR_H_
  31:mi/plaits/dsp/oscillator/wavetable_oscillator.h **** 
  32:mi/plaits/dsp/oscillator/wavetable_oscillator.h **** #include <algorithm>
  33:mi/plaits/dsp/oscillator/wavetable_oscillator.h **** 
  34:mi/plaits/dsp/oscillator/wavetable_oscillator.h **** #include "stmlib/dsp/dsp.h"
  35:mi/plaits/dsp/oscillator/wavetable_oscillator.h **** #include "stmlib/dsp/parameter_interpolator.h"
  36:mi/plaits/dsp/oscillator/wavetable_oscillator.h **** 
  37:mi/plaits/dsp/oscillator/wavetable_oscillator.h **** #include "plaits/dsp/oscillator/oscillator.h"
  38:mi/plaits/dsp/oscillator/wavetable_oscillator.h **** 
  39:mi/plaits/dsp/oscillator/wavetable_oscillator.h **** namespace plaits {
  40:mi/plaits/dsp/oscillator/wavetable_oscillator.h **** 
  41:mi/plaits/dsp/oscillator/wavetable_oscillator.h **** class Differentiator {
  42:mi/plaits/dsp/oscillator/wavetable_oscillator.h ****  public:
  43:mi/plaits/dsp/oscillator/wavetable_oscillator.h ****   Differentiator() { }
  44:mi/plaits/dsp/oscillator/wavetable_oscillator.h ****   ~Differentiator() { }
  45:mi/plaits/dsp/oscillator/wavetable_oscillator.h **** 
  46:mi/plaits/dsp/oscillator/wavetable_oscillator.h ****   void Init() {
  94              		.loc 3 46 8 view .LVU28
  95              	.LBB87:
  47:mi/plaits/dsp/oscillator/wavetable_oscillator.h ****     previous_ = 0.0f;
  96              		.loc 3 47 5 view .LVU29
  97              		.loc 3 47 15 is_stmt 0 view .LVU30
ARM GAS  /var/folders/9k/zk1mgrrd7wg4__6zvxvr9w8m0000gn/T//ccjZIkb1.s 			page 6


  98 0022 4364     		str	r3, [r0, #68]	@ float
  48:mi/plaits/dsp/oscillator/wavetable_oscillator.h ****     lp_ = 0.0f;
  99              		.loc 3 48 5 is_stmt 1 view .LVU31
 100              		.loc 3 48 9 is_stmt 0 view .LVU32
 101 0024 0364     		str	r3, [r0, #64]	@ float
 102              	.LVL2:
 103              		.loc 3 48 9 view .LVU33
 104              	.LBE87:
 105              	.LBE86:
  65:mi/plaits/dsp/engine/wavetable_engine.cpp ****   
  66:mi/plaits/dsp/engine/wavetable_engine.cpp ****   wave_map_ = allocator->Allocate<const int16_t*>(kNumWavesPerBank);
 106              		.loc 1 66 3 is_stmt 1 view .LVU34
 107              	.LBB88:
 108              	.LBI72:
  57:mi/stmlib/utils/buffer_allocator.h ****     size_t size_bytes = sizeof(T) * size;
 109              		.loc 2 57 13 view .LVU35
 110              	.LBB82:
 111              	.LBB78:
 112              		.loc 2 59 5 is_stmt 0 view .LVU36
 113 0026 0BD9     		bls	.L3
 114              	.LBB75:
  60:mi/stmlib/utils/buffer_allocator.h ****       T* start = static_cast<T*>(static_cast<void*>(next_));
 115              		.loc 2 60 10 view .LVU37
 116 0028 0B68     		ldr	r3, [r1]
 117              	.LVL3:
  61:mi/stmlib/utils/buffer_allocator.h ****       next_ += size_bytes;
  62:mi/stmlib/utils/buffer_allocator.h ****       free_ -= size_bytes;
 118              		.loc 2 62 13 view .LVU38
 119 002a A2F58072 		sub	r2, r2, #256
 120              	.LBE75:
 121              	.LBE78:
 122              	.LBE82:
 123              	.LBE88:
  48:mi/plaits/dsp/engine/wavetable_engine.cpp ****   phase_ = 0.0f;
 124              		.loc 1 48 56 view .LVU39
 125 002e 10B4     		push	{r4}
 126              		.cfi_def_cfa_offset 4
 127              		.cfi_offset 4, -4
 128              	.LBB89:
 129              	.LBB83:
 130              	.LBB79:
 131              	.LBB76:
  61:mi/stmlib/utils/buffer_allocator.h ****       next_ += size_bytes;
 132              		.loc 2 61 13 view .LVU40
 133 0030 03F58074 		add	r4, r3, #256
 134              		.loc 2 62 13 view .LVU41
 135 0034 8A60     		str	r2, [r1, #8]
  61:mi/stmlib/utils/buffer_allocator.h ****       next_ += size_bytes;
 136              		.loc 2 61 13 view .LVU42
 137 0036 0C60     		str	r4, [r1]
 138              	.LVL4:
  61:mi/stmlib/utils/buffer_allocator.h ****       next_ += size_bytes;
 139              		.loc 2 61 13 view .LVU43
 140              	.LBE76:
 141              	.LBE79:
 142              	.LBE83:
 143              	.LBE89:
ARM GAS  /var/folders/9k/zk1mgrrd7wg4__6zvxvr9w8m0000gn/T//ccjZIkb1.s 			page 7


  67:mi/plaits/dsp/engine/wavetable_engine.cpp **** }
 144              		.loc 1 67 1 view .LVU44
 145 0038 5DF8044B 		ldr	r4, [sp], #4
 146              		.cfi_restore 4
 147              		.cfi_def_cfa_offset 0
  66:mi/plaits/dsp/engine/wavetable_engine.cpp **** }
 148              		.loc 1 66 13 view .LVU45
 149 003c C363     		str	r3, [r0, #60]
 150              		.loc 1 67 1 view .LVU46
 151 003e 7047     		bx	lr
 152              	.LVL5:
 153              	.L3:
 154              	.LBB90:
 155              	.LBB84:
 156              	.LBB80:
  63:mi/stmlib/utils/buffer_allocator.h ****       return start;
  64:mi/stmlib/utils/buffer_allocator.h ****     } else {
  65:mi/stmlib/utils/buffer_allocator.h ****       return NULL;
 157              		.loc 2 65 14 view .LVU47
 158 0040 0023     		movs	r3, #0
 159              	.LVL6:
 160              		.loc 2 65 14 view .LVU48
 161              	.LBE80:
 162              	.LBE84:
 163              	.LBE90:
  66:mi/plaits/dsp/engine/wavetable_engine.cpp **** }
 164              		.loc 1 66 13 view .LVU49
 165 0042 C363     		str	r3, [r0, #60]
 166 0044 7047     		bx	lr
 167              	.L10:
 168 0046 00BF     		.align	2
 169              	.L9:
 170 0048 5196963A 		.word	982947409
 171              		.cfi_endproc
 172              	.LFE1491:
 174              		.section	.text._ZN6plaits15WavetableEngine5ResetEv,"ax",%progbits
 175              		.align	1
 176              		.p2align 2,,3
 177              		.global	_ZN6plaits15WavetableEngine5ResetEv
 178              		.syntax unified
 179              		.thumb
 180              		.thumb_func
 182              	_ZN6plaits15WavetableEngine5ResetEv:
 183              	.LVL7:
 184              	.LFB1492:
  68:mi/plaits/dsp/engine/wavetable_engine.cpp **** 
  69:mi/plaits/dsp/engine/wavetable_engine.cpp **** void WavetableEngine::Reset() {
 185              		.loc 1 69 31 is_stmt 1 view -0
 186              		.cfi_startproc
 187              		@ args = 0, pretend = 0, frame = 0
 188              		@ frame_needed = 0, uses_anonymous_args = 0
 189              		@ link register save eliminated.
  70:mi/plaits/dsp/engine/wavetable_engine.cpp ****   
  71:mi/plaits/dsp/engine/wavetable_engine.cpp **** }
 190              		.loc 1 71 1 is_stmt 0 view .LVU51
 191 0000 7047     		bx	lr
 192              		.cfi_endproc
ARM GAS  /var/folders/9k/zk1mgrrd7wg4__6zvxvr9w8m0000gn/T//ccjZIkb1.s 			page 8


 193              	.LFE1492:
 195 0002 00BF     		.section	.text._ZN6plaits15WavetableEngine12LoadUserDataEPKh,"ax",%progbits
 196              		.align	1
 197              		.p2align 2,,3
 198              		.global	_ZN6plaits15WavetableEngine12LoadUserDataEPKh
 199              		.syntax unified
 200              		.thumb
 201              		.thumb_func
 203              	_ZN6plaits15WavetableEngine12LoadUserDataEPKh:
 204              	.LVL8:
 205              	.LFB1493:
  72:mi/plaits/dsp/engine/wavetable_engine.cpp **** 
  73:mi/plaits/dsp/engine/wavetable_engine.cpp **** void WavetableEngine::LoadUserData(const uint8_t* user_data) {
 206              		.loc 1 73 62 is_stmt 1 view -0
 207              		.cfi_startproc
 208              		@ args = 0, pretend = 0, frame = 0
 209              		@ frame_needed = 0, uses_anonymous_args = 0
  74:mi/plaits/dsp/engine/wavetable_engine.cpp ****   for (int bank = 0; bank < kNumBanks; ++bank) {
 210              		.loc 1 74 3 view .LVU53
 211              	.LBB91:
 212              		.loc 1 74 27 view .LVU54
 213              	.LBE91:
  73:mi/plaits/dsp/engine/wavetable_engine.cpp ****   for (int bank = 0; bank < kNumBanks; ++bank) {
 214              		.loc 1 73 62 is_stmt 0 view .LVU55
 215 0000 70B5     		push	{r4, r5, r6, lr}
 216              		.cfi_def_cfa_offset 16
 217              		.cfi_offset 4, -16
 218              		.cfi_offset 5, -12
 219              		.cfi_offset 6, -8
 220              		.cfi_offset 14, -4
 221              	.LBB99:
 222              		.loc 1 74 12 view .LVU56
 223 0002 0024     		movs	r4, #0
 224              	.LBE99:
  73:mi/plaits/dsp/engine/wavetable_engine.cpp ****   for (int bank = 0; bank < kNumBanks; ++bank) {
 225              		.loc 1 73 62 view .LVU57
 226 0004 0E46     		mov	r6, r1
 227              	.LBB100:
 228              	.LBB92:
 229              	.LBB93:
  75:mi/plaits/dsp/engine/wavetable_engine.cpp ****     for (int wave = 0; wave < kNumWavesPerBank; ++wave) {
  76:mi/plaits/dsp/engine/wavetable_engine.cpp ****       int i = bank * kNumWavesPerBank + wave;
  77:mi/plaits/dsp/engine/wavetable_engine.cpp **** 
  78:mi/plaits/dsp/engine/wavetable_engine.cpp ****       int w = i;
  79:mi/plaits/dsp/engine/wavetable_engine.cpp ****       if (bank == kNumBanks - 1) {
  80:mi/plaits/dsp/engine/wavetable_engine.cpp ****         w = user_data ? user_data[wave] : (w * 101 % kNumWaves);
  81:mi/plaits/dsp/engine/wavetable_engine.cpp ****       }
  82:mi/plaits/dsp/engine/wavetable_engine.cpp **** 
  83:mi/plaits/dsp/engine/wavetable_engine.cpp ****       const int16_t* base = wav_integrated_waves;
  84:mi/plaits/dsp/engine/wavetable_engine.cpp ****       if (w >= kNumWaves) {
  85:mi/plaits/dsp/engine/wavetable_engine.cpp ****         base = (const int16_t*)(user_data + 64);
  86:mi/plaits/dsp/engine/wavetable_engine.cpp ****         w = min(w - kNumWaves, kNumCustomWaves);
  87:mi/plaits/dsp/engine/wavetable_engine.cpp ****       }
  88:mi/plaits/dsp/engine/wavetable_engine.cpp ****       wave_map_[i] = base + size_t(w) * (kTableSize + 4);
 230              		.loc 1 88 7 view .LVU58
 231 0006 C56B     		ldr	r5, [r0, #60]
 232              	.LVL9:
ARM GAS  /var/folders/9k/zk1mgrrd7wg4__6zvxvr9w8m0000gn/T//ccjZIkb1.s 			page 9


 233              	.L20:
 234              		.loc 1 88 7 view .LVU59
 235              	.LBE93:
  75:mi/plaits/dsp/engine/wavetable_engine.cpp ****     for (int wave = 0; wave < kNumWavesPerBank; ++wave) {
 236              		.loc 1 75 29 is_stmt 1 view .LVU60
 237 0008 4FF4CA5E 		mov	lr, #6464
 238 000c A001     		lsls	r0, r4, #6
 239              	.LBE92:
  74:mi/plaits/dsp/engine/wavetable_engine.cpp ****     for (int wave = 0; wave < kNumWavesPerBank; ++wave) {
 240              		.loc 1 74 12 is_stmt 0 view .LVU61
 241 000e 4FF0010C 		mov	ip, #1
 242 0012 0EFB04FE 		mul	lr, lr, r4
 243 0016 18E0     		b	.L18
 244              	.LVL10:
 245              	.L13:
 246              	.LBB98:
 247              	.LBB94:
  83:mi/plaits/dsp/engine/wavetable_engine.cpp ****       if (w >= kNumWaves) {
 248              		.loc 1 83 7 is_stmt 1 view .LVU62
  84:mi/plaits/dsp/engine/wavetable_engine.cpp ****         base = (const int16_t*)(user_data + 64);
 249              		.loc 1 84 7 view .LVU63
  85:mi/plaits/dsp/engine/wavetable_engine.cpp ****         w = min(w - kNumWaves, kNumCustomWaves);
 250              		.loc 1 85 9 view .LVU64
  84:mi/plaits/dsp/engine/wavetable_engine.cpp ****         base = (const int16_t*)(user_data + 64);
 251              		.loc 1 84 7 is_stmt 0 view .LVU65
 252 0018 BF2B     		cmp	r3, #191
  86:mi/plaits/dsp/engine/wavetable_engine.cpp ****       }
 253              		.loc 1 86 19 view .LVU66
 254 001a A3F1C001 		sub	r1, r3, #192
  83:mi/plaits/dsp/engine/wavetable_engine.cpp ****       if (w >= kNumWaves) {
 255              		.loc 1 83 22 view .LVU67
 256 001e 1B4A     		ldr	r2, .L26
  84:mi/plaits/dsp/engine/wavetable_engine.cpp ****         base = (const int16_t*)(user_data + 64);
 257              		.loc 1 84 7 view .LVU68
 258 0020 05DD     		ble	.L16
 259 0022 0F29     		cmp	r1, #15
 260 0024 0B46     		mov	r3, r1
 261              	.LVL11:
  85:mi/plaits/dsp/engine/wavetable_engine.cpp ****         w = min(w - kNumWaves, kNumCustomWaves);
 262              		.loc 1 85 14 view .LVU69
 263 0026 06F14002 		add	r2, r6, #64
 264              	.LVL12:
  86:mi/plaits/dsp/engine/wavetable_engine.cpp ****       }
 265              		.loc 1 86 9 is_stmt 1 view .LVU70
  86:mi/plaits/dsp/engine/wavetable_engine.cpp ****       }
 266              		.loc 1 86 9 is_stmt 0 view .LVU71
 267 002a A8BF     		it	ge
 268 002c 0F23     		movge	r3, #15
 269              	.LVL13:
 270              	.L16:
 271              		.loc 1 88 7 is_stmt 1 discriminator 2 view .LVU72
 272              		.loc 1 88 27 is_stmt 0 discriminator 2 view .LVU73
 273 002e 03EB4313 		add	r3, r3, r3, lsl #5
 274              	.LVL14:
 275              		.loc 1 88 27 discriminator 2 view .LVU74
 276              	.LBE94:
  75:mi/plaits/dsp/engine/wavetable_engine.cpp ****       int i = bank * kNumWavesPerBank + wave;
ARM GAS  /var/folders/9k/zk1mgrrd7wg4__6zvxvr9w8m0000gn/T//ccjZIkb1.s 			page 10


 277              		.loc 1 75 29 discriminator 2 view .LVU75
 278 0032 BCF1400F 		cmp	ip, #64
 279              	.LBB95:
 280              		.loc 1 88 27 discriminator 2 view .LVU76
 281 0036 02EBC303 		add	r3, r2, r3, lsl #3
 282              		.loc 1 88 20 discriminator 2 view .LVU77
 283 003a 45F82030 		str	r3, [r5, r0, lsl #2]
 284              	.LBE95:
  75:mi/plaits/dsp/engine/wavetable_engine.cpp ****       int i = bank * kNumWavesPerBank + wave;
 285              		.loc 1 75 5 is_stmt 1 discriminator 2 view .LVU78
 286              	.LVL15:
  75:mi/plaits/dsp/engine/wavetable_engine.cpp ****       int i = bank * kNumWavesPerBank + wave;
 287              		.loc 1 75 29 discriminator 2 view .LVU79
 288 003e 20D0     		beq	.L17
 289              	.LVL16:
 290              	.L15:
  75:mi/plaits/dsp/engine/wavetable_engine.cpp ****       int i = bank * kNumWavesPerBank + wave;
 291              		.loc 1 75 29 is_stmt 0 discriminator 2 view .LVU80
 292 0040 0CF1010C 		add	ip, ip, #1
 293              	.LVL17:
  75:mi/plaits/dsp/engine/wavetable_engine.cpp ****       int i = bank * kNumWavesPerBank + wave;
 294              		.loc 1 75 29 discriminator 2 view .LVU81
 295 0044 0130     		adds	r0, r0, #1
 296              	.LVL18:
  75:mi/plaits/dsp/engine/wavetable_engine.cpp ****       int i = bank * kNumWavesPerBank + wave;
 297              		.loc 1 75 29 discriminator 2 view .LVU82
 298 0046 0EF1650E 		add	lr, lr, #101
 299              	.LVL19:
 300              	.L18:
 301              	.LBB96:
  76:mi/plaits/dsp/engine/wavetable_engine.cpp **** 
 302              		.loc 1 76 7 is_stmt 1 view .LVU83
  79:mi/plaits/dsp/engine/wavetable_engine.cpp ****         w = user_data ? user_data[wave] : (w * 101 % kNumWaves);
 303              		.loc 1 79 7 is_stmt 0 view .LVU84
 304 004a 032C     		cmp	r4, #3
  76:mi/plaits/dsp/engine/wavetable_engine.cpp **** 
 305              		.loc 1 76 11 view .LVU85
 306 004c 0346     		mov	r3, r0
 307              	.LVL20:
  78:mi/plaits/dsp/engine/wavetable_engine.cpp ****       if (bank == kNumBanks - 1) {
 308              		.loc 1 78 7 is_stmt 1 view .LVU86
  79:mi/plaits/dsp/engine/wavetable_engine.cpp ****         w = user_data ? user_data[wave] : (w * 101 % kNumWaves);
 309              		.loc 1 79 7 view .LVU87
 310 004e E3D1     		bne	.L13
  80:mi/plaits/dsp/engine/wavetable_engine.cpp ****       }
 311              		.loc 1 80 9 view .LVU88
  80:mi/plaits/dsp/engine/wavetable_engine.cpp ****       }
 312              		.loc 1 80 39 is_stmt 0 view .LVU89
 313 0050 731E     		subs	r3, r6, #1
  80:mi/plaits/dsp/engine/wavetable_engine.cpp ****       }
 314              		.loc 1 80 23 view .LVU90
 315 0052 16B1     		cbz	r6, .L14
  80:mi/plaits/dsp/engine/wavetable_engine.cpp ****       }
 316              		.loc 1 80 23 discriminator 1 view .LVU91
 317 0054 13F80C30 		ldrb	r3, [r3, ip]	@ zero_extendqisi2
 318 0058 DEE7     		b	.L13
 319              	.L14:
ARM GAS  /var/folders/9k/zk1mgrrd7wg4__6zvxvr9w8m0000gn/T//ccjZIkb1.s 			page 11


 320              	.LVL21:
  83:mi/plaits/dsp/engine/wavetable_engine.cpp ****       if (w >= kNumWaves) {
 321              		.loc 1 83 7 is_stmt 1 discriminator 2 view .LVU92
  84:mi/plaits/dsp/engine/wavetable_engine.cpp ****         base = (const int16_t*)(user_data + 64);
 322              		.loc 1 84 7 discriminator 2 view .LVU93
 323              		.loc 1 88 7 discriminator 2 view .LVU94
  80:mi/plaits/dsp/engine/wavetable_engine.cpp ****       }
 324              		.loc 1 80 23 is_stmt 0 discriminator 2 view .LVU95
 325 005a 0D4B     		ldr	r3, .L26+4
 326              	.LBE96:
  75:mi/plaits/dsp/engine/wavetable_engine.cpp ****       int i = bank * kNumWavesPerBank + wave;
 327              		.loc 1 75 29 discriminator 2 view .LVU96
 328 005c BCF1400F 		cmp	ip, #64
 329              	.LBB97:
 330              		.loc 1 88 27 discriminator 2 view .LVU97
 331 0060 0A4A     		ldr	r2, .L26
  80:mi/plaits/dsp/engine/wavetable_engine.cpp ****       }
 332              		.loc 1 80 23 discriminator 2 view .LVU98
 333 0062 A3FB0E13 		umull	r1, r3, r3, lr
 334 0066 4FEAD313 		lsr	r3, r3, #7
 335 006a 03EB4303 		add	r3, r3, r3, lsl #1
 336 006e AEEB8313 		sub	r3, lr, r3, lsl #6
 337              		.loc 1 88 27 discriminator 2 view .LVU99
 338 0072 03EB4313 		add	r3, r3, r3, lsl #5
 339 0076 02EBC303 		add	r3, r2, r3, lsl #3
 340              		.loc 1 88 20 discriminator 2 view .LVU100
 341 007a 45F82030 		str	r3, [r5, r0, lsl #2]
 342              	.LBE97:
  75:mi/plaits/dsp/engine/wavetable_engine.cpp ****       int i = bank * kNumWavesPerBank + wave;
 343              		.loc 1 75 5 is_stmt 1 discriminator 2 view .LVU101
 344              	.LVL22:
  75:mi/plaits/dsp/engine/wavetable_engine.cpp ****       int i = bank * kNumWavesPerBank + wave;
 345              		.loc 1 75 29 discriminator 2 view .LVU102
 346 007e DFD1     		bne	.L15
 347              	.LBE98:
 348              	.LBE100:
  89:mi/plaits/dsp/engine/wavetable_engine.cpp ****     }
  90:mi/plaits/dsp/engine/wavetable_engine.cpp ****   }
  91:mi/plaits/dsp/engine/wavetable_engine.cpp **** }
 349              		.loc 1 91 1 is_stmt 0 view .LVU103
 350 0080 70BD     		pop	{r4, r5, r6, pc}
 351              	.LVL23:
 352              	.L17:
 353              	.LBB101:
  74:mi/plaits/dsp/engine/wavetable_engine.cpp ****     for (int wave = 0; wave < kNumWavesPerBank; ++wave) {
 354              		.loc 1 74 3 is_stmt 1 discriminator 2 view .LVU104
 355 0082 0134     		adds	r4, r4, #1
 356              	.LVL24:
  74:mi/plaits/dsp/engine/wavetable_engine.cpp ****     for (int wave = 0; wave < kNumWavesPerBank; ++wave) {
 357              		.loc 1 74 27 discriminator 2 view .LVU105
 358 0084 042C     		cmp	r4, #4
 359 0086 BFD1     		bne	.L20
 360              	.LBE101:
 361              		.loc 1 91 1 is_stmt 0 view .LVU106
 362 0088 70BD     		pop	{r4, r5, r6, pc}
 363              	.LVL25:
 364              	.L27:
ARM GAS  /var/folders/9k/zk1mgrrd7wg4__6zvxvr9w8m0000gn/T//ccjZIkb1.s 			page 12


 365              		.loc 1 91 1 view .LVU107
 366 008a 00BF     		.align	2
 367              	.L26:
 368 008c 00000000 		.word	_ZN6plaits20wav_integrated_wavesE
 369 0090 ABAAAAAA 		.word	-1431655765
 370              		.cfi_endproc
 371              	.LFE1493:
 373              		.section	.text._ZN6plaits15WavetableEngine6RenderERKNS_16EngineParametersEPfS4_jPb,"ax",%progbits
 374              		.align	1
 375              		.p2align 2,,3
 376              		.global	_ZN6plaits15WavetableEngine6RenderERKNS_16EngineParametersEPfS4_jPb
 377              		.syntax unified
 378              		.thumb
 379              		.thumb_func
 381              	_ZN6plaits15WavetableEngine6RenderERKNS_16EngineParametersEPfS4_jPb:
 382              	.LVL26:
 383              	.LFB1496:
  92:mi/plaits/dsp/engine/wavetable_engine.cpp **** 
  93:mi/plaits/dsp/engine/wavetable_engine.cpp **** inline float Clamp(float x, float amount) {
  94:mi/plaits/dsp/engine/wavetable_engine.cpp ****   x = x - 0.5f;
  95:mi/plaits/dsp/engine/wavetable_engine.cpp ****   x *= amount;
  96:mi/plaits/dsp/engine/wavetable_engine.cpp ****   CONSTRAIN(x, -0.5f, 0.5f);
  97:mi/plaits/dsp/engine/wavetable_engine.cpp ****   x += 0.5f;
  98:mi/plaits/dsp/engine/wavetable_engine.cpp ****   return x;
  99:mi/plaits/dsp/engine/wavetable_engine.cpp **** }
 100:mi/plaits/dsp/engine/wavetable_engine.cpp **** 
 101:mi/plaits/dsp/engine/wavetable_engine.cpp **** inline float WavetableEngine::ReadWave(
 102:mi/plaits/dsp/engine/wavetable_engine.cpp ****     int x,
 103:mi/plaits/dsp/engine/wavetable_engine.cpp ****     int y,
 104:mi/plaits/dsp/engine/wavetable_engine.cpp ****     int z,
 105:mi/plaits/dsp/engine/wavetable_engine.cpp ****     int phase_integral,
 106:mi/plaits/dsp/engine/wavetable_engine.cpp ****     float phase_fractional) {
 107:mi/plaits/dsp/engine/wavetable_engine.cpp ****   return InterpolateWaveHermite(
 108:mi/plaits/dsp/engine/wavetable_engine.cpp ****       wave_map_[x + y * 8 + z * kNumWavesPerBank],
 109:mi/plaits/dsp/engine/wavetable_engine.cpp ****       phase_integral,
 110:mi/plaits/dsp/engine/wavetable_engine.cpp ****       phase_fractional);
 111:mi/plaits/dsp/engine/wavetable_engine.cpp **** }
 112:mi/plaits/dsp/engine/wavetable_engine.cpp **** 
 113:mi/plaits/dsp/engine/wavetable_engine.cpp **** void WavetableEngine::Render(
 114:mi/plaits/dsp/engine/wavetable_engine.cpp ****     const EngineParameters& parameters,
 115:mi/plaits/dsp/engine/wavetable_engine.cpp ****     float* out,
 116:mi/plaits/dsp/engine/wavetable_engine.cpp ****     float* aux,
 117:mi/plaits/dsp/engine/wavetable_engine.cpp ****     size_t size,
 118:mi/plaits/dsp/engine/wavetable_engine.cpp ****     bool* already_enveloped) {
 384              		.loc 1 118 30 is_stmt 1 view -0
 385              		.cfi_startproc
 386              		@ args = 8, pretend = 0, frame = 16
 387              		@ frame_needed = 0, uses_anonymous_args = 0
 119:mi/plaits/dsp/engine/wavetable_engine.cpp ****   const float f0 = NoteToFrequency(parameters.note);
 388              		.loc 1 119 3 view .LVU109
 389              	.LBB187:
 390              	.LBB188:
 391              		.file 4 "mi/plaits/dsp/engine/engine.h"
   1:mi/plaits/dsp/engine/engine.h **** // Copyright 2016 Emilie Gillet.
   2:mi/plaits/dsp/engine/engine.h **** //
   3:mi/plaits/dsp/engine/engine.h **** // Author: Emilie Gillet (emilie.o.gillet@gmail.com)
   4:mi/plaits/dsp/engine/engine.h **** //
ARM GAS  /var/folders/9k/zk1mgrrd7wg4__6zvxvr9w8m0000gn/T//ccjZIkb1.s 			page 13


   5:mi/plaits/dsp/engine/engine.h **** // Permission is hereby granted, free of charge, to any person obtaining a copy
   6:mi/plaits/dsp/engine/engine.h **** // of this software and associated documentation files (the "Software"), to deal
   7:mi/plaits/dsp/engine/engine.h **** // in the Software without restriction, including without limitation the rights
   8:mi/plaits/dsp/engine/engine.h **** // to use, copy, modify, merge, publish, distribute, sublicense, and/or sell
   9:mi/plaits/dsp/engine/engine.h **** // copies of the Software, and to permit persons to whom the Software is
  10:mi/plaits/dsp/engine/engine.h **** // furnished to do so, subject to the following conditions:
  11:mi/plaits/dsp/engine/engine.h **** // 
  12:mi/plaits/dsp/engine/engine.h **** // The above copyright notice and this permission notice shall be included in
  13:mi/plaits/dsp/engine/engine.h **** // all copies or substantial portions of the Software.
  14:mi/plaits/dsp/engine/engine.h **** // 
  15:mi/plaits/dsp/engine/engine.h **** // THE SOFTWARE IS PROVIDED "AS IS", WITHOUT WARRANTY OF ANY KIND, EXPRESS OR
  16:mi/plaits/dsp/engine/engine.h **** // IMPLIED, INCLUDING BUT NOT LIMITED TO THE WARRANTIES OF MERCHANTABILITY,
  17:mi/plaits/dsp/engine/engine.h **** // FITNESS FOR A PARTICULAR PURPOSE AND NONINFRINGEMENT. IN NO EVENT SHALL THE
  18:mi/plaits/dsp/engine/engine.h **** // AUTHORS OR COPYRIGHT HOLDERS BE LIABLE FOR ANY CLAIM, DAMAGES OR OTHER
  19:mi/plaits/dsp/engine/engine.h **** // LIABILITY, WHETHER IN AN ACTION OF CONTRACT, TORT OR OTHERWISE, ARISING FROM,
  20:mi/plaits/dsp/engine/engine.h **** // OUT OF OR IN CONNECTION WITH THE SOFTWARE OR THE USE OR OTHER DEALINGS IN
  21:mi/plaits/dsp/engine/engine.h **** // THE SOFTWARE.
  22:mi/plaits/dsp/engine/engine.h **** // 
  23:mi/plaits/dsp/engine/engine.h **** // See http://creativecommons.org/licenses/MIT/ for more information.
  24:mi/plaits/dsp/engine/engine.h **** //
  25:mi/plaits/dsp/engine/engine.h **** // -----------------------------------------------------------------------------
  26:mi/plaits/dsp/engine/engine.h **** //
  27:mi/plaits/dsp/engine/engine.h **** // Base class for all engines.
  28:mi/plaits/dsp/engine/engine.h **** 
  29:mi/plaits/dsp/engine/engine.h **** #ifndef PLAITS_DSP_ENGINE_ENGINE_H_
  30:mi/plaits/dsp/engine/engine.h **** #define PLAITS_DSP_ENGINE_ENGINE_H_
  31:mi/plaits/dsp/engine/engine.h **** 
  32:mi/plaits/dsp/engine/engine.h **** #include "plaits/dsp/dsp.h"
  33:mi/plaits/dsp/engine/engine.h **** 
  34:mi/plaits/dsp/engine/engine.h **** #include "stmlib/dsp/units.h"
  35:mi/plaits/dsp/engine/engine.h **** #include "stmlib/utils/buffer_allocator.h"
  36:mi/plaits/dsp/engine/engine.h **** 
  37:mi/plaits/dsp/engine/engine.h **** namespace plaits {
  38:mi/plaits/dsp/engine/engine.h **** 
  39:mi/plaits/dsp/engine/engine.h **** inline float NoteToFrequency(float midi_note) {
  40:mi/plaits/dsp/engine/engine.h ****   midi_note -= 9.0f;
 392              		.loc 4 40 13 is_stmt 0 view .LVU110
 393 0000 F2EE026A 		vmov.f32	s13, #9.0e+0
 394              	.LVL27:
 395              		.loc 4 40 13 view .LVU111
 396              	.LBE188:
 397              	.LBI187:
  39:mi/plaits/dsp/engine/engine.h ****   midi_note -= 9.0f;
 398              		.loc 4 39 14 is_stmt 1 view .LVU112
 399              	.LBB207:
 400              		.loc 4 40 3 view .LVU113
 401              		.loc 4 40 13 is_stmt 0 view .LVU114
 402 0004 D1ED017A 		vldr.32	s15, [r1, #4]
  41:mi/plaits/dsp/engine/engine.h ****   CONSTRAIN(midi_note, -128.0f, 127.0f);
 403              		.loc 4 41 3 view .LVU115
 404 0008 9FED777A 		vldr.32	s14, .L67
  40:mi/plaits/dsp/engine/engine.h ****   CONSTRAIN(midi_note, -128.0f, 127.0f);
 405              		.loc 4 40 13 view .LVU116
 406 000c 77EEE67A 		vsub.f32	s15, s15, s13
 407              	.LVL28:
 408              		.loc 4 41 3 is_stmt 1 view .LVU117
 409              	.LBE207:
ARM GAS  /var/folders/9k/zk1mgrrd7wg4__6zvxvr9w8m0000gn/T//ccjZIkb1.s 			page 14


 410              	.LBE187:
 118:mi/plaits/dsp/engine/wavetable_engine.cpp ****   const float f0 = NoteToFrequency(parameters.note);
 411              		.loc 1 118 30 is_stmt 0 view .LVU118
 412 0010 2DE9F04F 		push	{r4, r5, r6, r7, r8, r9, r10, fp, lr}
 413              		.cfi_def_cfa_offset 36
 414              		.cfi_offset 4, -36
 415              		.cfi_offset 5, -32
 416              		.cfi_offset 6, -28
 417              		.cfi_offset 7, -24
 418              		.cfi_offset 8, -20
 419              		.cfi_offset 9, -16
 420              		.cfi_offset 10, -12
 421              		.cfi_offset 11, -8
 422              		.cfi_offset 14, -4
 423              	.LBB220:
 424              	.LBB208:
 425              		.loc 4 41 3 view .LVU119
 426 0014 F4EEC77A 		vcmpe.f32	s15, s14
 427              	.LBE208:
 428              	.LBE220:
 118:mi/plaits/dsp/engine/wavetable_engine.cpp ****   const float f0 = NoteToFrequency(parameters.note);
 429              		.loc 1 118 30 view .LVU120
 430 0018 2DED108B 		vpush.64	{d8, d9, d10, d11, d12, d13, d14, d15}
 431              		.cfi_def_cfa_offset 100
 432              		.cfi_offset 80, -100
 433              		.cfi_offset 81, -96
 434              		.cfi_offset 82, -92
 435              		.cfi_offset 83, -88
 436              		.cfi_offset 84, -84
 437              		.cfi_offset 85, -80
 438              		.cfi_offset 86, -76
 439              		.cfi_offset 87, -72
 440              		.cfi_offset 88, -68
 441              		.cfi_offset 89, -64
 442              		.cfi_offset 90, -60
 443              		.cfi_offset 91, -56
 444              		.cfi_offset 92, -52
 445              		.cfi_offset 93, -48
 446              		.cfi_offset 94, -44
 447              		.cfi_offset 95, -40
 448              	.LBB221:
 449              	.LBB209:
 450              		.loc 4 41 3 view .LVU121
 451 001c F1EE10FA 		vmrs	APSR_nzcv, FPSCR
 452              	.LBE209:
 453              	.LBE221:
 118:mi/plaits/dsp/engine/wavetable_engine.cpp ****   const float f0 = NoteToFrequency(parameters.note);
 454              		.loc 1 118 30 view .LVU122
 455 0020 85B0     		sub	sp, sp, #20
 456              		.cfi_def_cfa_offset 120
 118:mi/plaits/dsp/engine/wavetable_engine.cpp ****   const float f0 = NoteToFrequency(parameters.note);
 457              		.loc 1 118 30 view .LVU123
 458 0022 CDE90123 		strd	r2, r3, [sp, #4]
 459 0026 1E9A     		ldr	r2, [sp, #120]
 460              	.LVL29:
 461              	.LBB222:
 462              	.LBB210:
ARM GAS  /var/folders/9k/zk1mgrrd7wg4__6zvxvr9w8m0000gn/T//ccjZIkb1.s 			page 15


 463              		.loc 4 41 3 view .LVU124
 464 0028 0AD4     		bmi	.L44
 465              		.loc 4 41 3 is_stmt 1 view .LVU125
 466 002a 9FED707A 		vldr.32	s14, .L67+4
 467 002e F4EEC77A 		vcmpe.f32	s15, s14
 468 0032 F1EE10FA 		vmrs	APSR_nzcv, FPSCR
 469 0036 40F39E83 		ble	.L63
 470 003a 0023     		movs	r3, #0
 471              	.LVL30:
 472              		.loc 4 41 3 is_stmt 0 view .LVU126
 473 003c FF24     		movs	r4, #255
 474 003e 01E0     		b	.L29
 475              	.LVL31:
 476              	.L44:
 477              		.loc 4 41 3 view .LVU127
 478 0040 0023     		movs	r3, #0
 479              	.LVL32:
 480              		.loc 4 41 3 view .LVU128
 481 0042 1C46     		mov	r4, r3
 482              	.LVL33:
 483              	.L29:
 484              		.loc 4 41 40 is_stmt 1 view .LVU129
  42:mi/plaits/dsp/engine/engine.h ****   return a0 * 0.25f * stmlib::SemitonesToRatio(midi_note);
 485              		.loc 4 42 3 view .LVU130
 486              	.LBB189:
 487              	.LBI189:
 488              		.file 5 "mi/stmlib/dsp/units.h"
   1:mi/stmlib/dsp/units.h **** // Copyright 2014 Emilie Gillet.
   2:mi/stmlib/dsp/units.h **** //
   3:mi/stmlib/dsp/units.h **** // Author: Emilie Gillet (emilie.o.gillet@gmail.com)
   4:mi/stmlib/dsp/units.h **** //
   5:mi/stmlib/dsp/units.h **** // Permission is hereby granted, free of charge, to any person obtaining a copy
   6:mi/stmlib/dsp/units.h **** // of this software and associated documentation files (the "Software"), to deal
   7:mi/stmlib/dsp/units.h **** // in the Software without restriction, including without limitation the rights
   8:mi/stmlib/dsp/units.h **** // to use, copy, modify, merge, publish, distribute, sublicense, and/or sell
   9:mi/stmlib/dsp/units.h **** // copies of the Software, and to permit persons to whom the Software is
  10:mi/stmlib/dsp/units.h **** // furnished to do so, subject to the following conditions:
  11:mi/stmlib/dsp/units.h **** // 
  12:mi/stmlib/dsp/units.h **** // The above copyright notice and this permission notice shall be included in
  13:mi/stmlib/dsp/units.h **** // all copies or substantial portions of the Software.
  14:mi/stmlib/dsp/units.h **** // 
  15:mi/stmlib/dsp/units.h **** // THE SOFTWARE IS PROVIDED "AS IS", WITHOUT WARRANTY OF ANY KIND, EXPRESS OR
  16:mi/stmlib/dsp/units.h **** // IMPLIED, INCLUDING BUT NOT LIMITED TO THE WARRANTIES OF MERCHANTABILITY,
  17:mi/stmlib/dsp/units.h **** // FITNESS FOR A PARTICULAR PURPOSE AND NONINFRINGEMENT. IN NO EVENT SHALL THE
  18:mi/stmlib/dsp/units.h **** // AUTHORS OR COPYRIGHT HOLDERS BE LIABLE FOR ANY CLAIM, DAMAGES OR OTHER
  19:mi/stmlib/dsp/units.h **** // LIABILITY, WHETHER IN AN ACTION OF CONTRACT, TORT OR OTHERWISE, ARISING FROM,
  20:mi/stmlib/dsp/units.h **** // OUT OF OR IN CONNECTION WITH THE SOFTWARE OR THE USE OR OTHER DEALINGS IN
  21:mi/stmlib/dsp/units.h **** // THE SOFTWARE.
  22:mi/stmlib/dsp/units.h **** // 
  23:mi/stmlib/dsp/units.h **** // See http://creativecommons.org/licenses/MIT/ for more information.
  24:mi/stmlib/dsp/units.h **** //
  25:mi/stmlib/dsp/units.h **** // -----------------------------------------------------------------------------
  26:mi/stmlib/dsp/units.h **** //
  27:mi/stmlib/dsp/units.h **** // Conversion from semitones to frequency ratio.
  28:mi/stmlib/dsp/units.h **** 
  29:mi/stmlib/dsp/units.h **** #ifndef STMLIB_DSP_UNITS_H_
  30:mi/stmlib/dsp/units.h **** #define STMLIB_DSP_UNITS_H_
ARM GAS  /var/folders/9k/zk1mgrrd7wg4__6zvxvr9w8m0000gn/T//ccjZIkb1.s 			page 16


  31:mi/stmlib/dsp/units.h **** 
  32:mi/stmlib/dsp/units.h **** #include "stmlib/stmlib.h"
  33:mi/stmlib/dsp/units.h **** #include "stmlib/dsp/dsp.h"
  34:mi/stmlib/dsp/units.h **** 
  35:mi/stmlib/dsp/units.h **** namespace stmlib {
  36:mi/stmlib/dsp/units.h **** 
  37:mi/stmlib/dsp/units.h **** extern const float lut_pitch_ratio_high[257];
  38:mi/stmlib/dsp/units.h **** extern const float lut_pitch_ratio_low[257];
  39:mi/stmlib/dsp/units.h **** 
  40:mi/stmlib/dsp/units.h **** inline float SemitonesToRatio(float semitones) {
 489              		.loc 5 40 14 view .LVU131
 490              	.LBB190:
  41:mi/stmlib/dsp/units.h ****   float pitch = semitones + 128.0f;
 491              		.loc 5 41 3 view .LVU132
  42:mi/stmlib/dsp/units.h ****   MAKE_INTEGRAL_FRACTIONAL(pitch)
 492              		.loc 5 42 3 view .LVU133
 493              		.loc 5 42 3 view .LVU134
  43:mi/stmlib/dsp/units.h **** 
  44:mi/stmlib/dsp/units.h ****   return lut_pitch_ratio_high[pitch_integral] * \
 494              		.loc 5 44 3 view .LVU135
 495              		.loc 5 44 3 is_stmt 0 view .LVU136
 496              	.LBE190:
 497              	.LBE189:
 498              	.LBE210:
 499              	.LBE222:
 120:mi/plaits/dsp/engine/wavetable_engine.cpp ****   
 121:mi/plaits/dsp/engine/wavetable_engine.cpp ****   ONE_POLE(x_pre_lp_, parameters.timbre * 6.9999f, 0.2f);
 122:mi/plaits/dsp/engine/wavetable_engine.cpp ****   ONE_POLE(y_pre_lp_, parameters.morph * 6.9999f, 0.2f);
 123:mi/plaits/dsp/engine/wavetable_engine.cpp ****   ONE_POLE(z_pre_lp_, parameters.harmonics * 6.9999f, 0.05f);
 500              		.loc 1 123 3 view .LVU137
 501 0044 90ED075A 		vldr.32	s10, [r0, #28]
 124:mi/plaits/dsp/engine/wavetable_engine.cpp ****   
 125:mi/plaits/dsp/engine/wavetable_engine.cpp ****   const float x = x_pre_lp_;
 126:mi/plaits/dsp/engine/wavetable_engine.cpp ****   const float y = y_pre_lp_;
 127:mi/plaits/dsp/engine/wavetable_engine.cpp ****   const float z = z_pre_lp_;
 128:mi/plaits/dsp/engine/wavetable_engine.cpp ****   
 129:mi/plaits/dsp/engine/wavetable_engine.cpp ****   const float quantization = min(max(z - 3.0f, 0.0f), 1.0f);
 502              		.loc 1 129 40 view .LVU138
 503 0048 F0EE082A 		vmov.f32	s5, #3.0e+0
 123:mi/plaits/dsp/engine/wavetable_engine.cpp ****   
 504              		.loc 1 123 3 view .LVU139
 505 004c D1ED047A 		vldr.32	s15, [r1, #16]
 506 0050 F0EE453A 		vmov.f32	s7, s10
 121:mi/plaits/dsp/engine/wavetable_engine.cpp ****   ONE_POLE(y_pre_lp_, parameters.morph * 6.9999f, 0.2f);
 507              		.loc 1 121 3 view .LVU140
 508 0054 DFED666A 		vldr.32	s13, .L67+8
 509 0058 90ED057A 		vldr.32	s14, [r0, #20]
 510 005c D1ED025A 		vldr.32	s11, [r1, #8]
 123:mi/plaits/dsp/engine/wavetable_engine.cpp ****   
 511              		.loc 1 123 3 view .LVU141
 512 0060 D7EEA63A 		vfnms.f32	s7, s15, s13
 513 0064 9FED634A 		vldr.32	s8, .L67+12
 121:mi/plaits/dsp/engine/wavetable_engine.cpp ****   ONE_POLE(y_pre_lp_, parameters.morph * 6.9999f, 0.2f);
 514              		.loc 1 121 3 view .LVU142
 515 0068 F0EE474A 		vmov.f32	s9, s14
 122:mi/plaits/dsp/engine/wavetable_engine.cpp ****   ONE_POLE(z_pre_lp_, parameters.harmonics * 6.9999f, 0.05f);
 516              		.loc 1 122 3 view .LVU143
ARM GAS  /var/folders/9k/zk1mgrrd7wg4__6zvxvr9w8m0000gn/T//ccjZIkb1.s 			page 17


 517 006c D0ED067A 		vldr.32	s15, [r0, #24]
 518 0070 91ED036A 		vldr.32	s12, [r1, #12]
 519              	.LBB223:
 520              	.LBB211:
 521              	.LBB199:
 522              	.LBB191:
 523              		.loc 5 44 45 view .LVU144
 524 0074 6049     		ldr	r1, .L67+16
 525              	.LVL34:
 526              		.loc 5 44 45 view .LVU145
 527              	.LBE191:
 528              	.LBE199:
 529              	.LBE211:
 530              	.LBE223:
 121:mi/plaits/dsp/engine/wavetable_engine.cpp ****   ONE_POLE(y_pre_lp_, parameters.morph * 6.9999f, 0.2f);
 531              		.loc 1 121 3 view .LVU146
 532 0076 D5EEA64A 		vfnms.f32	s9, s11, s13
 122:mi/plaits/dsp/engine/wavetable_engine.cpp ****   ONE_POLE(z_pre_lp_, parameters.harmonics * 6.9999f, 0.05f);
 533              		.loc 1 122 3 view .LVU147
 534 007a F0EE675A 		vmov.f32	s11, s15
 535              	.LBB224:
 536              	.LBB212:
 537              	.LBB200:
 538              	.LBB192:
 539              		.loc 5 44 45 view .LVU148
 540 007e 01EB8401 		add	r1, r1, r4, lsl #2
 541              	.LBE192:
 542              	.LBE200:
 543              	.LBE212:
 544              	.LBE224:
 123:mi/plaits/dsp/engine/wavetable_engine.cpp ****   
 545              		.loc 1 123 3 view .LVU149
 546 0082 A3EE845A 		vfma.f32	s10, s7, s8
 547              	.LBB225:
 548              	.LBB213:
 549              	.LBB201:
 550              	.LBB193:
  45:mi/stmlib/dsp/units.h ****       lut_pitch_ratio_low[static_cast<int32_t>(pitch_fractional * 256.0f)];
 551              		.loc 5 45 74 view .LVU150
 552 0086 D1ED003A 		vldr.32	s7, [r1]
 553              	.LBE193:
 554              	.LBE201:
 555              	.LBE213:
 556              	.LBE225:
 122:mi/plaits/dsp/engine/wavetable_engine.cpp ****   ONE_POLE(z_pre_lp_, parameters.harmonics * 6.9999f, 0.05f);
 557              		.loc 1 122 3 view .LVU151
 558 008a D6EE265A 		vfnms.f32	s11, s12, s13
 559              	.LBB226:
 560              	.LBB214:
 561              	.LBB202:
 562              	.LBB194:
 563              		.loc 5 45 74 view .LVU152
 564 008e 5B49     		ldr	r1, .L67+20
 565              	.LBE194:
 566              	.LBE202:
 567              	.LBE214:
 568              	.LBE226:
ARM GAS  /var/folders/9k/zk1mgrrd7wg4__6zvxvr9w8m0000gn/T//ccjZIkb1.s 			page 18


 121:mi/plaits/dsp/engine/wavetable_engine.cpp ****   ONE_POLE(y_pre_lp_, parameters.morph * 6.9999f, 0.2f);
 569              		.loc 1 121 3 view .LVU153
 570 0090 DFED5B6A 		vldr.32	s13, .L67+24
 571              	.LBB227:
 572              	.LBB215:
 573              	.LBB203:
 574              	.LBB195:
 575              		.loc 5 45 74 view .LVU154
 576 0094 01EB8303 		add	r3, r1, r3, lsl #2
 577              	.LBE195:
 578              	.LBE203:
 579              		.loc 4 42 57 view .LVU155
 580 0098 9FED5A6A 		vldr.32	s12, .L67+28
 581              	.LBE215:
 582              	.LBE227:
 121:mi/plaits/dsp/engine/wavetable_engine.cpp ****   ONE_POLE(y_pre_lp_, parameters.morph * 6.9999f, 0.2f);
 583              		.loc 1 121 3 view .LVU156
 584 009c A4EEA67A 		vfma.f32	s14, s9, s13
 585              		.loc 1 129 40 view .LVU157
 586 00a0 75EE622A 		vsub.f32	s5, s10, s5
 123:mi/plaits/dsp/engine/wavetable_engine.cpp ****   
 587              		.loc 1 123 3 view .LVU158
 588 00a4 80ED075A 		vstr.32	s10, [r0, #28]
 122:mi/plaits/dsp/engine/wavetable_engine.cpp ****   ONE_POLE(z_pre_lp_, parameters.harmonics * 6.9999f, 0.05f);
 589              		.loc 1 122 3 view .LVU159
 590 00a8 E5EEA67A 		vfma.f32	s15, s11, s13
 591              	.LBB228:
 592              	.LBB216:
 593              	.LBB204:
 594              	.LBB196:
 595              		.loc 5 45 74 view .LVU160
 596 00ac D3ED006A 		vldr.32	s13, [r3]
 597              	.LBE196:
 598              	.LBE204:
 599              	.LBE216:
 600              	.LBE228:
 601              	.LBB229:
 602              	.LBB230:
 603              		.file 6 "/Library/DaisyToolchain/0.2.0/arm/arm-none-eabi/include/c++/10.3.1/bits/stl_algobase.h"
   1:/Library/DaisyToolchain/0.2.0/arm/arm-none-eabi/include/c++/10.3.1/bits/stl_algobase.h **** // Core algorithmic facilities -*- C++ -*-
   2:/Library/DaisyToolchain/0.2.0/arm/arm-none-eabi/include/c++/10.3.1/bits/stl_algobase.h **** 
   3:/Library/DaisyToolchain/0.2.0/arm/arm-none-eabi/include/c++/10.3.1/bits/stl_algobase.h **** // Copyright (C) 2001-2020 Free Software Foundation, Inc.
   4:/Library/DaisyToolchain/0.2.0/arm/arm-none-eabi/include/c++/10.3.1/bits/stl_algobase.h **** //
   5:/Library/DaisyToolchain/0.2.0/arm/arm-none-eabi/include/c++/10.3.1/bits/stl_algobase.h **** // This file is part of the GNU ISO C++ Library.  This library is free
   6:/Library/DaisyToolchain/0.2.0/arm/arm-none-eabi/include/c++/10.3.1/bits/stl_algobase.h **** // software; you can redistribute it and/or modify it under the
   7:/Library/DaisyToolchain/0.2.0/arm/arm-none-eabi/include/c++/10.3.1/bits/stl_algobase.h **** // terms of the GNU General Public License as published by the
   8:/Library/DaisyToolchain/0.2.0/arm/arm-none-eabi/include/c++/10.3.1/bits/stl_algobase.h **** // Free Software Foundation; either version 3, or (at your option)
   9:/Library/DaisyToolchain/0.2.0/arm/arm-none-eabi/include/c++/10.3.1/bits/stl_algobase.h **** // any later version.
  10:/Library/DaisyToolchain/0.2.0/arm/arm-none-eabi/include/c++/10.3.1/bits/stl_algobase.h **** 
  11:/Library/DaisyToolchain/0.2.0/arm/arm-none-eabi/include/c++/10.3.1/bits/stl_algobase.h **** // This library is distributed in the hope that it will be useful,
  12:/Library/DaisyToolchain/0.2.0/arm/arm-none-eabi/include/c++/10.3.1/bits/stl_algobase.h **** // but WITHOUT ANY WARRANTY; without even the implied warranty of
  13:/Library/DaisyToolchain/0.2.0/arm/arm-none-eabi/include/c++/10.3.1/bits/stl_algobase.h **** // MERCHANTABILITY or FITNESS FOR A PARTICULAR PURPOSE.  See the
  14:/Library/DaisyToolchain/0.2.0/arm/arm-none-eabi/include/c++/10.3.1/bits/stl_algobase.h **** // GNU General Public License for more details.
  15:/Library/DaisyToolchain/0.2.0/arm/arm-none-eabi/include/c++/10.3.1/bits/stl_algobase.h **** 
  16:/Library/DaisyToolchain/0.2.0/arm/arm-none-eabi/include/c++/10.3.1/bits/stl_algobase.h **** // Under Section 7 of GPL version 3, you are granted additional
  17:/Library/DaisyToolchain/0.2.0/arm/arm-none-eabi/include/c++/10.3.1/bits/stl_algobase.h **** // permissions described in the GCC Runtime Library Exception, version
  18:/Library/DaisyToolchain/0.2.0/arm/arm-none-eabi/include/c++/10.3.1/bits/stl_algobase.h **** // 3.1, as published by the Free Software Foundation.
ARM GAS  /var/folders/9k/zk1mgrrd7wg4__6zvxvr9w8m0000gn/T//ccjZIkb1.s 			page 19


  19:/Library/DaisyToolchain/0.2.0/arm/arm-none-eabi/include/c++/10.3.1/bits/stl_algobase.h **** 
  20:/Library/DaisyToolchain/0.2.0/arm/arm-none-eabi/include/c++/10.3.1/bits/stl_algobase.h **** // You should have received a copy of the GNU General Public License and
  21:/Library/DaisyToolchain/0.2.0/arm/arm-none-eabi/include/c++/10.3.1/bits/stl_algobase.h **** // a copy of the GCC Runtime Library Exception along with this program;
  22:/Library/DaisyToolchain/0.2.0/arm/arm-none-eabi/include/c++/10.3.1/bits/stl_algobase.h **** // see the files COPYING3 and COPYING.RUNTIME respectively.  If not, see
  23:/Library/DaisyToolchain/0.2.0/arm/arm-none-eabi/include/c++/10.3.1/bits/stl_algobase.h **** // <http://www.gnu.org/licenses/>.
  24:/Library/DaisyToolchain/0.2.0/arm/arm-none-eabi/include/c++/10.3.1/bits/stl_algobase.h **** 
  25:/Library/DaisyToolchain/0.2.0/arm/arm-none-eabi/include/c++/10.3.1/bits/stl_algobase.h **** /*
  26:/Library/DaisyToolchain/0.2.0/arm/arm-none-eabi/include/c++/10.3.1/bits/stl_algobase.h ****  *
  27:/Library/DaisyToolchain/0.2.0/arm/arm-none-eabi/include/c++/10.3.1/bits/stl_algobase.h ****  * Copyright (c) 1994
  28:/Library/DaisyToolchain/0.2.0/arm/arm-none-eabi/include/c++/10.3.1/bits/stl_algobase.h ****  * Hewlett-Packard Company
  29:/Library/DaisyToolchain/0.2.0/arm/arm-none-eabi/include/c++/10.3.1/bits/stl_algobase.h ****  *
  30:/Library/DaisyToolchain/0.2.0/arm/arm-none-eabi/include/c++/10.3.1/bits/stl_algobase.h ****  * Permission to use, copy, modify, distribute and sell this software
  31:/Library/DaisyToolchain/0.2.0/arm/arm-none-eabi/include/c++/10.3.1/bits/stl_algobase.h ****  * and its documentation for any purpose is hereby granted without fee,
  32:/Library/DaisyToolchain/0.2.0/arm/arm-none-eabi/include/c++/10.3.1/bits/stl_algobase.h ****  * provided that the above copyright notice appear in all copies and
  33:/Library/DaisyToolchain/0.2.0/arm/arm-none-eabi/include/c++/10.3.1/bits/stl_algobase.h ****  * that both that copyright notice and this permission notice appear
  34:/Library/DaisyToolchain/0.2.0/arm/arm-none-eabi/include/c++/10.3.1/bits/stl_algobase.h ****  * in supporting documentation.  Hewlett-Packard Company makes no
  35:/Library/DaisyToolchain/0.2.0/arm/arm-none-eabi/include/c++/10.3.1/bits/stl_algobase.h ****  * representations about the suitability of this software for any
  36:/Library/DaisyToolchain/0.2.0/arm/arm-none-eabi/include/c++/10.3.1/bits/stl_algobase.h ****  * purpose.  It is provided "as is" without express or implied warranty.
  37:/Library/DaisyToolchain/0.2.0/arm/arm-none-eabi/include/c++/10.3.1/bits/stl_algobase.h ****  *
  38:/Library/DaisyToolchain/0.2.0/arm/arm-none-eabi/include/c++/10.3.1/bits/stl_algobase.h ****  *
  39:/Library/DaisyToolchain/0.2.0/arm/arm-none-eabi/include/c++/10.3.1/bits/stl_algobase.h ****  * Copyright (c) 1996-1998
  40:/Library/DaisyToolchain/0.2.0/arm/arm-none-eabi/include/c++/10.3.1/bits/stl_algobase.h ****  * Silicon Graphics Computer Systems, Inc.
  41:/Library/DaisyToolchain/0.2.0/arm/arm-none-eabi/include/c++/10.3.1/bits/stl_algobase.h ****  *
  42:/Library/DaisyToolchain/0.2.0/arm/arm-none-eabi/include/c++/10.3.1/bits/stl_algobase.h ****  * Permission to use, copy, modify, distribute and sell this software
  43:/Library/DaisyToolchain/0.2.0/arm/arm-none-eabi/include/c++/10.3.1/bits/stl_algobase.h ****  * and its documentation for any purpose is hereby granted without fee,
  44:/Library/DaisyToolchain/0.2.0/arm/arm-none-eabi/include/c++/10.3.1/bits/stl_algobase.h ****  * provided that the above copyright notice appear in all copies and
  45:/Library/DaisyToolchain/0.2.0/arm/arm-none-eabi/include/c++/10.3.1/bits/stl_algobase.h ****  * that both that copyright notice and this permission notice appear
  46:/Library/DaisyToolchain/0.2.0/arm/arm-none-eabi/include/c++/10.3.1/bits/stl_algobase.h ****  * in supporting documentation.  Silicon Graphics makes no
  47:/Library/DaisyToolchain/0.2.0/arm/arm-none-eabi/include/c++/10.3.1/bits/stl_algobase.h ****  * representations about the suitability of this software for any
  48:/Library/DaisyToolchain/0.2.0/arm/arm-none-eabi/include/c++/10.3.1/bits/stl_algobase.h ****  * purpose.  It is provided "as is" without express or implied warranty.
  49:/Library/DaisyToolchain/0.2.0/arm/arm-none-eabi/include/c++/10.3.1/bits/stl_algobase.h ****  */
  50:/Library/DaisyToolchain/0.2.0/arm/arm-none-eabi/include/c++/10.3.1/bits/stl_algobase.h **** 
  51:/Library/DaisyToolchain/0.2.0/arm/arm-none-eabi/include/c++/10.3.1/bits/stl_algobase.h **** /** @file bits/stl_algobase.h
  52:/Library/DaisyToolchain/0.2.0/arm/arm-none-eabi/include/c++/10.3.1/bits/stl_algobase.h ****  *  This is an internal header file, included by other library headers.
  53:/Library/DaisyToolchain/0.2.0/arm/arm-none-eabi/include/c++/10.3.1/bits/stl_algobase.h ****  *  Do not attempt to use it directly. @headername{algorithm}
  54:/Library/DaisyToolchain/0.2.0/arm/arm-none-eabi/include/c++/10.3.1/bits/stl_algobase.h ****  */
  55:/Library/DaisyToolchain/0.2.0/arm/arm-none-eabi/include/c++/10.3.1/bits/stl_algobase.h **** 
  56:/Library/DaisyToolchain/0.2.0/arm/arm-none-eabi/include/c++/10.3.1/bits/stl_algobase.h **** #ifndef _STL_ALGOBASE_H
  57:/Library/DaisyToolchain/0.2.0/arm/arm-none-eabi/include/c++/10.3.1/bits/stl_algobase.h **** #define _STL_ALGOBASE_H 1
  58:/Library/DaisyToolchain/0.2.0/arm/arm-none-eabi/include/c++/10.3.1/bits/stl_algobase.h **** 
  59:/Library/DaisyToolchain/0.2.0/arm/arm-none-eabi/include/c++/10.3.1/bits/stl_algobase.h **** #include <bits/c++config.h>
  60:/Library/DaisyToolchain/0.2.0/arm/arm-none-eabi/include/c++/10.3.1/bits/stl_algobase.h **** #include <bits/functexcept.h>
  61:/Library/DaisyToolchain/0.2.0/arm/arm-none-eabi/include/c++/10.3.1/bits/stl_algobase.h **** #include <bits/cpp_type_traits.h>
  62:/Library/DaisyToolchain/0.2.0/arm/arm-none-eabi/include/c++/10.3.1/bits/stl_algobase.h **** #include <ext/type_traits.h>
  63:/Library/DaisyToolchain/0.2.0/arm/arm-none-eabi/include/c++/10.3.1/bits/stl_algobase.h **** #include <ext/numeric_traits.h>
  64:/Library/DaisyToolchain/0.2.0/arm/arm-none-eabi/include/c++/10.3.1/bits/stl_algobase.h **** #include <bits/stl_pair.h>
  65:/Library/DaisyToolchain/0.2.0/arm/arm-none-eabi/include/c++/10.3.1/bits/stl_algobase.h **** #include <bits/stl_iterator_base_types.h>
  66:/Library/DaisyToolchain/0.2.0/arm/arm-none-eabi/include/c++/10.3.1/bits/stl_algobase.h **** #include <bits/stl_iterator_base_funcs.h>
  67:/Library/DaisyToolchain/0.2.0/arm/arm-none-eabi/include/c++/10.3.1/bits/stl_algobase.h **** #include <bits/stl_iterator.h>
  68:/Library/DaisyToolchain/0.2.0/arm/arm-none-eabi/include/c++/10.3.1/bits/stl_algobase.h **** #include <bits/concept_check.h>
  69:/Library/DaisyToolchain/0.2.0/arm/arm-none-eabi/include/c++/10.3.1/bits/stl_algobase.h **** #include <debug/debug.h>
  70:/Library/DaisyToolchain/0.2.0/arm/arm-none-eabi/include/c++/10.3.1/bits/stl_algobase.h **** #include <bits/move.h> // For std::swap
  71:/Library/DaisyToolchain/0.2.0/arm/arm-none-eabi/include/c++/10.3.1/bits/stl_algobase.h **** #include <bits/predefined_ops.h>
  72:/Library/DaisyToolchain/0.2.0/arm/arm-none-eabi/include/c++/10.3.1/bits/stl_algobase.h **** #if __cplusplus >= 201103L
  73:/Library/DaisyToolchain/0.2.0/arm/arm-none-eabi/include/c++/10.3.1/bits/stl_algobase.h **** # include <type_traits>
  74:/Library/DaisyToolchain/0.2.0/arm/arm-none-eabi/include/c++/10.3.1/bits/stl_algobase.h **** #endif
  75:/Library/DaisyToolchain/0.2.0/arm/arm-none-eabi/include/c++/10.3.1/bits/stl_algobase.h **** #if __cplusplus > 201703L
ARM GAS  /var/folders/9k/zk1mgrrd7wg4__6zvxvr9w8m0000gn/T//ccjZIkb1.s 			page 20


  76:/Library/DaisyToolchain/0.2.0/arm/arm-none-eabi/include/c++/10.3.1/bits/stl_algobase.h **** # include <compare>
  77:/Library/DaisyToolchain/0.2.0/arm/arm-none-eabi/include/c++/10.3.1/bits/stl_algobase.h **** #endif
  78:/Library/DaisyToolchain/0.2.0/arm/arm-none-eabi/include/c++/10.3.1/bits/stl_algobase.h **** 
  79:/Library/DaisyToolchain/0.2.0/arm/arm-none-eabi/include/c++/10.3.1/bits/stl_algobase.h **** namespace std _GLIBCXX_VISIBILITY(default)
  80:/Library/DaisyToolchain/0.2.0/arm/arm-none-eabi/include/c++/10.3.1/bits/stl_algobase.h **** {
  81:/Library/DaisyToolchain/0.2.0/arm/arm-none-eabi/include/c++/10.3.1/bits/stl_algobase.h **** _GLIBCXX_BEGIN_NAMESPACE_VERSION
  82:/Library/DaisyToolchain/0.2.0/arm/arm-none-eabi/include/c++/10.3.1/bits/stl_algobase.h **** 
  83:/Library/DaisyToolchain/0.2.0/arm/arm-none-eabi/include/c++/10.3.1/bits/stl_algobase.h ****   /*
  84:/Library/DaisyToolchain/0.2.0/arm/arm-none-eabi/include/c++/10.3.1/bits/stl_algobase.h ****    * A constexpr wrapper for __builtin_memcmp.
  85:/Library/DaisyToolchain/0.2.0/arm/arm-none-eabi/include/c++/10.3.1/bits/stl_algobase.h ****    * @param __num The number of elements of type _Tp (not bytes).
  86:/Library/DaisyToolchain/0.2.0/arm/arm-none-eabi/include/c++/10.3.1/bits/stl_algobase.h ****    */
  87:/Library/DaisyToolchain/0.2.0/arm/arm-none-eabi/include/c++/10.3.1/bits/stl_algobase.h ****   template<typename _Tp, typename _Up>
  88:/Library/DaisyToolchain/0.2.0/arm/arm-none-eabi/include/c++/10.3.1/bits/stl_algobase.h ****     _GLIBCXX14_CONSTEXPR
  89:/Library/DaisyToolchain/0.2.0/arm/arm-none-eabi/include/c++/10.3.1/bits/stl_algobase.h ****     inline int
  90:/Library/DaisyToolchain/0.2.0/arm/arm-none-eabi/include/c++/10.3.1/bits/stl_algobase.h ****     __memcmp(const _Tp* __first1, const _Up* __first2, size_t __num)
  91:/Library/DaisyToolchain/0.2.0/arm/arm-none-eabi/include/c++/10.3.1/bits/stl_algobase.h ****     {
  92:/Library/DaisyToolchain/0.2.0/arm/arm-none-eabi/include/c++/10.3.1/bits/stl_algobase.h **** #if __cplusplus >= 201103L
  93:/Library/DaisyToolchain/0.2.0/arm/arm-none-eabi/include/c++/10.3.1/bits/stl_algobase.h ****       static_assert(sizeof(_Tp) == sizeof(_Up), "can be compared with memcmp");
  94:/Library/DaisyToolchain/0.2.0/arm/arm-none-eabi/include/c++/10.3.1/bits/stl_algobase.h **** #endif
  95:/Library/DaisyToolchain/0.2.0/arm/arm-none-eabi/include/c++/10.3.1/bits/stl_algobase.h **** #ifdef __cpp_lib_is_constant_evaluated
  96:/Library/DaisyToolchain/0.2.0/arm/arm-none-eabi/include/c++/10.3.1/bits/stl_algobase.h ****       if (std::is_constant_evaluated())
  97:/Library/DaisyToolchain/0.2.0/arm/arm-none-eabi/include/c++/10.3.1/bits/stl_algobase.h **** 	{
  98:/Library/DaisyToolchain/0.2.0/arm/arm-none-eabi/include/c++/10.3.1/bits/stl_algobase.h **** 	  for(; __num > 0; ++__first1, ++__first2, --__num)
  99:/Library/DaisyToolchain/0.2.0/arm/arm-none-eabi/include/c++/10.3.1/bits/stl_algobase.h **** 	    if (*__first1 != *__first2)
 100:/Library/DaisyToolchain/0.2.0/arm/arm-none-eabi/include/c++/10.3.1/bits/stl_algobase.h **** 	      return *__first1 < *__first2 ? -1 : 1;
 101:/Library/DaisyToolchain/0.2.0/arm/arm-none-eabi/include/c++/10.3.1/bits/stl_algobase.h **** 	  return 0;
 102:/Library/DaisyToolchain/0.2.0/arm/arm-none-eabi/include/c++/10.3.1/bits/stl_algobase.h **** 	}
 103:/Library/DaisyToolchain/0.2.0/arm/arm-none-eabi/include/c++/10.3.1/bits/stl_algobase.h ****       else
 104:/Library/DaisyToolchain/0.2.0/arm/arm-none-eabi/include/c++/10.3.1/bits/stl_algobase.h **** #endif
 105:/Library/DaisyToolchain/0.2.0/arm/arm-none-eabi/include/c++/10.3.1/bits/stl_algobase.h **** 	return __builtin_memcmp(__first1, __first2, sizeof(_Tp) * __num);
 106:/Library/DaisyToolchain/0.2.0/arm/arm-none-eabi/include/c++/10.3.1/bits/stl_algobase.h ****     }
 107:/Library/DaisyToolchain/0.2.0/arm/arm-none-eabi/include/c++/10.3.1/bits/stl_algobase.h **** 
 108:/Library/DaisyToolchain/0.2.0/arm/arm-none-eabi/include/c++/10.3.1/bits/stl_algobase.h **** #if __cplusplus < 201103L
 109:/Library/DaisyToolchain/0.2.0/arm/arm-none-eabi/include/c++/10.3.1/bits/stl_algobase.h ****   // See http://gcc.gnu.org/ml/libstdc++/2004-08/msg00167.html: in a
 110:/Library/DaisyToolchain/0.2.0/arm/arm-none-eabi/include/c++/10.3.1/bits/stl_algobase.h ****   // nutshell, we are partially implementing the resolution of DR 187,
 111:/Library/DaisyToolchain/0.2.0/arm/arm-none-eabi/include/c++/10.3.1/bits/stl_algobase.h ****   // when it's safe, i.e., the value_types are equal.
 112:/Library/DaisyToolchain/0.2.0/arm/arm-none-eabi/include/c++/10.3.1/bits/stl_algobase.h ****   template<bool _BoolType>
 113:/Library/DaisyToolchain/0.2.0/arm/arm-none-eabi/include/c++/10.3.1/bits/stl_algobase.h ****     struct __iter_swap
 114:/Library/DaisyToolchain/0.2.0/arm/arm-none-eabi/include/c++/10.3.1/bits/stl_algobase.h ****     {
 115:/Library/DaisyToolchain/0.2.0/arm/arm-none-eabi/include/c++/10.3.1/bits/stl_algobase.h ****       template<typename _ForwardIterator1, typename _ForwardIterator2>
 116:/Library/DaisyToolchain/0.2.0/arm/arm-none-eabi/include/c++/10.3.1/bits/stl_algobase.h **** 	static void
 117:/Library/DaisyToolchain/0.2.0/arm/arm-none-eabi/include/c++/10.3.1/bits/stl_algobase.h **** 	iter_swap(_ForwardIterator1 __a, _ForwardIterator2 __b)
 118:/Library/DaisyToolchain/0.2.0/arm/arm-none-eabi/include/c++/10.3.1/bits/stl_algobase.h **** 	{
 119:/Library/DaisyToolchain/0.2.0/arm/arm-none-eabi/include/c++/10.3.1/bits/stl_algobase.h **** 	  typedef typename iterator_traits<_ForwardIterator1>::value_type
 120:/Library/DaisyToolchain/0.2.0/arm/arm-none-eabi/include/c++/10.3.1/bits/stl_algobase.h **** 	    _ValueType1;
 121:/Library/DaisyToolchain/0.2.0/arm/arm-none-eabi/include/c++/10.3.1/bits/stl_algobase.h **** 	  _ValueType1 __tmp = *__a;
 122:/Library/DaisyToolchain/0.2.0/arm/arm-none-eabi/include/c++/10.3.1/bits/stl_algobase.h **** 	  *__a = *__b;
 123:/Library/DaisyToolchain/0.2.0/arm/arm-none-eabi/include/c++/10.3.1/bits/stl_algobase.h **** 	  *__b = __tmp;
 124:/Library/DaisyToolchain/0.2.0/arm/arm-none-eabi/include/c++/10.3.1/bits/stl_algobase.h **** 	}
 125:/Library/DaisyToolchain/0.2.0/arm/arm-none-eabi/include/c++/10.3.1/bits/stl_algobase.h ****     };
 126:/Library/DaisyToolchain/0.2.0/arm/arm-none-eabi/include/c++/10.3.1/bits/stl_algobase.h **** 
 127:/Library/DaisyToolchain/0.2.0/arm/arm-none-eabi/include/c++/10.3.1/bits/stl_algobase.h ****   template<>
 128:/Library/DaisyToolchain/0.2.0/arm/arm-none-eabi/include/c++/10.3.1/bits/stl_algobase.h ****     struct __iter_swap<true>
 129:/Library/DaisyToolchain/0.2.0/arm/arm-none-eabi/include/c++/10.3.1/bits/stl_algobase.h ****     {
 130:/Library/DaisyToolchain/0.2.0/arm/arm-none-eabi/include/c++/10.3.1/bits/stl_algobase.h ****       template<typename _ForwardIterator1, typename _ForwardIterator2>
 131:/Library/DaisyToolchain/0.2.0/arm/arm-none-eabi/include/c++/10.3.1/bits/stl_algobase.h **** 	static void
 132:/Library/DaisyToolchain/0.2.0/arm/arm-none-eabi/include/c++/10.3.1/bits/stl_algobase.h **** 	iter_swap(_ForwardIterator1 __a, _ForwardIterator2 __b)
ARM GAS  /var/folders/9k/zk1mgrrd7wg4__6zvxvr9w8m0000gn/T//ccjZIkb1.s 			page 21


 133:/Library/DaisyToolchain/0.2.0/arm/arm-none-eabi/include/c++/10.3.1/bits/stl_algobase.h **** 	{
 134:/Library/DaisyToolchain/0.2.0/arm/arm-none-eabi/include/c++/10.3.1/bits/stl_algobase.h **** 	  swap(*__a, *__b);
 135:/Library/DaisyToolchain/0.2.0/arm/arm-none-eabi/include/c++/10.3.1/bits/stl_algobase.h **** 	}
 136:/Library/DaisyToolchain/0.2.0/arm/arm-none-eabi/include/c++/10.3.1/bits/stl_algobase.h ****     };
 137:/Library/DaisyToolchain/0.2.0/arm/arm-none-eabi/include/c++/10.3.1/bits/stl_algobase.h **** #endif // C++03
 138:/Library/DaisyToolchain/0.2.0/arm/arm-none-eabi/include/c++/10.3.1/bits/stl_algobase.h **** 
 139:/Library/DaisyToolchain/0.2.0/arm/arm-none-eabi/include/c++/10.3.1/bits/stl_algobase.h ****   /**
 140:/Library/DaisyToolchain/0.2.0/arm/arm-none-eabi/include/c++/10.3.1/bits/stl_algobase.h ****    *  @brief Swaps the contents of two iterators.
 141:/Library/DaisyToolchain/0.2.0/arm/arm-none-eabi/include/c++/10.3.1/bits/stl_algobase.h ****    *  @ingroup mutating_algorithms
 142:/Library/DaisyToolchain/0.2.0/arm/arm-none-eabi/include/c++/10.3.1/bits/stl_algobase.h ****    *  @param  __a  An iterator.
 143:/Library/DaisyToolchain/0.2.0/arm/arm-none-eabi/include/c++/10.3.1/bits/stl_algobase.h ****    *  @param  __b  Another iterator.
 144:/Library/DaisyToolchain/0.2.0/arm/arm-none-eabi/include/c++/10.3.1/bits/stl_algobase.h ****    *  @return   Nothing.
 145:/Library/DaisyToolchain/0.2.0/arm/arm-none-eabi/include/c++/10.3.1/bits/stl_algobase.h ****    *
 146:/Library/DaisyToolchain/0.2.0/arm/arm-none-eabi/include/c++/10.3.1/bits/stl_algobase.h ****    *  This function swaps the values pointed to by two iterators, not the
 147:/Library/DaisyToolchain/0.2.0/arm/arm-none-eabi/include/c++/10.3.1/bits/stl_algobase.h ****    *  iterators themselves.
 148:/Library/DaisyToolchain/0.2.0/arm/arm-none-eabi/include/c++/10.3.1/bits/stl_algobase.h ****   */
 149:/Library/DaisyToolchain/0.2.0/arm/arm-none-eabi/include/c++/10.3.1/bits/stl_algobase.h ****   template<typename _ForwardIterator1, typename _ForwardIterator2>
 150:/Library/DaisyToolchain/0.2.0/arm/arm-none-eabi/include/c++/10.3.1/bits/stl_algobase.h ****     _GLIBCXX20_CONSTEXPR
 151:/Library/DaisyToolchain/0.2.0/arm/arm-none-eabi/include/c++/10.3.1/bits/stl_algobase.h ****     inline void
 152:/Library/DaisyToolchain/0.2.0/arm/arm-none-eabi/include/c++/10.3.1/bits/stl_algobase.h ****     iter_swap(_ForwardIterator1 __a, _ForwardIterator2 __b)
 153:/Library/DaisyToolchain/0.2.0/arm/arm-none-eabi/include/c++/10.3.1/bits/stl_algobase.h ****     {
 154:/Library/DaisyToolchain/0.2.0/arm/arm-none-eabi/include/c++/10.3.1/bits/stl_algobase.h ****       // concept requirements
 155:/Library/DaisyToolchain/0.2.0/arm/arm-none-eabi/include/c++/10.3.1/bits/stl_algobase.h ****       __glibcxx_function_requires(_Mutable_ForwardIteratorConcept<
 156:/Library/DaisyToolchain/0.2.0/arm/arm-none-eabi/include/c++/10.3.1/bits/stl_algobase.h **** 				  _ForwardIterator1>)
 157:/Library/DaisyToolchain/0.2.0/arm/arm-none-eabi/include/c++/10.3.1/bits/stl_algobase.h ****       __glibcxx_function_requires(_Mutable_ForwardIteratorConcept<
 158:/Library/DaisyToolchain/0.2.0/arm/arm-none-eabi/include/c++/10.3.1/bits/stl_algobase.h **** 				  _ForwardIterator2>)
 159:/Library/DaisyToolchain/0.2.0/arm/arm-none-eabi/include/c++/10.3.1/bits/stl_algobase.h **** 
 160:/Library/DaisyToolchain/0.2.0/arm/arm-none-eabi/include/c++/10.3.1/bits/stl_algobase.h **** #if __cplusplus < 201103L
 161:/Library/DaisyToolchain/0.2.0/arm/arm-none-eabi/include/c++/10.3.1/bits/stl_algobase.h ****       typedef typename iterator_traits<_ForwardIterator1>::value_type
 162:/Library/DaisyToolchain/0.2.0/arm/arm-none-eabi/include/c++/10.3.1/bits/stl_algobase.h **** 	_ValueType1;
 163:/Library/DaisyToolchain/0.2.0/arm/arm-none-eabi/include/c++/10.3.1/bits/stl_algobase.h ****       typedef typename iterator_traits<_ForwardIterator2>::value_type
 164:/Library/DaisyToolchain/0.2.0/arm/arm-none-eabi/include/c++/10.3.1/bits/stl_algobase.h **** 	_ValueType2;
 165:/Library/DaisyToolchain/0.2.0/arm/arm-none-eabi/include/c++/10.3.1/bits/stl_algobase.h **** 
 166:/Library/DaisyToolchain/0.2.0/arm/arm-none-eabi/include/c++/10.3.1/bits/stl_algobase.h ****       __glibcxx_function_requires(_ConvertibleConcept<_ValueType1,
 167:/Library/DaisyToolchain/0.2.0/arm/arm-none-eabi/include/c++/10.3.1/bits/stl_algobase.h **** 				  _ValueType2>)
 168:/Library/DaisyToolchain/0.2.0/arm/arm-none-eabi/include/c++/10.3.1/bits/stl_algobase.h ****       __glibcxx_function_requires(_ConvertibleConcept<_ValueType2,
 169:/Library/DaisyToolchain/0.2.0/arm/arm-none-eabi/include/c++/10.3.1/bits/stl_algobase.h **** 				  _ValueType1>)
 170:/Library/DaisyToolchain/0.2.0/arm/arm-none-eabi/include/c++/10.3.1/bits/stl_algobase.h **** 
 171:/Library/DaisyToolchain/0.2.0/arm/arm-none-eabi/include/c++/10.3.1/bits/stl_algobase.h ****       typedef typename iterator_traits<_ForwardIterator1>::reference
 172:/Library/DaisyToolchain/0.2.0/arm/arm-none-eabi/include/c++/10.3.1/bits/stl_algobase.h **** 	_ReferenceType1;
 173:/Library/DaisyToolchain/0.2.0/arm/arm-none-eabi/include/c++/10.3.1/bits/stl_algobase.h ****       typedef typename iterator_traits<_ForwardIterator2>::reference
 174:/Library/DaisyToolchain/0.2.0/arm/arm-none-eabi/include/c++/10.3.1/bits/stl_algobase.h **** 	_ReferenceType2;
 175:/Library/DaisyToolchain/0.2.0/arm/arm-none-eabi/include/c++/10.3.1/bits/stl_algobase.h ****       std::__iter_swap<__are_same<_ValueType1, _ValueType2>::__value
 176:/Library/DaisyToolchain/0.2.0/arm/arm-none-eabi/include/c++/10.3.1/bits/stl_algobase.h **** 	&& __are_same<_ValueType1&, _ReferenceType1>::__value
 177:/Library/DaisyToolchain/0.2.0/arm/arm-none-eabi/include/c++/10.3.1/bits/stl_algobase.h **** 	&& __are_same<_ValueType2&, _ReferenceType2>::__value>::
 178:/Library/DaisyToolchain/0.2.0/arm/arm-none-eabi/include/c++/10.3.1/bits/stl_algobase.h **** 	iter_swap(__a, __b);
 179:/Library/DaisyToolchain/0.2.0/arm/arm-none-eabi/include/c++/10.3.1/bits/stl_algobase.h **** #else
 180:/Library/DaisyToolchain/0.2.0/arm/arm-none-eabi/include/c++/10.3.1/bits/stl_algobase.h ****       // _GLIBCXX_RESOLVE_LIB_DEFECTS
 181:/Library/DaisyToolchain/0.2.0/arm/arm-none-eabi/include/c++/10.3.1/bits/stl_algobase.h ****       // 187. iter_swap underspecified
 182:/Library/DaisyToolchain/0.2.0/arm/arm-none-eabi/include/c++/10.3.1/bits/stl_algobase.h ****       swap(*__a, *__b);
 183:/Library/DaisyToolchain/0.2.0/arm/arm-none-eabi/include/c++/10.3.1/bits/stl_algobase.h **** #endif
 184:/Library/DaisyToolchain/0.2.0/arm/arm-none-eabi/include/c++/10.3.1/bits/stl_algobase.h ****     }
 185:/Library/DaisyToolchain/0.2.0/arm/arm-none-eabi/include/c++/10.3.1/bits/stl_algobase.h **** 
 186:/Library/DaisyToolchain/0.2.0/arm/arm-none-eabi/include/c++/10.3.1/bits/stl_algobase.h ****   /**
 187:/Library/DaisyToolchain/0.2.0/arm/arm-none-eabi/include/c++/10.3.1/bits/stl_algobase.h ****    *  @brief Swap the elements of two sequences.
 188:/Library/DaisyToolchain/0.2.0/arm/arm-none-eabi/include/c++/10.3.1/bits/stl_algobase.h ****    *  @ingroup mutating_algorithms
 189:/Library/DaisyToolchain/0.2.0/arm/arm-none-eabi/include/c++/10.3.1/bits/stl_algobase.h ****    *  @param  __first1  A forward iterator.
ARM GAS  /var/folders/9k/zk1mgrrd7wg4__6zvxvr9w8m0000gn/T//ccjZIkb1.s 			page 22


 190:/Library/DaisyToolchain/0.2.0/arm/arm-none-eabi/include/c++/10.3.1/bits/stl_algobase.h ****    *  @param  __last1   A forward iterator.
 191:/Library/DaisyToolchain/0.2.0/arm/arm-none-eabi/include/c++/10.3.1/bits/stl_algobase.h ****    *  @param  __first2  A forward iterator.
 192:/Library/DaisyToolchain/0.2.0/arm/arm-none-eabi/include/c++/10.3.1/bits/stl_algobase.h ****    *  @return   An iterator equal to @p first2+(last1-first1).
 193:/Library/DaisyToolchain/0.2.0/arm/arm-none-eabi/include/c++/10.3.1/bits/stl_algobase.h ****    *
 194:/Library/DaisyToolchain/0.2.0/arm/arm-none-eabi/include/c++/10.3.1/bits/stl_algobase.h ****    *  Swaps each element in the range @p [first1,last1) with the
 195:/Library/DaisyToolchain/0.2.0/arm/arm-none-eabi/include/c++/10.3.1/bits/stl_algobase.h ****    *  corresponding element in the range @p [first2,(last1-first1)).
 196:/Library/DaisyToolchain/0.2.0/arm/arm-none-eabi/include/c++/10.3.1/bits/stl_algobase.h ****    *  The ranges must not overlap.
 197:/Library/DaisyToolchain/0.2.0/arm/arm-none-eabi/include/c++/10.3.1/bits/stl_algobase.h ****   */
 198:/Library/DaisyToolchain/0.2.0/arm/arm-none-eabi/include/c++/10.3.1/bits/stl_algobase.h ****   template<typename _ForwardIterator1, typename _ForwardIterator2>
 199:/Library/DaisyToolchain/0.2.0/arm/arm-none-eabi/include/c++/10.3.1/bits/stl_algobase.h ****     _GLIBCXX20_CONSTEXPR
 200:/Library/DaisyToolchain/0.2.0/arm/arm-none-eabi/include/c++/10.3.1/bits/stl_algobase.h ****     _ForwardIterator2
 201:/Library/DaisyToolchain/0.2.0/arm/arm-none-eabi/include/c++/10.3.1/bits/stl_algobase.h ****     swap_ranges(_ForwardIterator1 __first1, _ForwardIterator1 __last1,
 202:/Library/DaisyToolchain/0.2.0/arm/arm-none-eabi/include/c++/10.3.1/bits/stl_algobase.h **** 		_ForwardIterator2 __first2)
 203:/Library/DaisyToolchain/0.2.0/arm/arm-none-eabi/include/c++/10.3.1/bits/stl_algobase.h ****     {
 204:/Library/DaisyToolchain/0.2.0/arm/arm-none-eabi/include/c++/10.3.1/bits/stl_algobase.h ****       // concept requirements
 205:/Library/DaisyToolchain/0.2.0/arm/arm-none-eabi/include/c++/10.3.1/bits/stl_algobase.h ****       __glibcxx_function_requires(_Mutable_ForwardIteratorConcept<
 206:/Library/DaisyToolchain/0.2.0/arm/arm-none-eabi/include/c++/10.3.1/bits/stl_algobase.h **** 				  _ForwardIterator1>)
 207:/Library/DaisyToolchain/0.2.0/arm/arm-none-eabi/include/c++/10.3.1/bits/stl_algobase.h ****       __glibcxx_function_requires(_Mutable_ForwardIteratorConcept<
 208:/Library/DaisyToolchain/0.2.0/arm/arm-none-eabi/include/c++/10.3.1/bits/stl_algobase.h **** 				  _ForwardIterator2>)
 209:/Library/DaisyToolchain/0.2.0/arm/arm-none-eabi/include/c++/10.3.1/bits/stl_algobase.h ****       __glibcxx_requires_valid_range(__first1, __last1);
 210:/Library/DaisyToolchain/0.2.0/arm/arm-none-eabi/include/c++/10.3.1/bits/stl_algobase.h **** 
 211:/Library/DaisyToolchain/0.2.0/arm/arm-none-eabi/include/c++/10.3.1/bits/stl_algobase.h ****       for (; __first1 != __last1; ++__first1, (void)++__first2)
 212:/Library/DaisyToolchain/0.2.0/arm/arm-none-eabi/include/c++/10.3.1/bits/stl_algobase.h **** 	std::iter_swap(__first1, __first2);
 213:/Library/DaisyToolchain/0.2.0/arm/arm-none-eabi/include/c++/10.3.1/bits/stl_algobase.h ****       return __first2;
 214:/Library/DaisyToolchain/0.2.0/arm/arm-none-eabi/include/c++/10.3.1/bits/stl_algobase.h ****     }
 215:/Library/DaisyToolchain/0.2.0/arm/arm-none-eabi/include/c++/10.3.1/bits/stl_algobase.h **** 
 216:/Library/DaisyToolchain/0.2.0/arm/arm-none-eabi/include/c++/10.3.1/bits/stl_algobase.h ****   /**
 217:/Library/DaisyToolchain/0.2.0/arm/arm-none-eabi/include/c++/10.3.1/bits/stl_algobase.h ****    *  @brief This does what you think it does.
 218:/Library/DaisyToolchain/0.2.0/arm/arm-none-eabi/include/c++/10.3.1/bits/stl_algobase.h ****    *  @ingroup sorting_algorithms
 219:/Library/DaisyToolchain/0.2.0/arm/arm-none-eabi/include/c++/10.3.1/bits/stl_algobase.h ****    *  @param  __a  A thing of arbitrary type.
 220:/Library/DaisyToolchain/0.2.0/arm/arm-none-eabi/include/c++/10.3.1/bits/stl_algobase.h ****    *  @param  __b  Another thing of arbitrary type.
 221:/Library/DaisyToolchain/0.2.0/arm/arm-none-eabi/include/c++/10.3.1/bits/stl_algobase.h ****    *  @return   The lesser of the parameters.
 222:/Library/DaisyToolchain/0.2.0/arm/arm-none-eabi/include/c++/10.3.1/bits/stl_algobase.h ****    *
 223:/Library/DaisyToolchain/0.2.0/arm/arm-none-eabi/include/c++/10.3.1/bits/stl_algobase.h ****    *  This is the simple classic generic implementation.  It will work on
 224:/Library/DaisyToolchain/0.2.0/arm/arm-none-eabi/include/c++/10.3.1/bits/stl_algobase.h ****    *  temporary expressions, since they are only evaluated once, unlike a
 225:/Library/DaisyToolchain/0.2.0/arm/arm-none-eabi/include/c++/10.3.1/bits/stl_algobase.h ****    *  preprocessor macro.
 226:/Library/DaisyToolchain/0.2.0/arm/arm-none-eabi/include/c++/10.3.1/bits/stl_algobase.h ****   */
 227:/Library/DaisyToolchain/0.2.0/arm/arm-none-eabi/include/c++/10.3.1/bits/stl_algobase.h ****   template<typename _Tp>
 228:/Library/DaisyToolchain/0.2.0/arm/arm-none-eabi/include/c++/10.3.1/bits/stl_algobase.h ****     _GLIBCXX14_CONSTEXPR
 229:/Library/DaisyToolchain/0.2.0/arm/arm-none-eabi/include/c++/10.3.1/bits/stl_algobase.h ****     inline const _Tp&
 230:/Library/DaisyToolchain/0.2.0/arm/arm-none-eabi/include/c++/10.3.1/bits/stl_algobase.h ****     min(const _Tp& __a, const _Tp& __b)
 231:/Library/DaisyToolchain/0.2.0/arm/arm-none-eabi/include/c++/10.3.1/bits/stl_algobase.h ****     {
 232:/Library/DaisyToolchain/0.2.0/arm/arm-none-eabi/include/c++/10.3.1/bits/stl_algobase.h ****       // concept requirements
 233:/Library/DaisyToolchain/0.2.0/arm/arm-none-eabi/include/c++/10.3.1/bits/stl_algobase.h ****       __glibcxx_function_requires(_LessThanComparableConcept<_Tp>)
 234:/Library/DaisyToolchain/0.2.0/arm/arm-none-eabi/include/c++/10.3.1/bits/stl_algobase.h ****       //return __b < __a ? __b : __a;
 235:/Library/DaisyToolchain/0.2.0/arm/arm-none-eabi/include/c++/10.3.1/bits/stl_algobase.h ****       if (__b < __a)
 236:/Library/DaisyToolchain/0.2.0/arm/arm-none-eabi/include/c++/10.3.1/bits/stl_algobase.h **** 	return __b;
 237:/Library/DaisyToolchain/0.2.0/arm/arm-none-eabi/include/c++/10.3.1/bits/stl_algobase.h ****       return __a;
 238:/Library/DaisyToolchain/0.2.0/arm/arm-none-eabi/include/c++/10.3.1/bits/stl_algobase.h ****     }
 239:/Library/DaisyToolchain/0.2.0/arm/arm-none-eabi/include/c++/10.3.1/bits/stl_algobase.h **** 
 240:/Library/DaisyToolchain/0.2.0/arm/arm-none-eabi/include/c++/10.3.1/bits/stl_algobase.h ****   /**
 241:/Library/DaisyToolchain/0.2.0/arm/arm-none-eabi/include/c++/10.3.1/bits/stl_algobase.h ****    *  @brief This does what you think it does.
 242:/Library/DaisyToolchain/0.2.0/arm/arm-none-eabi/include/c++/10.3.1/bits/stl_algobase.h ****    *  @ingroup sorting_algorithms
 243:/Library/DaisyToolchain/0.2.0/arm/arm-none-eabi/include/c++/10.3.1/bits/stl_algobase.h ****    *  @param  __a  A thing of arbitrary type.
 244:/Library/DaisyToolchain/0.2.0/arm/arm-none-eabi/include/c++/10.3.1/bits/stl_algobase.h ****    *  @param  __b  Another thing of arbitrary type.
 245:/Library/DaisyToolchain/0.2.0/arm/arm-none-eabi/include/c++/10.3.1/bits/stl_algobase.h ****    *  @return   The greater of the parameters.
 246:/Library/DaisyToolchain/0.2.0/arm/arm-none-eabi/include/c++/10.3.1/bits/stl_algobase.h ****    *
ARM GAS  /var/folders/9k/zk1mgrrd7wg4__6zvxvr9w8m0000gn/T//ccjZIkb1.s 			page 23


 247:/Library/DaisyToolchain/0.2.0/arm/arm-none-eabi/include/c++/10.3.1/bits/stl_algobase.h ****    *  This is the simple classic generic implementation.  It will work on
 248:/Library/DaisyToolchain/0.2.0/arm/arm-none-eabi/include/c++/10.3.1/bits/stl_algobase.h ****    *  temporary expressions, since they are only evaluated once, unlike a
 249:/Library/DaisyToolchain/0.2.0/arm/arm-none-eabi/include/c++/10.3.1/bits/stl_algobase.h ****    *  preprocessor macro.
 250:/Library/DaisyToolchain/0.2.0/arm/arm-none-eabi/include/c++/10.3.1/bits/stl_algobase.h ****   */
 251:/Library/DaisyToolchain/0.2.0/arm/arm-none-eabi/include/c++/10.3.1/bits/stl_algobase.h ****   template<typename _Tp>
 252:/Library/DaisyToolchain/0.2.0/arm/arm-none-eabi/include/c++/10.3.1/bits/stl_algobase.h ****     _GLIBCXX14_CONSTEXPR
 253:/Library/DaisyToolchain/0.2.0/arm/arm-none-eabi/include/c++/10.3.1/bits/stl_algobase.h ****     inline const _Tp&
 254:/Library/DaisyToolchain/0.2.0/arm/arm-none-eabi/include/c++/10.3.1/bits/stl_algobase.h ****     max(const _Tp& __a, const _Tp& __b)
 255:/Library/DaisyToolchain/0.2.0/arm/arm-none-eabi/include/c++/10.3.1/bits/stl_algobase.h ****     {
 256:/Library/DaisyToolchain/0.2.0/arm/arm-none-eabi/include/c++/10.3.1/bits/stl_algobase.h ****       // concept requirements
 257:/Library/DaisyToolchain/0.2.0/arm/arm-none-eabi/include/c++/10.3.1/bits/stl_algobase.h ****       __glibcxx_function_requires(_LessThanComparableConcept<_Tp>)
 258:/Library/DaisyToolchain/0.2.0/arm/arm-none-eabi/include/c++/10.3.1/bits/stl_algobase.h ****       //return  __a < __b ? __b : __a;
 259:/Library/DaisyToolchain/0.2.0/arm/arm-none-eabi/include/c++/10.3.1/bits/stl_algobase.h ****       if (__a < __b)
 604              		.loc 6 259 7 view .LVU161
 605 00b0 F5EEC02A 		vcmpe.f32	s5, #0
 606              	.LBE230:
 607              	.LBE229:
 608              	.LBB234:
 609              	.LBB217:
 610              	.LBB205:
 611              	.LBB197:
 612              		.loc 5 45 74 view .LVU162
 613 00b4 63EEA63A 		vmul.f32	s7, s7, s13
 614              	.LBE197:
 615              	.LBE205:
 616              	.LBE217:
 617              	.LBE234:
 121:mi/plaits/dsp/engine/wavetable_engine.cpp ****   ONE_POLE(y_pre_lp_, parameters.morph * 6.9999f, 0.2f);
 618              		.loc 1 121 3 view .LVU163
 619 00b8 80ED057A 		vstr.32	s14, [r0, #20]
 620              	.LBB235:
 621              	.LBB231:
 622              		.loc 6 259 7 view .LVU164
 623 00bc F1EE10FA 		vmrs	APSR_nzcv, FPSCR
 624              	.LBE231:
 625              	.LBE235:
 626              	.LBB236:
 627              	.LBB218:
 628              		.loc 4 42 57 view .LVU165
 629 00c0 63EE863A 		vmul.f32	s7, s7, s12
 630              	.LVL35:
 631              		.loc 4 42 57 view .LVU166
 632              	.LBE218:
 633              	.LBE236:
 121:mi/plaits/dsp/engine/wavetable_engine.cpp ****   ONE_POLE(y_pre_lp_, parameters.morph * 6.9999f, 0.2f);
 634              		.loc 1 121 3 is_stmt 1 view .LVU167
 121:mi/plaits/dsp/engine/wavetable_engine.cpp ****   ONE_POLE(y_pre_lp_, parameters.morph * 6.9999f, 0.2f);
 635              		.loc 1 121 57 view .LVU168
 122:mi/plaits/dsp/engine/wavetable_engine.cpp ****   ONE_POLE(z_pre_lp_, parameters.harmonics * 6.9999f, 0.05f);
 636              		.loc 1 122 3 view .LVU169
 122:mi/plaits/dsp/engine/wavetable_engine.cpp ****   ONE_POLE(z_pre_lp_, parameters.harmonics * 6.9999f, 0.05f);
 637              		.loc 1 122 56 view .LVU170
 123:mi/plaits/dsp/engine/wavetable_engine.cpp ****   
 638              		.loc 1 123 3 view .LVU171
 123:mi/plaits/dsp/engine/wavetable_engine.cpp ****   
 639              		.loc 1 123 61 view .LVU172
 125:mi/plaits/dsp/engine/wavetable_engine.cpp ****   const float y = y_pre_lp_;
ARM GAS  /var/folders/9k/zk1mgrrd7wg4__6zvxvr9w8m0000gn/T//ccjZIkb1.s 			page 24


 640              		.loc 1 125 3 view .LVU173
 126:mi/plaits/dsp/engine/wavetable_engine.cpp ****   const float z = z_pre_lp_;
 641              		.loc 1 126 3 view .LVU174
 127:mi/plaits/dsp/engine/wavetable_engine.cpp ****   
 642              		.loc 1 127 3 view .LVU175
 643              		.loc 1 129 3 view .LVU176
 644              	.LBB237:
 645              	.LBI229:
 254:/Library/DaisyToolchain/0.2.0/arm/arm-none-eabi/include/c++/10.3.1/bits/stl_algobase.h ****     {
 646              		.loc 6 254 5 view .LVU177
 647              	.LBE237:
 122:mi/plaits/dsp/engine/wavetable_engine.cpp ****   ONE_POLE(z_pre_lp_, parameters.harmonics * 6.9999f, 0.05f);
 648              		.loc 1 122 3 is_stmt 0 view .LVU178
 649 00c4 C0ED067A 		vstr.32	s15, [r0, #24]
 650              	.LBB238:
 651              	.LBB232:
 652              		.loc 6 259 7 view .LVU179
 653 00c8 09D4     		bmi	.L46
 654              	.LVL36:
 655              		.loc 6 259 7 view .LVU180
 656              	.LBE232:
 657              	.LBE238:
 658              	.LBB239:
 659              	.LBI239:
 230:/Library/DaisyToolchain/0.2.0/arm/arm-none-eabi/include/c++/10.3.1/bits/stl_algobase.h ****     {
 660              		.loc 6 230 5 is_stmt 1 view .LVU181
 661              	.LBB240:
 235:/Library/DaisyToolchain/0.2.0/arm/arm-none-eabi/include/c++/10.3.1/bits/stl_algobase.h **** 	return __b;
 662              		.loc 6 235 7 is_stmt 0 view .LVU182
 663 00ca F7EE006A 		vmov.f32	s13, #1.0e+0
 664 00ce F4EEE62A 		vcmpe.f32	s5, s13
 665 00d2 F1EE10FA 		vmrs	APSR_nzcv, FPSCR
 666 00d6 04DD     		ble	.L30
 667 00d8 F0EE662A 		vmov.f32	s5, s13
 668 00dc 09E0     		b	.L31
 669              	.LVL37:
 670              	.L46:
 235:/Library/DaisyToolchain/0.2.0/arm/arm-none-eabi/include/c++/10.3.1/bits/stl_algobase.h **** 	return __b;
 671              		.loc 6 235 7 view .LVU183
 672              	.LBE240:
 673              	.LBE239:
 674              	.LBB241:
 675              	.LBB233:
 676 00de DFED4C2A 		vldr.32	s5, .L67+40
 677              	.LVL38:
 678              	.L30:
 235:/Library/DaisyToolchain/0.2.0/arm/arm-none-eabi/include/c++/10.3.1/bits/stl_algobase.h **** 	return __b;
 679              		.loc 6 235 7 view .LVU184
 680              	.LBE233:
 681              	.LBE241:
 130:mi/plaits/dsp/engine/wavetable_engine.cpp ****   const float lp_coefficient = min(
 131:mi/plaits/dsp/engine/wavetable_engine.cpp ****       max(2.0f * f0 * (4.0f - 3.0f * quantization), 0.01f), 0.1f);
 682              		.loc 1 131 29 view .LVU185
 683 00e2 F1EE001A 		vmov.f32	s3, #4.0e+0
 684 00e6 B0EE086A 		vmov.f32	s12, #3.0e+0
 685 00ea F0EE616A 		vmov.f32	s13, s3
 686 00ee E2EEC66A 		vfms.f32	s13, s5, s12
ARM GAS  /var/folders/9k/zk1mgrrd7wg4__6zvxvr9w8m0000gn/T//ccjZIkb1.s 			page 25


 687              	.L31:
 688              	.LVL39:
 130:mi/plaits/dsp/engine/wavetable_engine.cpp ****   const float lp_coefficient = min(
 689              		.loc 1 130 3 is_stmt 1 view .LVU186
 690              		.loc 1 131 16 is_stmt 0 view .LVU187
 691 00f2 73EEA31A 		vadd.f32	s3, s7, s7
 692              	.LBB242:
 693              	.LBB243:
 694              		.loc 6 259 7 view .LVU188
 695 00f6 9FED446A 		vldr.32	s12, .L67+32
 696              	.LBE243:
 697              	.LBE242:
 698              		.loc 1 131 21 view .LVU189
 699 00fa 61EEA61A 		vmul.f32	s3, s3, s13
 700              	.LVL40:
 701              	.LBB246:
 702              	.LBI242:
 254:/Library/DaisyToolchain/0.2.0/arm/arm-none-eabi/include/c++/10.3.1/bits/stl_algobase.h ****     {
 703              		.loc 6 254 5 is_stmt 1 view .LVU190
 704              	.LBB244:
 705              		.loc 6 259 7 is_stmt 0 view .LVU191
 706 00fe F4EEC61A 		vcmpe.f32	s3, s12
 707 0102 F1EE10FA 		vmrs	APSR_nzcv, FPSCR
 708 0106 00F15283 		bmi	.L48
 709              	.LVL41:
 710              		.loc 6 259 7 view .LVU192
 711              	.LBE244:
 712              	.LBE246:
 713              	.LBB247:
 714              	.LBI247:
 230:/Library/DaisyToolchain/0.2.0/arm/arm-none-eabi/include/c++/10.3.1/bits/stl_algobase.h ****     {
 715              		.loc 6 230 5 is_stmt 1 view .LVU193
 716              	.LBB248:
 235:/Library/DaisyToolchain/0.2.0/arm/arm-none-eabi/include/c++/10.3.1/bits/stl_algobase.h **** 	return __b;
 717              		.loc 6 235 7 is_stmt 0 view .LVU194
 718 010a DFED406A 		vldr.32	s13, .L67+36
 719 010e F4EE661A 		vcmp.f32	s3, s13
 720 0112 F1EE10FA 		vmrs	APSR_nzcv, FPSCR
 721 0116 76FEA11A 		vselgt.f32	s3, s13, s3
 722              	.LVL42:
 723              	.L32:
 235:/Library/DaisyToolchain/0.2.0/arm/arm-none-eabi/include/c++/10.3.1/bits/stl_algobase.h **** 	return __b;
 724              		.loc 6 235 7 view .LVU195
 725              	.LBE248:
 726              	.LBE247:
 132:mi/plaits/dsp/engine/wavetable_engine.cpp ****   
 133:mi/plaits/dsp/engine/wavetable_engine.cpp ****   MAKE_INTEGRAL_FRACTIONAL(x);
 727              		.loc 1 133 3 is_stmt 1 view .LVU196
 728              		.loc 1 133 3 view .LVU197
 729 011a BDEEC76A 		vcvt.s32.f32	s12, s14
 730              	.LBB249:
 731              	.LBB250:
  94:mi/plaits/dsp/engine/wavetable_engine.cpp ****   x *= amount;
 732              		.loc 1 94 5 is_stmt 0 view .LVU198
 733 011e F6EE004A 		vmov.f32	s9, #5.0e-1
  95:mi/plaits/dsp/engine/wavetable_engine.cpp ****   CONSTRAIN(x, -0.5f, 0.5f);
 734              		.loc 1 95 5 view .LVU199
ARM GAS  /var/folders/9k/zk1mgrrd7wg4__6zvxvr9w8m0000gn/T//ccjZIkb1.s 			page 26


 735 0122 B3EE001A 		vmov.f32	s2, #1.6e+1
 736              	.LBE250:
 737              	.LBE249:
 738              		.loc 1 133 3 view .LVU200
 739 0126 B8EEC66A 		vcvt.f32.s32	s12, s12
 740              	.LBB256:
 741              	.LBB251:
  96:mi/plaits/dsp/engine/wavetable_engine.cpp ****   x += 0.5f;
 742              		.loc 1 96 3 view .LVU201
 743 012a BEEE002A 		vmov.f32	s4, #-5.0e-1
 744              	.LBE251:
 745              	.LBE256:
 134:mi/plaits/dsp/engine/wavetable_engine.cpp ****   MAKE_INTEGRAL_FRACTIONAL(y);
 746              		.loc 1 134 3 view .LVU202
 747 012e FDEEE76A 		vcvt.s32.f32	s13, s15
 133:mi/plaits/dsp/engine/wavetable_engine.cpp ****   MAKE_INTEGRAL_FRACTIONAL(y);
 748              		.loc 1 133 3 view .LVU203
 749 0132 37EE467A 		vsub.f32	s14, s14, s12
 750              	.LVL43:
 133:mi/plaits/dsp/engine/wavetable_engine.cpp ****   MAKE_INTEGRAL_FRACTIONAL(y);
 751              		.loc 1 133 30 is_stmt 1 view .LVU204
 752              		.loc 1 134 3 view .LVU205
 753              		.loc 1 134 3 view .LVU206
 135:mi/plaits/dsp/engine/wavetable_engine.cpp ****   MAKE_INTEGRAL_FRACTIONAL(z);
 754              		.loc 1 135 3 is_stmt 0 view .LVU207
 755 0136 BDEEC53A 		vcvt.s32.f32	s6, s10
 134:mi/plaits/dsp/engine/wavetable_engine.cpp ****   MAKE_INTEGRAL_FRACTIONAL(y);
 756              		.loc 1 134 3 view .LVU208
 757 013a F8EEE66A 		vcvt.f32.s32	s13, s13
 758              	.LBB257:
 759              	.LBB252:
  94:mi/plaits/dsp/engine/wavetable_engine.cpp ****   x *= amount;
 760              		.loc 1 94 5 view .LVU209
 761 013e 77EE645A 		vsub.f32	s11, s14, s9
 762              	.LBE252:
 763              	.LBE257:
 764              		.loc 1 135 3 view .LVU210
 765 0142 B8EEC33A 		vcvt.f32.s32	s6, s6
 134:mi/plaits/dsp/engine/wavetable_engine.cpp ****   MAKE_INTEGRAL_FRACTIONAL(z);
 766              		.loc 1 134 3 view .LVU211
 767 0146 77EEE67A 		vsub.f32	s15, s15, s13
 768              	.LVL44:
 134:mi/plaits/dsp/engine/wavetable_engine.cpp ****   MAKE_INTEGRAL_FRACTIONAL(z);
 769              		.loc 1 134 30 is_stmt 1 view .LVU212
 770              		.loc 1 135 3 view .LVU213
 771              		.loc 1 135 3 view .LVU214
 772              	.LBB258:
 773              	.LBB253:
  95:mi/plaits/dsp/engine/wavetable_engine.cpp ****   CONSTRAIN(x, -0.5f, 0.5f);
 774              		.loc 1 95 5 is_stmt 0 view .LVU215
 775 014a 65EE815A 		vmul.f32	s11, s11, s2
 776              	.LBE253:
 777              	.LBE258:
 778              		.loc 1 135 3 view .LVU216
 779 014e 35EE434A 		vsub.f32	s8, s10, s6
 780              	.LVL45:
 781              		.loc 1 135 30 is_stmt 1 view .LVU217
ARM GAS  /var/folders/9k/zk1mgrrd7wg4__6zvxvr9w8m0000gn/T//ccjZIkb1.s 			page 27


 136:mi/plaits/dsp/engine/wavetable_engine.cpp ****   
 137:mi/plaits/dsp/engine/wavetable_engine.cpp ****   x_fractional += quantization * (Clamp(x_fractional, 16.0f) - x_fractional);
 782              		.loc 1 137 3 view .LVU218
 783              	.LBB259:
 784              	.LBI249:
  93:mi/plaits/dsp/engine/wavetable_engine.cpp ****   x = x - 0.5f;
 785              		.loc 1 93 14 view .LVU219
 786              	.LBB254:
  94:mi/plaits/dsp/engine/wavetable_engine.cpp ****   x *= amount;
 787              		.loc 1 94 3 view .LVU220
  95:mi/plaits/dsp/engine/wavetable_engine.cpp ****   CONSTRAIN(x, -0.5f, 0.5f);
 788              		.loc 1 95 3 view .LVU221
  96:mi/plaits/dsp/engine/wavetable_engine.cpp ****   x += 0.5f;
 789              		.loc 1 96 3 view .LVU222
 790 0152 F4EEC25A 		vcmpe.f32	s11, s4
 791 0156 F1EE10FA 		vmrs	APSR_nzcv, FPSCR
 792 015a 08D4     		bmi	.L49
  96:mi/plaits/dsp/engine/wavetable_engine.cpp ****   x += 0.5f;
 793              		.loc 1 96 3 view .LVU223
 794 015c F4EEE45A 		vcmpe.f32	s11, s9
 795 0160 F1EE10FA 		vmrs	APSR_nzcv, FPSCR
 796 0164 40F32083 		ble	.L64
 797 0168 F7EE004A 		vmov.f32	s9, #1.0e+0
 798 016c 01E0     		b	.L34
 799              	.L49:
 800 016e DFED284A 		vldr.32	s9, .L67+40
 801              	.L34:
 802              	.LVL46:
  96:mi/plaits/dsp/engine/wavetable_engine.cpp ****   x += 0.5f;
 803              		.loc 1 96 28 view .LVU224
  97:mi/plaits/dsp/engine/wavetable_engine.cpp ****   return x;
 804              		.loc 1 97 3 view .LVU225
  98:mi/plaits/dsp/engine/wavetable_engine.cpp **** }
 805              		.loc 1 98 3 view .LVU226
  98:mi/plaits/dsp/engine/wavetable_engine.cpp **** }
 806              		.loc 1 98 3 is_stmt 0 view .LVU227
 807              	.LBE254:
 808              	.LBE259:
 809              	.LBB260:
 810              	.LBB261:
  94:mi/plaits/dsp/engine/wavetable_engine.cpp ****   x *= amount;
 811              		.loc 1 94 5 view .LVU228
 812 0172 B6EE005A 		vmov.f32	s10, #5.0e-1
 813              	.LVL47:
  95:mi/plaits/dsp/engine/wavetable_engine.cpp ****   CONSTRAIN(x, -0.5f, 0.5f);
 814              		.loc 1 95 5 view .LVU229
 815 0176 B3EE001A 		vmov.f32	s2, #1.6e+1
  96:mi/plaits/dsp/engine/wavetable_engine.cpp ****   x += 0.5f;
 816              		.loc 1 96 3 view .LVU230
 817 017a BEEE002A 		vmov.f32	s4, #-5.0e-1
  94:mi/plaits/dsp/engine/wavetable_engine.cpp ****   x *= amount;
 818              		.loc 1 94 5 view .LVU231
 819 017e 77EEC55A 		vsub.f32	s11, s15, s10
 820              	.LBE261:
 821              	.LBE260:
 822              		.loc 1 137 62 view .LVU232
 823 0182 74EEC74A 		vsub.f32	s9, s9, s14
ARM GAS  /var/folders/9k/zk1mgrrd7wg4__6zvxvr9w8m0000gn/T//ccjZIkb1.s 			page 28


 824              	.LBB265:
 825              	.LBB262:
  95:mi/plaits/dsp/engine/wavetable_engine.cpp ****   CONSTRAIN(x, -0.5f, 0.5f);
 826              		.loc 1 95 5 view .LVU233
 827 0186 65EE815A 		vmul.f32	s11, s11, s2
 828              	.LBE262:
 829              	.LBE265:
 830              		.loc 1 137 16 view .LVU234
 831 018a A4EEA27A 		vfma.f32	s14, s9, s5
 832              	.LVL48:
 138:mi/plaits/dsp/engine/wavetable_engine.cpp ****   y_fractional += quantization * (Clamp(y_fractional, 16.0f) - y_fractional);
 833              		.loc 1 138 3 is_stmt 1 view .LVU235
 834              	.LBB266:
 835              	.LBI260:
  93:mi/plaits/dsp/engine/wavetable_engine.cpp ****   x = x - 0.5f;
 836              		.loc 1 93 14 view .LVU236
 837              	.LBB263:
  94:mi/plaits/dsp/engine/wavetable_engine.cpp ****   x *= amount;
 838              		.loc 1 94 3 view .LVU237
  95:mi/plaits/dsp/engine/wavetable_engine.cpp ****   CONSTRAIN(x, -0.5f, 0.5f);
 839              		.loc 1 95 3 view .LVU238
  96:mi/plaits/dsp/engine/wavetable_engine.cpp ****   x += 0.5f;
 840              		.loc 1 96 3 view .LVU239
 841 018e F4EEC25A 		vcmpe.f32	s11, s4
 842 0192 F1EE10FA 		vmrs	APSR_nzcv, FPSCR
 843 0196 08D4     		bmi	.L51
  96:mi/plaits/dsp/engine/wavetable_engine.cpp ****   x += 0.5f;
 844              		.loc 1 96 3 view .LVU240
 845 0198 F4EEC55A 		vcmpe.f32	s11, s10
 846 019c F1EE10FA 		vmrs	APSR_nzcv, FPSCR
 847 01a0 40F3FF82 		ble	.L65
 848 01a4 B7EE005A 		vmov.f32	s10, #1.0e+0
 849 01a8 01E0     		b	.L35
 850              	.L51:
 851 01aa 9FED195A 		vldr.32	s10, .L67+40
 852              	.L35:
 853              	.LVL49:
  96:mi/plaits/dsp/engine/wavetable_engine.cpp ****   x += 0.5f;
 854              		.loc 1 96 28 view .LVU241
  97:mi/plaits/dsp/engine/wavetable_engine.cpp ****   return x;
 855              		.loc 1 97 3 view .LVU242
  98:mi/plaits/dsp/engine/wavetable_engine.cpp **** }
 856              		.loc 1 98 3 view .LVU243
  98:mi/plaits/dsp/engine/wavetable_engine.cpp **** }
 857              		.loc 1 98 3 is_stmt 0 view .LVU244
 858              	.LBE263:
 859              	.LBE266:
 860              	.LBB267:
 861              	.LBB268:
  94:mi/plaits/dsp/engine/wavetable_engine.cpp ****   x *= amount;
 862              		.loc 1 94 5 view .LVU245
 863 01ae F6EE004A 		vmov.f32	s9, #5.0e-1
  95:mi/plaits/dsp/engine/wavetable_engine.cpp ****   CONSTRAIN(x, -0.5f, 0.5f);
 864              		.loc 1 95 5 view .LVU246
 865 01b2 B3EE001A 		vmov.f32	s2, #1.6e+1
  96:mi/plaits/dsp/engine/wavetable_engine.cpp ****   x += 0.5f;
 866              		.loc 1 96 3 view .LVU247
ARM GAS  /var/folders/9k/zk1mgrrd7wg4__6zvxvr9w8m0000gn/T//ccjZIkb1.s 			page 29


 867 01b6 BEEE002A 		vmov.f32	s4, #-5.0e-1
  94:mi/plaits/dsp/engine/wavetable_engine.cpp ****   x *= amount;
 868              		.loc 1 94 5 view .LVU248
 869 01ba 74EE645A 		vsub.f32	s11, s8, s9
 870              	.LBE268:
 871              	.LBE267:
 872              		.loc 1 138 62 view .LVU249
 873 01be 35EE675A 		vsub.f32	s10, s10, s15
 874              	.LBB272:
 875              	.LBB269:
  95:mi/plaits/dsp/engine/wavetable_engine.cpp ****   CONSTRAIN(x, -0.5f, 0.5f);
 876              		.loc 1 95 5 view .LVU250
 877 01c2 65EE815A 		vmul.f32	s11, s11, s2
 878              	.LBE269:
 879              	.LBE272:
 880              		.loc 1 138 16 view .LVU251
 881 01c6 E5EE227A 		vfma.f32	s15, s10, s5
 882              	.LVL50:
 139:mi/plaits/dsp/engine/wavetable_engine.cpp ****   z_fractional += quantization * (Clamp(z_fractional, 16.0f) - z_fractional);
 883              		.loc 1 139 3 is_stmt 1 view .LVU252
 884              	.LBB273:
 885              	.LBI267:
  93:mi/plaits/dsp/engine/wavetable_engine.cpp ****   x = x - 0.5f;
 886              		.loc 1 93 14 view .LVU253
 887              	.LBB270:
  94:mi/plaits/dsp/engine/wavetable_engine.cpp ****   x *= amount;
 888              		.loc 1 94 3 view .LVU254
  95:mi/plaits/dsp/engine/wavetable_engine.cpp ****   CONSTRAIN(x, -0.5f, 0.5f);
 889              		.loc 1 95 3 view .LVU255
  96:mi/plaits/dsp/engine/wavetable_engine.cpp ****   x += 0.5f;
 890              		.loc 1 96 3 view .LVU256
 891 01ca F4EEC25A 		vcmpe.f32	s11, s4
 892 01ce F1EE10FA 		vmrs	APSR_nzcv, FPSCR
 893 01d2 25D4     		bmi	.L53
  96:mi/plaits/dsp/engine/wavetable_engine.cpp ****   x += 0.5f;
 894              		.loc 1 96 3 view .LVU257
 895 01d4 F4EEE45A 		vcmpe.f32	s11, s9
 896 01d8 F1EE10FA 		vmrs	APSR_nzcv, FPSCR
 897 01dc 40F3DE82 		ble	.L66
 898 01e0 F7EE005A 		vmov.f32	s11, #1.0e+0
 899              	.LVL51:
  96:mi/plaits/dsp/engine/wavetable_engine.cpp ****   x += 0.5f;
 900              		.loc 1 96 3 is_stmt 0 view .LVU258
 901 01e4 1EE0     		b	.L36
 902              	.L68:
 903 01e6 00BF     		.align	2
 904              	.L67:
 905 01e8 000000C3 		.word	-1023410176
 906 01ec 0000FE42 		.word	1123942400
 907 01f0 2EFFDF40 		.word	1088421678
 908 01f4 CDCC4C3D 		.word	1028443341
 909 01f8 00000000 		.word	_ZN6stmlib20lut_pitch_ratio_highE
 910 01fc 00000000 		.word	_ZN6stmlib19lut_pitch_ratio_lowE
 911 0200 CDCC4C3E 		.word	1045220557
 912 0204 51969639 		.word	966170193
 913 0208 0AD7233C 		.word	1008981770
 914 020c CDCCCC3D 		.word	1036831949
ARM GAS  /var/folders/9k/zk1mgrrd7wg4__6zvxvr9w8m0000gn/T//ccjZIkb1.s 			page 30


 915 0210 00000000 		.word	0
 916 0214 00000048 		.word	1207959552
 917 0218 3333733F 		.word	1064514355
 918 021c 00000043 		.word	1124073472
 919              	.LVL52:
 920              	.L53:
  96:mi/plaits/dsp/engine/wavetable_engine.cpp ****   x += 0.5f;
 921              		.loc 1 96 3 view .LVU259
 922 0220 5FED055A 		vldr.32	s11, .L67+40
 923              	.LVL53:
 924              	.L36:
  96:mi/plaits/dsp/engine/wavetable_engine.cpp ****   x += 0.5f;
 925              		.loc 1 96 28 is_stmt 1 view .LVU260
  97:mi/plaits/dsp/engine/wavetable_engine.cpp ****   return x;
 926              		.loc 1 97 3 view .LVU261
  98:mi/plaits/dsp/engine/wavetable_engine.cpp **** }
 927              		.loc 1 98 3 view .LVU262
  98:mi/plaits/dsp/engine/wavetable_engine.cpp **** }
 928              		.loc 1 98 3 is_stmt 0 view .LVU263
 929              	.LBE270:
 930              	.LBE273:
 931              		.loc 1 139 62 view .LVU264
 932 0224 75EEC45A 		vsub.f32	s11, s11, s8
 933              	.LBB274:
 934              	.LBB275:
 935              	.LBB276:
 936              		.file 7 "mi/stmlib/dsp/parameter_interpolator.h"
   1:mi/stmlib/dsp/parameter_interpolator.h **** // Copyright 2015 Emilie Gillet.
   2:mi/stmlib/dsp/parameter_interpolator.h **** //
   3:mi/stmlib/dsp/parameter_interpolator.h **** // Author: Emilie Gillet (emilie.o.gillet@gmail.com)
   4:mi/stmlib/dsp/parameter_interpolator.h **** //
   5:mi/stmlib/dsp/parameter_interpolator.h **** // Permission is hereby granted, free of charge, to any person obtaining a copy
   6:mi/stmlib/dsp/parameter_interpolator.h **** // of this software and associated documentation files (the "Software"), to deal
   7:mi/stmlib/dsp/parameter_interpolator.h **** // in the Software without restriction, including without limitation the rights
   8:mi/stmlib/dsp/parameter_interpolator.h **** // to use, copy, modify, merge, publish, distribute, sublicense, and/or sell
   9:mi/stmlib/dsp/parameter_interpolator.h **** // copies of the Software, and to permit persons to whom the Software is
  10:mi/stmlib/dsp/parameter_interpolator.h **** // furnished to do so, subject to the following conditions:
  11:mi/stmlib/dsp/parameter_interpolator.h **** // 
  12:mi/stmlib/dsp/parameter_interpolator.h **** // The above copyright notice and this permission notice shall be included in
  13:mi/stmlib/dsp/parameter_interpolator.h **** // all copies or substantial portions of the Software.
  14:mi/stmlib/dsp/parameter_interpolator.h **** // 
  15:mi/stmlib/dsp/parameter_interpolator.h **** // THE SOFTWARE IS PROVIDED "AS IS", WITHOUT WARRANTY OF ANY KIND, EXPRESS OR
  16:mi/stmlib/dsp/parameter_interpolator.h **** // IMPLIED, INCLUDING BUT NOT LIMITED TO THE WARRANTIES OF MERCHANTABILITY,
  17:mi/stmlib/dsp/parameter_interpolator.h **** // FITNESS FOR A PARTICULAR PURPOSE AND NONINFRINGEMENT. IN NO EVENT SHALL THE
  18:mi/stmlib/dsp/parameter_interpolator.h **** // AUTHORS OR COPYRIGHT HOLDERS BE LIABLE FOR ANY CLAIM, DAMAGES OR OTHER
  19:mi/stmlib/dsp/parameter_interpolator.h **** // LIABILITY, WHETHER IN AN ACTION OF CONTRACT, TORT OR OTHERWISE, ARISING FROM,
  20:mi/stmlib/dsp/parameter_interpolator.h **** // OUT OF OR IN CONNECTION WITH THE SOFTWARE OR THE USE OR OTHER DEALINGS IN
  21:mi/stmlib/dsp/parameter_interpolator.h **** // THE SOFTWARE.
  22:mi/stmlib/dsp/parameter_interpolator.h **** // 
  23:mi/stmlib/dsp/parameter_interpolator.h **** // See http://creativecommons.org/licenses/MIT/ for more information.
  24:mi/stmlib/dsp/parameter_interpolator.h **** //
  25:mi/stmlib/dsp/parameter_interpolator.h **** // -----------------------------------------------------------------------------
  26:mi/stmlib/dsp/parameter_interpolator.h **** //
  27:mi/stmlib/dsp/parameter_interpolator.h **** // Linear interpolation of parameters in rendering loops.
  28:mi/stmlib/dsp/parameter_interpolator.h **** 
  29:mi/stmlib/dsp/parameter_interpolator.h **** #ifndef STMLIB_DSP_PARAMETER_INTERPOLATOR_H_
  30:mi/stmlib/dsp/parameter_interpolator.h **** #define STMLIB_DSP_PARAMETER_INTERPOLATOR_H_
ARM GAS  /var/folders/9k/zk1mgrrd7wg4__6zvxvr9w8m0000gn/T//ccjZIkb1.s 			page 31


  31:mi/stmlib/dsp/parameter_interpolator.h **** 
  32:mi/stmlib/dsp/parameter_interpolator.h **** #include "stmlib/stmlib.h"
  33:mi/stmlib/dsp/parameter_interpolator.h **** 
  34:mi/stmlib/dsp/parameter_interpolator.h **** namespace stmlib {
  35:mi/stmlib/dsp/parameter_interpolator.h **** 
  36:mi/stmlib/dsp/parameter_interpolator.h **** class ParameterInterpolator {
  37:mi/stmlib/dsp/parameter_interpolator.h ****  public:
  38:mi/stmlib/dsp/parameter_interpolator.h ****   ParameterInterpolator() { }
  39:mi/stmlib/dsp/parameter_interpolator.h ****   ParameterInterpolator(float* state, float new_value, size_t size) {
  40:mi/stmlib/dsp/parameter_interpolator.h ****     Init(state, new_value, size);
  41:mi/stmlib/dsp/parameter_interpolator.h ****   }
  42:mi/stmlib/dsp/parameter_interpolator.h **** 
  43:mi/stmlib/dsp/parameter_interpolator.h ****   ParameterInterpolator(float* state, float new_value, float step) {
  44:mi/stmlib/dsp/parameter_interpolator.h ****     state_ = state;
  45:mi/stmlib/dsp/parameter_interpolator.h ****     value_ = *state;
  46:mi/stmlib/dsp/parameter_interpolator.h ****     increment_ = (new_value - *state) * step;
  47:mi/stmlib/dsp/parameter_interpolator.h ****   }
  48:mi/stmlib/dsp/parameter_interpolator.h **** 
  49:mi/stmlib/dsp/parameter_interpolator.h ****   ~ParameterInterpolator() {
  50:mi/stmlib/dsp/parameter_interpolator.h ****     *state_ = value_;
  51:mi/stmlib/dsp/parameter_interpolator.h ****   }
  52:mi/stmlib/dsp/parameter_interpolator.h ****   
  53:mi/stmlib/dsp/parameter_interpolator.h ****   inline void Init(float* state, float new_value, size_t size) {
  54:mi/stmlib/dsp/parameter_interpolator.h ****     state_ = state;
  55:mi/stmlib/dsp/parameter_interpolator.h ****     value_ = *state;
 937              		.loc 7 55 14 view .LVU265
 938 0228 90ED0B1A 		vldr.32	s2, [r0, #44]
 939              	.LBE276:
 940              	.LBE275:
 941              	.LBE274:
 942              		.loc 1 139 16 view .LVU266
 943 022c B0EE445A 		vmov.f32	s10, s8
 944              	.LBB283:
 945              	.LBB284:
 946              	.LBB285:
 947              		.loc 7 55 14 view .LVU267
 948 0230 D0ED0C0A 		vldr.32	s1, [r0, #48]
 949              	.LBE285:
 950              	.LBE284:
 951              	.LBE283:
 140:mi/plaits/dsp/engine/wavetable_engine.cpp ****   
 141:mi/plaits/dsp/engine/wavetable_engine.cpp ****   ParameterInterpolator x_modulation(
 142:mi/plaits/dsp/engine/wavetable_engine.cpp ****       &previous_x_, static_cast<float>(x_integral) + x_fractional, size);
 143:mi/plaits/dsp/engine/wavetable_engine.cpp ****   ParameterInterpolator y_modulation(
 144:mi/plaits/dsp/engine/wavetable_engine.cpp ****       &previous_y_, static_cast<float>(y_integral) + y_fractional, size);
 952              		.loc 1 144 72 view .LVU268
 953 0234 76EEA77A 		vadd.f32	s15, s13, s15
 954              	.LVL54:
 955              	.LBB292:
 956              	.LBB293:
 957              	.LBB294:
 958              		.loc 7 55 14 view .LVU269
 959 0238 90ED0D0A 		vldr.32	s0, [r0, #52]
 960              	.LBE294:
 961              	.LBE293:
 962              	.LBE292:
 142:mi/plaits/dsp/engine/wavetable_engine.cpp ****   ParameterInterpolator y_modulation(
ARM GAS  /var/folders/9k/zk1mgrrd7wg4__6zvxvr9w8m0000gn/T//ccjZIkb1.s 			page 32


 963              		.loc 1 142 72 view .LVU270
 964 023c 36EE077A 		vadd.f32	s14, s12, s14
 965              	.LVL55:
 966              	.LBB299:
 967              	.LBB300:
 968              	.LBB301:
 969              		.loc 7 55 14 view .LVU271
 970 0240 90ED0E2A 		vldr.32	s4, [r0, #56]
 971              	.LBE301:
 972              	.LBE300:
 973              	.LBE299:
 139:mi/plaits/dsp/engine/wavetable_engine.cpp ****   
 974              		.loc 1 139 16 view .LVU272
 975 0244 A5EEA25A 		vfma.f32	s10, s11, s5
 976              	.LVL56:
 141:mi/plaits/dsp/engine/wavetable_engine.cpp ****       &previous_x_, static_cast<float>(x_integral) + x_fractional, size);
 977              		.loc 1 141 3 is_stmt 1 view .LVU273
 978              	.LBB308:
 979              	.LBI274:
  39:mi/stmlib/dsp/parameter_interpolator.h ****     Init(state, new_value, size);
 980              		.loc 7 39 3 view .LVU274
 981              	.LBE308:
  40:mi/stmlib/dsp/parameter_interpolator.h ****   }
 982              		.loc 7 40 5 view .LVU275
 983              	.LBB309:
 984              	.LBB280:
 985              	.LBI275:
  53:mi/stmlib/dsp/parameter_interpolator.h ****     state_ = state;
 986              		.loc 7 53 15 view .LVU276
 987              	.LBB277:
  54:mi/stmlib/dsp/parameter_interpolator.h ****     value_ = *state;
 988              		.loc 7 54 5 view .LVU277
 989              		.loc 7 55 5 view .LVU278
  56:mi/stmlib/dsp/parameter_interpolator.h ****     increment_ = (new_value - *state) / static_cast<float>(size);
 990              		.loc 7 56 5 view .LVU279
 991              		.loc 7 56 41 is_stmt 0 view .LVU280
 992 0248 06EE902A 		vmov	s13, r2	@ int
 993              	.LBE277:
 994              	.LBE280:
 995              	.LBE309:
 996              	.LBB310:
 997              	.LBB289:
 998              	.LBB286:
 999              		.loc 7 56 29 view .LVU281
 1000 024c 77EEE07A 		vsub.f32	s15, s15, s1
 1001              	.LBE286:
 1002              	.LBE289:
 1003              	.LBE310:
 145:mi/plaits/dsp/engine/wavetable_engine.cpp ****   ParameterInterpolator z_modulation(
 146:mi/plaits/dsp/engine/wavetable_engine.cpp ****       &previous_z_, static_cast<float>(z_integral) + z_fractional, size);
 147:mi/plaits/dsp/engine/wavetable_engine.cpp **** 
 148:mi/plaits/dsp/engine/wavetable_engine.cpp ****   ParameterInterpolator f0_modulation(&previous_f0_, f0, size);
 149:mi/plaits/dsp/engine/wavetable_engine.cpp ****   
 150:mi/plaits/dsp/engine/wavetable_engine.cpp ****   while (size--) {
 1004              		.loc 1 150 14 view .LVU282
 1005 0250 531E     		subs	r3, r2, #1
 1006              	.LBB311:
ARM GAS  /var/folders/9k/zk1mgrrd7wg4__6zvxvr9w8m0000gn/T//ccjZIkb1.s 			page 33


 1007              	.LBB281:
 1008              	.LBB278:
 1009              		.loc 7 56 41 view .LVU283
 1010 0252 F8EE666A 		vcvt.f32.u32	s13, s13
 1011              		.loc 7 56 29 view .LVU284
 1012 0256 37EE417A 		vsub.f32	s14, s14, s2
 1013              	.LBE278:
 1014              	.LBE281:
 1015              	.LBE311:
 1016              	.LBB312:
 1017              	.LBB305:
 1018              	.LBB302:
 1019 025a 73EEC23A 		vsub.f32	s7, s7, s4
 1020              	.LVL57:
 1021              		.loc 7 56 29 view .LVU285
 1022              	.LBE302:
 1023              	.LBE305:
 1024              	.LBE312:
 1025              	.LBB313:
 1026              	.LBB290:
 1027              	.LBB287:
 1028              		.loc 7 56 39 view .LVU286
 1029 025e C7EEA68A 		vdiv.f32	s17, s15, s13
 1030              	.LBE287:
 1031              	.LBE290:
 1032              	.LBE313:
 146:mi/plaits/dsp/engine/wavetable_engine.cpp **** 
 1033              		.loc 1 146 72 view .LVU287
 1034 0262 33EE053A 		vadd.f32	s6, s6, s10
 1035              	.LBB314:
 1036              	.LBB282:
 1037              	.LBB279:
 1038              		.loc 7 56 39 view .LVU288
 1039 0266 87EE268A 		vdiv.f32	s16, s14, s13
 1040              	.LVL58:
 1041              		.loc 7 56 39 view .LVU289
 1042              	.LBE279:
 1043              	.LBE282:
 1044              	.LBE314:
 143:mi/plaits/dsp/engine/wavetable_engine.cpp ****       &previous_y_, static_cast<float>(y_integral) + y_fractional, size);
 1045              		.loc 1 143 3 is_stmt 1 view .LVU290
 1046              	.LBB315:
 1047              	.LBI283:
  39:mi/stmlib/dsp/parameter_interpolator.h ****     Init(state, new_value, size);
 1048              		.loc 7 39 3 view .LVU291
 1049              	.LBE315:
  40:mi/stmlib/dsp/parameter_interpolator.h ****   }
 1050              		.loc 7 40 5 view .LVU292
 1051              	.LBB316:
 1052              	.LBB291:
 1053              	.LBI284:
  53:mi/stmlib/dsp/parameter_interpolator.h ****     state_ = state;
 1054              		.loc 7 53 15 view .LVU293
 1055              	.LBB288:
  54:mi/stmlib/dsp/parameter_interpolator.h ****     value_ = *state;
 1056              		.loc 7 54 5 view .LVU294
  55:mi/stmlib/dsp/parameter_interpolator.h ****     increment_ = (new_value - *state) / static_cast<float>(size);
ARM GAS  /var/folders/9k/zk1mgrrd7wg4__6zvxvr9w8m0000gn/T//ccjZIkb1.s 			page 34


 1057              		.loc 7 55 5 view .LVU295
 1058              		.loc 7 56 5 view .LVU296
 1059              		.loc 7 56 5 is_stmt 0 view .LVU297
 1060              	.LBE288:
 1061              	.LBE291:
 1062              	.LBE316:
 145:mi/plaits/dsp/engine/wavetable_engine.cpp ****       &previous_z_, static_cast<float>(z_integral) + z_fractional, size);
 1063              		.loc 1 145 3 is_stmt 1 view .LVU298
 1064              	.LBB317:
 1065              	.LBI292:
  39:mi/stmlib/dsp/parameter_interpolator.h ****     Init(state, new_value, size);
 1066              		.loc 7 39 3 view .LVU299
 1067              	.LBE317:
  40:mi/stmlib/dsp/parameter_interpolator.h ****   }
 1068              		.loc 7 40 5 view .LVU300
 1069              	.LBB318:
 1070              	.LBB297:
 1071              	.LBI293:
  53:mi/stmlib/dsp/parameter_interpolator.h ****     state_ = state;
 1072              		.loc 7 53 15 view .LVU301
 1073              	.LBB295:
  54:mi/stmlib/dsp/parameter_interpolator.h ****     value_ = *state;
 1074              		.loc 7 54 5 view .LVU302
  55:mi/stmlib/dsp/parameter_interpolator.h ****     increment_ = (new_value - *state) / static_cast<float>(size);
 1075              		.loc 7 55 5 view .LVU303
 1076              		.loc 7 56 5 view .LVU304
 1077              		.loc 7 56 29 is_stmt 0 view .LVU305
 1078 026a 33EE403A 		vsub.f32	s6, s6, s0
 1079              	.LBE295:
 1080              	.LBE297:
 1081              	.LBE318:
 1082              	.LBB319:
 1083              	.LBB306:
 1084              	.LBB303:
 1085              		.loc 7 56 39 view .LVU306
 1086 026e C3EEA69A 		vdiv.f32	s19, s7, s13
 1087              	.LBE303:
 1088              	.LBE306:
 1089              	.LBE319:
 1090              	.LBB320:
 1091              	.LBB298:
 1092              	.LBB296:
 1093 0272 83EE269A 		vdiv.f32	s18, s6, s13
 1094              	.LVL59:
 1095              		.loc 7 56 39 view .LVU307
 1096              	.LBE296:
 1097              	.LBE298:
 1098              	.LBE320:
 148:mi/plaits/dsp/engine/wavetable_engine.cpp ****   
 1099              		.loc 1 148 3 is_stmt 1 view .LVU308
 1100              	.LBB321:
 1101              	.LBI299:
  39:mi/stmlib/dsp/parameter_interpolator.h ****     Init(state, new_value, size);
 1102              		.loc 7 39 3 view .LVU309
 1103              	.LBE321:
  40:mi/stmlib/dsp/parameter_interpolator.h ****   }
 1104              		.loc 7 40 5 view .LVU310
ARM GAS  /var/folders/9k/zk1mgrrd7wg4__6zvxvr9w8m0000gn/T//ccjZIkb1.s 			page 35


 1105              	.LBB322:
 1106              	.LBB307:
 1107              	.LBI300:
  53:mi/stmlib/dsp/parameter_interpolator.h ****     state_ = state;
 1108              		.loc 7 53 15 view .LVU311
 1109              	.LBB304:
  54:mi/stmlib/dsp/parameter_interpolator.h ****     value_ = *state;
 1110              		.loc 7 54 5 view .LVU312
  55:mi/stmlib/dsp/parameter_interpolator.h ****     increment_ = (new_value - *state) / static_cast<float>(size);
 1111              		.loc 7 55 5 view .LVU313
 1112              		.loc 7 56 5 view .LVU314
 1113              		.loc 7 56 5 is_stmt 0 view .LVU315
 1114              	.LBE304:
 1115              	.LBE307:
 1116              	.LBE322:
 1117              		.loc 1 150 3 is_stmt 1 view .LVU316
 1118              		.loc 1 150 14 view .LVU317
 1119              		.loc 1 150 14 is_stmt 0 view .LVU318
 1120 0276 002A     		cmp	r2, #0
 1121 0278 00F07082 		beq	.L37
 1122              	.LBB323:
 1123              	.LBB324:
 1124              	.LBB325:
 1125              	.LBB326:
 108:mi/plaits/dsp/engine/wavetable_engine.cpp ****       phase_integral,
 1126              		.loc 1 108 7 view .LVU319
 1127 027c C46B     		ldr	r4, [r0, #60]
 108:mi/plaits/dsp/engine/wavetable_engine.cpp ****       phase_integral,
 1128              		.loc 1 108 7 view .LVU320
 1129 027e 0093     		str	r3, [sp]
 1130              	.LVL60:
 1131              	.L43:
 108:mi/plaits/dsp/engine/wavetable_engine.cpp ****       phase_integral,
 1132              		.loc 1 108 7 view .LVU321
 1133              	.LBE326:
 1134              	.LBE325:
 1135              	.LBE324:
 151:mi/plaits/dsp/engine/wavetable_engine.cpp ****     const float f0 = f0_modulation.Next();
 1136              		.loc 1 151 5 is_stmt 1 view .LVU322
 1137              	.LBB723:
 1138              	.LBI723:
  57:mi/stmlib/dsp/parameter_interpolator.h ****   }
  58:mi/stmlib/dsp/parameter_interpolator.h **** 
  59:mi/stmlib/dsp/parameter_interpolator.h ****   inline float Next() {
 1139              		.loc 7 59 16 view .LVU323
 1140              	.LBB724:
  60:mi/stmlib/dsp/parameter_interpolator.h ****     value_ += increment_;
 1141              		.loc 7 60 5 view .LVU324
 1142              	.LBE724:
 1143              	.LBE723:
 152:mi/plaits/dsp/engine/wavetable_engine.cpp ****     
 153:mi/plaits/dsp/engine/wavetable_engine.cpp ****     const float gain = (1.0f / (f0 * 131072.0f)) * (0.95f - f0);
 154:mi/plaits/dsp/engine/wavetable_engine.cpp ****     const float cutoff = min(kTableSizeF * f0, 1.0f);
 155:mi/plaits/dsp/engine/wavetable_engine.cpp ****     
 156:mi/plaits/dsp/engine/wavetable_engine.cpp ****     ONE_POLE(x_lp_, x_modulation.Next(), lp_coefficient);
 1144              		.loc 1 156 5 is_stmt 0 view .LVU325
 1145 0280 90ED085A 		vldr.32	s10, [r0, #32]
ARM GAS  /var/folders/9k/zk1mgrrd7wg4__6zvxvr9w8m0000gn/T//ccjZIkb1.s 			page 36


 153:mi/plaits/dsp/engine/wavetable_engine.cpp ****     const float cutoff = min(kTableSizeF * f0, 1.0f);
 1146              		.loc 1 153 36 view .LVU326
 1147 0284 5FED1D7A 		vldr.32	s15, .L67+44
 1148              	.LBB726:
 1149              	.LBB725:
 1150              		.loc 7 60 12 view .LVU327
 1151 0288 32EE292A 		vadd.f32	s4, s4, s19
 1152              	.LVL61:
  61:mi/stmlib/dsp/parameter_interpolator.h ****     return value_;
 1153              		.loc 7 61 5 is_stmt 1 view .LVU328
 1154              		.loc 7 61 5 is_stmt 0 view .LVU329
 1155              	.LBE725:
 1156              	.LBE726:
 153:mi/plaits/dsp/engine/wavetable_engine.cpp ****     const float cutoff = min(kTableSizeF * f0, 1.0f);
 1157              		.loc 1 153 5 is_stmt 1 view .LVU330
 157:mi/plaits/dsp/engine/wavetable_engine.cpp ****     ONE_POLE(y_lp_, y_modulation.Next(), lp_coefficient);
 1158              		.loc 1 157 5 is_stmt 0 view .LVU331
 1159 028c 90ED094A 		vldr.32	s8, [r0, #36]
 1160              	.LBB727:
 1161              	.LBB728:
  60:mi/stmlib/dsp/parameter_interpolator.h ****     return value_;
 1162              		.loc 7 60 12 view .LVU332
 1163 0290 31EE081A 		vadd.f32	s2, s2, s16
 1164              	.LVL62:
  60:mi/stmlib/dsp/parameter_interpolator.h ****     return value_;
 1165              		.loc 7 60 12 view .LVU333
 1166              	.LBE728:
 1167              	.LBE727:
 154:mi/plaits/dsp/engine/wavetable_engine.cpp ****     
 1168              		.loc 1 154 42 view .LVU334
 1169 0294 5FED1F2A 		vldr.32	s5, .L67+52
 153:mi/plaits/dsp/engine/wavetable_engine.cpp ****     const float cutoff = min(kTableSizeF * f0, 1.0f);
 1170              		.loc 1 153 30 view .LVU335
 1171 0298 B7EE007A 		vmov.f32	s14, #1.0e+0
 158:mi/plaits/dsp/engine/wavetable_engine.cpp ****     ONE_POLE(z_lp_, z_modulation.Next(), lp_coefficient);
 1172              		.loc 1 158 5 view .LVU336
 1173 029c D0ED0A3A 		vldr.32	s7, [r0, #40]
 153:mi/plaits/dsp/engine/wavetable_engine.cpp ****     const float cutoff = min(kTableSizeF * f0, 1.0f);
 1174              		.loc 1 153 36 view .LVU337
 1175 02a0 62EE277A 		vmul.f32	s15, s4, s15
 1176              	.LBE323:
 150:mi/plaits/dsp/engine/wavetable_engine.cpp ****     const float f0 = f0_modulation.Next();
 1177              		.loc 1 150 14 view .LVU338
 1178 02a4 009B     		ldr	r3, [sp]
 1179              	.LBB758:
 156:mi/plaits/dsp/engine/wavetable_engine.cpp ****     ONE_POLE(y_lp_, y_modulation.Next(), lp_coefficient);
 1180              		.loc 1 156 5 view .LVU339
 1181 02a6 71EE456A 		vsub.f32	s13, s2, s10
 1182              	.LBB730:
 1183              	.LBB731:
  60:mi/stmlib/dsp/parameter_interpolator.h ****     return value_;
 1184              		.loc 7 60 12 view .LVU340
 1185 02aa 70EEA80A 		vadd.f32	s1, s1, s17
 1186              	.LVL63:
  60:mi/stmlib/dsp/parameter_interpolator.h ****     return value_;
 1187              		.loc 7 60 12 view .LVU341
 1188              	.LBE731:
ARM GAS  /var/folders/9k/zk1mgrrd7wg4__6zvxvr9w8m0000gn/T//ccjZIkb1.s 			page 37


 1189              	.LBE730:
 1190              	.LBE758:
 150:mi/plaits/dsp/engine/wavetable_engine.cpp ****     const float f0 = f0_modulation.Next();
 1191              		.loc 1 150 14 view .LVU342
 1192 02ae 013B     		subs	r3, r3, #1
 1193              	.LBB759:
 153:mi/plaits/dsp/engine/wavetable_engine.cpp ****     const float cutoff = min(kTableSizeF * f0, 1.0f);
 1194              		.loc 1 153 30 view .LVU343
 1195 02b0 87EE273A 		vdiv.f32	s6, s14, s15
 1196              	.LBE759:
 150:mi/plaits/dsp/engine/wavetable_engine.cpp ****     const float f0 = f0_modulation.Next();
 1197              		.loc 1 150 14 view .LVU344
 1198 02b4 0093     		str	r3, [sp]
 1199              	.LVL64:
 1200              	.LBB760:
 156:mi/plaits/dsp/engine/wavetable_engine.cpp ****     ONE_POLE(y_lp_, y_modulation.Next(), lp_coefficient);
 1201              		.loc 1 156 5 view .LVU345
 1202 02b6 A6EEA15A 		vfma.f32	s10, s13, s3
 153:mi/plaits/dsp/engine/wavetable_engine.cpp ****     const float cutoff = min(kTableSizeF * f0, 1.0f);
 1203              		.loc 1 153 59 view .LVU346
 1204 02ba 5FED296A 		vldr.32	s13, .L67+48
 157:mi/plaits/dsp/engine/wavetable_engine.cpp ****     ONE_POLE(z_lp_, z_modulation.Next(), lp_coefficient);
 1205              		.loc 1 157 5 view .LVU347
 1206 02be 70EEC47A 		vsub.f32	s15, s1, s8
 1207              	.LBB733:
 1208              	.LBB734:
  60:mi/stmlib/dsp/parameter_interpolator.h ****     return value_;
 1209              		.loc 7 60 12 view .LVU348
 1210 02c2 30EE090A 		vadd.f32	s0, s0, s18
 1211              	.LVL65:
  60:mi/stmlib/dsp/parameter_interpolator.h ****     return value_;
 1212              		.loc 7 60 12 view .LVU349
 1213              	.LBE734:
 1214              	.LBE733:
 154:mi/plaits/dsp/engine/wavetable_engine.cpp ****     
 1215              		.loc 1 154 42 view .LVU350
 1216 02c6 62EE222A 		vmul.f32	s5, s4, s5
 157:mi/plaits/dsp/engine/wavetable_engine.cpp ****     ONE_POLE(z_lp_, z_modulation.Next(), lp_coefficient);
 1217              		.loc 1 157 5 view .LVU351
 1218 02ca A7EEA14A 		vfma.f32	s8, s15, s3
 159:mi/plaits/dsp/engine/wavetable_engine.cpp ****     
 160:mi/plaits/dsp/engine/wavetable_engine.cpp ****     const float x = x_lp_;
 161:mi/plaits/dsp/engine/wavetable_engine.cpp ****     const float y = y_lp_;
 162:mi/plaits/dsp/engine/wavetable_engine.cpp ****     const float z = z_lp_;
 163:mi/plaits/dsp/engine/wavetable_engine.cpp **** 
 164:mi/plaits/dsp/engine/wavetable_engine.cpp ****     MAKE_INTEGRAL_FRACTIONAL(x);
 165:mi/plaits/dsp/engine/wavetable_engine.cpp ****     MAKE_INTEGRAL_FRACTIONAL(y);
 166:mi/plaits/dsp/engine/wavetable_engine.cpp ****     MAKE_INTEGRAL_FRACTIONAL(z);
 167:mi/plaits/dsp/engine/wavetable_engine.cpp **** 
 168:mi/plaits/dsp/engine/wavetable_engine.cpp ****     phase_ += f0;
 1219              		.loc 1 168 12 view .LVU352
 1220 02ce D0ED047A 		vldr.32	s15, [r0, #16]
 158:mi/plaits/dsp/engine/wavetable_engine.cpp ****     
 1221              		.loc 1 158 5 view .LVU353
 1222 02d2 30EE636A 		vsub.f32	s12, s0, s7
 1223              	.LBB736:
 1224              	.LBB737:
ARM GAS  /var/folders/9k/zk1mgrrd7wg4__6zvxvr9w8m0000gn/T//ccjZIkb1.s 			page 38


 236:/Library/DaisyToolchain/0.2.0/arm/arm-none-eabi/include/c++/10.3.1/bits/stl_algobase.h ****       return __a;
 1225              		.loc 6 236 9 view .LVU354
 1226 02d6 F4EE472A 		vcmp.f32	s5, s14
 1227              	.LBE737:
 1228              	.LBE736:
 156:mi/plaits/dsp/engine/wavetable_engine.cpp ****     ONE_POLE(y_lp_, y_modulation.Next(), lp_coefficient);
 1229              		.loc 1 156 5 view .LVU355
 1230 02da 80ED085A 		vstr.32	s10, [r0, #32]
 1231              		.loc 1 168 12 view .LVU356
 1232 02de 72EE277A 		vadd.f32	s15, s4, s15
 158:mi/plaits/dsp/engine/wavetable_engine.cpp ****     
 1233              		.loc 1 158 5 view .LVU357
 1234 02e2 E6EE213A 		vfma.f32	s7, s12, s3
 164:mi/plaits/dsp/engine/wavetable_engine.cpp ****     MAKE_INTEGRAL_FRACTIONAL(y);
 1235              		.loc 1 164 5 view .LVU358
 1236 02e6 BDEEC56A 		vcvt.s32.f32	s12, s10
 1237              	.LBB740:
 1238              	.LBB738:
 236:/Library/DaisyToolchain/0.2.0/arm/arm-none-eabi/include/c++/10.3.1/bits/stl_algobase.h ****       return __a;
 1239              		.loc 6 236 9 view .LVU359
 1240 02ea F1EE10FA 		vmrs	APSR_nzcv, FPSCR
 1241              	.LBE738:
 1242              	.LBE740:
 157:mi/plaits/dsp/engine/wavetable_engine.cpp ****     ONE_POLE(z_lp_, z_modulation.Next(), lp_coefficient);
 1243              		.loc 1 157 5 view .LVU360
 1244 02ee 80ED094A 		vstr.32	s8, [r0, #36]
 169:mi/plaits/dsp/engine/wavetable_engine.cpp ****     if (phase_ >= 1.0f) {
 1245              		.loc 1 169 5 view .LVU361
 1246 02f2 F4EEC77A 		vcmpe.f32	s15, s14
 164:mi/plaits/dsp/engine/wavetable_engine.cpp ****     MAKE_INTEGRAL_FRACTIONAL(y);
 1247              		.loc 1 164 5 view .LVU362
 1248 02f6 16EE105A 		vmov	r5, s12	@ int
 165:mi/plaits/dsp/engine/wavetable_engine.cpp ****     MAKE_INTEGRAL_FRACTIONAL(z);
 1249              		.loc 1 165 5 view .LVU363
 1250 02fa BDEEC46A 		vcvt.s32.f32	s12, s8
 1251              	.LBB741:
 1252              	.LBB739:
 236:/Library/DaisyToolchain/0.2.0/arm/arm-none-eabi/include/c++/10.3.1/bits/stl_algobase.h ****       return __a;
 1253              		.loc 6 236 9 view .LVU364
 1254 02fe 77FE222A 		vselgt.f32	s5, s14, s5
 1255              	.LBE739:
 1256              	.LBE741:
 153:mi/plaits/dsp/engine/wavetable_engine.cpp ****     const float cutoff = min(kTableSizeF * f0, 1.0f);
 1257              		.loc 1 153 59 view .LVU365
 1258 0302 76EEC26A 		vsub.f32	s13, s13, s4
 1259              		.loc 1 169 5 view .LVU366
 1260 0306 F1EE10FA 		vmrs	APSR_nzcv, FPSCR
 1261              	.LBB742:
 170:mi/plaits/dsp/engine/wavetable_engine.cpp ****       phase_ -= 1.0f;
 171:mi/plaits/dsp/engine/wavetable_engine.cpp ****     }
 172:mi/plaits/dsp/engine/wavetable_engine.cpp ****     
 173:mi/plaits/dsp/engine/wavetable_engine.cpp ****     const float p = phase_ * kTableSizeF;
 174:mi/plaits/dsp/engine/wavetable_engine.cpp ****     MAKE_INTEGRAL_FRACTIONAL(p);
 175:mi/plaits/dsp/engine/wavetable_engine.cpp ****     
 176:mi/plaits/dsp/engine/wavetable_engine.cpp ****     {
 177:mi/plaits/dsp/engine/wavetable_engine.cpp ****       int x0 = x_integral;
 178:mi/plaits/dsp/engine/wavetable_engine.cpp ****       int x1 = x_integral + 1;
ARM GAS  /var/folders/9k/zk1mgrrd7wg4__6zvxvr9w8m0000gn/T//ccjZIkb1.s 			page 39


 1262              		.loc 1 178 11 view .LVU367
 1263 030a 05F1010E 		add	lr, r5, #1
 1264              	.LBE742:
 165:mi/plaits/dsp/engine/wavetable_engine.cpp ****     MAKE_INTEGRAL_FRACTIONAL(z);
 1265              		.loc 1 165 5 view .LVU368
 1266 030e 16EE106A 		vmov	r6, s12	@ int
 166:mi/plaits/dsp/engine/wavetable_engine.cpp **** 
 1267              		.loc 1 166 5 view .LVU369
 1268 0312 BDEEE36A 		vcvt.s32.f32	s12, s7
 153:mi/plaits/dsp/engine/wavetable_engine.cpp ****     const float cutoff = min(kTableSizeF * f0, 1.0f);
 1269              		.loc 1 153 17 view .LVU370
 1270 0316 23EE263A 		vmul.f32	s6, s6, s13
 158:mi/plaits/dsp/engine/wavetable_engine.cpp ****     
 1271              		.loc 1 158 5 view .LVU371
 1272 031a C0ED0A3A 		vstr.32	s7, [r0, #40]
 170:mi/plaits/dsp/engine/wavetable_engine.cpp ****     }
 1273              		.loc 1 170 14 view .LVU372
 1274 031e A8BF     		it	ge
 1275 0320 77EEC77A 		vsubge.f32	s15, s15, s14
 1276              	.LBB743:
 1277              	.LBB354:
 1278              	.LBB343:
 108:mi/plaits/dsp/engine/wavetable_engine.cpp ****       phase_integral,
 1279              		.loc 1 108 23 view .LVU373
 1280 0324 4FEAC60C 		lsl	ip, r6, #3
 1281              	.LBE343:
 1282              	.LBE354:
 1283              	.LBE743:
 166:mi/plaits/dsp/engine/wavetable_engine.cpp **** 
 1284              		.loc 1 166 5 view .LVU374
 1285 0328 16EE101A 		vmov	r1, s12	@ int
 173:mi/plaits/dsp/engine/wavetable_engine.cpp ****     MAKE_INTEGRAL_FRACTIONAL(p);
 1286              		.loc 1 173 17 view .LVU375
 1287 032c 1FED457A 		vldr.32	s14, .L67+52
 164:mi/plaits/dsp/engine/wavetable_engine.cpp ****     MAKE_INTEGRAL_FRACTIONAL(y);
 1288              		.loc 1 164 5 view .LVU376
 1289 0330 06EE105A 		vmov	s12, r5	@ int
 1290              	.LBB744:
 1291              	.LBB355:
 1292              	.LBB356:
 108:mi/plaits/dsp/engine/wavetable_engine.cpp ****       phase_integral,
 1293              		.loc 1 108 23 view .LVU377
 1294 0334 0CF1080C 		add	ip, ip, #8
 1295              	.LBE356:
 1296              	.LBE355:
 179:mi/plaits/dsp/engine/wavetable_engine.cpp ****       int y0 = y_integral;
 180:mi/plaits/dsp/engine/wavetable_engine.cpp ****       int y1 = y_integral + 1;
 181:mi/plaits/dsp/engine/wavetable_engine.cpp ****       int z0 = z_integral;
 182:mi/plaits/dsp/engine/wavetable_engine.cpp ****       int z1 = z_integral + 1;
 1297              		.loc 1 182 11 view .LVU378
 1298 0338 01F10108 		add	r8, r1, #1
 183:mi/plaits/dsp/engine/wavetable_engine.cpp ****       
 184:mi/plaits/dsp/engine/wavetable_engine.cpp ****       if (z0 >= 4) {
 1299              		.loc 1 184 7 view .LVU379
 1300 033c 0329     		cmp	r1, #3
 1301              	.LBE744:
 164:mi/plaits/dsp/engine/wavetable_engine.cpp ****     MAKE_INTEGRAL_FRACTIONAL(y);
ARM GAS  /var/folders/9k/zk1mgrrd7wg4__6zvxvr9w8m0000gn/T//ccjZIkb1.s 			page 40


 1302              		.loc 1 164 5 view .LVU380
 1303 033e F8EEC64A 		vcvt.f32.s32	s9, s12
 170:mi/plaits/dsp/engine/wavetable_engine.cpp ****     }
 1304              		.loc 1 170 14 view .LVU381
 1305 0342 C0ED047A 		vstr.32	s15, [r0, #16]
 165:mi/plaits/dsp/engine/wavetable_engine.cpp ****     MAKE_INTEGRAL_FRACTIONAL(z);
 1306              		.loc 1 165 5 view .LVU382
 1307 0346 06EE106A 		vmov	s12, r6	@ int
 173:mi/plaits/dsp/engine/wavetable_engine.cpp ****     MAKE_INTEGRAL_FRACTIONAL(p);
 1308              		.loc 1 173 17 view .LVU383
 1309 034a 67EE877A 		vmul.f32	s15, s15, s14
 1310              	.LBB745:
 1311              	.LBB372:
 1312              	.LBB373:
 108:mi/plaits/dsp/engine/wavetable_engine.cpp ****       phase_integral,
 1313              		.loc 1 108 19 view .LVU384
 1314 034e 0EEB0C03 		add	r3, lr, ip
 1315              	.LVL66:
 108:mi/plaits/dsp/engine/wavetable_engine.cpp ****       phase_integral,
 1316              		.loc 1 108 19 view .LVU385
 1317              	.LBE373:
 1318              	.LBE372:
 1319              	.LBB394:
 1320              	.LBB344:
 1321 0352 05EBC607 		add	r7, r5, r6, lsl #3
 1322              	.LBE344:
 1323              	.LBE394:
 1324              	.LBE745:
 165:mi/plaits/dsp/engine/wavetable_engine.cpp ****     MAKE_INTEGRAL_FRACTIONAL(z);
 1325              		.loc 1 165 5 view .LVU386
 1326 0356 F8EEC65A 		vcvt.f32.s32	s11, s12
 166:mi/plaits/dsp/engine/wavetable_engine.cpp **** 
 1327              		.loc 1 166 5 view .LVU387
 1328 035a 06EE101A 		vmov	s12, r1	@ int
 1329              	.LBB746:
 185:mi/plaits/dsp/engine/wavetable_engine.cpp ****         z0 = 7 - z0;
 1330              		.loc 1 185 12 view .LVU388
 1331 035e C8BF     		it	gt
 1332 0360 C1F10701 		rsbgt	r1, r1, #7
 186:mi/plaits/dsp/engine/wavetable_engine.cpp ****       }
 187:mi/plaits/dsp/engine/wavetable_engine.cpp ****       if (z1 >= 4) {
 1333              		.loc 1 187 7 view .LVU389
 1334 0364 B8F1030F 		cmp	r8, #3
 1335              	.LBE746:
 174:mi/plaits/dsp/engine/wavetable_engine.cpp ****     
 1336              		.loc 1 174 5 view .LVU390
 1337 0368 BDEEE77A 		vcvt.s32.f32	s14, s15
 1338              	.LBB747:
 1339              	.LBB395:
 1340              	.LBB365:
 108:mi/plaits/dsp/engine/wavetable_engine.cpp ****       phase_integral,
 1341              		.loc 1 108 19 view .LVU391
 1342 036c 6544     		add	r5, r5, ip
 1343              	.LBE365:
 1344              	.LBE395:
 188:mi/plaits/dsp/engine/wavetable_engine.cpp ****         z1 = 7 - z1;
 1345              		.loc 1 188 12 view .LVU392
ARM GAS  /var/folders/9k/zk1mgrrd7wg4__6zvxvr9w8m0000gn/T//ccjZIkb1.s 			page 41


 1346 036e C8BF     		it	gt
 1347 0370 C8F10708 		rsbgt	r8, r8, #7
 1348              	.LBB396:
 1349              	.LBB386:
 108:mi/plaits/dsp/engine/wavetable_engine.cpp ****       phase_integral,
 1350              		.loc 1 108 49 view .LVU393
 1351 0374 03EB811C 		add	ip, r3, r1, lsl #6
 1352              	.LBE386:
 1353              	.LBE396:
 1354              	.LBB397:
 1355              	.LBB398:
 108:mi/plaits/dsp/engine/wavetable_engine.cpp ****       phase_integral,
 1356              		.loc 1 108 19 view .LVU394
 1357 0378 0EEBC606 		add	r6, lr, r6, lsl #3
 1358              	.LBE398:
 1359              	.LBE397:
 1360              	.LBE747:
 164:mi/plaits/dsp/engine/wavetable_engine.cpp ****     MAKE_INTEGRAL_FRACTIONAL(y);
 1361              		.loc 1 164 5 view .LVU395
 1362 037c 35EE645A 		vsub.f32	s10, s10, s9
 174:mi/plaits/dsp/engine/wavetable_engine.cpp ****     
 1363              		.loc 1 174 5 view .LVU396
 1364 0380 17EE102A 		vmov	r2, s14	@ int
 1365              	.LBB748:
 1366              	.LBB410:
 1367              	.LBB387:
 107:mi/plaits/dsp/engine/wavetable_engine.cpp ****       wave_map_[x + y * 8 + z * kNumWavesPerBank],
 1368              		.loc 1 107 32 view .LVU397
 1369 0384 54F82CE0 		ldr	lr, [r4, ip, lsl #2]
 1370              	.LBE387:
 1371              	.LBE410:
 1372              	.LBB411:
 1373              	.LBB412:
 108:mi/plaits/dsp/engine/wavetable_engine.cpp ****       phase_integral,
 1374              		.loc 1 108 49 view .LVU398
 1375 0388 03EB8813 		add	r3, r3, r8, lsl #6
 1376              	.LBE412:
 1377              	.LBE411:
 1378              	.LBE748:
 166:mi/plaits/dsp/engine/wavetable_engine.cpp **** 
 1379              		.loc 1 166 5 view .LVU399
 1380 038c B8EEC66A 		vcvt.f32.s32	s12, s12
 1381              	.LVL67:
 154:mi/plaits/dsp/engine/wavetable_engine.cpp ****     
 1382              		.loc 1 154 5 is_stmt 1 view .LVU400
 1383              	.LBB749:
 1384              	.LBI736:
 230:/Library/DaisyToolchain/0.2.0/arm/arm-none-eabi/include/c++/10.3.1/bits/stl_algobase.h ****     {
 1385              		.loc 6 230 5 view .LVU401
 230:/Library/DaisyToolchain/0.2.0/arm/arm-none-eabi/include/c++/10.3.1/bits/stl_algobase.h ****     {
 1386              		.loc 6 230 5 is_stmt 0 view .LVU402
 1387              	.LBE749:
 156:mi/plaits/dsp/engine/wavetable_engine.cpp ****     ONE_POLE(y_lp_, y_modulation.Next(), lp_coefficient);
 1388              		.loc 1 156 5 is_stmt 1 view .LVU403
 1389              	.LBB750:
 1390              	.LBI727:
  59:mi/stmlib/dsp/parameter_interpolator.h ****     value_ += increment_;
ARM GAS  /var/folders/9k/zk1mgrrd7wg4__6zvxvr9w8m0000gn/T//ccjZIkb1.s 			page 42


 1391              		.loc 7 59 16 view .LVU404
 1392              	.LBB729:
  60:mi/stmlib/dsp/parameter_interpolator.h ****     return value_;
 1393              		.loc 7 60 5 view .LVU405
 1394              		.loc 7 61 5 view .LVU406
 1395              		.loc 7 61 5 is_stmt 0 view .LVU407
 1396              	.LBE729:
 1397              	.LBE750:
 156:mi/plaits/dsp/engine/wavetable_engine.cpp ****     ONE_POLE(y_lp_, y_modulation.Next(), lp_coefficient);
 1398              		.loc 1 156 57 is_stmt 1 view .LVU408
 157:mi/plaits/dsp/engine/wavetable_engine.cpp ****     ONE_POLE(z_lp_, z_modulation.Next(), lp_coefficient);
 1399              		.loc 1 157 5 view .LVU409
 1400              	.LBB751:
 1401              	.LBI730:
  59:mi/stmlib/dsp/parameter_interpolator.h ****     value_ += increment_;
 1402              		.loc 7 59 16 view .LVU410
 1403              	.LBB732:
  60:mi/stmlib/dsp/parameter_interpolator.h ****     return value_;
 1404              		.loc 7 60 5 view .LVU411
 1405              		.loc 7 61 5 view .LVU412
 1406              		.loc 7 61 5 is_stmt 0 view .LVU413
 1407              	.LBE732:
 1408              	.LBE751:
 157:mi/plaits/dsp/engine/wavetable_engine.cpp ****     ONE_POLE(z_lp_, z_modulation.Next(), lp_coefficient);
 1409              		.loc 1 157 57 is_stmt 1 view .LVU414
 158:mi/plaits/dsp/engine/wavetable_engine.cpp ****     
 1410              		.loc 1 158 5 view .LVU415
 1411              	.LBB752:
 1412              	.LBI733:
  59:mi/stmlib/dsp/parameter_interpolator.h ****     value_ += increment_;
 1413              		.loc 7 59 16 view .LVU416
 1414              	.LBB735:
  60:mi/stmlib/dsp/parameter_interpolator.h ****     return value_;
 1415              		.loc 7 60 5 view .LVU417
 1416              		.loc 7 61 5 view .LVU418
 1417              		.loc 7 61 5 is_stmt 0 view .LVU419
 1418              	.LBE735:
 1419              	.LBE752:
 158:mi/plaits/dsp/engine/wavetable_engine.cpp ****     
 1420              		.loc 1 158 57 is_stmt 1 view .LVU420
 160:mi/plaits/dsp/engine/wavetable_engine.cpp ****     const float y = y_lp_;
 1421              		.loc 1 160 5 view .LVU421
 161:mi/plaits/dsp/engine/wavetable_engine.cpp ****     const float z = z_lp_;
 1422              		.loc 1 161 5 view .LVU422
 162:mi/plaits/dsp/engine/wavetable_engine.cpp **** 
 1423              		.loc 1 162 5 view .LVU423
 164:mi/plaits/dsp/engine/wavetable_engine.cpp ****     MAKE_INTEGRAL_FRACTIONAL(y);
 1424              		.loc 1 164 5 view .LVU424
 164:mi/plaits/dsp/engine/wavetable_engine.cpp ****     MAKE_INTEGRAL_FRACTIONAL(y);
 1425              		.loc 1 164 5 view .LVU425
 164:mi/plaits/dsp/engine/wavetable_engine.cpp ****     MAKE_INTEGRAL_FRACTIONAL(y);
 1426              		.loc 1 164 32 view .LVU426
 165:mi/plaits/dsp/engine/wavetable_engine.cpp ****     MAKE_INTEGRAL_FRACTIONAL(z);
 1427              		.loc 1 165 5 view .LVU427
 165:mi/plaits/dsp/engine/wavetable_engine.cpp ****     MAKE_INTEGRAL_FRACTIONAL(z);
 1428              		.loc 1 165 5 view .LVU428
 1429              	.LBB753:
ARM GAS  /var/folders/9k/zk1mgrrd7wg4__6zvxvr9w8m0000gn/T//ccjZIkb1.s 			page 43


 1430              	.LBB476:
 1431              	.LBB345:
 108:mi/plaits/dsp/engine/wavetable_engine.cpp ****       phase_integral,
 1432              		.loc 1 108 49 is_stmt 0 view .LVU429
 1433 0390 07EB811C 		add	ip, r7, r1, lsl #6
 1434              	.LBE345:
 1435              	.LBE476:
 1436              	.LBE753:
 174:mi/plaits/dsp/engine/wavetable_engine.cpp ****     
 1437              		.loc 1 174 5 view .LVU430
 1438 0394 B8EEC77A 		vcvt.f32.s32	s14, s14
 1439              	.LBB754:
 1440              	.LBB477:
 1441              	.LBB478:
 108:mi/plaits/dsp/engine/wavetable_engine.cpp ****       phase_integral,
 1442              		.loc 1 108 49 view .LVU431
 1443 0398 07EB8817 		add	r7, r7, r8, lsl #6
 1444              	.LBE478:
 1445              	.LBE477:
 1446              	.LBB504:
 1447              	.LBB453:
 1448 039c 0393     		str	r3, [sp, #12]
 1449              	.LBE453:
 1450              	.LBE504:
 1451              	.LBB505:
 1452              	.LBB346:
 107:mi/plaits/dsp/engine/wavetable_engine.cpp ****       wave_map_[x + y * 8 + z * kNumWavesPerBank],
 1453              		.loc 1 107 32 view .LVU432
 1454 039e 54F82CA0 		ldr	r10, [r4, ip, lsl #2]
 1455              	.LBB327:
 1456              	.LBB328:
  49:mi/plaits/dsp/oscillator/wavetable_oscillator.h ****   }
  50:mi/plaits/dsp/oscillator/wavetable_oscillator.h ****   
  51:mi/plaits/dsp/oscillator/wavetable_oscillator.h ****   float Process(float coefficient, float s) {
  52:mi/plaits/dsp/oscillator/wavetable_oscillator.h ****     ONE_POLE(lp_, s - previous_, coefficient);
  53:mi/plaits/dsp/oscillator/wavetable_oscillator.h ****     previous_ = s;
  54:mi/plaits/dsp/oscillator/wavetable_oscillator.h ****     return lp_;
  55:mi/plaits/dsp/oscillator/wavetable_oscillator.h ****   }
  56:mi/plaits/dsp/oscillator/wavetable_oscillator.h ****  private:
  57:mi/plaits/dsp/oscillator/wavetable_oscillator.h ****   float lp_;
  58:mi/plaits/dsp/oscillator/wavetable_oscillator.h ****   float previous_;
  59:mi/plaits/dsp/oscillator/wavetable_oscillator.h **** 
  60:mi/plaits/dsp/oscillator/wavetable_oscillator.h ****   DISALLOW_COPY_AND_ASSIGN(Differentiator);
  61:mi/plaits/dsp/oscillator/wavetable_oscillator.h **** };
  62:mi/plaits/dsp/oscillator/wavetable_oscillator.h **** 
  63:mi/plaits/dsp/oscillator/wavetable_oscillator.h **** template<typename T>
  64:mi/plaits/dsp/oscillator/wavetable_oscillator.h **** inline float InterpolateWave(
  65:mi/plaits/dsp/oscillator/wavetable_oscillator.h ****     const T* table,
  66:mi/plaits/dsp/oscillator/wavetable_oscillator.h ****     int32_t index_integral,
  67:mi/plaits/dsp/oscillator/wavetable_oscillator.h ****     float index_fractional) {
  68:mi/plaits/dsp/oscillator/wavetable_oscillator.h ****   float a = static_cast<float>(table[index_integral]);
  69:mi/plaits/dsp/oscillator/wavetable_oscillator.h ****   float b = static_cast<float>(table[index_integral + 1]);
  70:mi/plaits/dsp/oscillator/wavetable_oscillator.h ****   float t = index_fractional;
  71:mi/plaits/dsp/oscillator/wavetable_oscillator.h ****   return a + (b - a) * t;
  72:mi/plaits/dsp/oscillator/wavetable_oscillator.h **** }
  73:mi/plaits/dsp/oscillator/wavetable_oscillator.h **** 
  74:mi/plaits/dsp/oscillator/wavetable_oscillator.h **** template<typename T>
ARM GAS  /var/folders/9k/zk1mgrrd7wg4__6zvxvr9w8m0000gn/T//ccjZIkb1.s 			page 44


  75:mi/plaits/dsp/oscillator/wavetable_oscillator.h **** inline float InterpolateWaveHermite(
  76:mi/plaits/dsp/oscillator/wavetable_oscillator.h ****     const T* table,
  77:mi/plaits/dsp/oscillator/wavetable_oscillator.h ****     int32_t index_integral,
  78:mi/plaits/dsp/oscillator/wavetable_oscillator.h ****     float index_fractional) {
  79:mi/plaits/dsp/oscillator/wavetable_oscillator.h ****   const float xm1 = static_cast<float>(table[index_integral]);
 1457              		.loc 3 79 45 view .LVU433
 1458 03a2 5300     		lsls	r3, r2, #1
 1459              	.LBE328:
 1460              	.LBE327:
 1461              	.LBE346:
 1462              	.LBE505:
 1463              	.LBB506:
 1464              	.LBB495:
 107:mi/plaits/dsp/engine/wavetable_engine.cpp ****       wave_map_[x + y * 8 + z * kNumWavesPerBank],
 1465              		.loc 1 107 32 view .LVU434
 1466 03a4 54F827C0 		ldr	ip, [r4, r7, lsl #2]
 1467              	.LBE495:
 1468              	.LBE506:
 1469              	.LBB507:
 1470              	.LBB405:
 108:mi/plaits/dsp/engine/wavetable_engine.cpp ****       phase_integral,
 1471              		.loc 1 108 49 view .LVU435
 1472 03a8 06EB8117 		add	r7, r6, r1, lsl #6
 1473              	.LBE405:
 1474              	.LBE507:
 1475              	.LBB508:
 1476              	.LBB366:
 1477 03ac 05EB8111 		add	r1, r5, r1, lsl #6
 1478              	.LBE366:
 1479              	.LBE508:
 1480              	.LBB509:
 1481              	.LBB347:
 1482              	.LBB336:
 1483              	.LBB329:
 1484              		.loc 3 79 15 view .LVU436
 1485 03b0 3AF912B0 		ldrsh	fp, [r10, r2, lsl #1]
 1486              	.LBE329:
 1487              	.LBE336:
 1488              	.LBE347:
 1489              	.LBE509:
 1490              	.LBB510:
 1491              	.LBB511:
 108:mi/plaits/dsp/engine/wavetable_engine.cpp ****       phase_integral,
 1492              		.loc 1 108 49 view .LVU437
 1493 03b4 06EB8816 		add	r6, r6, r8, lsl #6
 1494              	.LBE511:
 1495              	.LBE510:
 1496              	.LBB566:
 1497              	.LBB406:
 107:mi/plaits/dsp/engine/wavetable_engine.cpp ****       wave_map_[x + y * 8 + z * kNumWavesPerBank],
 1498              		.loc 1 107 32 view .LVU438
 1499 03b8 54F82790 		ldr	r9, [r4, r7, lsl #2]
 1500              	.LBE406:
 1501              	.LBE566:
 1502              	.LBB567:
 1503              	.LBB568:
 108:mi/plaits/dsp/engine/wavetable_engine.cpp ****       phase_integral,
ARM GAS  /var/folders/9k/zk1mgrrd7wg4__6zvxvr9w8m0000gn/T//ccjZIkb1.s 			page 45


 1504              		.loc 1 108 49 view .LVU439
 1505 03bc 05EB8815 		add	r5, r5, r8, lsl #6
 1506              	.LBE568:
 1507              	.LBE567:
 1508              	.LBB626:
 1509              	.LBB348:
 1510              	.LBB337:
 1511              	.LBB330:
 1512              		.loc 3 79 15 view .LVU440
 1513 03c0 04EE90BA 		vmov	s9, fp	@ int
 1514              	.LBE330:
 1515              	.LBE337:
 1516              	.LBE348:
 1517              	.LBE626:
 1518              	.LBB627:
 1519              	.LBB547:
 107:mi/plaits/dsp/engine/wavetable_engine.cpp ****       wave_map_[x + y * 8 + z * kNumWavesPerBank],
 1520              		.loc 1 107 32 view .LVU441
 1521 03c4 54F82670 		ldr	r7, [r4, r6, lsl #2]
 1522              	.LBE547:
 1523              	.LBE627:
 1524              	.LBE754:
 166:mi/plaits/dsp/engine/wavetable_engine.cpp **** 
 1525              		.loc 1 166 5 view .LVU442
 1526 03c8 73EEC63A 		vsub.f32	s7, s7, s12
 1527              	.LVL68:
 1528              	.LBB755:
 1529              	.LBB628:
 1530              	.LBB606:
 107:mi/plaits/dsp/engine/wavetable_engine.cpp ****       wave_map_[x + y * 8 + z * kNumWavesPerBank],
 1531              		.loc 1 107 32 view .LVU443
 1532 03cc 54F82560 		ldr	r6, [r4, r5, lsl #2]
 1533              	.LBE606:
 1534              	.LBE628:
 1535              	.LBB629:
 1536              	.LBB349:
 1537              	.LBB338:
 1538              	.LBB331:
  80:mi/plaits/dsp/oscillator/wavetable_oscillator.h ****   const float x0 = static_cast<float>(table[index_integral + 1]);
 1539              		.loc 3 80 44 view .LVU444
 1540 03d0 9D1C     		adds	r5, r3, #2
 1541              	.LBE331:
 1542              	.LBE338:
 1543              	.LBE349:
 1544              	.LBE629:
 1545              	.LBB630:
 1546              	.LBB367:
 107:mi/plaits/dsp/engine/wavetable_engine.cpp ****       wave_map_[x + y * 8 + z * kNumWavesPerBank],
 1547              		.loc 1 107 32 view .LVU445
 1548 03d2 54F82180 		ldr	r8, [r4, r1, lsl #2]
 1549              	.LBE367:
 1550              	.LBE630:
 1551              	.LBB631:
 1552              	.LBB350:
 1553              	.LBB339:
 1554              	.LBB332:
  81:mi/plaits/dsp/oscillator/wavetable_oscillator.h ****   const float x1 = static_cast<float>(table[index_integral + 2]);
ARM GAS  /var/folders/9k/zk1mgrrd7wg4__6zvxvr9w8m0000gn/T//ccjZIkb1.s 			page 46


 1555              		.loc 3 81 44 view .LVU446
 1556 03d6 191D     		adds	r1, r3, #4
  80:mi/plaits/dsp/oscillator/wavetable_oscillator.h ****   const float x0 = static_cast<float>(table[index_integral + 1]);
 1557              		.loc 3 80 15 view .LVU447
 1558 03d8 3AF905B0 		ldrsh	fp, [r10, r5]
  79:mi/plaits/dsp/oscillator/wavetable_oscillator.h ****   const float x0 = static_cast<float>(table[index_integral + 1]);
 1559              		.loc 3 79 15 view .LVU448
 1560 03dc F8EEE44A 		vcvt.f32.s32	s9, s9
 1561              	.LBE332:
 1562              	.LBE339:
 1563              	.LBE350:
 1564              	.LBE631:
 1565              	.LBE755:
 174:mi/plaits/dsp/engine/wavetable_engine.cpp ****     
 1566              		.loc 1 174 5 view .LVU449
 1567 03e0 77EEC77A 		vsub.f32	s15, s15, s14
 1568              	.LBB756:
 1569              	.LBB632:
 1570              	.LBB351:
 1571              	.LBB340:
 1572              	.LBB333:
  82:mi/plaits/dsp/oscillator/wavetable_oscillator.h ****   const float x2 = static_cast<float>(table[index_integral + 3]);
 1573              		.loc 3 82 44 view .LVU450
 1574 03e4 0633     		adds	r3, r3, #6
  80:mi/plaits/dsp/oscillator/wavetable_oscillator.h ****   const float x1 = static_cast<float>(table[index_integral + 2]);
 1575              		.loc 3 80 15 view .LVU451
 1576 03e6 06EE90BA 		vmov	s13, fp	@ int
  81:mi/plaits/dsp/oscillator/wavetable_oscillator.h ****   const float x2 = static_cast<float>(table[index_integral + 3]);
 1577              		.loc 3 81 15 view .LVU452
 1578 03ea 3AF901B0 		ldrsh	fp, [r10, r1]
  83:mi/plaits/dsp/oscillator/wavetable_oscillator.h ****   const float c = (x1 - xm1) * 0.5f;
  84:mi/plaits/dsp/oscillator/wavetable_oscillator.h ****   const float v = x0 - x1;
  85:mi/plaits/dsp/oscillator/wavetable_oscillator.h ****   const float w = c + v;
 1579              		.loc 3 85 15 view .LVU453
 1580 03ee B6EE007A 		vmov.f32	s14, #5.0e-1
  82:mi/plaits/dsp/oscillator/wavetable_oscillator.h ****   const float c = (x1 - xm1) * 0.5f;
 1581              		.loc 3 82 15 view .LVU454
 1582 03f2 3AF903A0 		ldrsh	r10, [r10, r3]
  81:mi/plaits/dsp/oscillator/wavetable_oscillator.h ****   const float x2 = static_cast<float>(table[index_integral + 3]);
 1583              		.loc 3 81 15 view .LVU455
 1584 03f6 06EE10BA 		vmov	s12, fp	@ int
  80:mi/plaits/dsp/oscillator/wavetable_oscillator.h ****   const float x1 = static_cast<float>(table[index_integral + 2]);
 1585              		.loc 3 80 15 view .LVU456
 1586 03fa F8EEE66A 		vcvt.f32.s32	s13, s13
 1587              	.LBE333:
 1588              	.LBE340:
 1589              	.LBE351:
 1590              	.LBE632:
 1591              	.LBE756:
 165:mi/plaits/dsp/engine/wavetable_engine.cpp ****     MAKE_INTEGRAL_FRACTIONAL(z);
 1592              		.loc 1 165 5 view .LVU457
 1593 03fe 34EE654A 		vsub.f32	s8, s8, s11
 1594              	.LVL69:
 165:mi/plaits/dsp/engine/wavetable_engine.cpp ****     MAKE_INTEGRAL_FRACTIONAL(z);
 1595              		.loc 1 165 32 is_stmt 1 view .LVU458
 166:mi/plaits/dsp/engine/wavetable_engine.cpp **** 
 1596              		.loc 1 166 5 view .LVU459
ARM GAS  /var/folders/9k/zk1mgrrd7wg4__6zvxvr9w8m0000gn/T//ccjZIkb1.s 			page 47


 166:mi/plaits/dsp/engine/wavetable_engine.cpp **** 
 1597              		.loc 1 166 5 view .LVU460
 166:mi/plaits/dsp/engine/wavetable_engine.cpp **** 
 1598              		.loc 1 166 32 view .LVU461
 168:mi/plaits/dsp/engine/wavetable_engine.cpp ****     if (phase_ >= 1.0f) {
 1599              		.loc 1 168 5 view .LVU462
 169:mi/plaits/dsp/engine/wavetable_engine.cpp ****       phase_ -= 1.0f;
 1600              		.loc 1 169 5 view .LVU463
 170:mi/plaits/dsp/engine/wavetable_engine.cpp ****     }
 1601              		.loc 1 170 7 view .LVU464
 173:mi/plaits/dsp/engine/wavetable_engine.cpp ****     MAKE_INTEGRAL_FRACTIONAL(p);
 1602              		.loc 1 173 5 view .LVU465
 174:mi/plaits/dsp/engine/wavetable_engine.cpp ****     
 1603              		.loc 1 174 5 view .LVU466
 174:mi/plaits/dsp/engine/wavetable_engine.cpp ****     
 1604              		.loc 1 174 5 view .LVU467
 174:mi/plaits/dsp/engine/wavetable_engine.cpp ****     
 1605              		.loc 1 174 32 view .LVU468
 176:mi/plaits/dsp/engine/wavetable_engine.cpp ****       int x0 = x_integral;
 1606              		.loc 1 176 5 view .LVU469
 1607              	.LBB757:
 177:mi/plaits/dsp/engine/wavetable_engine.cpp ****       int x1 = x_integral + 1;
 1608              		.loc 1 177 7 view .LVU470
 178:mi/plaits/dsp/engine/wavetable_engine.cpp ****       int y0 = y_integral;
 1609              		.loc 1 178 7 view .LVU471
 179:mi/plaits/dsp/engine/wavetable_engine.cpp ****       int y1 = y_integral + 1;
 1610              		.loc 1 179 7 view .LVU472
 180:mi/plaits/dsp/engine/wavetable_engine.cpp ****       int z0 = z_integral;
 1611              		.loc 1 180 7 view .LVU473
 181:mi/plaits/dsp/engine/wavetable_engine.cpp ****       int z1 = z_integral + 1;
 1612              		.loc 1 181 7 view .LVU474
 182:mi/plaits/dsp/engine/wavetable_engine.cpp ****       
 1613              		.loc 1 182 7 view .LVU475
 184:mi/plaits/dsp/engine/wavetable_engine.cpp ****         z0 = 7 - z0;
 1614              		.loc 1 184 7 view .LVU476
 185:mi/plaits/dsp/engine/wavetable_engine.cpp ****       }
 1615              		.loc 1 185 9 view .LVU477
 187:mi/plaits/dsp/engine/wavetable_engine.cpp ****         z1 = 7 - z1;
 1616              		.loc 1 187 7 view .LVU478
 1617              		.loc 1 188 9 view .LVU479
 189:mi/plaits/dsp/engine/wavetable_engine.cpp ****       }
 190:mi/plaits/dsp/engine/wavetable_engine.cpp ****       
 191:mi/plaits/dsp/engine/wavetable_engine.cpp ****       float x0y0z0 = ReadWave(x0, y0, z0, p_integral, p_fractional);
 1618              		.loc 1 191 7 view .LVU480
 1619              	.LBB633:
 1620              	.LBI325:
 101:mi/plaits/dsp/engine/wavetable_engine.cpp ****     int x,
 1621              		.loc 1 101 14 view .LVU481
 1622              	.LBB352:
 107:mi/plaits/dsp/engine/wavetable_engine.cpp ****       wave_map_[x + y * 8 + z * kNumWavesPerBank],
 1623              		.loc 1 107 3 view .LVU482
 1624              	.LBB341:
 1625              	.LBI327:
  75:mi/plaits/dsp/oscillator/wavetable_oscillator.h ****     const T* table,
 1626              		.loc 3 75 14 view .LVU483
 1627              	.LBB334:
  82:mi/plaits/dsp/oscillator/wavetable_oscillator.h ****   const float c = (x1 - xm1) * 0.5f;
ARM GAS  /var/folders/9k/zk1mgrrd7wg4__6zvxvr9w8m0000gn/T//ccjZIkb1.s 			page 48


 1628              		.loc 3 82 15 is_stmt 0 view .LVU484
 1629 0402 0AEE10AA 		vmov	s20, r10	@ int
  81:mi/plaits/dsp/oscillator/wavetable_oscillator.h ****   const float x2 = static_cast<float>(table[index_integral + 3]);
 1630              		.loc 3 81 15 view .LVU485
 1631 0406 B8EEC66A 		vcvt.f32.s32	s12, s12
 1632              	.LVL70:
  81:mi/plaits/dsp/oscillator/wavetable_oscillator.h ****   const float x2 = static_cast<float>(table[index_integral + 3]);
 1633              		.loc 3 81 15 view .LVU486
 1634              	.LBE334:
 1635              	.LBE341:
 1636              	.LBE352:
 1637              	.LBE633:
 1638              	.LBB634:
 1639              	.LBB407:
 1640              	.LBB399:
 1641              	.LBB400:
  80:mi/plaits/dsp/oscillator/wavetable_oscillator.h ****   const float x1 = static_cast<float>(table[index_integral + 2]);
 1642              		.loc 3 80 15 view .LVU487
 1643 040a 39F905A0 		ldrsh	r10, [r9, r5]
 1644              	.LBE400:
 1645              	.LBE399:
 1646              	.LBE407:
 1647              	.LBE634:
 1648              	.LBB635:
 1649              	.LBB353:
 1650              	.LBB342:
 1651              	.LBB335:
  82:mi/plaits/dsp/oscillator/wavetable_oscillator.h ****   const float c = (x1 - xm1) * 0.5f;
 1652              		.loc 3 82 15 view .LVU488
 1653 040e B8EECAAA 		vcvt.f32.s32	s20, s20
  83:mi/plaits/dsp/oscillator/wavetable_oscillator.h ****   const float v = x0 - x1;
 1654              		.loc 3 83 23 view .LVU489
 1655 0412 76EE644A 		vsub.f32	s9, s12, s9
 1656              	.LVL71:
  84:mi/plaits/dsp/oscillator/wavetable_oscillator.h ****   const float w = c + v;
 1657              		.loc 3 84 15 view .LVU490
 1658 0416 36EEC66A 		vsub.f32	s12, s13, s12
 1659              	.LVL72:
  86:mi/plaits/dsp/oscillator/wavetable_oscillator.h ****   const float a = w + v + (x2 - x0) * 0.5f;
 1660              		.loc 3 86 31 view .LVU491
 1661 041a 3AEE66AA 		vsub.f32	s20, s20, s13
  85:mi/plaits/dsp/oscillator/wavetable_oscillator.h ****   const float a = w + v + (x2 - x0) * 0.5f;
 1662              		.loc 3 85 15 view .LVU492
 1663 041e F0EE465A 		vmov.f32	s11, s12
 1664 0422 E4EE875A 		vfma.f32	s11, s9, s14
 1665              	.LVL73:
 1666              		.loc 3 86 21 view .LVU493
 1667 0426 36EE256A 		vadd.f32	s12, s12, s11
 1668              	.LVL74:
 1669              		.loc 3 86 15 view .LVU494
 1670 042a AAEE076A 		vfma.f32	s12, s20, s14
 1671              	.LVL75:
  87:mi/plaits/dsp/oscillator/wavetable_oscillator.h ****   const float b_neg = w + a;
 1672              		.loc 3 87 15 view .LVU495
 1673 042e 75EE865A 		vadd.f32	s11, s11, s12
 1674              	.LVL76:
  88:mi/plaits/dsp/oscillator/wavetable_oscillator.h ****   const float f = index_fractional;
ARM GAS  /var/folders/9k/zk1mgrrd7wg4__6zvxvr9w8m0000gn/T//ccjZIkb1.s 			page 49


  89:mi/plaits/dsp/oscillator/wavetable_oscillator.h ****   return (((a * f) - b_neg) * f + c) * f + x0;
 1675              		.loc 3 89 20 view .LVU496
 1676 0432 D7EE865A 		vfnms.f32	s11, s15, s12
 1677              	.LVL77:
 1678              		.loc 3 89 29 view .LVU497
 1679 0436 67EEA55A 		vmul.f32	s11, s15, s11
 1680              		.loc 3 89 33 view .LVU498
 1681 043a E4EE875A 		vfma.f32	s11, s9, s14
 1682              		.loc 3 89 44 view .LVU499
 1683 043e E7EEA56A 		vfma.f32	s13, s15, s11
 1684              	.LVL78:
 1685              		.loc 3 89 44 view .LVU500
 1686              	.LBE335:
 1687              	.LBE342:
 1688              	.LBE353:
 1689              	.LBE635:
 192:mi/plaits/dsp/engine/wavetable_engine.cpp ****       float x1y0z0 = ReadWave(x1, y0, z0, p_integral, p_fractional);
 1690              		.loc 1 192 7 is_stmt 1 view .LVU501
 1691              	.LBB636:
 1692              	.LBI397:
 101:mi/plaits/dsp/engine/wavetable_engine.cpp ****     int x,
 1693              		.loc 1 101 14 view .LVU502
 1694              	.LBB408:
 107:mi/plaits/dsp/engine/wavetable_engine.cpp ****       wave_map_[x + y * 8 + z * kNumWavesPerBank],
 1695              		.loc 1 107 3 view .LVU503
 1696              	.LBB403:
 1697              	.LBI399:
  75:mi/plaits/dsp/oscillator/wavetable_oscillator.h ****     const T* table,
 1698              		.loc 3 75 14 view .LVU504
 1699              	.LBB401:
  80:mi/plaits/dsp/oscillator/wavetable_oscillator.h ****   const float x1 = static_cast<float>(table[index_integral + 2]);
 1700              		.loc 3 80 15 is_stmt 0 view .LVU505
 1701 0442 05EE90AA 		vmov	s11, r10	@ int
  81:mi/plaits/dsp/oscillator/wavetable_oscillator.h ****   const float x2 = static_cast<float>(table[index_integral + 3]);
 1702              		.loc 3 81 15 view .LVU506
 1703 0446 39F901A0 		ldrsh	r10, [r9, r1]
  80:mi/plaits/dsp/oscillator/wavetable_oscillator.h ****   const float x1 = static_cast<float>(table[index_integral + 2]);
 1704              		.loc 3 80 15 view .LVU507
 1705 044a F8EEE55A 		vcvt.f32.s32	s11, s11
 1706              	.LVL79:
  81:mi/plaits/dsp/oscillator/wavetable_oscillator.h ****   const float x2 = static_cast<float>(table[index_integral + 3]);
 1707              		.loc 3 81 15 view .LVU508
 1708 044e 06EE10AA 		vmov	s12, r10	@ int
  79:mi/plaits/dsp/oscillator/wavetable_oscillator.h ****   const float x0 = static_cast<float>(table[index_integral + 1]);
 1709              		.loc 3 79 15 view .LVU509
 1710 0452 39F912A0 		ldrsh	r10, [r9, r2, lsl #1]
  82:mi/plaits/dsp/oscillator/wavetable_oscillator.h ****   const float c = (x1 - xm1) * 0.5f;
 1711              		.loc 3 82 15 view .LVU510
 1712 0456 39F90390 		ldrsh	r9, [r9, r3]
 1713              	.LVL80:
  81:mi/plaits/dsp/oscillator/wavetable_oscillator.h ****   const float x2 = static_cast<float>(table[index_integral + 3]);
 1714              		.loc 3 81 15 view .LVU511
 1715 045a B8EEC66A 		vcvt.f32.s32	s12, s12
 1716              	.LVL81:
  79:mi/plaits/dsp/oscillator/wavetable_oscillator.h ****   const float x0 = static_cast<float>(table[index_integral + 1]);
 1717              		.loc 3 79 15 view .LVU512
 1718 045e 04EE90AA 		vmov	s9, r10	@ int
ARM GAS  /var/folders/9k/zk1mgrrd7wg4__6zvxvr9w8m0000gn/T//ccjZIkb1.s 			page 50


  82:mi/plaits/dsp/oscillator/wavetable_oscillator.h ****   const float c = (x1 - xm1) * 0.5f;
 1719              		.loc 3 82 15 view .LVU513
 1720 0462 0AEE909A 		vmov	s21, r9	@ int
 1721              	.LBE401:
 1722              	.LBE403:
 1723              	.LBE408:
 1724              	.LBE636:
 1725              	.LBB637:
 1726              	.LBB368:
 1727              	.LBB357:
 1728              	.LBB358:
  80:mi/plaits/dsp/oscillator/wavetable_oscillator.h ****   const float x1 = static_cast<float>(table[index_integral + 2]);
 1729              		.loc 3 80 15 view .LVU514
 1730 0466 38F90590 		ldrsh	r9, [r8, r5]
 1731              	.LBE358:
 1732              	.LBE357:
 1733              	.LBE368:
 1734              	.LBE637:
 1735              	.LBB638:
 1736              	.LBB409:
 1737              	.LBB404:
 1738              	.LBB402:
  79:mi/plaits/dsp/oscillator/wavetable_oscillator.h ****   const float x0 = static_cast<float>(table[index_integral + 1]);
 1739              		.loc 3 79 15 view .LVU515
 1740 046a F8EEE44A 		vcvt.f32.s32	s9, s9
  84:mi/plaits/dsp/oscillator/wavetable_oscillator.h ****   const float w = c + v;
 1741              		.loc 3 84 15 view .LVU516
 1742 046e 35EEC6AA 		vsub.f32	s20, s11, s12
  82:mi/plaits/dsp/oscillator/wavetable_oscillator.h ****   const float c = (x1 - xm1) * 0.5f;
 1743              		.loc 3 82 15 view .LVU517
 1744 0472 F8EEEAAA 		vcvt.f32.s32	s21, s21
  83:mi/plaits/dsp/oscillator/wavetable_oscillator.h ****   const float v = x0 - x1;
 1745              		.loc 3 83 23 view .LVU518
 1746 0476 76EE644A 		vsub.f32	s9, s12, s9
 1747              	.LVL82:
  85:mi/plaits/dsp/oscillator/wavetable_oscillator.h ****   const float a = w + v + (x2 - x0) * 0.5f;
 1748              		.loc 3 85 15 view .LVU519
 1749 047a B0EE4A6A 		vmov.f32	s12, s20
 1750              	.LVL83:
  86:mi/plaits/dsp/oscillator/wavetable_oscillator.h ****   const float b_neg = w + a;
 1751              		.loc 3 86 31 view .LVU520
 1752 047e 7AEEE5AA 		vsub.f32	s21, s21, s11
  85:mi/plaits/dsp/oscillator/wavetable_oscillator.h ****   const float a = w + v + (x2 - x0) * 0.5f;
 1753              		.loc 3 85 15 view .LVU521
 1754 0482 A4EE876A 		vfma.f32	s12, s9, s14
 1755              	.LVL84:
  86:mi/plaits/dsp/oscillator/wavetable_oscillator.h ****   const float b_neg = w + a;
 1756              		.loc 3 86 21 view .LVU522
 1757 0486 3AEE06AA 		vadd.f32	s20, s20, s12
 1758              	.LVL85:
  86:mi/plaits/dsp/oscillator/wavetable_oscillator.h ****   const float b_neg = w + a;
 1759              		.loc 3 86 15 view .LVU523
 1760 048a AAEE87AA 		vfma.f32	s20, s21, s14
 1761              	.LVL86:
  87:mi/plaits/dsp/oscillator/wavetable_oscillator.h ****   const float f = index_fractional;
 1762              		.loc 3 87 15 view .LVU524
 1763 048e 36EE0A6A 		vadd.f32	s12, s12, s20
ARM GAS  /var/folders/9k/zk1mgrrd7wg4__6zvxvr9w8m0000gn/T//ccjZIkb1.s 			page 51


 1764              	.LVL87:
 1765              		.loc 3 89 20 view .LVU525
 1766 0492 97EE8A6A 		vfnms.f32	s12, s15, s20
 1767              	.LVL88:
 1768              		.loc 3 89 29 view .LVU526
 1769 0496 27EE866A 		vmul.f32	s12, s15, s12
 1770              		.loc 3 89 33 view .LVU527
 1771 049a A4EE876A 		vfma.f32	s12, s9, s14
 1772              		.loc 3 89 44 view .LVU528
 1773 049e E7EE865A 		vfma.f32	s11, s15, s12
 1774              	.LVL89:
 1775              		.loc 3 89 44 view .LVU529
 1776              	.LBE402:
 1777              	.LBE404:
 1778              	.LBE409:
 1779              	.LBE638:
 193:mi/plaits/dsp/engine/wavetable_engine.cpp ****       float xy0z0 = x0y0z0 + (x1y0z0 - x0y0z0) * x_fractional;
 1780              		.loc 1 193 7 is_stmt 1 view .LVU530
 1781              		.loc 1 193 38 is_stmt 0 view .LVU531
 1782 04a2 75EEE65A 		vsub.f32	s11, s11, s13
 1783              	.LVL90:
 1784              		.loc 1 193 13 view .LVU532
 1785 04a6 E5EE856A 		vfma.f32	s13, s11, s10
 1786              	.LVL91:
 194:mi/plaits/dsp/engine/wavetable_engine.cpp **** 
 195:mi/plaits/dsp/engine/wavetable_engine.cpp ****       float x0y1z0 = ReadWave(x0, y1, z0, p_integral, p_fractional);
 1787              		.loc 1 195 7 is_stmt 1 view .LVU533
 1788              	.LBB639:
 1789              	.LBI355:
 101:mi/plaits/dsp/engine/wavetable_engine.cpp ****     int x,
 1790              		.loc 1 101 14 view .LVU534
 1791              	.LBB369:
 107:mi/plaits/dsp/engine/wavetable_engine.cpp ****       wave_map_[x + y * 8 + z * kNumWavesPerBank],
 1792              		.loc 1 107 3 view .LVU535
 1793              	.LBB362:
 1794              	.LBI357:
  75:mi/plaits/dsp/oscillator/wavetable_oscillator.h ****     const T* table,
 1795              		.loc 3 75 14 view .LVU536
 1796              	.LBB359:
  80:mi/plaits/dsp/oscillator/wavetable_oscillator.h ****   const float x1 = static_cast<float>(table[index_integral + 2]);
 1797              		.loc 3 80 15 is_stmt 0 view .LVU537
 1798 04aa 05EE909A 		vmov	s11, r9	@ int
  81:mi/plaits/dsp/oscillator/wavetable_oscillator.h ****   const float x2 = static_cast<float>(table[index_integral + 3]);
 1799              		.loc 3 81 15 view .LVU538
 1800 04ae 38F90190 		ldrsh	r9, [r8, r1]
  80:mi/plaits/dsp/oscillator/wavetable_oscillator.h ****   const float x1 = static_cast<float>(table[index_integral + 2]);
 1801              		.loc 3 80 15 view .LVU539
 1802 04b2 F8EEE55A 		vcvt.f32.s32	s11, s11
 1803              	.LVL92:
  81:mi/plaits/dsp/oscillator/wavetable_oscillator.h ****   const float x2 = static_cast<float>(table[index_integral + 3]);
 1804              		.loc 3 81 15 view .LVU540
 1805 04b6 06EE109A 		vmov	s12, r9	@ int
 1806              	.LVL93:
  79:mi/plaits/dsp/oscillator/wavetable_oscillator.h ****   const float x0 = static_cast<float>(table[index_integral + 1]);
 1807              		.loc 3 79 15 view .LVU541
 1808 04ba 38F91290 		ldrsh	r9, [r8, r2, lsl #1]
  82:mi/plaits/dsp/oscillator/wavetable_oscillator.h ****   const float c = (x1 - xm1) * 0.5f;
ARM GAS  /var/folders/9k/zk1mgrrd7wg4__6zvxvr9w8m0000gn/T//ccjZIkb1.s 			page 52


 1809              		.loc 3 82 15 view .LVU542
 1810 04be 38F90380 		ldrsh	r8, [r8, r3]
 1811              	.LVL94:
  81:mi/plaits/dsp/oscillator/wavetable_oscillator.h ****   const float x2 = static_cast<float>(table[index_integral + 3]);
 1812              		.loc 3 81 15 view .LVU543
 1813 04c2 B8EEC66A 		vcvt.f32.s32	s12, s12
 1814              	.LVL95:
  79:mi/plaits/dsp/oscillator/wavetable_oscillator.h ****   const float x0 = static_cast<float>(table[index_integral + 1]);
 1815              		.loc 3 79 15 view .LVU544
 1816 04c6 04EE909A 		vmov	s9, r9	@ int
 1817              	.LVL96:
  82:mi/plaits/dsp/oscillator/wavetable_oscillator.h ****   const float c = (x1 - xm1) * 0.5f;
 1818              		.loc 3 82 15 view .LVU545
 1819 04ca 0AEE908A 		vmov	s21, r8	@ int
 1820              	.LBE359:
 1821              	.LBE362:
 1822              	.LBE369:
 1823              	.LBE639:
 1824              	.LBB640:
 1825              	.LBB388:
 1826              	.LBB374:
 1827              	.LBB375:
  80:mi/plaits/dsp/oscillator/wavetable_oscillator.h ****   const float x1 = static_cast<float>(table[index_integral + 2]);
 1828              		.loc 3 80 15 view .LVU546
 1829 04ce 3EF90580 		ldrsh	r8, [lr, r5]
 1830              	.LBE375:
 1831              	.LBE374:
 1832              	.LBE388:
 1833              	.LBE640:
 1834              	.LBB641:
 1835              	.LBB370:
 1836              	.LBB363:
 1837              	.LBB360:
  79:mi/plaits/dsp/oscillator/wavetable_oscillator.h ****   const float x0 = static_cast<float>(table[index_integral + 1]);
 1838              		.loc 3 79 15 view .LVU547
 1839 04d2 F8EEE44A 		vcvt.f32.s32	s9, s9
  84:mi/plaits/dsp/oscillator/wavetable_oscillator.h ****   const float w = c + v;
 1840              		.loc 3 84 15 view .LVU548
 1841 04d6 35EEC6AA 		vsub.f32	s20, s11, s12
 1842              	.LVL97:
  82:mi/plaits/dsp/oscillator/wavetable_oscillator.h ****   const float c = (x1 - xm1) * 0.5f;
 1843              		.loc 3 82 15 view .LVU549
 1844 04da F8EEEAAA 		vcvt.f32.s32	s21, s21
  83:mi/plaits/dsp/oscillator/wavetable_oscillator.h ****   const float v = x0 - x1;
 1845              		.loc 3 83 23 view .LVU550
 1846 04de 76EE644A 		vsub.f32	s9, s12, s9
 1847              	.LVL98:
  85:mi/plaits/dsp/oscillator/wavetable_oscillator.h ****   const float a = w + v + (x2 - x0) * 0.5f;
 1848              		.loc 3 85 15 view .LVU551
 1849 04e2 B0EE4A6A 		vmov.f32	s12, s20
 1850              	.LVL99:
  86:mi/plaits/dsp/oscillator/wavetable_oscillator.h ****   const float b_neg = w + a;
 1851              		.loc 3 86 31 view .LVU552
 1852 04e6 7AEEE5AA 		vsub.f32	s21, s21, s11
  85:mi/plaits/dsp/oscillator/wavetable_oscillator.h ****   const float a = w + v + (x2 - x0) * 0.5f;
 1853              		.loc 3 85 15 view .LVU553
 1854 04ea A4EE876A 		vfma.f32	s12, s9, s14
ARM GAS  /var/folders/9k/zk1mgrrd7wg4__6zvxvr9w8m0000gn/T//ccjZIkb1.s 			page 53


 1855              	.LVL100:
  86:mi/plaits/dsp/oscillator/wavetable_oscillator.h ****   const float b_neg = w + a;
 1856              		.loc 3 86 21 view .LVU554
 1857 04ee 3AEE06AA 		vadd.f32	s20, s20, s12
 1858              	.LVL101:
  86:mi/plaits/dsp/oscillator/wavetable_oscillator.h ****   const float b_neg = w + a;
 1859              		.loc 3 86 15 view .LVU555
 1860 04f2 AAEE87AA 		vfma.f32	s20, s21, s14
 1861              	.LVL102:
  87:mi/plaits/dsp/oscillator/wavetable_oscillator.h ****   const float f = index_fractional;
 1862              		.loc 3 87 15 view .LVU556
 1863 04f6 36EE0A6A 		vadd.f32	s12, s12, s20
 1864              	.LVL103:
 1865              		.loc 3 89 20 view .LVU557
 1866 04fa 97EE8A6A 		vfnms.f32	s12, s15, s20
 1867              	.LVL104:
 1868              		.loc 3 89 29 view .LVU558
 1869 04fe 27EE866A 		vmul.f32	s12, s15, s12
 1870              		.loc 3 89 33 view .LVU559
 1871 0502 A4EE876A 		vfma.f32	s12, s9, s14
 1872              	.LBE360:
 1873              	.LBE363:
 1874              	.LBE370:
 1875              	.LBE641:
 1876              	.LBB642:
 1877              	.LBB389:
 1878              	.LBB381:
 1879              	.LBB376:
  80:mi/plaits/dsp/oscillator/wavetable_oscillator.h ****   const float x1 = static_cast<float>(table[index_integral + 2]);
 1880              		.loc 3 80 15 view .LVU560
 1881 0506 04EE908A 		vmov	s9, r8	@ int
 1882              	.LVL105:
  81:mi/plaits/dsp/oscillator/wavetable_oscillator.h ****   const float x2 = static_cast<float>(table[index_integral + 3]);
 1883              		.loc 3 81 15 view .LVU561
 1884 050a 3EF90180 		ldrsh	r8, [lr, r1]
  80:mi/plaits/dsp/oscillator/wavetable_oscillator.h ****   const float x1 = static_cast<float>(table[index_integral + 2]);
 1885              		.loc 3 80 15 view .LVU562
 1886 050e F8EEE44A 		vcvt.f32.s32	s9, s9
 1887              	.LBE376:
 1888              	.LBE381:
 1889              	.LBE389:
 1890              	.LBE642:
 1891              	.LBB643:
 1892              	.LBB371:
 1893              	.LBB364:
 1894              	.LBB361:
 1895              		.loc 3 89 44 view .LVU563
 1896 0512 E7EE865A 		vfma.f32	s11, s15, s12
 1897              	.LVL106:
 1898              		.loc 3 89 44 view .LVU564
 1899              	.LBE361:
 1900              	.LBE364:
 1901              	.LBE371:
 1902              	.LBE643:
 196:mi/plaits/dsp/engine/wavetable_engine.cpp ****       float x1y1z0 = ReadWave(x1, y1, z0, p_integral, p_fractional);
 1903              		.loc 1 196 7 is_stmt 1 view .LVU565
 1904              	.LBB644:
ARM GAS  /var/folders/9k/zk1mgrrd7wg4__6zvxvr9w8m0000gn/T//ccjZIkb1.s 			page 54


 1905              	.LBI372:
 101:mi/plaits/dsp/engine/wavetable_engine.cpp ****     int x,
 1906              		.loc 1 101 14 view .LVU566
 1907              	.LBB390:
 107:mi/plaits/dsp/engine/wavetable_engine.cpp ****       wave_map_[x + y * 8 + z * kNumWavesPerBank],
 1908              		.loc 1 107 3 view .LVU567
 1909              	.LBB382:
 1910              	.LBI374:
  75:mi/plaits/dsp/oscillator/wavetable_oscillator.h ****     const T* table,
 1911              		.loc 3 75 14 view .LVU568
 1912              	.LBB377:
  81:mi/plaits/dsp/oscillator/wavetable_oscillator.h ****   const float x2 = static_cast<float>(table[index_integral + 3]);
 1913              		.loc 3 81 15 is_stmt 0 view .LVU569
 1914 0516 06EE108A 		vmov	s12, r8	@ int
  79:mi/plaits/dsp/oscillator/wavetable_oscillator.h ****   const float x0 = static_cast<float>(table[index_integral + 1]);
 1915              		.loc 3 79 15 view .LVU570
 1916 051a 3EF91280 		ldrsh	r8, [lr, r2, lsl #1]
  81:mi/plaits/dsp/oscillator/wavetable_oscillator.h ****   const float x2 = static_cast<float>(table[index_integral + 3]);
 1917              		.loc 3 81 15 view .LVU571
 1918 051e B8EEC66A 		vcvt.f32.s32	s12, s12
 1919              	.LVL107:
  82:mi/plaits/dsp/oscillator/wavetable_oscillator.h ****   const float c = (x1 - xm1) * 0.5f;
 1920              		.loc 3 82 15 view .LVU572
 1921 0522 3EF903E0 		ldrsh	lr, [lr, r3]
 1922              	.LVL108:
  79:mi/plaits/dsp/oscillator/wavetable_oscillator.h ****   const float x0 = static_cast<float>(table[index_integral + 1]);
 1923              		.loc 3 79 15 view .LVU573
 1924 0526 0AEE108A 		vmov	s20, r8	@ int
  82:mi/plaits/dsp/oscillator/wavetable_oscillator.h ****   const float c = (x1 - xm1) * 0.5f;
 1925              		.loc 3 82 15 view .LVU574
 1926 052a 0BEE10EA 		vmov	s22, lr	@ int
 1927              	.LBE377:
 1928              	.LBE382:
 1929              	.LBE390:
 1930              	.LBE644:
 1931              	.LBB645:
 1932              	.LBB496:
 1933              	.LBB479:
 1934              	.LBB480:
  80:mi/plaits/dsp/oscillator/wavetable_oscillator.h ****   const float x1 = static_cast<float>(table[index_integral + 2]);
 1935              		.loc 3 80 15 view .LVU575
 1936 052e 3CF905E0 		ldrsh	lr, [ip, r5]
 1937              	.LBE480:
 1938              	.LBE479:
 1939              	.LBE496:
 1940              	.LBE645:
 1941              	.LBB646:
 1942              	.LBB391:
 1943              	.LBB383:
 1944              	.LBB378:
  84:mi/plaits/dsp/oscillator/wavetable_oscillator.h ****   const float w = c + v;
 1945              		.loc 3 84 15 view .LVU576
 1946 0532 74EEC6AA 		vsub.f32	s21, s9, s12
  79:mi/plaits/dsp/oscillator/wavetable_oscillator.h ****   const float x0 = static_cast<float>(table[index_integral + 1]);
 1947              		.loc 3 79 15 view .LVU577
 1948 0536 B8EECAAA 		vcvt.f32.s32	s20, s20
 1949              	.LBE378:
ARM GAS  /var/folders/9k/zk1mgrrd7wg4__6zvxvr9w8m0000gn/T//ccjZIkb1.s 			page 55


 1950              	.LBE383:
 1951              	.LBE391:
 1952              	.LBE646:
 1953              	.LBB647:
 1954              	.LBB497:
 1955              	.LBB488:
 1956              	.LBB481:
  80:mi/plaits/dsp/oscillator/wavetable_oscillator.h ****   const float x1 = static_cast<float>(table[index_integral + 2]);
 1957              		.loc 3 80 15 view .LVU578
 1958 053a 0BEE90EA 		vmov	s23, lr	@ int
 1959              	.LBE481:
 1960              	.LBE488:
 1961              	.LBE497:
 1962              	.LBE647:
 1963              	.LBB648:
 1964              	.LBB392:
 1965              	.LBB384:
 1966              	.LBB379:
  82:mi/plaits/dsp/oscillator/wavetable_oscillator.h ****   const float c = (x1 - xm1) * 0.5f;
 1967              		.loc 3 82 15 view .LVU579
 1968 053e B8EECBBA 		vcvt.f32.s32	s22, s22
 1969              	.LBE379:
 1970              	.LBE384:
 1971              	.LBE392:
 1972              	.LBE648:
 1973              	.LBB649:
 1974              	.LBB498:
 1975              	.LBB489:
 1976              	.LBB482:
  81:mi/plaits/dsp/oscillator/wavetable_oscillator.h ****   const float x2 = static_cast<float>(table[index_integral + 3]);
 1977              		.loc 3 81 15 view .LVU580
 1978 0542 3CF901E0 		ldrsh	lr, [ip, r1]
  80:mi/plaits/dsp/oscillator/wavetable_oscillator.h ****   const float x1 = static_cast<float>(table[index_integral + 2]);
 1979              		.loc 3 80 15 view .LVU581
 1980 0546 F8EEEBBA 		vcvt.f32.s32	s23, s23
 1981              	.LBE482:
 1982              	.LBE489:
 1983              	.LBE498:
 1984              	.LBE649:
 1985              	.LBB650:
 1986              	.LBB393:
 1987              	.LBB385:
 1988              	.LBB380:
  83:mi/plaits/dsp/oscillator/wavetable_oscillator.h ****   const float v = x0 - x1;
 1989              		.loc 3 83 23 view .LVU582
 1990 054a 36EE4AAA 		vsub.f32	s20, s12, s20
 1991              	.LVL109:
  85:mi/plaits/dsp/oscillator/wavetable_oscillator.h ****   const float a = w + v + (x2 - x0) * 0.5f;
 1992              		.loc 3 85 15 view .LVU583
 1993 054e B0EE6A6A 		vmov.f32	s12, s21
 1994              	.LVL110:
  86:mi/plaits/dsp/oscillator/wavetable_oscillator.h ****   const float b_neg = w + a;
 1995              		.loc 3 86 31 view .LVU584
 1996 0552 3BEE64BA 		vsub.f32	s22, s22, s9
  85:mi/plaits/dsp/oscillator/wavetable_oscillator.h ****   const float a = w + v + (x2 - x0) * 0.5f;
 1997              		.loc 3 85 15 view .LVU585
 1998 0556 AAEE076A 		vfma.f32	s12, s20, s14
ARM GAS  /var/folders/9k/zk1mgrrd7wg4__6zvxvr9w8m0000gn/T//ccjZIkb1.s 			page 56


 1999              	.LVL111:
  86:mi/plaits/dsp/oscillator/wavetable_oscillator.h ****   const float b_neg = w + a;
 2000              		.loc 3 86 21 view .LVU586
 2001 055a 7AEE86AA 		vadd.f32	s21, s21, s12
 2002              	.LVL112:
  86:mi/plaits/dsp/oscillator/wavetable_oscillator.h ****   const float b_neg = w + a;
 2003              		.loc 3 86 15 view .LVU587
 2004 055e EBEE07AA 		vfma.f32	s21, s22, s14
 2005              	.LVL113:
  87:mi/plaits/dsp/oscillator/wavetable_oscillator.h ****   const float f = index_fractional;
 2006              		.loc 3 87 15 view .LVU588
 2007 0562 36EE2A6A 		vadd.f32	s12, s12, s21
 2008              	.LVL114:
 2009              		.loc 3 89 20 view .LVU589
 2010 0566 97EEAA6A 		vfnms.f32	s12, s15, s21
 2011              	.LVL115:
 2012              		.loc 3 89 29 view .LVU590
 2013 056a 27EE866A 		vmul.f32	s12, s15, s12
 2014              		.loc 3 89 33 view .LVU591
 2015 056e AAEE076A 		vfma.f32	s12, s20, s14
 2016              		.loc 3 89 44 view .LVU592
 2017 0572 E7EE864A 		vfma.f32	s9, s15, s12
 2018              	.LVL116:
 2019              		.loc 3 89 44 view .LVU593
 2020              	.LBE380:
 2021              	.LBE385:
 2022              	.LBE393:
 2023              	.LBE650:
 197:mi/plaits/dsp/engine/wavetable_engine.cpp ****       float xy1z0 = x0y1z0 + (x1y1z0 - x0y1z0) * x_fractional;
 2024              		.loc 1 197 7 is_stmt 1 view .LVU594
 2025              	.LBB651:
 2026              	.LBB499:
 2027              	.LBB490:
 2028              	.LBB483:
  81:mi/plaits/dsp/oscillator/wavetable_oscillator.h ****   const float x2 = static_cast<float>(table[index_integral + 3]);
 2029              		.loc 3 81 15 is_stmt 0 view .LVU595
 2030 0576 06EE10EA 		vmov	s12, lr	@ int
  79:mi/plaits/dsp/oscillator/wavetable_oscillator.h ****   const float x0 = static_cast<float>(table[index_integral + 1]);
 2031              		.loc 3 79 15 view .LVU596
 2032 057a 3CF912E0 		ldrsh	lr, [ip, r2, lsl #1]
  81:mi/plaits/dsp/oscillator/wavetable_oscillator.h ****   const float x2 = static_cast<float>(table[index_integral + 3]);
 2033              		.loc 3 81 15 view .LVU597
 2034 057e B8EEC66A 		vcvt.f32.s32	s12, s12
  82:mi/plaits/dsp/oscillator/wavetable_oscillator.h ****   const float c = (x1 - xm1) * 0.5f;
 2035              		.loc 3 82 15 view .LVU598
 2036 0582 3CF903C0 		ldrsh	ip, [ip, r3]
 2037 0586 0AEE10CA 		vmov	s20, ip	@ int
 2038              	.LBE483:
 2039              	.LBE490:
 2040              	.LBE499:
 2041              	.LBE651:
 2042              	.LBB652:
 2043              	.LBB548:
 2044              	.LBB512:
 2045              	.LBB513:
  80:mi/plaits/dsp/oscillator/wavetable_oscillator.h ****   const float x1 = static_cast<float>(table[index_integral + 2]);
 2046              		.loc 3 80 15 view .LVU599
ARM GAS  /var/folders/9k/zk1mgrrd7wg4__6zvxvr9w8m0000gn/T//ccjZIkb1.s 			page 57


 2047 058a 37F905C0 		ldrsh	ip, [r7, r5]
 2048              	.LBE513:
 2049              	.LBE512:
 2050              	.LBE548:
 2051              	.LBE652:
 2052              		.loc 1 197 38 view .LVU600
 2053 058e 74EEE54A 		vsub.f32	s9, s9, s11
 2054              	.LVL117:
 2055              	.LBB653:
 2056              	.LBB549:
 2057              	.LBB530:
 2058              	.LBB514:
  80:mi/plaits/dsp/oscillator/wavetable_oscillator.h ****   const float x1 = static_cast<float>(table[index_integral + 2]);
 2059              		.loc 3 80 15 view .LVU601
 2060 0592 0DEE10CA 		vmov	s26, ip	@ int
 2061              	.LBE514:
 2062              	.LBE530:
 2063              	.LBE549:
 2064              	.LBE653:
 2065              	.LBB654:
 2066              	.LBB500:
 2067              	.LBB491:
 2068              	.LBB484:
  82:mi/plaits/dsp/oscillator/wavetable_oscillator.h ****   const float c = (x1 - xm1) * 0.5f;
 2069              		.loc 3 82 15 view .LVU602
 2070 0596 B8EECAAA 		vcvt.f32.s32	s20, s20
 2071              	.LBE484:
 2072              	.LBE491:
 2073              	.LBE500:
 2074              	.LBE654:
 2075              	.LBB655:
 2076              	.LBB550:
 2077              	.LBB531:
 2078              	.LBB515:
  81:mi/plaits/dsp/oscillator/wavetable_oscillator.h ****   const float x2 = static_cast<float>(table[index_integral + 3]);
 2079              		.loc 3 81 15 view .LVU603
 2080 059a 37F901C0 		ldrsh	ip, [r7, r1]
  80:mi/plaits/dsp/oscillator/wavetable_oscillator.h ****   const float x1 = static_cast<float>(table[index_integral + 2]);
 2081              		.loc 3 80 15 view .LVU604
 2082 059e B8EECDDA 		vcvt.f32.s32	s26, s26
 2083              	.LBE515:
 2084              	.LBE531:
 2085              	.LBE550:
 2086              	.LBE655:
 2087              		.loc 1 197 13 view .LVU605
 2088 05a2 E4EE855A 		vfma.f32	s11, s9, s10
 2089              	.LVL118:
 198:mi/plaits/dsp/engine/wavetable_engine.cpp **** 
 199:mi/plaits/dsp/engine/wavetable_engine.cpp ****       float xyz0 = xy0z0 + (xy1z0 - xy0z0) * y_fractional;
 2090              		.loc 1 199 7 is_stmt 1 view .LVU606
 2091              	.LBB656:
 2092              	.LBB501:
 2093              	.LBB492:
 2094              	.LBB485:
  84:mi/plaits/dsp/oscillator/wavetable_oscillator.h ****   const float w = c + v;
 2095              		.loc 3 84 15 is_stmt 0 view .LVU607
 2096 05a6 7BEEC64A 		vsub.f32	s9, s23, s12
ARM GAS  /var/folders/9k/zk1mgrrd7wg4__6zvxvr9w8m0000gn/T//ccjZIkb1.s 			page 58


  86:mi/plaits/dsp/oscillator/wavetable_oscillator.h ****   const float b_neg = w + a;
 2097              		.loc 3 86 31 view .LVU608
 2098 05aa 3AEE6BAA 		vsub.f32	s20, s20, s23
 2099              	.LBE485:
 2100              	.LBE492:
 2101              	.LBE501:
 2102              	.LBE656:
 2103              		.loc 1 199 35 view .LVU609
 2104 05ae 75EEE65A 		vsub.f32	s11, s11, s13
 2105              	.LVL119:
 2106              		.loc 1 199 13 view .LVU610
 2107 05b2 E5EE846A 		vfma.f32	s13, s11, s8
 2108              	.LVL120:
 200:mi/plaits/dsp/engine/wavetable_engine.cpp **** 
 201:mi/plaits/dsp/engine/wavetable_engine.cpp ****       float x0y0z1 = ReadWave(x0, y0, z1, p_integral, p_fractional);
 2109              		.loc 1 201 7 is_stmt 1 view .LVU611
 2110              	.LBB657:
 2111              	.LBI477:
 101:mi/plaits/dsp/engine/wavetable_engine.cpp ****     int x,
 2112              		.loc 1 101 14 view .LVU612
 2113              	.LBB502:
 107:mi/plaits/dsp/engine/wavetable_engine.cpp ****       wave_map_[x + y * 8 + z * kNumWavesPerBank],
 2114              		.loc 1 107 3 view .LVU613
 2115              	.LBB493:
 2116              	.LBI479:
  75:mi/plaits/dsp/oscillator/wavetable_oscillator.h ****     const T* table,
 2117              		.loc 3 75 14 view .LVU614
 2118              	.LBB486:
  79:mi/plaits/dsp/oscillator/wavetable_oscillator.h ****   const float x0 = static_cast<float>(table[index_integral + 1]);
 2119              		.loc 3 79 15 is_stmt 0 view .LVU615
 2120 05b6 05EE90EA 		vmov	s11, lr	@ int
 2121 05ba F8EEE55A 		vcvt.f32.s32	s11, s11
  83:mi/plaits/dsp/oscillator/wavetable_oscillator.h ****   const float v = x0 - x1;
 2122              		.loc 3 83 23 view .LVU616
 2123 05be 76EE655A 		vsub.f32	s11, s12, s11
 2124              	.LVL121:
  85:mi/plaits/dsp/oscillator/wavetable_oscillator.h ****   const float a = w + v + (x2 - x0) * 0.5f;
 2125              		.loc 3 85 15 view .LVU617
 2126 05c2 B0EE646A 		vmov.f32	s12, s9
 2127              	.LVL122:
  85:mi/plaits/dsp/oscillator/wavetable_oscillator.h ****   const float a = w + v + (x2 - x0) * 0.5f;
 2128              		.loc 3 85 15 view .LVU618
 2129 05c6 A5EE876A 		vfma.f32	s12, s11, s14
 2130              	.LVL123:
  86:mi/plaits/dsp/oscillator/wavetable_oscillator.h ****   const float b_neg = w + a;
 2131              		.loc 3 86 21 view .LVU619
 2132 05ca 74EE864A 		vadd.f32	s9, s9, s12
 2133              	.LVL124:
  86:mi/plaits/dsp/oscillator/wavetable_oscillator.h ****   const float b_neg = w + a;
 2134              		.loc 3 86 15 view .LVU620
 2135 05ce EAEE074A 		vfma.f32	s9, s20, s14
 2136              	.LVL125:
  87:mi/plaits/dsp/oscillator/wavetable_oscillator.h ****   const float f = index_fractional;
 2137              		.loc 3 87 15 view .LVU621
 2138 05d2 36EE246A 		vadd.f32	s12, s12, s9
 2139              	.LVL126:
 2140              		.loc 3 89 20 view .LVU622
ARM GAS  /var/folders/9k/zk1mgrrd7wg4__6zvxvr9w8m0000gn/T//ccjZIkb1.s 			page 59


 2141 05d6 97EEA46A 		vfnms.f32	s12, s15, s9
 2142              	.LVL127:
 2143              		.loc 3 89 29 view .LVU623
 2144 05da 27EE866A 		vmul.f32	s12, s15, s12
 2145              		.loc 3 89 33 view .LVU624
 2146 05de A5EE876A 		vfma.f32	s12, s11, s14
 2147              	.LBE486:
 2148              	.LBE493:
 2149              	.LBE502:
 2150              	.LBE657:
 2151              	.LBB658:
 2152              	.LBB551:
 2153              	.LBB532:
 2154              	.LBB516:
  81:mi/plaits/dsp/oscillator/wavetable_oscillator.h ****   const float x2 = static_cast<float>(table[index_integral + 3]);
 2155              		.loc 3 81 15 view .LVU625
 2156 05e2 05EE90CA 		vmov	s11, ip	@ int
 2157              	.LVL128:
  79:mi/plaits/dsp/oscillator/wavetable_oscillator.h ****   const float x0 = static_cast<float>(table[index_integral + 1]);
 2158              		.loc 3 79 15 view .LVU626
 2159 05e6 37F912C0 		ldrsh	ip, [r7, r2, lsl #1]
  81:mi/plaits/dsp/oscillator/wavetable_oscillator.h ****   const float x2 = static_cast<float>(table[index_integral + 3]);
 2160              		.loc 3 81 15 view .LVU627
 2161 05ea F8EEE55A 		vcvt.f32.s32	s11, s11
  79:mi/plaits/dsp/oscillator/wavetable_oscillator.h ****   const float x0 = static_cast<float>(table[index_integral + 1]);
 2162              		.loc 3 79 15 view .LVU628
 2163 05ee 0EEE10CA 		vmov	s28, ip	@ int
  82:mi/plaits/dsp/oscillator/wavetable_oscillator.h ****   const float c = (x1 - xm1) * 0.5f;
 2164              		.loc 3 82 15 view .LVU629
 2165 05f2 37F903C0 		ldrsh	ip, [r7, r3]
 2166              	.LBE516:
 2167              	.LBE532:
 2168              	.LBE551:
 2169              	.LBE658:
 2170              	.LBB659:
 2171              	.LBB454:
 107:mi/plaits/dsp/engine/wavetable_engine.cpp ****       wave_map_[x + y * 8 + z * kNumWavesPerBank],
 2172              		.loc 1 107 32 view .LVU630
 2173 05f6 039F     		ldr	r7, [sp, #12]
 2174              	.LBE454:
 2175              	.LBE659:
 2176              	.LBB660:
 2177              	.LBB552:
 2178              	.LBB533:
 2179              	.LBB517:
  84:mi/plaits/dsp/oscillator/wavetable_oscillator.h ****   const float w = c + v;
 2180              		.loc 3 84 15 view .LVU631
 2181 05f8 3DEE65FA 		vsub.f32	s30, s26, s11
  82:mi/plaits/dsp/oscillator/wavetable_oscillator.h ****   const float c = (x1 - xm1) * 0.5f;
 2182              		.loc 3 82 15 view .LVU632
 2183 05fc 0AEE10CA 		vmov	s20, ip	@ int
  79:mi/plaits/dsp/oscillator/wavetable_oscillator.h ****   const float x0 = static_cast<float>(table[index_integral + 1]);
 2184              		.loc 3 79 15 view .LVU633
 2185 0600 B8EECEEA 		vcvt.f32.s32	s28, s28
 2186              	.LBE517:
 2187              	.LBE533:
 2188              	.LBE552:
ARM GAS  /var/folders/9k/zk1mgrrd7wg4__6zvxvr9w8m0000gn/T//ccjZIkb1.s 			page 60


 2189              	.LBE660:
 2190              	.LBB661:
 2191              	.LBB607:
 2192              	.LBB569:
 2193              	.LBB570:
  80:mi/plaits/dsp/oscillator/wavetable_oscillator.h ****   const float x1 = static_cast<float>(table[index_integral + 2]);
 2194              		.loc 3 80 15 view .LVU634
 2195 0604 36F905C0 		ldrsh	ip, [r6, r5]
 2196              	.LBE570:
 2197              	.LBE569:
 2198              	.LBE607:
 2199              	.LBE661:
 2200              	.LBB662:
 2201              	.LBB503:
 2202              	.LBB494:
 2203              	.LBB487:
 2204              		.loc 3 89 44 view .LVU635
 2205 0608 E7EE86BA 		vfma.f32	s23, s15, s12
 2206              	.LVL129:
 2207              		.loc 3 89 44 view .LVU636
 2208              	.LBE487:
 2209              	.LBE494:
 2210              	.LBE503:
 2211              	.LBE662:
 202:mi/plaits/dsp/engine/wavetable_engine.cpp ****       float x1y0z1 = ReadWave(x1, y0, z1, p_integral, p_fractional);
 2212              		.loc 1 202 7 is_stmt 1 view .LVU637
 2213              	.LBB663:
 2214              	.LBI510:
 101:mi/plaits/dsp/engine/wavetable_engine.cpp ****     int x,
 2215              		.loc 1 101 14 view .LVU638
 2216              	.LBB553:
 107:mi/plaits/dsp/engine/wavetable_engine.cpp ****       wave_map_[x + y * 8 + z * kNumWavesPerBank],
 2217              		.loc 1 107 3 view .LVU639
 2218              	.LBB534:
 2219              	.LBI512:
  75:mi/plaits/dsp/oscillator/wavetable_oscillator.h ****     const T* table,
 2220              		.loc 3 75 14 view .LVU640
  75:mi/plaits/dsp/oscillator/wavetable_oscillator.h ****     const T* table,
 2221              		.loc 3 75 14 is_stmt 0 view .LVU641
 2222              	.LBE534:
 2223              	.LBE553:
 2224              	.LBE663:
 2225              	.LBB664:
 2226              	.LBB455:
 107:mi/plaits/dsp/engine/wavetable_engine.cpp ****       wave_map_[x + y * 8 + z * kNumWavesPerBank],
 2227              		.loc 1 107 32 view .LVU642
 2228 060c 54F82770 		ldr	r7, [r4, r7, lsl #2]
 2229              	.LBE455:
 2230              	.LBE664:
 2231              	.LBB665:
 2232              	.LBB554:
 2233              	.LBB535:
 2234              	.LBB518:
  85:mi/plaits/dsp/oscillator/wavetable_oscillator.h ****   const float a = w + v + (x2 - x0) * 0.5f;
 2235              		.loc 3 85 15 view .LVU643
 2236 0610 F0EE4FAA 		vmov.f32	s21, s30
 2237              	.LVL130:
ARM GAS  /var/folders/9k/zk1mgrrd7wg4__6zvxvr9w8m0000gn/T//ccjZIkb1.s 			page 61


  85:mi/plaits/dsp/oscillator/wavetable_oscillator.h ****   const float a = w + v + (x2 - x0) * 0.5f;
 2238              		.loc 3 85 15 view .LVU644
 2239              	.LBE518:
 2240              	.LBE535:
 2241              	.LBE554:
 2242              	.LBE665:
 2243              	.LBB666:
 2244              	.LBB608:
 2245              	.LBB588:
 2246              	.LBB571:
  80:mi/plaits/dsp/oscillator/wavetable_oscillator.h ****   const float x1 = static_cast<float>(table[index_integral + 2]);
 2247              		.loc 3 80 15 view .LVU645
 2248 0614 06EE10CA 		vmov	s12, ip	@ int
 2249              	.LBE571:
 2250              	.LBE588:
 2251              	.LBE608:
 2252              	.LBE666:
 2253              	.LBB667:
 2254              	.LBB555:
 2255              	.LBB536:
 2256              	.LBB519:
  83:mi/plaits/dsp/oscillator/wavetable_oscillator.h ****   const float v = x0 - x1;
 2257              		.loc 3 83 23 view .LVU646
 2258 0618 35EECEEA 		vsub.f32	s28, s11, s28
 2259              	.LVL131:
  83:mi/plaits/dsp/oscillator/wavetable_oscillator.h ****   const float v = x0 - x1;
 2260              		.loc 3 83 23 view .LVU647
 2261              	.LBE519:
 2262              	.LBE536:
 2263              	.LBE555:
 2264              	.LBE667:
 2265              	.LBB668:
 2266              	.LBB609:
 2267              	.LBB589:
 2268              	.LBB572:
  81:mi/plaits/dsp/oscillator/wavetable_oscillator.h ****   const float x2 = static_cast<float>(table[index_integral + 3]);
 2269              		.loc 3 81 15 view .LVU648
 2270 061c 36F901C0 		ldrsh	ip, [r6, r1]
  80:mi/plaits/dsp/oscillator/wavetable_oscillator.h ****   const float x1 = static_cast<float>(table[index_integral + 2]);
 2271              		.loc 3 80 15 view .LVU649
 2272 0620 B8EEC66A 		vcvt.f32.s32	s12, s12
 2273              	.LBE572:
 2274              	.LBE589:
 2275              	.LBE609:
 2276              	.LBE668:
 2277              	.LBB669:
 2278              	.LBB456:
 2279              	.LBB413:
 2280              	.LBB414:
 2281 0624 7D5F     		ldrsh	r5, [r7, r5]
  80:mi/plaits/dsp/oscillator/wavetable_oscillator.h ****   const float x1 = static_cast<float>(table[index_integral + 2]);
 2282              		.loc 3 80 15 view .LVU650
 2283              	.LBE414:
 2284              	.LBE413:
 2285              	.LBE456:
 2286              	.LBE669:
 2287              	.LBB670:
ARM GAS  /var/folders/9k/zk1mgrrd7wg4__6zvxvr9w8m0000gn/T//ccjZIkb1.s 			page 62


 2288              	.LBB610:
 2289              	.LBB590:
 2290              	.LBB573:
  81:mi/plaits/dsp/oscillator/wavetable_oscillator.h ****   const float x2 = static_cast<float>(table[index_integral + 3]);
 2291              		.loc 3 81 15 view .LVU651
 2292 0626 04EE90CA 		vmov	s9, ip	@ int
  79:mi/plaits/dsp/oscillator/wavetable_oscillator.h ****   const float x0 = static_cast<float>(table[index_integral + 1]);
 2293              		.loc 3 79 15 view .LVU652
 2294 062a 36F912C0 		ldrsh	ip, [r6, r2, lsl #1]
 2295              	.LBE573:
 2296              	.LBE590:
 2297              	.LBE610:
 2298              	.LBE670:
 2299              	.LBB671:
 2300              	.LBB556:
 2301              	.LBB537:
 2302              	.LBB520:
  85:mi/plaits/dsp/oscillator/wavetable_oscillator.h ****   const float a = w + v + (x2 - x0) * 0.5f;
 2303              		.loc 3 85 15 view .LVU653
 2304 062e EEEE07AA 		vfma.f32	s21, s28, s14
 2305              	.LVL132:
  85:mi/plaits/dsp/oscillator/wavetable_oscillator.h ****   const float a = w + v + (x2 - x0) * 0.5f;
 2306              		.loc 3 85 15 view .LVU654
 2307              	.LBE520:
 2308              	.LBE537:
 2309              	.LBE556:
 2310              	.LBE671:
 2311              	.LBB672:
 2312              	.LBB457:
 2313              	.LBB434:
 2314              	.LBB415:
  79:mi/plaits/dsp/oscillator/wavetable_oscillator.h ****   const float x0 = static_cast<float>(table[index_integral + 1]);
 2315              		.loc 3 79 15 view .LVU655
 2316 0632 37F91220 		ldrsh	r2, [r7, r2, lsl #1]
  79:mi/plaits/dsp/oscillator/wavetable_oscillator.h ****   const float x0 = static_cast<float>(table[index_integral + 1]);
 2317              		.loc 3 79 15 view .LVU656
 2318              	.LBE415:
 2319              	.LBE434:
 2320              	.LBE457:
 2321              	.LBE672:
 2322              	.LBB673:
 2323              	.LBB611:
 2324              	.LBB591:
 2325              	.LBB574:
  81:mi/plaits/dsp/oscillator/wavetable_oscillator.h ****   const float x2 = static_cast<float>(table[index_integral + 3]);
 2326              		.loc 3 81 15 view .LVU657
 2327 0636 F8EEE44A 		vcvt.f32.s32	s9, s9
  79:mi/plaits/dsp/oscillator/wavetable_oscillator.h ****   const float x0 = static_cast<float>(table[index_integral + 1]);
 2328              		.loc 3 79 15 view .LVU658
 2329 063a 0DEE90CA 		vmov	s27, ip	@ int
 2330              	.LBE574:
 2331              	.LBE591:
 2332              	.LBE611:
 2333              	.LBE673:
 2334              	.LBB674:
 2335              	.LBB557:
 2336              	.LBB538:
ARM GAS  /var/folders/9k/zk1mgrrd7wg4__6zvxvr9w8m0000gn/T//ccjZIkb1.s 			page 63


 2337              	.LBB521:
  82:mi/plaits/dsp/oscillator/wavetable_oscillator.h ****   const float c = (x1 - xm1) * 0.5f;
 2338              		.loc 3 82 15 view .LVU659
 2339 063e B8EECAAA 		vcvt.f32.s32	s20, s20
 2340              	.LBE521:
 2341              	.LBE538:
 2342              	.LBE557:
 2343              	.LBE674:
 2344              	.LBB675:
 2345              	.LBB458:
 2346              	.LBB435:
 2347              	.LBB416:
  81:mi/plaits/dsp/oscillator/wavetable_oscillator.h ****   const float x2 = static_cast<float>(table[index_integral + 3]);
 2348              		.loc 3 81 15 view .LVU660
 2349 0642 795E     		ldrsh	r1, [r7, r1]
  81:mi/plaits/dsp/oscillator/wavetable_oscillator.h ****   const float x2 = static_cast<float>(table[index_integral + 3]);
 2350              		.loc 3 81 15 view .LVU661
 2351              	.LBE416:
 2352              	.LBE435:
 2353              	.LBE458:
 2354              	.LBE675:
 2355              	.LBB676:
 2356              	.LBB612:
 2357              	.LBB592:
 2358              	.LBB575:
  79:mi/plaits/dsp/oscillator/wavetable_oscillator.h ****   const float x0 = static_cast<float>(table[index_integral + 1]);
 2359              		.loc 3 79 15 view .LVU662
 2360 0644 F8EEEDDA 		vcvt.f32.s32	s27, s27
 2361              	.LBE575:
 2362              	.LBE592:
 2363              	.LBE612:
 2364              	.LBE676:
 2365              	.LBB677:
 2366              	.LBB459:
 2367              	.LBB436:
 2368              	.LBB417:
 2369 0648 0CEE902A 		vmov	s25, r2	@ int
 2370              	.LBE417:
 2371              	.LBE436:
 2372              	.LBE459:
 2373              	.LBE677:
 2374              	.LBB678:
 2375              	.LBB613:
 2376              	.LBB593:
 2377              	.LBB576:
  84:mi/plaits/dsp/oscillator/wavetable_oscillator.h ****   const float w = c + v;
 2378              		.loc 3 84 15 view .LVU663
 2379 064c 76EE64EA 		vsub.f32	s29, s12, s9
  82:mi/plaits/dsp/oscillator/wavetable_oscillator.h ****   const float c = (x1 - xm1) * 0.5f;
 2380              		.loc 3 82 15 view .LVU664
 2381 0650 F25E     		ldrsh	r2, [r6, r3]
 2382              	.LBE576:
 2383              	.LBE593:
 2384              	.LBE613:
 2385              	.LBE678:
 2386              	.LBB679:
 2387              	.LBB558:
ARM GAS  /var/folders/9k/zk1mgrrd7wg4__6zvxvr9w8m0000gn/T//ccjZIkb1.s 			page 64


 2388              	.LBB539:
 2389              	.LBB522:
  86:mi/plaits/dsp/oscillator/wavetable_oscillator.h ****   const float b_neg = w + a;
 2390              		.loc 3 86 31 view .LVU665
 2391 0652 3AEE4DAA 		vsub.f32	s20, s20, s26
 2392              	.LBE522:
 2393              	.LBE539:
 2394              	.LBE558:
 2395              	.LBE679:
 2396              	.LBB680:
 2397              	.LBB460:
 2398              	.LBB437:
 2399              	.LBB418:
  80:mi/plaits/dsp/oscillator/wavetable_oscillator.h ****   const float x1 = static_cast<float>(table[index_integral + 2]);
 2400              		.loc 3 80 15 view .LVU666
 2401 0656 0CEE105A 		vmov	s24, r5	@ int
 2402              	.LBE418:
 2403              	.LBE437:
 2404              	.LBE460:
 2405              	.LBE680:
 2406              	.LBB681:
 2407              	.LBB559:
 2408              	.LBB540:
 2409              	.LBB523:
  86:mi/plaits/dsp/oscillator/wavetable_oscillator.h ****   const float b_neg = w + a;
 2410              		.loc 3 86 21 view .LVU667
 2411 065a 3FEE2AFA 		vadd.f32	s30, s30, s21
 2412              	.LVL133:
  86:mi/plaits/dsp/oscillator/wavetable_oscillator.h ****   const float b_neg = w + a;
 2413              		.loc 3 86 21 view .LVU668
 2414              	.LBE523:
 2415              	.LBE540:
 2416              	.LBE559:
 2417              	.LBE681:
 2418              	.LBB682:
 2419              	.LBB461:
 2420              	.LBB438:
 2421              	.LBB419:
  81:mi/plaits/dsp/oscillator/wavetable_oscillator.h ****   const float x2 = static_cast<float>(table[index_integral + 3]);
 2422              		.loc 3 81 15 view .LVU669
 2423 065e 05EE901A 		vmov	s11, r1	@ int
 2424              	.LVL134:
  81:mi/plaits/dsp/oscillator/wavetable_oscillator.h ****   const float x2 = static_cast<float>(table[index_integral + 3]);
 2425              		.loc 3 81 15 view .LVU670
 2426              	.LBE419:
 2427              	.LBE438:
 2428              	.LBE461:
 2429              	.LBE682:
 2430              	.LBB683:
 2431              	.LBB614:
 2432              	.LBB594:
 2433              	.LBB577:
  83:mi/plaits/dsp/oscillator/wavetable_oscillator.h ****   const float v = x0 - x1;
 2434              		.loc 3 83 23 view .LVU671
 2435 0662 74EEEDDA 		vsub.f32	s27, s9, s27
  82:mi/plaits/dsp/oscillator/wavetable_oscillator.h ****   const float c = (x1 - xm1) * 0.5f;
 2436              		.loc 3 82 15 view .LVU672
ARM GAS  /var/folders/9k/zk1mgrrd7wg4__6zvxvr9w8m0000gn/T//ccjZIkb1.s 			page 65


 2437 0666 04EE902A 		vmov	s9, r2	@ int
 2438              	.LBE577:
 2439              	.LBE594:
 2440              	.LBE614:
 2441              	.LBE683:
 2442              	.LBB684:
 2443              	.LBB462:
 2444              	.LBB439:
 2445              	.LBB420:
  80:mi/plaits/dsp/oscillator/wavetable_oscillator.h ****   const float x1 = static_cast<float>(table[index_integral + 2]);
 2446              		.loc 3 80 15 view .LVU673
 2447 066a B8EECCCA 		vcvt.f32.s32	s24, s24
  82:mi/plaits/dsp/oscillator/wavetable_oscillator.h ****   const float c = (x1 - xm1) * 0.5f;
 2448              		.loc 3 82 15 view .LVU674
 2449 066e FB5E     		ldrsh	r3, [r7, r3]
 2450              	.LVL135:
  82:mi/plaits/dsp/oscillator/wavetable_oscillator.h ****   const float c = (x1 - xm1) * 0.5f;
 2451              		.loc 3 82 15 view .LVU675
 2452              	.LBE420:
 2453              	.LBE439:
 2454              	.LBE462:
 2455              	.LBE684:
 2456              	.LBB685:
 2457              	.LBB560:
 2458              	.LBB541:
 2459              	.LBB524:
  86:mi/plaits/dsp/oscillator/wavetable_oscillator.h ****   const float b_neg = w + a;
 2460              		.loc 3 86 15 view .LVU676
 2461 0670 AAEE07FA 		vfma.f32	s30, s20, s14
 2462              	.LBE524:
 2463              	.LBE541:
 2464              	.LBE560:
 2465              	.LBE685:
 2466              	.LBB686:
 2467              	.LBB615:
 2468              	.LBB595:
 2469              	.LBB578:
  85:mi/plaits/dsp/oscillator/wavetable_oscillator.h ****   const float a = w + v + (x2 - x0) * 0.5f;
 2470              		.loc 3 85 15 view .LVU677
 2471 0674 B0EE6EAA 		vmov.f32	s20, s29
 2472              	.LBE578:
 2473              	.LBE595:
 2474              	.LBE615:
 2475              	.LBE686:
 2476              	.LBB687:
 2477              	.LBB463:
 2478              	.LBB440:
 2479              	.LBB421:
  82:mi/plaits/dsp/oscillator/wavetable_oscillator.h ****   const float c = (x1 - xm1) * 0.5f;
 2480              		.loc 3 82 15 view .LVU678
 2481 0678 0BEE103A 		vmov	s22, r3	@ int
  81:mi/plaits/dsp/oscillator/wavetable_oscillator.h ****   const float x2 = static_cast<float>(table[index_integral + 3]);
 2482              		.loc 3 81 15 view .LVU679
 2483 067c F8EEE55A 		vcvt.f32.s32	s11, s11
 2484              	.LBE421:
 2485              	.LBE440:
 2486              	.LBE463:
ARM GAS  /var/folders/9k/zk1mgrrd7wg4__6zvxvr9w8m0000gn/T//ccjZIkb1.s 			page 66


 2487              	.LBE687:
 203:mi/plaits/dsp/engine/wavetable_engine.cpp ****       float xy0z1 = x0y0z1 + (x1y0z1 - x0y0z1) * x_fractional;
 204:mi/plaits/dsp/engine/wavetable_engine.cpp **** 
 205:mi/plaits/dsp/engine/wavetable_engine.cpp ****       float x0y1z1 = ReadWave(x0, y1, z1, p_integral, p_fractional);
 206:mi/plaits/dsp/engine/wavetable_engine.cpp ****       float x1y1z1 = ReadWave(x1, y1, z1, p_integral, p_fractional);
 207:mi/plaits/dsp/engine/wavetable_engine.cpp ****       float xy1z1 = x0y1z1 + (x1y1z1 - x0y1z1) * x_fractional;
 208:mi/plaits/dsp/engine/wavetable_engine.cpp ****       
 209:mi/plaits/dsp/engine/wavetable_engine.cpp ****       float xyz1 = xy0z1 + (xy1z1 - xy0z1) * y_fractional;
 210:mi/plaits/dsp/engine/wavetable_engine.cpp **** 
 211:mi/plaits/dsp/engine/wavetable_engine.cpp ****       float mix = xyz0 + (xyz1 - xyz0) * z_fractional;
 212:mi/plaits/dsp/engine/wavetable_engine.cpp ****       mix = diff_out_.Process(cutoff, mix) * gain;
 213:mi/plaits/dsp/engine/wavetable_engine.cpp ****       *out++ = mix;
 2488              		.loc 1 213 14 view .LVU680
 2489 0680 019B     		ldr	r3, [sp, #4]
 2490              	.LBB688:
 2491              	.LBB464:
 2492              	.LBB441:
 2493              	.LBB422:
  79:mi/plaits/dsp/oscillator/wavetable_oscillator.h ****   const float x0 = static_cast<float>(table[index_integral + 1]);
 2494              		.loc 3 79 15 view .LVU681
 2495 0682 F8EEECCA 		vcvt.f32.s32	s25, s25
 2496              	.LBE422:
 2497              	.LBE441:
 2498              	.LBE464:
 2499              	.LBE688:
 2500              	.LBB689:
 2501              	.LBB616:
 2502              	.LBB596:
 2503              	.LBB579:
  85:mi/plaits/dsp/oscillator/wavetable_oscillator.h ****   const float a = w + v + (x2 - x0) * 0.5f;
 2504              		.loc 3 85 15 view .LVU682
 2505 0686 ADEE87AA 		vfma.f32	s20, s27, s14
  82:mi/plaits/dsp/oscillator/wavetable_oscillator.h ****   const float c = (x1 - xm1) * 0.5f;
 2506              		.loc 3 82 15 view .LVU683
 2507 068a F8EEE44A 		vcvt.f32.s32	s9, s9
 2508              	.LBE579:
 2509              	.LBE596:
 2510              	.LBE616:
 2511              	.LBE689:
 2512              	.LBB690:
 2513              	.LBB465:
 2514              	.LBB442:
 2515              	.LBB423:
  83:mi/plaits/dsp/oscillator/wavetable_oscillator.h ****   const float v = x0 - x1;
 2516              		.loc 3 83 23 view .LVU684
 2517 068e 75EEECCA 		vsub.f32	s25, s11, s25
 2518              	.LVL136:
  84:mi/plaits/dsp/oscillator/wavetable_oscillator.h ****   const float w = c + v;
 2519              		.loc 3 84 15 view .LVU685
 2520 0692 7CEE655A 		vsub.f32	s11, s24, s11
 2521              	.LBE423:
 2522              	.LBE442:
 2523              	.LBE465:
 2524              	.LBE690:
 2525              	.LBB691:
 2526              	.LBB617:
 2527              	.LBB597:
ARM GAS  /var/folders/9k/zk1mgrrd7wg4__6zvxvr9w8m0000gn/T//ccjZIkb1.s 			page 67


 2528              	.LBB580:
  86:mi/plaits/dsp/oscillator/wavetable_oscillator.h ****   const float b_neg = w + a;
 2529              		.loc 3 86 31 view .LVU686
 2530 0696 74EEC64A 		vsub.f32	s9, s9, s12
 2531              	.LBE580:
 2532              	.LBE597:
 2533              	.LBE617:
 2534              	.LBE691:
 2535              	.LBB692:
 2536              	.LBB466:
 2537              	.LBB443:
 2538              	.LBB424:
  82:mi/plaits/dsp/oscillator/wavetable_oscillator.h ****   const float c = (x1 - xm1) * 0.5f;
 2539              		.loc 3 82 15 view .LVU687
 2540 069a B8EECBBA 		vcvt.f32.s32	s22, s22
 2541              	.LBE424:
 2542              	.LBE443:
 2543              	.LBE466:
 2544              	.LBE692:
 2545              	.LBB693:
 2546              	.LBB618:
 2547              	.LBB598:
 2548              	.LBB581:
  86:mi/plaits/dsp/oscillator/wavetable_oscillator.h ****   const float b_neg = w + a;
 2549              		.loc 3 86 21 view .LVU688
 2550 069e 7EEE8AEA 		vadd.f32	s29, s29, s20
 2551              	.LBE581:
 2552              	.LBE598:
 2553              	.LBE618:
 2554              	.LBE693:
 2555              	.LBB694:
 2556              	.LBB561:
 2557              	.LBB542:
 2558              	.LBB525:
  87:mi/plaits/dsp/oscillator/wavetable_oscillator.h ****   const float f = index_fractional;
 2559              		.loc 3 87 15 view .LVU689
 2560 06a2 7AEE8FAA 		vadd.f32	s21, s21, s30
 2561              	.LVL137:
  87:mi/plaits/dsp/oscillator/wavetable_oscillator.h ****   const float f = index_fractional;
 2562              		.loc 3 87 15 view .LVU690
 2563              	.LBE525:
 2564              	.LBE542:
 2565              	.LBE561:
 2566              	.LBE694:
 2567              	.LBB695:
 2568              	.LBB467:
 2569              	.LBB444:
 2570              	.LBB425:
  86:mi/plaits/dsp/oscillator/wavetable_oscillator.h ****   const float b_neg = w + a;
 2571              		.loc 3 86 31 view .LVU691
 2572 06a6 3BEE4CBA 		vsub.f32	s22, s22, s24
 2573              	.LBE425:
 2574              	.LBE444:
 2575              	.LBE467:
 2576              	.LBE695:
 2577              	.LBB696:
 2578              	.LBB619:
ARM GAS  /var/folders/9k/zk1mgrrd7wg4__6zvxvr9w8m0000gn/T//ccjZIkb1.s 			page 68


 2579              	.LBB599:
 2580              	.LBB582:
  86:mi/plaits/dsp/oscillator/wavetable_oscillator.h ****   const float b_neg = w + a;
 2581              		.loc 3 86 15 view .LVU692
 2582 06aa E4EE87EA 		vfma.f32	s29, s9, s14
 2583              	.LBE582:
 2584              	.LBE599:
 2585              	.LBE619:
 2586              	.LBE696:
 2587              	.LBB697:
 2588              	.LBB468:
 2589              	.LBB445:
 2590              	.LBB426:
  85:mi/plaits/dsp/oscillator/wavetable_oscillator.h ****   const float a = w + v + (x2 - x0) * 0.5f;
 2591              		.loc 3 85 15 view .LVU693
 2592 06ae F0EE654A 		vmov.f32	s9, s11
 2593              	.LBE426:
 2594              	.LBE445:
 2595              	.LBE468:
 2596              	.LBE697:
 2597              	.LBB698:
 2598              	.LBB562:
 2599              	.LBB543:
 2600              	.LBB526:
 2601              		.loc 3 89 20 view .LVU694
 2602 06b2 D7EE8FAA 		vfnms.f32	s21, s15, s30
 2603              	.LVL138:
 2604              		.loc 3 89 20 view .LVU695
 2605              	.LBE526:
 2606              	.LBE543:
 2607              	.LBE562:
 2608              	.LBE698:
 2609              	.LBB699:
 2610              	.LBB469:
 2611              	.LBB446:
 2612              	.LBB427:
  85:mi/plaits/dsp/oscillator/wavetable_oscillator.h ****   const float a = w + v + (x2 - x0) * 0.5f;
 2613              		.loc 3 85 15 view .LVU696
 2614 06b6 ECEE874A 		vfma.f32	s9, s25, s14
 2615              	.LBE427:
 2616              	.LBE446:
 2617              	.LBE469:
 2618              	.LBE699:
 2619              	.LBB700:
 2620              	.LBB620:
 2621              	.LBB600:
 2622              	.LBB583:
  87:mi/plaits/dsp/oscillator/wavetable_oscillator.h ****   const float f = index_fractional;
 2623              		.loc 3 87 15 view .LVU697
 2624 06ba 3AEE2EAA 		vadd.f32	s20, s20, s29
 2625              	.LBE583:
 2626              	.LBE600:
 2627              	.LBE620:
 2628              	.LBE700:
 2629              	.LBB701:
 2630              	.LBB563:
 2631              	.LBB544:
ARM GAS  /var/folders/9k/zk1mgrrd7wg4__6zvxvr9w8m0000gn/T//ccjZIkb1.s 			page 69


 2632              	.LBB527:
 2633              		.loc 3 89 29 view .LVU698
 2634 06be 67EEAAAA 		vmul.f32	s21, s15, s21
 2635              	.LBE527:
 2636              	.LBE544:
 2637              	.LBE563:
 2638              	.LBE701:
 2639              	.LBB702:
 2640              	.LBB621:
 2641              	.LBB601:
 2642              	.LBB584:
 2643              		.loc 3 89 20 view .LVU699
 2644 06c2 97EEAEAA 		vfnms.f32	s20, s15, s29
 2645              	.LBE584:
 2646              	.LBE601:
 2647              	.LBE621:
 2648              	.LBE702:
 2649              	.LBB703:
 2650              	.LBB470:
 2651              	.LBB447:
 2652              	.LBB428:
  86:mi/plaits/dsp/oscillator/wavetable_oscillator.h ****   const float b_neg = w + a;
 2653              		.loc 3 86 21 view .LVU700
 2654 06c6 75EEA45A 		vadd.f32	s11, s11, s9
 2655              	.LBE428:
 2656              	.LBE447:
 2657              	.LBE470:
 2658              	.LBE703:
 2659              	.LBB704:
 2660              	.LBB564:
 2661              	.LBB545:
 2662              	.LBB528:
 2663              		.loc 3 89 33 view .LVU701
 2664 06ca EEEE07AA 		vfma.f32	s21, s28, s14
 2665              	.LBE528:
 2666              	.LBE545:
 2667              	.LBE564:
 2668              	.LBE704:
 2669              	.LBB705:
 2670              	.LBB471:
 2671              	.LBB448:
 2672              	.LBB429:
  86:mi/plaits/dsp/oscillator/wavetable_oscillator.h ****   const float b_neg = w + a;
 2673              		.loc 3 86 15 view .LVU702
 2674 06ce EBEE075A 		vfma.f32	s11, s22, s14
 2675              	.LBE429:
 2676              	.LBE448:
 2677              	.LBE471:
 2678              	.LBE705:
 2679              	.LBB706:
 2680              	.LBB707:
  52:mi/plaits/dsp/oscillator/wavetable_oscillator.h ****     previous_ = s;
 2681              		.loc 3 52 5 view .LVU703
 2682 06d2 90ED10BA 		vldr.32	s22, [r0, #64]
 2683              	.LBE707:
 2684              	.LBE706:
 2685              	.LBB711:
ARM GAS  /var/folders/9k/zk1mgrrd7wg4__6zvxvr9w8m0000gn/T//ccjZIkb1.s 			page 70


 2686              	.LBB622:
 2687              	.LBB602:
 2688              	.LBB585:
 2689              		.loc 3 89 29 view .LVU704
 2690 06d6 27EE8AAA 		vmul.f32	s20, s15, s20
 2691              	.LBE585:
 2692              	.LBE602:
 2693              	.LBE622:
 2694              	.LBE711:
 2695              	.LBB712:
 2696              	.LBB565:
 2697              	.LBB546:
 2698              	.LBB529:
 2699              		.loc 3 89 44 view .LVU705
 2700 06da A7EEAADA 		vfma.f32	s26, s15, s21
 2701              	.LVL139:
 2702              		.loc 3 89 44 view .LVU706
 2703              	.LBE529:
 2704              	.LBE546:
 2705              	.LBE565:
 2706              	.LBE712:
 2707              	.LBB713:
 2708              	.LBB623:
 2709              	.LBB603:
 2710              	.LBB586:
 2711              		.loc 3 89 33 view .LVU707
 2712 06de ADEE87AA 		vfma.f32	s20, s27, s14
 2713              	.LBE586:
 2714              	.LBE603:
 2715              	.LBE623:
 2716              	.LBE713:
 2717              	.LBB714:
 2718              	.LBB472:
 2719              	.LBB449:
 2720              	.LBB430:
  87:mi/plaits/dsp/oscillator/wavetable_oscillator.h ****   const float f = index_fractional;
 2721              		.loc 3 87 15 view .LVU708
 2722 06e2 74EEA54A 		vadd.f32	s9, s9, s11
 2723              	.LVL140:
  87:mi/plaits/dsp/oscillator/wavetable_oscillator.h ****   const float f = index_fractional;
 2724              		.loc 3 87 15 view .LVU709
 2725              	.LBE430:
 2726              	.LBE449:
 2727              	.LBE472:
 2728              	.LBE714:
 203:mi/plaits/dsp/engine/wavetable_engine.cpp **** 
 2729              		.loc 1 203 7 is_stmt 1 view .LVU710
 2730              	.LBB715:
 2731              	.LBB473:
 2732              	.LBB450:
 2733              	.LBB431:
 2734              		.loc 3 89 20 is_stmt 0 view .LVU711
 2735 06e6 D7EEA54A 		vfnms.f32	s9, s15, s11
 2736              	.LBE431:
 2737              	.LBE450:
 2738              	.LBE473:
 2739              	.LBE715:
ARM GAS  /var/folders/9k/zk1mgrrd7wg4__6zvxvr9w8m0000gn/T//ccjZIkb1.s 			page 71


 203:mi/plaits/dsp/engine/wavetable_engine.cpp **** 
 2740              		.loc 1 203 38 view .LVU712
 2741 06ea 3DEE6BDA 		vsub.f32	s26, s26, s23
 2742              	.LVL141:
 2743              	.LBB716:
 2744              	.LBB624:
 2745              	.LBB604:
 2746              	.LBB587:
 2747              		.loc 3 89 44 view .LVU713
 2748 06ee A7EE8A6A 		vfma.f32	s12, s15, s20
 2749              	.LBE587:
 2750              	.LBE604:
 2751              	.LBE624:
 2752              	.LBE716:
 2753              	.LBB717:
 2754              	.LBB474:
 2755              	.LBB451:
 2756              	.LBB432:
 2757              		.loc 3 89 29 view .LVU714
 2758 06f2 67EEA44A 		vmul.f32	s9, s15, s9
 2759              		.loc 3 89 33 view .LVU715
 2760 06f6 ECEE874A 		vfma.f32	s9, s25, s14
 2761              	.LBE432:
 2762              	.LBE451:
 2763              	.LBE474:
 2764              	.LBE717:
 203:mi/plaits/dsp/engine/wavetable_engine.cpp **** 
 2765              		.loc 1 203 13 view .LVU716
 2766 06fa B0EE6B7A 		vmov.f32	s14, s23
 203:mi/plaits/dsp/engine/wavetable_engine.cpp **** 
 2767              		.loc 1 203 13 view .LVU717
 2768 06fe ADEE057A 		vfma.f32	s14, s26, s10
 2769              	.LVL142:
 205:mi/plaits/dsp/engine/wavetable_engine.cpp ****       float x1y1z1 = ReadWave(x1, y1, z1, p_integral, p_fractional);
 2770              		.loc 1 205 7 is_stmt 1 view .LVU718
 2771              	.LBB718:
 2772              	.LBI567:
 101:mi/plaits/dsp/engine/wavetable_engine.cpp ****     int x,
 2773              		.loc 1 101 14 view .LVU719
 2774              	.LBB625:
 107:mi/plaits/dsp/engine/wavetable_engine.cpp ****       wave_map_[x + y * 8 + z * kNumWavesPerBank],
 2775              		.loc 1 107 3 view .LVU720
 2776              	.LBB605:
 2777              	.LBI569:
  75:mi/plaits/dsp/oscillator/wavetable_oscillator.h ****     const T* table,
 2778              		.loc 3 75 14 view .LVU721
  75:mi/plaits/dsp/oscillator/wavetable_oscillator.h ****     const T* table,
 2779              		.loc 3 75 14 is_stmt 0 view .LVU722
 2780              	.LBE605:
 2781              	.LBE625:
 2782              	.LBE718:
 206:mi/plaits/dsp/engine/wavetable_engine.cpp ****       float xy1z1 = x0y1z1 + (x1y1z1 - x0y1z1) * x_fractional;
 2783              		.loc 1 206 7 is_stmt 1 view .LVU723
 2784              	.LBB719:
 2785              	.LBI411:
 101:mi/plaits/dsp/engine/wavetable_engine.cpp ****     int x,
 2786              		.loc 1 101 14 view .LVU724
ARM GAS  /var/folders/9k/zk1mgrrd7wg4__6zvxvr9w8m0000gn/T//ccjZIkb1.s 			page 72


 2787              	.LBB475:
 107:mi/plaits/dsp/engine/wavetable_engine.cpp ****       wave_map_[x + y * 8 + z * kNumWavesPerBank],
 2788              		.loc 1 107 3 view .LVU725
 2789              	.LBB452:
 2790              	.LBI413:
  75:mi/plaits/dsp/oscillator/wavetable_oscillator.h ****     const T* table,
 2791              		.loc 3 75 14 view .LVU726
 2792              	.LBB433:
 2793              		.loc 3 89 44 is_stmt 0 view .LVU727
 2794 0702 A7EEA4CA 		vfma.f32	s24, s15, s9
 2795              	.LVL143:
 2796              		.loc 3 89 44 view .LVU728
 2797              	.LBE433:
 2798              	.LBE452:
 2799              	.LBE475:
 2800              	.LBE719:
 207:mi/plaits/dsp/engine/wavetable_engine.cpp ****       
 2801              		.loc 1 207 7 is_stmt 1 view .LVU729
 2802              	.LBB720:
 2803              	.LBB708:
  52:mi/plaits/dsp/oscillator/wavetable_oscillator.h ****     previous_ = s;
 2804              		.loc 3 52 5 is_stmt 0 view .LVU730
 2805 0706 D0ED117A 		vldr.32	s15, [r0, #68]
 2806              	.LVL144:
  52:mi/plaits/dsp/oscillator/wavetable_oscillator.h ****     previous_ = s;
 2807              		.loc 3 52 5 view .LVU731
 2808              	.LBE708:
 2809              	.LBE720:
 207:mi/plaits/dsp/engine/wavetable_engine.cpp ****       
 2810              		.loc 1 207 38 view .LVU732
 2811 070a 3CEE46CA 		vsub.f32	s24, s24, s12
 2812              	.LVL145:
 207:mi/plaits/dsp/engine/wavetable_engine.cpp ****       
 2813              		.loc 1 207 13 view .LVU733
 2814 070e ACEE056A 		vfma.f32	s12, s24, s10
 2815              	.LVL146:
 209:mi/plaits/dsp/engine/wavetable_engine.cpp **** 
 2816              		.loc 1 209 7 is_stmt 1 view .LVU734
 209:mi/plaits/dsp/engine/wavetable_engine.cpp **** 
 2817              		.loc 1 209 35 is_stmt 0 view .LVU735
 2818 0712 36EE476A 		vsub.f32	s12, s12, s14
 2819              	.LVL147:
 209:mi/plaits/dsp/engine/wavetable_engine.cpp **** 
 2820              		.loc 1 209 13 view .LVU736
 2821 0716 A6EE047A 		vfma.f32	s14, s12, s8
 2822              	.LVL148:
 211:mi/plaits/dsp/engine/wavetable_engine.cpp ****       mix = diff_out_.Process(cutoff, mix) * gain;
 2823              		.loc 1 211 7 is_stmt 1 view .LVU737
 211:mi/plaits/dsp/engine/wavetable_engine.cpp ****       mix = diff_out_.Process(cutoff, mix) * gain;
 2824              		.loc 1 211 32 is_stmt 0 view .LVU738
 2825 071a 37EE667A 		vsub.f32	s14, s14, s13
 2826              	.LVL149:
 211:mi/plaits/dsp/engine/wavetable_engine.cpp ****       mix = diff_out_.Process(cutoff, mix) * gain;
 2827              		.loc 1 211 13 view .LVU739
 2828 071e E7EE236A 		vfma.f32	s13, s14, s7
 2829              	.LVL150:
 212:mi/plaits/dsp/engine/wavetable_engine.cpp ****       *out++ = mix;
ARM GAS  /var/folders/9k/zk1mgrrd7wg4__6zvxvr9w8m0000gn/T//ccjZIkb1.s 			page 73


 2830              		.loc 1 212 7 is_stmt 1 view .LVU740
 2831              	.LBB721:
 2832              	.LBI706:
  51:mi/plaits/dsp/oscillator/wavetable_oscillator.h ****     ONE_POLE(lp_, s - previous_, coefficient);
 2833              		.loc 3 51 9 view .LVU741
 2834              	.LBB709:
  52:mi/plaits/dsp/oscillator/wavetable_oscillator.h ****     previous_ = s;
 2835              		.loc 3 52 5 view .LVU742
 2836 0722 76EEE77A 		vsub.f32	s15, s13, s15
  53:mi/plaits/dsp/oscillator/wavetable_oscillator.h ****     return lp_;
 2837              		.loc 3 53 15 is_stmt 0 view .LVU743
 2838 0726 C0ED116A 		vstr.32	s13, [r0, #68]
  52:mi/plaits/dsp/oscillator/wavetable_oscillator.h ****     previous_ = s;
 2839              		.loc 3 52 5 view .LVU744
 2840 072a 77EECB7A 		vsub.f32	s15, s15, s22
 2841 072e A2EEA7BA 		vfma.f32	s22, s5, s15
 2842              	.LBE709:
 2843              	.LBE721:
 212:mi/plaits/dsp/engine/wavetable_engine.cpp ****       *out++ = mix;
 2844              		.loc 1 212 11 view .LVU745
 2845 0732 23EE0B3A 		vmul.f32	s6, s6, s22
 2846              	.LVL151:
 2847              	.LBB722:
 2848              	.LBB710:
  52:mi/plaits/dsp/oscillator/wavetable_oscillator.h ****     previous_ = s;
 2849              		.loc 3 52 5 view .LVU746
 2850 0736 80ED10BA 		vstr.32	s22, [r0, #64]
  52:mi/plaits/dsp/oscillator/wavetable_oscillator.h ****     previous_ = s;
 2851              		.loc 3 52 46 is_stmt 1 view .LVU747
  53:mi/plaits/dsp/oscillator/wavetable_oscillator.h ****     return lp_;
 2852              		.loc 3 53 5 view .LVU748
  54:mi/plaits/dsp/oscillator/wavetable_oscillator.h ****   }
 2853              		.loc 3 54 5 view .LVU749
 2854              	.LVL152:
  54:mi/plaits/dsp/oscillator/wavetable_oscillator.h ****   }
 2855              		.loc 3 54 5 is_stmt 0 view .LVU750
 2856              	.LBE710:
 2857              	.LBE722:
 2858              		.loc 1 213 7 is_stmt 1 view .LVU751
 214:mi/plaits/dsp/engine/wavetable_engine.cpp ****       *aux++ = static_cast<float>(static_cast<int>(mix * 32.0f)) / 32.0f;
 2859              		.loc 1 214 35 is_stmt 0 view .LVU752
 2860 073a F0EE437A 		vmov.f32	s15, s6
 213:mi/plaits/dsp/engine/wavetable_engine.cpp ****       *aux++ = static_cast<float>(static_cast<int>(mix * 32.0f)) / 32.0f;
 2861              		.loc 1 213 14 view .LVU753
 2862 073e A3EC013A 		vstmia.32	r3!, {s6}
 2863              	.LVL153:
 213:mi/plaits/dsp/engine/wavetable_engine.cpp ****       *aux++ = static_cast<float>(static_cast<int>(mix * 32.0f)) / 32.0f;
 2864              		.loc 1 213 14 view .LVU754
 2865 0742 0193     		str	r3, [sp, #4]
 2866              		.loc 1 214 7 is_stmt 1 view .LVU755
 2867              	.LVL154:
 2868              		.loc 1 214 14 is_stmt 0 view .LVU756
 2869 0744 029B     		ldr	r3, [sp, #8]
 2870              	.LVL155:
 2871              		.loc 1 214 35 view .LVU757
 2872 0746 FEEEED7A 		vcvt.s32.f32	s15, s15, #5
 2873              		.loc 1 214 66 view .LVU758
ARM GAS  /var/folders/9k/zk1mgrrd7wg4__6zvxvr9w8m0000gn/T//ccjZIkb1.s 			page 74


 2874 074a FAEEED7A 		vcvt.f32.s32	s15, s15, #5
 2875              		.loc 1 214 14 view .LVU759
 2876 074e E3EC017A 		vstmia.32	r3!, {s15}
 2877              	.LVL156:
 2878              		.loc 1 214 14 view .LVU760
 2879 0752 0293     		str	r3, [sp, #8]
 2880              	.LVL157:
 2881              		.loc 1 214 14 view .LVU761
 2882              	.LBE757:
 2883              	.LBE760:
 150:mi/plaits/dsp/engine/wavetable_engine.cpp ****     const float f0 = f0_modulation.Next();
 2884              		.loc 1 150 3 is_stmt 1 view .LVU762
 150:mi/plaits/dsp/engine/wavetable_engine.cpp ****     const float f0 = f0_modulation.Next();
 2885              		.loc 1 150 14 view .LVU763
 150:mi/plaits/dsp/engine/wavetable_engine.cpp ****     const float f0 = f0_modulation.Next();
 2886              		.loc 1 150 14 is_stmt 0 view .LVU764
 2887 0754 009B     		ldr	r3, [sp]
 2888              	.LVL158:
 150:mi/plaits/dsp/engine/wavetable_engine.cpp ****     const float f0 = f0_modulation.Next();
 2889              		.loc 1 150 14 view .LVU765
 2890 0756 0133     		adds	r3, r3, #1
 2891 0758 7FF492AD 		bne	.L43
 2892              	.LVL159:
 2893              	.L37:
 2894              	.LBB761:
 2895              	.LBI761:
  49:mi/stmlib/dsp/parameter_interpolator.h ****     *state_ = value_;
 2896              		.loc 7 49 3 is_stmt 1 view .LVU766
 2897              	.LBB762:
  50:mi/stmlib/dsp/parameter_interpolator.h ****   }
 2898              		.loc 7 50 5 view .LVU767
  50:mi/stmlib/dsp/parameter_interpolator.h ****   }
 2899              		.loc 7 50 13 is_stmt 0 view .LVU768
 2900 075c 80ED0E2A 		vstr.32	s4, [r0, #56]
 2901              	.LVL160:
  50:mi/stmlib/dsp/parameter_interpolator.h ****   }
 2902              		.loc 7 50 13 view .LVU769
 2903              	.LBE762:
 2904              	.LBE761:
 2905              	.LBB763:
 2906              	.LBI763:
  49:mi/stmlib/dsp/parameter_interpolator.h ****     *state_ = value_;
 2907              		.loc 7 49 3 is_stmt 1 view .LVU770
 2908              	.LBB764:
  50:mi/stmlib/dsp/parameter_interpolator.h ****   }
 2909              		.loc 7 50 5 view .LVU771
  50:mi/stmlib/dsp/parameter_interpolator.h ****   }
 2910              		.loc 7 50 13 is_stmt 0 view .LVU772
 2911 0760 80ED0D0A 		vstr.32	s0, [r0, #52]
 2912              	.LVL161:
  50:mi/stmlib/dsp/parameter_interpolator.h ****   }
 2913              		.loc 7 50 13 view .LVU773
 2914              	.LBE764:
 2915              	.LBE763:
 2916              	.LBB765:
 2917              	.LBI765:
  49:mi/stmlib/dsp/parameter_interpolator.h ****     *state_ = value_;
ARM GAS  /var/folders/9k/zk1mgrrd7wg4__6zvxvr9w8m0000gn/T//ccjZIkb1.s 			page 75


 2918              		.loc 7 49 3 is_stmt 1 view .LVU774
 2919              	.LBB766:
  50:mi/stmlib/dsp/parameter_interpolator.h ****   }
 2920              		.loc 7 50 5 view .LVU775
  50:mi/stmlib/dsp/parameter_interpolator.h ****   }
 2921              		.loc 7 50 13 is_stmt 0 view .LVU776
 2922 0764 C0ED0C0A 		vstr.32	s1, [r0, #48]
 2923              	.LVL162:
  50:mi/stmlib/dsp/parameter_interpolator.h ****   }
 2924              		.loc 7 50 13 view .LVU777
 2925              	.LBE766:
 2926              	.LBE765:
 2927              	.LBB767:
 2928              	.LBI767:
  49:mi/stmlib/dsp/parameter_interpolator.h ****     *state_ = value_;
 2929              		.loc 7 49 3 is_stmt 1 view .LVU778
 2930              	.LBB768:
  50:mi/stmlib/dsp/parameter_interpolator.h ****   }
 2931              		.loc 7 50 5 view .LVU779
  50:mi/stmlib/dsp/parameter_interpolator.h ****   }
 2932              		.loc 7 50 13 is_stmt 0 view .LVU780
 2933 0768 80ED0B1A 		vstr.32	s2, [r0, #44]
 2934              	.LVL163:
  50:mi/stmlib/dsp/parameter_interpolator.h ****   }
 2935              		.loc 7 50 13 view .LVU781
 2936              	.LBE768:
 2937              	.LBE767:
 215:mi/plaits/dsp/engine/wavetable_engine.cpp ****     }
 216:mi/plaits/dsp/engine/wavetable_engine.cpp ****   }
 217:mi/plaits/dsp/engine/wavetable_engine.cpp **** }
 2938              		.loc 1 217 1 view .LVU782
 2939 076c 05B0     		add	sp, sp, #20
 2940              		.cfi_remember_state
 2941              		.cfi_def_cfa_offset 100
 2942              		@ sp needed
 2943 076e BDEC108B 		vldm	sp!, {d8-d15}
 2944              		.cfi_restore 94
 2945              		.cfi_restore 95
 2946              		.cfi_restore 92
 2947              		.cfi_restore 93
 2948              		.cfi_restore 90
 2949              		.cfi_restore 91
 2950              		.cfi_restore 88
 2951              		.cfi_restore 89
 2952              		.cfi_restore 86
 2953              		.cfi_restore 87
 2954              		.cfi_restore 84
 2955              		.cfi_restore 85
 2956              		.cfi_restore 82
 2957              		.cfi_restore 83
 2958              		.cfi_restore 80
 2959              		.cfi_restore 81
 2960              		.cfi_def_cfa_offset 36
 2961              	.LVL164:
 2962              		.loc 1 217 1 view .LVU783
 2963 0772 BDE8F08F 		pop	{r4, r5, r6, r7, r8, r9, r10, fp, pc}
 2964              	.LVL165:
ARM GAS  /var/folders/9k/zk1mgrrd7wg4__6zvxvr9w8m0000gn/T//ccjZIkb1.s 			page 76


 2965              	.L63:
 2966              		.cfi_restore_state
 2967              	.LBB769:
 2968              	.LBB219:
 2969              	.LBB206:
 2970              	.LBB198:
  41:mi/stmlib/dsp/units.h ****   MAKE_INTEGRAL_FRACTIONAL(pitch)
 2971              		.loc 5 41 9 view .LVU784
 2972 0776 9FED0F7A 		vldr.32	s14, .L69
 2973 077a 77EE877A 		vadd.f32	s15, s15, s14
 2974              	.LVL166:
  42:mi/stmlib/dsp/units.h **** 
 2975              		.loc 5 42 3 view .LVU785
 2976 077e BDEEE77A 		vcvt.s32.f32	s14, s15
 2977 0782 17EE104A 		vmov	r4, s14	@ int
 2978 0786 B8EEC77A 		vcvt.f32.s32	s14, s14
 2979 078a 77EEC77A 		vsub.f32	s15, s15, s14
 2980              		.loc 5 45 27 view .LVU786
 2981 078e B0EE677A 		vmov.f32	s14, s15
 2982 0792 BEEECC7A 		vcvt.s32.f32	s14, s14, #8
 2983 0796 17EE103A 		vmov	r3, s14	@ int
 2984              	.LVL167:
 2985              		.loc 5 45 27 view .LVU787
 2986 079a 53E4     		b	.L29
 2987              	.LVL168:
 2988              	.L66:
 2989              		.loc 5 45 27 view .LVU788
 2990              	.LBE198:
 2991              	.LBE206:
 2992              	.LBE219:
 2993              	.LBE769:
 2994              	.LBB770:
 2995              	.LBB271:
  97:mi/plaits/dsp/engine/wavetable_engine.cpp ****   return x;
 2996              		.loc 1 97 5 view .LVU789
 2997 079c 75EEA45A 		vadd.f32	s11, s11, s9
 2998              	.LVL169:
  97:mi/plaits/dsp/engine/wavetable_engine.cpp ****   return x;
 2999              		.loc 1 97 5 view .LVU790
 3000 07a0 40E5     		b	.L36
 3001              	.LVL170:
 3002              	.L65:
  97:mi/plaits/dsp/engine/wavetable_engine.cpp ****   return x;
 3003              		.loc 1 97 5 view .LVU791
 3004              	.LBE271:
 3005              	.LBE770:
 3006              	.LBB771:
 3007              	.LBB264:
 3008 07a2 35EE855A 		vadd.f32	s10, s11, s10
 3009 07a6 02E5     		b	.L35
 3010              	.LVL171:
 3011              	.L64:
  97:mi/plaits/dsp/engine/wavetable_engine.cpp ****   return x;
 3012              		.loc 1 97 5 view .LVU792
 3013              	.LBE264:
 3014              	.LBE771:
 3015              	.LBB772:
ARM GAS  /var/folders/9k/zk1mgrrd7wg4__6zvxvr9w8m0000gn/T//ccjZIkb1.s 			page 77


 3016              	.LBB255:
 3017 07a8 75EEA44A 		vadd.f32	s9, s11, s9
 3018 07ac E1E4     		b	.L34
 3019              	.LVL172:
 3020              	.L48:
  97:mi/plaits/dsp/engine/wavetable_engine.cpp ****   return x;
 3021              		.loc 1 97 5 view .LVU793
 3022              	.LBE255:
 3023              	.LBE772:
 3024              	.LBB773:
 3025              	.LBB245:
 3026 07ae F0EE461A 		vmov.f32	s3, s12
 3027 07b2 B2E4     		b	.L32
 3028              	.L70:
 3029              		.align	2
 3030              	.L69:
 3031 07b4 00000043 		.word	1124073472
 3032              	.LBE245:
 3033              	.LBE773:
 3034              		.cfi_endproc
 3035              	.LFE1496:
 3037              		.global	_ZTVN6plaits15WavetableEngineE
 3038              		.section	.rodata._ZTVN6plaits15WavetableEngineE,"a"
 3039              		.align	2
 3042              	_ZTVN6plaits15WavetableEngineE:
 3043 0000 00000000 		.word	0
 3044 0004 00000000 		.word	0
 3045 0008 00000000 		.word	_ZN6plaits15WavetableEngine4InitEPN6stmlib15BufferAllocatorE
 3046 000c 00000000 		.word	_ZN6plaits15WavetableEngine5ResetEv
 3047 0010 00000000 		.word	_ZN6plaits15WavetableEngine12LoadUserDataEPKh
 3048 0014 00000000 		.word	_ZN6plaits15WavetableEngine6RenderERKNS_16EngineParametersEPfS4_jPb
 3049              		.text
 3050              	.Letext0:
 3051              		.file 8 "/Library/DaisyToolchain/0.2.0/arm/arm-none-eabi/include/machine/_default_types.h"
 3052              		.file 9 "/Library/DaisyToolchain/0.2.0/arm/arm-none-eabi/include/sys/_stdint.h"
 3053              		.file 10 "/Library/DaisyToolchain/0.2.0/arm/lib/gcc/arm-none-eabi/10.3.1/include/stddef.h"
 3054              		.file 11 "/Library/DaisyToolchain/0.2.0/arm/arm-none-eabi/include/c++/10.3.1/cmath"
 3055              		.file 12 "/Library/DaisyToolchain/0.2.0/arm/arm-none-eabi/include/c++/10.3.1/bits/std_abs.h"
 3056              		.file 13 "/Library/DaisyToolchain/0.2.0/arm/arm-none-eabi/include/c++/10.3.1/type_traits"
 3057              		.file 14 "/Library/DaisyToolchain/0.2.0/arm/arm-none-eabi/include/c++/10.3.1/debug/debug.h"
 3058              		.file 15 "/Library/DaisyToolchain/0.2.0/arm/arm-none-eabi/include/c++/10.3.1/cstdlib"
 3059              		.file 16 "/Library/DaisyToolchain/0.2.0/arm/arm-none-eabi/include/c++/10.3.1/arm-none-eabi/thumb/v
 3060              		.file 17 "/Library/DaisyToolchain/0.2.0/arm/arm-none-eabi/include/c++/10.3.1/bits/algorithmfwd.h"
 3061              		.file 18 "/Library/DaisyToolchain/0.2.0/arm/arm-none-eabi/include/c++/10.3.1/bits/stl_pair.h"
 3062              		.file 19 "/Library/DaisyToolchain/0.2.0/arm/arm-none-eabi/include/c++/10.3.1/bits/exception_ptr.h"
 3063              		.file 20 "/Library/DaisyToolchain/0.2.0/arm/arm-none-eabi/include/c++/10.3.1/bits/predefined_ops.h
 3064              		.file 21 "/Library/DaisyToolchain/0.2.0/arm/arm-none-eabi/include/math.h"
 3065              		.file 22 "/Library/DaisyToolchain/0.2.0/arm/arm-none-eabi/include/stdlib.h"
 3066              		.file 23 "/Library/DaisyToolchain/0.2.0/arm/arm-none-eabi/include/c++/10.3.1/math.h"
 3067              		.file 24 "mi/stmlib/stmlib.h"
 3068              		.file 25 "mi/plaits/dsp/dsp.h"
 3069              		.file 26 "mi/plaits/dsp/oscillator/oscillator.h"
 3070              		.file 27 "mi/plaits/resources.h"
 3071              		.file 28 "mi/plaits/dsp/engine/wavetable_engine.h"
 3072              		.file 29 "<built-in>"
ARM GAS  /var/folders/9k/zk1mgrrd7wg4__6zvxvr9w8m0000gn/T//ccjZIkb1.s 			page 78

